ARM GAS  /tmp/ccoBYq2X.s 			page 1


   1              		.cpu cortex-m0
   2              		.fpu softvfp
   3              		.eabi_attribute 20, 1	@ Tag_ABI_FP_denormal
   4              		.eabi_attribute 21, 1	@ Tag_ABI_FP_exceptions
   5              		.eabi_attribute 23, 3	@ Tag_ABI_FP_number_model
   6              		.eabi_attribute 24, 1	@ Tag_ABI_align8_needed
   7              		.eabi_attribute 25, 1	@ Tag_ABI_align8_preserved
   8              		.eabi_attribute 26, 1	@ Tag_ABI_enum_size
   9              		.eabi_attribute 30, 2	@ Tag_ABI_optimization_goals
  10              		.eabi_attribute 34, 0	@ Tag_CPU_unaligned_access
  11              		.eabi_attribute 18, 4	@ Tag_ABI_PCS_wchar_t
  12              		.file	"adc_11xx.c"
  13              	@ GNU C (GNU Tools for ARM Embedded Processors) version 4.9.3 20150303 (release) [ARM/embedded-4_9-
  14              	@	compiled by GNU C version 4.8.2, GMP version 5.1.3, MPFR version 3.1.2-p3, MPC version 1.0.1
  15              	@ GGC heuristics: --param ggc-min-expand=100 --param ggc-min-heapsize=131072
  16              	@ options passed:  -I . -I ../lpc11cx4-library/lpc_chip_11cxx_lib/inc
  17              	@ -I ../lpc11cx4-library/evt_lib/inc -I inc -imultilib armv6-m
  18              	@ -iprefix /usr/bin/../lib/gcc/arm-none-eabi/4.9.3/
  19              	@ -isysroot /usr/bin/../arm-none-eabi -MD bin/adc_11xx.d -MF bin/adc_11xx.d
  20              	@ -MP -MQ bin/adc_11xx.o -D__USES_INITFINI__ -D CORE_M0
  21              	@ ../lpc11cx4-library/lpc_chip_11cxx_lib/src/adc_11xx.c -mcpu=cortex-m0
  22              	@ -mthumb -auxbase-strip bin/adc_11xx.o -g -ggdb3 -O2 -Wall
  23              	@ -Wstrict-prototypes -Wextra -std=gnu90 -ffunction-sections
  24              	@ -fdata-sections -fverbose-asm
  25              	@ options enabled:  -faggressive-loop-optimizations -fauto-inc-dec
  26              	@ -fbranch-count-reg -fcaller-saves -fcombine-stack-adjustments -fcommon
  27              	@ -fcompare-elim -fcprop-registers -fcrossjumping -fcse-follow-jumps
  28              	@ -fdata-sections -fdefer-pop -fdelete-null-pointer-checks -fdevirtualize
  29              	@ -fdevirtualize-speculatively -fdwarf2-cfi-asm -fearly-inlining
  30              	@ -feliminate-unused-debug-types -fexpensive-optimizations
  31              	@ -fforward-propagate -ffunction-cse -ffunction-sections -fgcse -fgcse-lm
  32              	@ -fgnu-runtime -fgnu-unique -fguess-branch-probability
  33              	@ -fhoist-adjacent-loads -fident -fif-conversion -fif-conversion2
  34              	@ -findirect-inlining -finline -finline-atomics
  35              	@ -finline-functions-called-once -finline-small-functions -fipa-cp
  36              	@ -fipa-profile -fipa-pure-const -fipa-reference -fipa-sra
  37              	@ -fira-hoist-pressure -fira-share-save-slots -fira-share-spill-slots
  38              	@ -fisolate-erroneous-paths-dereference -fivopts -fkeep-static-consts
  39              	@ -fleading-underscore -flifetime-dse -fmath-errno -fmerge-constants
  40              	@ -fmerge-debug-strings -fmove-loop-invariants -fomit-frame-pointer
  41              	@ -foptimize-sibling-calls -foptimize-strlen -fpartial-inlining -fpeephole
  42              	@ -fpeephole2 -fprefetch-loop-arrays -freg-struct-return -freorder-blocks
  43              	@ -freorder-functions -frerun-cse-after-loop
  44              	@ -fsched-critical-path-heuristic -fsched-dep-count-heuristic
  45              	@ -fsched-group-heuristic -fsched-interblock -fsched-last-insn-heuristic
  46              	@ -fsched-pressure -fsched-rank-heuristic -fsched-spec
  47              	@ -fsched-spec-insn-heuristic -fsched-stalled-insns-dep -fschedule-insns2
  48              	@ -fsection-anchors -fshow-column -fshrink-wrap -fsigned-zeros
  49              	@ -fsplit-ivs-in-unroller -fsplit-wide-types -fstrict-aliasing
  50              	@ -fstrict-overflow -fstrict-volatile-bitfields -fsync-libcalls
  51              	@ -fthread-jumps -ftoplevel-reorder -ftrapping-math -ftree-bit-ccp
  52              	@ -ftree-builtin-call-dce -ftree-ccp -ftree-ch -ftree-coalesce-vars
  53              	@ -ftree-copy-prop -ftree-copyrename -ftree-cselim -ftree-dce
  54              	@ -ftree-dominator-opts -ftree-dse -ftree-forwprop -ftree-fre
  55              	@ -ftree-loop-if-convert -ftree-loop-im -ftree-loop-ivcanon
  56              	@ -ftree-loop-optimize -ftree-parallelize-loops= -ftree-phiprop -ftree-pre
  57              	@ -ftree-pta -ftree-reassoc -ftree-scev-cprop -ftree-sink -ftree-slsr
ARM GAS  /tmp/ccoBYq2X.s 			page 2


  58              	@ -ftree-sra -ftree-switch-conversion -ftree-tail-merge -ftree-ter
  59              	@ -ftree-vrp -funit-at-a-time -fvar-tracking -fvar-tracking-assignments
  60              	@ -fverbose-asm -fzero-initialized-in-bss -mlittle-endian -mlra
  61              	@ -mpic-data-is-text-relative -msched-prolog -mthumb
  62              	@ -mvectorize-with-neon-quad
  63              	
  64              		.text
  65              	.Ltext0:
  66              		.cfi_sections	.debug_frame
  67              		.section	.text.setStartMode,"ax",%progbits
  68              		.align	2
  69              		.global	setStartMode
  70              		.code	16
  71              		.thumb_func
  72              		.type	setStartMode, %function
  73              	setStartMode:
  74              	.LFB200:
  75              		.file 1 "../lpc11cx4-library/lpc_chip_11cxx_lib/src/adc_11xx.c"
   1:../lpc11cx4-library/lpc_chip_11cxx_lib/src/adc_11xx.c **** /*
   2:../lpc11cx4-library/lpc_chip_11cxx_lib/src/adc_11xx.c ****  * @brief LPC11xx A/D conversion driver
   3:../lpc11cx4-library/lpc_chip_11cxx_lib/src/adc_11xx.c ****  *
   4:../lpc11cx4-library/lpc_chip_11cxx_lib/src/adc_11xx.c ****  * @note
   5:../lpc11cx4-library/lpc_chip_11cxx_lib/src/adc_11xx.c ****  * Copyright(C) NXP Semiconductors, 2012
   6:../lpc11cx4-library/lpc_chip_11cxx_lib/src/adc_11xx.c ****  * All rights reserved.
   7:../lpc11cx4-library/lpc_chip_11cxx_lib/src/adc_11xx.c ****  *
   8:../lpc11cx4-library/lpc_chip_11cxx_lib/src/adc_11xx.c ****  * @par
   9:../lpc11cx4-library/lpc_chip_11cxx_lib/src/adc_11xx.c ****  * Software that is described herein is for illustrative purposes only
  10:../lpc11cx4-library/lpc_chip_11cxx_lib/src/adc_11xx.c ****  * which provides customers with programming information regarding the
  11:../lpc11cx4-library/lpc_chip_11cxx_lib/src/adc_11xx.c ****  * LPC products.  This software is supplied "AS IS" without any warranties of
  12:../lpc11cx4-library/lpc_chip_11cxx_lib/src/adc_11xx.c ****  * any kind, and NXP Semiconductors and its licensor disclaim any and
  13:../lpc11cx4-library/lpc_chip_11cxx_lib/src/adc_11xx.c ****  * all warranties, express or implied, including all implied warranties of
  14:../lpc11cx4-library/lpc_chip_11cxx_lib/src/adc_11xx.c ****  * merchantability, fitness for a particular purpose and non-infringement of
  15:../lpc11cx4-library/lpc_chip_11cxx_lib/src/adc_11xx.c ****  * intellectual property rights.  NXP Semiconductors assumes no responsibility
  16:../lpc11cx4-library/lpc_chip_11cxx_lib/src/adc_11xx.c ****  * or liability for the use of the software, conveys no license or rights under any
  17:../lpc11cx4-library/lpc_chip_11cxx_lib/src/adc_11xx.c ****  * patent, copyright, mask work right, or any other intellectual property rights in
  18:../lpc11cx4-library/lpc_chip_11cxx_lib/src/adc_11xx.c ****  * or to any products. NXP Semiconductors reserves the right to make changes
  19:../lpc11cx4-library/lpc_chip_11cxx_lib/src/adc_11xx.c ****  * in the software without notification. NXP Semiconductors also makes no
  20:../lpc11cx4-library/lpc_chip_11cxx_lib/src/adc_11xx.c ****  * representation or warranty that such application will be suitable for the
  21:../lpc11cx4-library/lpc_chip_11cxx_lib/src/adc_11xx.c ****  * specified use without further testing or modification.
  22:../lpc11cx4-library/lpc_chip_11cxx_lib/src/adc_11xx.c ****  *
  23:../lpc11cx4-library/lpc_chip_11cxx_lib/src/adc_11xx.c ****  * @par
  24:../lpc11cx4-library/lpc_chip_11cxx_lib/src/adc_11xx.c ****  * Permission to use, copy, modify, and distribute this software and its
  25:../lpc11cx4-library/lpc_chip_11cxx_lib/src/adc_11xx.c ****  * documentation is hereby granted, under NXP Semiconductors' and its
  26:../lpc11cx4-library/lpc_chip_11cxx_lib/src/adc_11xx.c ****  * licensor's relevant copyrights in the software, without fee, provided that it
  27:../lpc11cx4-library/lpc_chip_11cxx_lib/src/adc_11xx.c ****  * is used in conjunction with NXP Semiconductors microcontrollers.  This
  28:../lpc11cx4-library/lpc_chip_11cxx_lib/src/adc_11xx.c ****  * copyright, permission, and disclaimer notice must appear in all copies of
  29:../lpc11cx4-library/lpc_chip_11cxx_lib/src/adc_11xx.c ****  * this code.
  30:../lpc11cx4-library/lpc_chip_11cxx_lib/src/adc_11xx.c ****  */
  31:../lpc11cx4-library/lpc_chip_11cxx_lib/src/adc_11xx.c **** 
  32:../lpc11cx4-library/lpc_chip_11cxx_lib/src/adc_11xx.c **** #include "chip.h"
  33:../lpc11cx4-library/lpc_chip_11cxx_lib/src/adc_11xx.c **** 
  34:../lpc11cx4-library/lpc_chip_11cxx_lib/src/adc_11xx.c **** #if !defined(CHIP_LPC1125)
  35:../lpc11cx4-library/lpc_chip_11cxx_lib/src/adc_11xx.c **** 
  36:../lpc11cx4-library/lpc_chip_11cxx_lib/src/adc_11xx.c **** /*****************************************************************************
  37:../lpc11cx4-library/lpc_chip_11cxx_lib/src/adc_11xx.c ****  * Private types/enumerations/variables
  38:../lpc11cx4-library/lpc_chip_11cxx_lib/src/adc_11xx.c ****  ****************************************************************************/
  39:../lpc11cx4-library/lpc_chip_11cxx_lib/src/adc_11xx.c **** 
ARM GAS  /tmp/ccoBYq2X.s 			page 3


  40:../lpc11cx4-library/lpc_chip_11cxx_lib/src/adc_11xx.c **** /*****************************************************************************
  41:../lpc11cx4-library/lpc_chip_11cxx_lib/src/adc_11xx.c ****  * Public types/enumerations/variables
  42:../lpc11cx4-library/lpc_chip_11cxx_lib/src/adc_11xx.c ****  ****************************************************************************/
  43:../lpc11cx4-library/lpc_chip_11cxx_lib/src/adc_11xx.c **** 
  44:../lpc11cx4-library/lpc_chip_11cxx_lib/src/adc_11xx.c **** /*****************************************************************************
  45:../lpc11cx4-library/lpc_chip_11cxx_lib/src/adc_11xx.c ****  * Private functions
  46:../lpc11cx4-library/lpc_chip_11cxx_lib/src/adc_11xx.c ****  ****************************************************************************/
  47:../lpc11cx4-library/lpc_chip_11cxx_lib/src/adc_11xx.c **** 
  48:../lpc11cx4-library/lpc_chip_11cxx_lib/src/adc_11xx.c **** /* Get the number of clock for a full conversion */
  49:../lpc11cx4-library/lpc_chip_11cxx_lib/src/adc_11xx.c **** STATIC INLINE uint8_t getFullConvClk(void)
  50:../lpc11cx4-library/lpc_chip_11cxx_lib/src/adc_11xx.c **** {
  51:../lpc11cx4-library/lpc_chip_11cxx_lib/src/adc_11xx.c **** 	return 11;
  52:../lpc11cx4-library/lpc_chip_11cxx_lib/src/adc_11xx.c **** }
  53:../lpc11cx4-library/lpc_chip_11cxx_lib/src/adc_11xx.c **** 
  54:../lpc11cx4-library/lpc_chip_11cxx_lib/src/adc_11xx.c **** /* Get divider value */
  55:../lpc11cx4-library/lpc_chip_11cxx_lib/src/adc_11xx.c **** STATIC uint8_t getClkDiv(LPC_ADC_T *pADC, bool burstMode, uint32_t adcRate, uint8_t clks)
  56:../lpc11cx4-library/lpc_chip_11cxx_lib/src/adc_11xx.c **** {
  57:../lpc11cx4-library/lpc_chip_11cxx_lib/src/adc_11xx.c **** 	uint32_t adcBlockFreq;
  58:../lpc11cx4-library/lpc_chip_11cxx_lib/src/adc_11xx.c **** 	uint32_t fullAdcRate;
  59:../lpc11cx4-library/lpc_chip_11cxx_lib/src/adc_11xx.c **** 	uint8_t div;
  60:../lpc11cx4-library/lpc_chip_11cxx_lib/src/adc_11xx.c **** 
  61:../lpc11cx4-library/lpc_chip_11cxx_lib/src/adc_11xx.c **** 	/* The APB clock (PCLK_ADC0) is divided by (CLKDIV+1) to produce the clock for
  62:../lpc11cx4-library/lpc_chip_11cxx_lib/src/adc_11xx.c **** 	   A/D converter, which should be less than or equal to 4.5MHz.
  63:../lpc11cx4-library/lpc_chip_11cxx_lib/src/adc_11xx.c **** 	   A fully conversion requires (bits_accuracy+1) of these clocks.
  64:../lpc11cx4-library/lpc_chip_11cxx_lib/src/adc_11xx.c **** 	   ADC Clock = PCLK_ADC0 / (CLKDIV + 1);
  65:../lpc11cx4-library/lpc_chip_11cxx_lib/src/adc_11xx.c **** 	   ADC rate = ADC clock / (the number of clocks required for each conversion);
  66:../lpc11cx4-library/lpc_chip_11cxx_lib/src/adc_11xx.c **** 	 */
  67:../lpc11cx4-library/lpc_chip_11cxx_lib/src/adc_11xx.c **** 	adcBlockFreq = Chip_Clock_GetSystemClockRate();
  68:../lpc11cx4-library/lpc_chip_11cxx_lib/src/adc_11xx.c **** 
  69:../lpc11cx4-library/lpc_chip_11cxx_lib/src/adc_11xx.c **** 	if (burstMode) {
  70:../lpc11cx4-library/lpc_chip_11cxx_lib/src/adc_11xx.c **** 		fullAdcRate = adcRate * clks;
  71:../lpc11cx4-library/lpc_chip_11cxx_lib/src/adc_11xx.c **** 	}
  72:../lpc11cx4-library/lpc_chip_11cxx_lib/src/adc_11xx.c **** 	else {
  73:../lpc11cx4-library/lpc_chip_11cxx_lib/src/adc_11xx.c **** 		fullAdcRate = adcRate * getFullConvClk();
  74:../lpc11cx4-library/lpc_chip_11cxx_lib/src/adc_11xx.c **** 	}
  75:../lpc11cx4-library/lpc_chip_11cxx_lib/src/adc_11xx.c **** 
  76:../lpc11cx4-library/lpc_chip_11cxx_lib/src/adc_11xx.c **** 	/* Get the round value by fomular: (2*A + B)/(2*B) */
  77:../lpc11cx4-library/lpc_chip_11cxx_lib/src/adc_11xx.c **** 	div = ((adcBlockFreq * 2 + fullAdcRate) / (fullAdcRate * 2)) - 1;
  78:../lpc11cx4-library/lpc_chip_11cxx_lib/src/adc_11xx.c **** 	return div;
  79:../lpc11cx4-library/lpc_chip_11cxx_lib/src/adc_11xx.c **** }
  80:../lpc11cx4-library/lpc_chip_11cxx_lib/src/adc_11xx.c **** 
  81:../lpc11cx4-library/lpc_chip_11cxx_lib/src/adc_11xx.c **** /* Set start mode for ADC */
  82:../lpc11cx4-library/lpc_chip_11cxx_lib/src/adc_11xx.c **** void setStartMode(LPC_ADC_T *pADC, uint8_t start_mode)
  83:../lpc11cx4-library/lpc_chip_11cxx_lib/src/adc_11xx.c **** {
  76              		.loc 1 83 0
  77              		.cfi_startproc
  78              	.LVL0:
  84:../lpc11cx4-library/lpc_chip_11cxx_lib/src/adc_11xx.c **** 	uint32_t temp;
  85:../lpc11cx4-library/lpc_chip_11cxx_lib/src/adc_11xx.c **** 	temp = pADC->CR & (~ADC_CR_START_MASK);
  79              		.loc 1 85 0
  80 0000 0268     		ldr	r2, [r0]	@ D.6279, pADC_2(D)->CR
  81              	.LVL1:
  82 0002 034B     		ldr	r3, .L2	@ tmp119,
  86:../lpc11cx4-library/lpc_chip_11cxx_lib/src/adc_11xx.c **** 	pADC->CR = temp | (ADC_CR_START_MODE_SEL((uint32_t) start_mode));
  83              		.loc 1 86 0
  84 0004 0906     		lsl	r1, r1, #24	@ D.6279, start_mode,
  85              	.LVL2:
ARM GAS  /tmp/ccoBYq2X.s 			page 4


  85:../lpc11cx4-library/lpc_chip_11cxx_lib/src/adc_11xx.c **** 	pADC->CR = temp | (ADC_CR_START_MODE_SEL((uint32_t) start_mode));
  86              		.loc 1 85 0
  87 0006 1340     		and	r3, r2	@ temp, D.6279
  88              	.LVL3:
  89              		.loc 1 86 0
  90 0008 1943     		orr	r1, r3	@ D.6279, temp
  91 000a 0160     		str	r1, [r0]	@ D.6279, pADC_2(D)->CR
  87:../lpc11cx4-library/lpc_chip_11cxx_lib/src/adc_11xx.c **** }
  92              		.loc 1 87 0
  93              		@ sp needed	@
  94 000c 7047     		bx	lr
  95              	.L3:
  96 000e C046     		.align	2
  97              	.L2:
  98 0010 FFFFFFF8 		.word	-117440513
  99              		.cfi_endproc
 100              	.LFE200:
 101              		.size	setStartMode, .-setStartMode
 102              		.section	.text.readAdcVal,"ax",%progbits
 103              		.align	2
 104              		.global	readAdcVal
 105              		.code	16
 106              		.thumb_func
 107              		.type	readAdcVal, %function
 108              	readAdcVal:
 109              	.LFB201:
  88:../lpc11cx4-library/lpc_chip_11cxx_lib/src/adc_11xx.c **** 
  89:../lpc11cx4-library/lpc_chip_11cxx_lib/src/adc_11xx.c **** /* Get the ADC value */
  90:../lpc11cx4-library/lpc_chip_11cxx_lib/src/adc_11xx.c **** Status readAdcVal(LPC_ADC_T *pADC, uint8_t channel, uint16_t *data)
  91:../lpc11cx4-library/lpc_chip_11cxx_lib/src/adc_11xx.c **** {
 110              		.loc 1 91 0
 111              		.cfi_startproc
 112              	.LVL4:
  92:../lpc11cx4-library/lpc_chip_11cxx_lib/src/adc_11xx.c **** 	uint32_t temp;
  93:../lpc11cx4-library/lpc_chip_11cxx_lib/src/adc_11xx.c **** 	temp = pADC->DR[channel];
 113              		.loc 1 93 0
 114 0000 0431     		add	r1, r1, #4	@ tmp121,
 115              	.LVL5:
 116 0002 8900     		lsl	r1, r1, #2	@ tmp122, tmp121,
 117 0004 0B58     		ldr	r3, [r1, r0]	@ temp, pADC_6(D)->DR
 118              	.LVL6:
  94:../lpc11cx4-library/lpc_chip_11cxx_lib/src/adc_11xx.c **** 	if (!ADC_DR_DONE(temp)) {
  95:../lpc11cx4-library/lpc_chip_11cxx_lib/src/adc_11xx.c **** 		return ERROR;
 119              		.loc 1 95 0
 120 0006 0020     		mov	r0, #0	@ D.6282,
 121              	.LVL7:
  94:../lpc11cx4-library/lpc_chip_11cxx_lib/src/adc_11xx.c **** 	if (!ADC_DR_DONE(temp)) {
 122              		.loc 1 94 0
 123 0008 002B     		cmp	r3, #0	@ temp,
 124 000a 03DA     		bge	.L5	@,
  96:../lpc11cx4-library/lpc_chip_11cxx_lib/src/adc_11xx.c **** 	}
  97:../lpc11cx4-library/lpc_chip_11cxx_lib/src/adc_11xx.c **** 	/*	if(ADC_DR_OVERRUN(temp) && (pADC->CR & ADC_CR_BURST)) */
  98:../lpc11cx4-library/lpc_chip_11cxx_lib/src/adc_11xx.c **** 	/*	return ERROR; */
  99:../lpc11cx4-library/lpc_chip_11cxx_lib/src/adc_11xx.c **** 	*data = (uint16_t) ADC_DR_RESULT(temp);
 125              		.loc 1 99 0
 126 000c 1B04     		lsl	r3, r3, #16	@ tmp126, temp,
 127              	.LVL8:
ARM GAS  /tmp/ccoBYq2X.s 			page 5


 128 000e 9B0D     		lsr	r3, r3, #22	@ tmp125, tmp126,
 129 0010 1380     		strh	r3, [r2]	@ tmp125, *data_12(D)
 100:../lpc11cx4-library/lpc_chip_11cxx_lib/src/adc_11xx.c **** 	return SUCCESS;
 130              		.loc 1 100 0
 131 0012 0130     		add	r0, r0, #1	@ D.6282,
 132              	.L5:
 101:../lpc11cx4-library/lpc_chip_11cxx_lib/src/adc_11xx.c **** }
 133              		.loc 1 101 0
 134              		@ sp needed	@
 135 0014 7047     		bx	lr
 136              		.cfi_endproc
 137              	.LFE201:
 138              		.size	readAdcVal, .-readAdcVal
 139              		.global	__aeabi_uidiv
 140 0016 C046     		.section	.text.Chip_ADC_Init,"ax",%progbits
 141              		.align	2
 142              		.global	Chip_ADC_Init
 143              		.code	16
 144              		.thumb_func
 145              		.type	Chip_ADC_Init, %function
 146              	Chip_ADC_Init:
 147              	.LFB202:
 102:../lpc11cx4-library/lpc_chip_11cxx_lib/src/adc_11xx.c **** 
 103:../lpc11cx4-library/lpc_chip_11cxx_lib/src/adc_11xx.c **** /*****************************************************************************
 104:../lpc11cx4-library/lpc_chip_11cxx_lib/src/adc_11xx.c ****  * Public functions
 105:../lpc11cx4-library/lpc_chip_11cxx_lib/src/adc_11xx.c ****  ****************************************************************************/
 106:../lpc11cx4-library/lpc_chip_11cxx_lib/src/adc_11xx.c **** 
 107:../lpc11cx4-library/lpc_chip_11cxx_lib/src/adc_11xx.c **** /* Initialize the ADC peripheral and the ADC setup structure to default value */
 108:../lpc11cx4-library/lpc_chip_11cxx_lib/src/adc_11xx.c **** void Chip_ADC_Init(LPC_ADC_T *pADC, ADC_CLOCK_SETUP_T *ADCSetup)
 109:../lpc11cx4-library/lpc_chip_11cxx_lib/src/adc_11xx.c **** {
 148              		.loc 1 109 0
 149              		.cfi_startproc
 150              	.LVL9:
 151 0000 38B5     		push	{r3, r4, r5, lr}	@
 152              		.cfi_def_cfa_offset 16
 153              		.cfi_offset 3, -16
 154              		.cfi_offset 4, -12
 155              		.cfi_offset 5, -8
 156              		.cfi_offset 14, -4
 157              		.loc 1 109 0
 158 0002 051C     		mov	r5, r0	@ pADC, pADC
 110:../lpc11cx4-library/lpc_chip_11cxx_lib/src/adc_11xx.c **** 	uint8_t div;
 111:../lpc11cx4-library/lpc_chip_11cxx_lib/src/adc_11xx.c **** 	uint32_t cr = 0;
 112:../lpc11cx4-library/lpc_chip_11cxx_lib/src/adc_11xx.c **** 	uint32_t clk;
 113:../lpc11cx4-library/lpc_chip_11cxx_lib/src/adc_11xx.c **** 
 114:../lpc11cx4-library/lpc_chip_11cxx_lib/src/adc_11xx.c **** 	Chip_SYSCTL_PowerUp(SYSCTL_POWERDOWN_ADC_PD);
 159              		.loc 1 114 0
 160 0004 1020     		mov	r0, #16	@,
 161              	.LVL10:
 109:../lpc11cx4-library/lpc_chip_11cxx_lib/src/adc_11xx.c **** 	uint8_t div;
 162              		.loc 1 109 0
 163 0006 0C1C     		mov	r4, r1	@ ADCSetup, ADCSetup
 164              		.loc 1 114 0
 165 0008 FFF7FEFF 		bl	Chip_SYSCTL_PowerUp	@
 166              	.LVL11:
 167              	.LBB20:
 168              	.LBB21:
ARM GAS  /tmp/ccoBYq2X.s 			page 6


 169              		.file 2 "../lpc11cx4-library/lpc_chip_11cxx_lib/inc/clock_11xx.h"
   1:../lpc11cx4-library/lpc_chip_11cxx_lib/inc/clock_11xx.h **** /*
   2:../lpc11cx4-library/lpc_chip_11cxx_lib/inc/clock_11xx.h ****  * @brief LPC11XX Clock control functions
   3:../lpc11cx4-library/lpc_chip_11cxx_lib/inc/clock_11xx.h ****  *
   4:../lpc11cx4-library/lpc_chip_11cxx_lib/inc/clock_11xx.h ****  * @note
   5:../lpc11cx4-library/lpc_chip_11cxx_lib/inc/clock_11xx.h ****  * Copyright(C) NXP Semiconductors, 2012
   6:../lpc11cx4-library/lpc_chip_11cxx_lib/inc/clock_11xx.h ****  * All rights reserved.
   7:../lpc11cx4-library/lpc_chip_11cxx_lib/inc/clock_11xx.h ****  *
   8:../lpc11cx4-library/lpc_chip_11cxx_lib/inc/clock_11xx.h ****  * @par
   9:../lpc11cx4-library/lpc_chip_11cxx_lib/inc/clock_11xx.h ****  * Software that is described herein is for illustrative purposes only
  10:../lpc11cx4-library/lpc_chip_11cxx_lib/inc/clock_11xx.h ****  * which provides customers with programming information regarding the
  11:../lpc11cx4-library/lpc_chip_11cxx_lib/inc/clock_11xx.h ****  * LPC products.  This software is supplied "AS IS" without any warranties of
  12:../lpc11cx4-library/lpc_chip_11cxx_lib/inc/clock_11xx.h ****  * any kind, and NXP Semiconductors and its licensor disclaim any and
  13:../lpc11cx4-library/lpc_chip_11cxx_lib/inc/clock_11xx.h ****  * all warranties, express or implied, including all implied warranties of
  14:../lpc11cx4-library/lpc_chip_11cxx_lib/inc/clock_11xx.h ****  * merchantability, fitness for a particular purpose and non-infringement of
  15:../lpc11cx4-library/lpc_chip_11cxx_lib/inc/clock_11xx.h ****  * intellectual property rights.  NXP Semiconductors assumes no responsibility
  16:../lpc11cx4-library/lpc_chip_11cxx_lib/inc/clock_11xx.h ****  * or liability for the use of the software, conveys no license or rights under any
  17:../lpc11cx4-library/lpc_chip_11cxx_lib/inc/clock_11xx.h ****  * patent, copyright, mask work right, or any other intellectual property rights in
  18:../lpc11cx4-library/lpc_chip_11cxx_lib/inc/clock_11xx.h ****  * or to any products. NXP Semiconductors reserves the right to make changes
  19:../lpc11cx4-library/lpc_chip_11cxx_lib/inc/clock_11xx.h ****  * in the software without notification. NXP Semiconductors also makes no
  20:../lpc11cx4-library/lpc_chip_11cxx_lib/inc/clock_11xx.h ****  * representation or warranty that such application will be suitable for the
  21:../lpc11cx4-library/lpc_chip_11cxx_lib/inc/clock_11xx.h ****  * specified use without further testing or modification.
  22:../lpc11cx4-library/lpc_chip_11cxx_lib/inc/clock_11xx.h ****  *
  23:../lpc11cx4-library/lpc_chip_11cxx_lib/inc/clock_11xx.h ****  * @par
  24:../lpc11cx4-library/lpc_chip_11cxx_lib/inc/clock_11xx.h ****  * Permission to use, copy, modify, and distribute this software and its
  25:../lpc11cx4-library/lpc_chip_11cxx_lib/inc/clock_11xx.h ****  * documentation is hereby granted, under NXP Semiconductors' and its
  26:../lpc11cx4-library/lpc_chip_11cxx_lib/inc/clock_11xx.h ****  * licensor's relevant copyrights in the software, without fee, provided that it
  27:../lpc11cx4-library/lpc_chip_11cxx_lib/inc/clock_11xx.h ****  * is used in conjunction with NXP Semiconductors microcontrollers.  This
  28:../lpc11cx4-library/lpc_chip_11cxx_lib/inc/clock_11xx.h ****  * copyright, permission, and disclaimer notice must appear in all copies of
  29:../lpc11cx4-library/lpc_chip_11cxx_lib/inc/clock_11xx.h ****  * this code.
  30:../lpc11cx4-library/lpc_chip_11cxx_lib/inc/clock_11xx.h ****  */
  31:../lpc11cx4-library/lpc_chip_11cxx_lib/inc/clock_11xx.h **** 
  32:../lpc11cx4-library/lpc_chip_11cxx_lib/inc/clock_11xx.h **** #ifndef __CLOCK_11XX_H_
  33:../lpc11cx4-library/lpc_chip_11cxx_lib/inc/clock_11xx.h **** #define __CLOCK_11XX_H_
  34:../lpc11cx4-library/lpc_chip_11cxx_lib/inc/clock_11xx.h **** 
  35:../lpc11cx4-library/lpc_chip_11cxx_lib/inc/clock_11xx.h **** #ifdef __cplusplus
  36:../lpc11cx4-library/lpc_chip_11cxx_lib/inc/clock_11xx.h **** extern "C" {
  37:../lpc11cx4-library/lpc_chip_11cxx_lib/inc/clock_11xx.h **** #endif
  38:../lpc11cx4-library/lpc_chip_11cxx_lib/inc/clock_11xx.h **** 
  39:../lpc11cx4-library/lpc_chip_11cxx_lib/inc/clock_11xx.h **** /** @defgroup CLOCK_11XX CHIP: LPC11xx Clock Control block driver
  40:../lpc11cx4-library/lpc_chip_11cxx_lib/inc/clock_11xx.h ****  * @ingroup CHIP_11XX_Drivers
  41:../lpc11cx4-library/lpc_chip_11cxx_lib/inc/clock_11xx.h ****  * @{
  42:../lpc11cx4-library/lpc_chip_11cxx_lib/inc/clock_11xx.h ****  */
  43:../lpc11cx4-library/lpc_chip_11cxx_lib/inc/clock_11xx.h **** 
  44:../lpc11cx4-library/lpc_chip_11cxx_lib/inc/clock_11xx.h **** /** Internal oscillator frequency */
  45:../lpc11cx4-library/lpc_chip_11cxx_lib/inc/clock_11xx.h **** #define SYSCTL_IRC_FREQ (12000000)
  46:../lpc11cx4-library/lpc_chip_11cxx_lib/inc/clock_11xx.h **** 
  47:../lpc11cx4-library/lpc_chip_11cxx_lib/inc/clock_11xx.h **** /**
  48:../lpc11cx4-library/lpc_chip_11cxx_lib/inc/clock_11xx.h ****  * @brief	Set System PLL divider values
  49:../lpc11cx4-library/lpc_chip_11cxx_lib/inc/clock_11xx.h ****  * @param	msel    : PLL feedback divider value. M = msel + 1.
  50:../lpc11cx4-library/lpc_chip_11cxx_lib/inc/clock_11xx.h ****  * @param	psel    : PLL post divider value. P =  (1<<psel).
  51:../lpc11cx4-library/lpc_chip_11cxx_lib/inc/clock_11xx.h ****  * @return	Nothing
  52:../lpc11cx4-library/lpc_chip_11cxx_lib/inc/clock_11xx.h ****  * @note	See the user manual for how to setup the PLL.
  53:../lpc11cx4-library/lpc_chip_11cxx_lib/inc/clock_11xx.h ****  */
  54:../lpc11cx4-library/lpc_chip_11cxx_lib/inc/clock_11xx.h **** STATIC INLINE void Chip_Clock_SetupSystemPLL(uint8_t msel, uint8_t psel)
  55:../lpc11cx4-library/lpc_chip_11cxx_lib/inc/clock_11xx.h **** {
  56:../lpc11cx4-library/lpc_chip_11cxx_lib/inc/clock_11xx.h **** 	LPC_SYSCTL->SYSPLLCTRL = (msel & 0x1F) | ((psel & 0x3) << 5);
ARM GAS  /tmp/ccoBYq2X.s 			page 7


  57:../lpc11cx4-library/lpc_chip_11cxx_lib/inc/clock_11xx.h **** }
  58:../lpc11cx4-library/lpc_chip_11cxx_lib/inc/clock_11xx.h **** 
  59:../lpc11cx4-library/lpc_chip_11cxx_lib/inc/clock_11xx.h **** /**
  60:../lpc11cx4-library/lpc_chip_11cxx_lib/inc/clock_11xx.h ****  * @brief	Read System PLL lock status
  61:../lpc11cx4-library/lpc_chip_11cxx_lib/inc/clock_11xx.h ****  * @return	true of the PLL is locked. false if not locked
  62:../lpc11cx4-library/lpc_chip_11cxx_lib/inc/clock_11xx.h ****  */
  63:../lpc11cx4-library/lpc_chip_11cxx_lib/inc/clock_11xx.h **** STATIC INLINE bool Chip_Clock_IsSystemPLLLocked(void)
  64:../lpc11cx4-library/lpc_chip_11cxx_lib/inc/clock_11xx.h **** {
  65:../lpc11cx4-library/lpc_chip_11cxx_lib/inc/clock_11xx.h **** 	return (bool) ((LPC_SYSCTL->SYSPLLSTAT & 1) != 0);
  66:../lpc11cx4-library/lpc_chip_11cxx_lib/inc/clock_11xx.h **** }
  67:../lpc11cx4-library/lpc_chip_11cxx_lib/inc/clock_11xx.h **** 
  68:../lpc11cx4-library/lpc_chip_11cxx_lib/inc/clock_11xx.h **** /**
  69:../lpc11cx4-library/lpc_chip_11cxx_lib/inc/clock_11xx.h ****  * Clock sources for system and USB PLLs
  70:../lpc11cx4-library/lpc_chip_11cxx_lib/inc/clock_11xx.h ****  */
  71:../lpc11cx4-library/lpc_chip_11cxx_lib/inc/clock_11xx.h **** typedef enum CHIP_SYSCTL_PLLCLKSRC {
  72:../lpc11cx4-library/lpc_chip_11cxx_lib/inc/clock_11xx.h **** 	SYSCTL_PLLCLKSRC_IRC = 0,		/*!< Internal oscillator in */
  73:../lpc11cx4-library/lpc_chip_11cxx_lib/inc/clock_11xx.h **** 	SYSCTL_PLLCLKSRC_MAINOSC,		/*!< Crystal (main) oscillator in */
  74:../lpc11cx4-library/lpc_chip_11cxx_lib/inc/clock_11xx.h **** #if defined(CHIP_LPC11AXX)
  75:../lpc11cx4-library/lpc_chip_11cxx_lib/inc/clock_11xx.h **** 	SYSCTL_PLLCLKSRC_EXT_CLKIN,	/*!< External clock in (11Axx only) */
  76:../lpc11cx4-library/lpc_chip_11cxx_lib/inc/clock_11xx.h **** #else
  77:../lpc11cx4-library/lpc_chip_11cxx_lib/inc/clock_11xx.h **** 	SYSCTL_PLLCLKSRC_RESERVED1,	/*!< Reserved */
  78:../lpc11cx4-library/lpc_chip_11cxx_lib/inc/clock_11xx.h **** #endif
  79:../lpc11cx4-library/lpc_chip_11cxx_lib/inc/clock_11xx.h **** 	SYSCTL_PLLCLKSRC_RESERVED2,	/*!< Reserved */
  80:../lpc11cx4-library/lpc_chip_11cxx_lib/inc/clock_11xx.h **** } CHIP_SYSCTL_PLLCLKSRC_T;
  81:../lpc11cx4-library/lpc_chip_11cxx_lib/inc/clock_11xx.h **** 
  82:../lpc11cx4-library/lpc_chip_11cxx_lib/inc/clock_11xx.h **** /**
  83:../lpc11cx4-library/lpc_chip_11cxx_lib/inc/clock_11xx.h ****  * @brief	Set System PLL clock source
  84:../lpc11cx4-library/lpc_chip_11cxx_lib/inc/clock_11xx.h ****  * @param	src	: Clock source for system PLL
  85:../lpc11cx4-library/lpc_chip_11cxx_lib/inc/clock_11xx.h ****  * @return	Nothing
  86:../lpc11cx4-library/lpc_chip_11cxx_lib/inc/clock_11xx.h ****  * @note	This function will also toggle the clock source update register
  87:../lpc11cx4-library/lpc_chip_11cxx_lib/inc/clock_11xx.h ****  * to update the clock source.
  88:../lpc11cx4-library/lpc_chip_11cxx_lib/inc/clock_11xx.h ****  */
  89:../lpc11cx4-library/lpc_chip_11cxx_lib/inc/clock_11xx.h **** void Chip_Clock_SetSystemPLLSource(CHIP_SYSCTL_PLLCLKSRC_T src);
  90:../lpc11cx4-library/lpc_chip_11cxx_lib/inc/clock_11xx.h **** 
  91:../lpc11cx4-library/lpc_chip_11cxx_lib/inc/clock_11xx.h **** #if defined(CHIP_LPC11UXX)
  92:../lpc11cx4-library/lpc_chip_11cxx_lib/inc/clock_11xx.h **** /**
  93:../lpc11cx4-library/lpc_chip_11cxx_lib/inc/clock_11xx.h ****  * @brief	Set USB PLL divider values
  94:../lpc11cx4-library/lpc_chip_11cxx_lib/inc/clock_11xx.h ****  * @param	msel    : PLL feedback divider value. M = msel + 1.
  95:../lpc11cx4-library/lpc_chip_11cxx_lib/inc/clock_11xx.h ****  * @param	psel    : PLL post divider value. P = (1<<psel).
  96:../lpc11cx4-library/lpc_chip_11cxx_lib/inc/clock_11xx.h ****  * @return	Nothing
  97:../lpc11cx4-library/lpc_chip_11cxx_lib/inc/clock_11xx.h ****  * @note	See the user manual for how to setup the PLL.
  98:../lpc11cx4-library/lpc_chip_11cxx_lib/inc/clock_11xx.h ****  */
  99:../lpc11cx4-library/lpc_chip_11cxx_lib/inc/clock_11xx.h **** STATIC INLINE void Chip_Clock_SetupUSBPLL(uint8_t msel, uint8_t psel)
 100:../lpc11cx4-library/lpc_chip_11cxx_lib/inc/clock_11xx.h **** {
 101:../lpc11cx4-library/lpc_chip_11cxx_lib/inc/clock_11xx.h **** 	LPC_SYSCTL->USBPLLCTRL = (msel & 0x1F) | ((psel & 0x3) << 5);
 102:../lpc11cx4-library/lpc_chip_11cxx_lib/inc/clock_11xx.h **** }
 103:../lpc11cx4-library/lpc_chip_11cxx_lib/inc/clock_11xx.h **** 
 104:../lpc11cx4-library/lpc_chip_11cxx_lib/inc/clock_11xx.h **** /**
 105:../lpc11cx4-library/lpc_chip_11cxx_lib/inc/clock_11xx.h ****  * @brief	Read USB PLL lock status
 106:../lpc11cx4-library/lpc_chip_11cxx_lib/inc/clock_11xx.h ****  * @return	true of the PLL is locked. false if not locked
 107:../lpc11cx4-library/lpc_chip_11cxx_lib/inc/clock_11xx.h ****  */
 108:../lpc11cx4-library/lpc_chip_11cxx_lib/inc/clock_11xx.h **** STATIC INLINE bool Chip_Clock_IsUSBPLLLocked(void)
 109:../lpc11cx4-library/lpc_chip_11cxx_lib/inc/clock_11xx.h **** {
 110:../lpc11cx4-library/lpc_chip_11cxx_lib/inc/clock_11xx.h **** 	return (bool) ((LPC_SYSCTL->USBPLLSTAT & 1) != 0);
 111:../lpc11cx4-library/lpc_chip_11cxx_lib/inc/clock_11xx.h **** }
 112:../lpc11cx4-library/lpc_chip_11cxx_lib/inc/clock_11xx.h **** 
 113:../lpc11cx4-library/lpc_chip_11cxx_lib/inc/clock_11xx.h **** /**
ARM GAS  /tmp/ccoBYq2X.s 			page 8


 114:../lpc11cx4-library/lpc_chip_11cxx_lib/inc/clock_11xx.h ****  * @brief	Set USB PLL clock source
 115:../lpc11cx4-library/lpc_chip_11cxx_lib/inc/clock_11xx.h ****  * @param	src	: Clock source for USB PLL
 116:../lpc11cx4-library/lpc_chip_11cxx_lib/inc/clock_11xx.h ****  * @return	Nothing
 117:../lpc11cx4-library/lpc_chip_11cxx_lib/inc/clock_11xx.h ****  * @note	This function will also toggle the clock source update register
 118:../lpc11cx4-library/lpc_chip_11cxx_lib/inc/clock_11xx.h ****  * to update the clock source.
 119:../lpc11cx4-library/lpc_chip_11cxx_lib/inc/clock_11xx.h ****  */
 120:../lpc11cx4-library/lpc_chip_11cxx_lib/inc/clock_11xx.h **** void Chip_Clock_SetUSBPLLSource(CHIP_SYSCTL_PLLCLKSRC_T src);
 121:../lpc11cx4-library/lpc_chip_11cxx_lib/inc/clock_11xx.h **** 
 122:../lpc11cx4-library/lpc_chip_11cxx_lib/inc/clock_11xx.h **** #endif /*defined(CHIP_LPC11UXX)*/
 123:../lpc11cx4-library/lpc_chip_11cxx_lib/inc/clock_11xx.h **** 
 124:../lpc11cx4-library/lpc_chip_11cxx_lib/inc/clock_11xx.h **** /**
 125:../lpc11cx4-library/lpc_chip_11cxx_lib/inc/clock_11xx.h ****  * @brief	Bypass System Oscillator and set oscillator frequency range
 126:../lpc11cx4-library/lpc_chip_11cxx_lib/inc/clock_11xx.h ****  * @param	bypass	: Flag to bypass oscillator
 127:../lpc11cx4-library/lpc_chip_11cxx_lib/inc/clock_11xx.h ****  * @param	highfr	: Flag to set oscillator range from 15-25 MHz
 128:../lpc11cx4-library/lpc_chip_11cxx_lib/inc/clock_11xx.h ****  * @return	Nothing
 129:../lpc11cx4-library/lpc_chip_11cxx_lib/inc/clock_11xx.h ****  * @note	Sets the PLL input to bypass the oscillator. This would be
 130:../lpc11cx4-library/lpc_chip_11cxx_lib/inc/clock_11xx.h ****  * used if an external clock that is not an oscillator is attached
 131:../lpc11cx4-library/lpc_chip_11cxx_lib/inc/clock_11xx.h ****  * to the XTALIN pin.
 132:../lpc11cx4-library/lpc_chip_11cxx_lib/inc/clock_11xx.h ****  */
 133:../lpc11cx4-library/lpc_chip_11cxx_lib/inc/clock_11xx.h **** void Chip_Clock_SetPLLBypass(bool bypass, bool highfr);
 134:../lpc11cx4-library/lpc_chip_11cxx_lib/inc/clock_11xx.h **** 
 135:../lpc11cx4-library/lpc_chip_11cxx_lib/inc/clock_11xx.h **** /**
 136:../lpc11cx4-library/lpc_chip_11cxx_lib/inc/clock_11xx.h ****  * Watchdog and low frequency oscillator frequencies plus or minus 40%
 137:../lpc11cx4-library/lpc_chip_11cxx_lib/inc/clock_11xx.h ****  */
 138:../lpc11cx4-library/lpc_chip_11cxx_lib/inc/clock_11xx.h **** typedef enum CHIP_WDTLFO_OSC {
 139:../lpc11cx4-library/lpc_chip_11cxx_lib/inc/clock_11xx.h **** 	WDTLFO_OSC_ILLEGAL,
 140:../lpc11cx4-library/lpc_chip_11cxx_lib/inc/clock_11xx.h **** 	WDTLFO_OSC_0_60,	/*!< 0.6 MHz watchdog/LFO rate */
 141:../lpc11cx4-library/lpc_chip_11cxx_lib/inc/clock_11xx.h **** 	WDTLFO_OSC_1_05,	/*!< 1.05 MHz watchdog/LFO rate */
 142:../lpc11cx4-library/lpc_chip_11cxx_lib/inc/clock_11xx.h **** 	WDTLFO_OSC_1_40,	/*!< 1.4 MHz watchdog/LFO rate */
 143:../lpc11cx4-library/lpc_chip_11cxx_lib/inc/clock_11xx.h **** 	WDTLFO_OSC_1_75,	/*!< 1.75 MHz watchdog/LFO rate */
 144:../lpc11cx4-library/lpc_chip_11cxx_lib/inc/clock_11xx.h **** 	WDTLFO_OSC_2_10,	/*!< 2.1 MHz watchdog/LFO rate */
 145:../lpc11cx4-library/lpc_chip_11cxx_lib/inc/clock_11xx.h **** 	WDTLFO_OSC_2_40,	/*!< 2.4 MHz watchdog/LFO rate */
 146:../lpc11cx4-library/lpc_chip_11cxx_lib/inc/clock_11xx.h **** 	WDTLFO_OSC_2_70,	/*!< 2.7 MHz watchdog/LFO rate */
 147:../lpc11cx4-library/lpc_chip_11cxx_lib/inc/clock_11xx.h **** 	WDTLFO_OSC_3_00,	/*!< 3.0 MHz watchdog/LFO rate */
 148:../lpc11cx4-library/lpc_chip_11cxx_lib/inc/clock_11xx.h **** 	WDTLFO_OSC_3_25,	/*!< 3.25 MHz watchdog/LFO rate */
 149:../lpc11cx4-library/lpc_chip_11cxx_lib/inc/clock_11xx.h **** 	WDTLFO_OSC_3_50,	/*!< 3.5 MHz watchdog/LFO rate */
 150:../lpc11cx4-library/lpc_chip_11cxx_lib/inc/clock_11xx.h **** 	WDTLFO_OSC_3_75,	/*!< 3.75 MHz watchdog/LFO rate */
 151:../lpc11cx4-library/lpc_chip_11cxx_lib/inc/clock_11xx.h **** 	WDTLFO_OSC_4_00,	/*!< 4.0 MHz watchdog/LFO rate */
 152:../lpc11cx4-library/lpc_chip_11cxx_lib/inc/clock_11xx.h **** 	WDTLFO_OSC_4_20,	/*!< 4.2 MHz watchdog/LFO rate */
 153:../lpc11cx4-library/lpc_chip_11cxx_lib/inc/clock_11xx.h **** 	WDTLFO_OSC_4_40,	/*!< 4.4 MHz watchdog/LFO rate */
 154:../lpc11cx4-library/lpc_chip_11cxx_lib/inc/clock_11xx.h **** 	WDTLFO_OSC_4_60		/*!< 4.6 MHz watchdog/LFO rate */
 155:../lpc11cx4-library/lpc_chip_11cxx_lib/inc/clock_11xx.h **** } CHIP_WDTLFO_OSC_T;
 156:../lpc11cx4-library/lpc_chip_11cxx_lib/inc/clock_11xx.h **** 
 157:../lpc11cx4-library/lpc_chip_11cxx_lib/inc/clock_11xx.h **** /**
 158:../lpc11cx4-library/lpc_chip_11cxx_lib/inc/clock_11xx.h ****  * @brief	Setup Watchdog oscillator rate and divider
 159:../lpc11cx4-library/lpc_chip_11cxx_lib/inc/clock_11xx.h ****  * @param	wdtclk	: Selected watchdog clock rate
 160:../lpc11cx4-library/lpc_chip_11cxx_lib/inc/clock_11xx.h ****  * @param	div		: Watchdog divider value, even value between 2 and 64
 161:../lpc11cx4-library/lpc_chip_11cxx_lib/inc/clock_11xx.h ****  * @return	Nothing
 162:../lpc11cx4-library/lpc_chip_11cxx_lib/inc/clock_11xx.h ****  * @note	Watchdog rate = selected rate divided by divider rate
 163:../lpc11cx4-library/lpc_chip_11cxx_lib/inc/clock_11xx.h ****  */
 164:../lpc11cx4-library/lpc_chip_11cxx_lib/inc/clock_11xx.h **** STATIC INLINE void Chip_Clock_SetWDTOSC(CHIP_WDTLFO_OSC_T wdtclk, uint8_t div)
 165:../lpc11cx4-library/lpc_chip_11cxx_lib/inc/clock_11xx.h **** {
 166:../lpc11cx4-library/lpc_chip_11cxx_lib/inc/clock_11xx.h **** 	LPC_SYSCTL->WDTOSCCTRL  = (((uint32_t) wdtclk) << 5) | ((div >> 1) - 1);
 167:../lpc11cx4-library/lpc_chip_11cxx_lib/inc/clock_11xx.h **** }
 168:../lpc11cx4-library/lpc_chip_11cxx_lib/inc/clock_11xx.h **** 
 169:../lpc11cx4-library/lpc_chip_11cxx_lib/inc/clock_11xx.h **** #if defined(CHIP_LPC11AXX)
 170:../lpc11cx4-library/lpc_chip_11cxx_lib/inc/clock_11xx.h **** /**
ARM GAS  /tmp/ccoBYq2X.s 			page 9


 171:../lpc11cx4-library/lpc_chip_11cxx_lib/inc/clock_11xx.h ****  * @brief	Setup low frequency oscillator rate and divider
 172:../lpc11cx4-library/lpc_chip_11cxx_lib/inc/clock_11xx.h ****  * @param	lfoclk	: Selected low frequency clock rate
 173:../lpc11cx4-library/lpc_chip_11cxx_lib/inc/clock_11xx.h ****  * @param	div		: Low frequency divider value, even value between 2 and 64
 174:../lpc11cx4-library/lpc_chip_11cxx_lib/inc/clock_11xx.h ****  * @return	Nothing
 175:../lpc11cx4-library/lpc_chip_11cxx_lib/inc/clock_11xx.h ****  * @note	Low frequency oscillator rate = selected rate divided by divider rate
 176:../lpc11cx4-library/lpc_chip_11cxx_lib/inc/clock_11xx.h ****  */
 177:../lpc11cx4-library/lpc_chip_11cxx_lib/inc/clock_11xx.h **** STATIC INLINE void Chip_Clock_SetLFOSC(CHIP_WDTLFO_OSC_T lfoclk, uint8_t div)
 178:../lpc11cx4-library/lpc_chip_11cxx_lib/inc/clock_11xx.h **** {
 179:../lpc11cx4-library/lpc_chip_11cxx_lib/inc/clock_11xx.h **** 	LPC_SYSCTL->LFOSCCTRL  = (((uint32_t) lfoclk) << 5) | ((div >> 1) - 1);
 180:../lpc11cx4-library/lpc_chip_11cxx_lib/inc/clock_11xx.h **** }
 181:../lpc11cx4-library/lpc_chip_11cxx_lib/inc/clock_11xx.h **** 
 182:../lpc11cx4-library/lpc_chip_11cxx_lib/inc/clock_11xx.h **** #endif /*CHIP_LPC11AXX*/
 183:../lpc11cx4-library/lpc_chip_11cxx_lib/inc/clock_11xx.h **** 
 184:../lpc11cx4-library/lpc_chip_11cxx_lib/inc/clock_11xx.h **** /**
 185:../lpc11cx4-library/lpc_chip_11cxx_lib/inc/clock_11xx.h ****  * Clock sources for main system clock
 186:../lpc11cx4-library/lpc_chip_11cxx_lib/inc/clock_11xx.h ****  */
 187:../lpc11cx4-library/lpc_chip_11cxx_lib/inc/clock_11xx.h **** typedef enum CHIP_SYSCTL_MAINCLKSRC {
 188:../lpc11cx4-library/lpc_chip_11cxx_lib/inc/clock_11xx.h **** 	SYSCTL_MAINCLKSRC_IRC = 0,		/*!< Internal oscillator */
 189:../lpc11cx4-library/lpc_chip_11cxx_lib/inc/clock_11xx.h **** 	SYSCTL_MAINCLKSRC_PLLIN,		/*!< System PLL input */
 190:../lpc11cx4-library/lpc_chip_11cxx_lib/inc/clock_11xx.h **** 	SYSCTL_MAINCLKSRC_LFOSC,		/*!< LF oscillator rate (11Axx only) */
 191:../lpc11cx4-library/lpc_chip_11cxx_lib/inc/clock_11xx.h **** 	SYSCTL_MAINCLKSRC_WDTOSC = SYSCTL_MAINCLKSRC_LFOSC,	/*!< Watchdog oscillator rate */
 192:../lpc11cx4-library/lpc_chip_11cxx_lib/inc/clock_11xx.h **** 	SYSCTL_MAINCLKSRC_PLLOUT,		/*!< System PLL output */
 193:../lpc11cx4-library/lpc_chip_11cxx_lib/inc/clock_11xx.h **** } CHIP_SYSCTL_MAINCLKSRC_T;
 194:../lpc11cx4-library/lpc_chip_11cxx_lib/inc/clock_11xx.h **** 
 195:../lpc11cx4-library/lpc_chip_11cxx_lib/inc/clock_11xx.h **** /**
 196:../lpc11cx4-library/lpc_chip_11cxx_lib/inc/clock_11xx.h ****  * @brief	Set main system clock source
 197:../lpc11cx4-library/lpc_chip_11cxx_lib/inc/clock_11xx.h ****  * @param	src	: Clock source for main system
 198:../lpc11cx4-library/lpc_chip_11cxx_lib/inc/clock_11xx.h ****  * @return	Nothing
 199:../lpc11cx4-library/lpc_chip_11cxx_lib/inc/clock_11xx.h ****  * @note	This function will also toggle the clock source update register
 200:../lpc11cx4-library/lpc_chip_11cxx_lib/inc/clock_11xx.h ****  * to update the clock source.
 201:../lpc11cx4-library/lpc_chip_11cxx_lib/inc/clock_11xx.h ****  */
 202:../lpc11cx4-library/lpc_chip_11cxx_lib/inc/clock_11xx.h **** void Chip_Clock_SetMainClockSource(CHIP_SYSCTL_MAINCLKSRC_T src);
 203:../lpc11cx4-library/lpc_chip_11cxx_lib/inc/clock_11xx.h **** 
 204:../lpc11cx4-library/lpc_chip_11cxx_lib/inc/clock_11xx.h **** /**
 205:../lpc11cx4-library/lpc_chip_11cxx_lib/inc/clock_11xx.h ****  * @brief   Returns the main clock source
 206:../lpc11cx4-library/lpc_chip_11cxx_lib/inc/clock_11xx.h ****  * @return	Which clock is used for the core clock source?
 207:../lpc11cx4-library/lpc_chip_11cxx_lib/inc/clock_11xx.h ****  */
 208:../lpc11cx4-library/lpc_chip_11cxx_lib/inc/clock_11xx.h **** STATIC INLINE CHIP_SYSCTL_MAINCLKSRC_T Chip_Clock_GetMainClockSource(void)
 209:../lpc11cx4-library/lpc_chip_11cxx_lib/inc/clock_11xx.h **** {
 210:../lpc11cx4-library/lpc_chip_11cxx_lib/inc/clock_11xx.h **** 	return (CHIP_SYSCTL_MAINCLKSRC_T) (LPC_SYSCTL->MAINCLKSEL);
 211:../lpc11cx4-library/lpc_chip_11cxx_lib/inc/clock_11xx.h **** }
 212:../lpc11cx4-library/lpc_chip_11cxx_lib/inc/clock_11xx.h **** 
 213:../lpc11cx4-library/lpc_chip_11cxx_lib/inc/clock_11xx.h **** /**
 214:../lpc11cx4-library/lpc_chip_11cxx_lib/inc/clock_11xx.h ****  * @brief	Set system clock divider
 215:../lpc11cx4-library/lpc_chip_11cxx_lib/inc/clock_11xx.h ****  * @param	div	: divider for system clock
 216:../lpc11cx4-library/lpc_chip_11cxx_lib/inc/clock_11xx.h ****  * @return	Nothing
 217:../lpc11cx4-library/lpc_chip_11cxx_lib/inc/clock_11xx.h ****  * @note	Use 0 to disable, or a divider value of 1 to 255. The system clock
 218:../lpc11cx4-library/lpc_chip_11cxx_lib/inc/clock_11xx.h ****  * rate is the main system clock divided by this value.
 219:../lpc11cx4-library/lpc_chip_11cxx_lib/inc/clock_11xx.h ****  */
 220:../lpc11cx4-library/lpc_chip_11cxx_lib/inc/clock_11xx.h **** STATIC INLINE void Chip_Clock_SetSysClockDiv(uint32_t div)
 221:../lpc11cx4-library/lpc_chip_11cxx_lib/inc/clock_11xx.h **** {
 222:../lpc11cx4-library/lpc_chip_11cxx_lib/inc/clock_11xx.h **** 	LPC_SYSCTL->SYSAHBCLKDIV  = div;
 223:../lpc11cx4-library/lpc_chip_11cxx_lib/inc/clock_11xx.h **** }
 224:../lpc11cx4-library/lpc_chip_11cxx_lib/inc/clock_11xx.h **** 
 225:../lpc11cx4-library/lpc_chip_11cxx_lib/inc/clock_11xx.h **** /**
 226:../lpc11cx4-library/lpc_chip_11cxx_lib/inc/clock_11xx.h ****  * System and peripheral clocks
 227:../lpc11cx4-library/lpc_chip_11cxx_lib/inc/clock_11xx.h ****  */
ARM GAS  /tmp/ccoBYq2X.s 			page 10


 228:../lpc11cx4-library/lpc_chip_11cxx_lib/inc/clock_11xx.h **** typedef enum CHIP_SYSCTL_CLOCK {
 229:../lpc11cx4-library/lpc_chip_11cxx_lib/inc/clock_11xx.h **** 	SYSCTL_CLOCK_SYS = 0,				/*!< 0: System clock */
 230:../lpc11cx4-library/lpc_chip_11cxx_lib/inc/clock_11xx.h **** 	SYSCTL_CLOCK_ROM,					/*!<1:  ROM clock */
 231:../lpc11cx4-library/lpc_chip_11cxx_lib/inc/clock_11xx.h **** 	SYSCTL_CLOCK_RAM,					/*!< 2: RAM clock */
 232:../lpc11cx4-library/lpc_chip_11cxx_lib/inc/clock_11xx.h **** 	SYSCTL_CLOCK_FLASHREG,				/*!< 3: FLASH register interface clock */
 233:../lpc11cx4-library/lpc_chip_11cxx_lib/inc/clock_11xx.h **** 	SYSCTL_CLOCK_FLASHARRAY,			/*!< 4: FLASH array access clock */
 234:../lpc11cx4-library/lpc_chip_11cxx_lib/inc/clock_11xx.h **** #if defined(CHIP_LPC110X)
 235:../lpc11cx4-library/lpc_chip_11cxx_lib/inc/clock_11xx.h **** 	SYSCTL_CLOCK_RESERVED5,				/*!< 5: Reserved */
 236:../lpc11cx4-library/lpc_chip_11cxx_lib/inc/clock_11xx.h **** #else
 237:../lpc11cx4-library/lpc_chip_11cxx_lib/inc/clock_11xx.h **** 	SYSCTL_CLOCK_I2C,					/*!< 5: I2C clock, not on LPC110x */
 238:../lpc11cx4-library/lpc_chip_11cxx_lib/inc/clock_11xx.h **** #endif
 239:../lpc11cx4-library/lpc_chip_11cxx_lib/inc/clock_11xx.h **** 	SYSCTL_CLOCK_GPIO,					/*!< 6: GPIO clock */
 240:../lpc11cx4-library/lpc_chip_11cxx_lib/inc/clock_11xx.h **** 	SYSCTL_CLOCK_CT16B0,				/*!< 7: 16-bit Counter/timer 0 clock */
 241:../lpc11cx4-library/lpc_chip_11cxx_lib/inc/clock_11xx.h **** 	SYSCTL_CLOCK_CT16B1,				/*!< 8: 16-bit Counter/timer 1 clock */
 242:../lpc11cx4-library/lpc_chip_11cxx_lib/inc/clock_11xx.h **** 	SYSCTL_CLOCK_CT32B0,				/*!< 9: 32-bit Counter/timer 0 clock */
 243:../lpc11cx4-library/lpc_chip_11cxx_lib/inc/clock_11xx.h **** 	SYSCTL_CLOCK_CT32B1,				/*!< 10: 32-bit Counter/timer 1 clock */
 244:../lpc11cx4-library/lpc_chip_11cxx_lib/inc/clock_11xx.h **** 	SYSCTL_CLOCK_SSP0,					/*!< 11: SSP0 clock */
 245:../lpc11cx4-library/lpc_chip_11cxx_lib/inc/clock_11xx.h **** 	SYSCTL_CLOCK_UART0,					/*!< 12: UART0 clock */
 246:../lpc11cx4-library/lpc_chip_11cxx_lib/inc/clock_11xx.h **** 	SYSCTL_CLOCK_ADC,					/*!< 13: ADC clock */
 247:../lpc11cx4-library/lpc_chip_11cxx_lib/inc/clock_11xx.h **** #if defined(CHIP_LPC11UXX)
 248:../lpc11cx4-library/lpc_chip_11cxx_lib/inc/clock_11xx.h **** 	SYSCTL_CLOCK_USB,					/*!< 14: USB clock, LPC11Uxx only */
 249:../lpc11cx4-library/lpc_chip_11cxx_lib/inc/clock_11xx.h **** #else
 250:../lpc11cx4-library/lpc_chip_11cxx_lib/inc/clock_11xx.h **** 	SYSCTL_CLOCK_RESERVED14,			/*!< 14: Reserved */
 251:../lpc11cx4-library/lpc_chip_11cxx_lib/inc/clock_11xx.h **** #endif
 252:../lpc11cx4-library/lpc_chip_11cxx_lib/inc/clock_11xx.h **** 	SYSCTL_CLOCK_WDT,					/*!< 15: Watchdog timer clock */
 253:../lpc11cx4-library/lpc_chip_11cxx_lib/inc/clock_11xx.h **** 	SYSCTL_CLOCK_IOCON,					/*!< 16: IOCON block clock */
 254:../lpc11cx4-library/lpc_chip_11cxx_lib/inc/clock_11xx.h **** #if defined(CHIP_LPC11CXX)
 255:../lpc11cx4-library/lpc_chip_11cxx_lib/inc/clock_11xx.h **** 	SYSCTL_CLOCK_CAN,					/*!< 17: CAN clock, LPC11Cxx only */
 256:../lpc11cx4-library/lpc_chip_11cxx_lib/inc/clock_11xx.h **** #else
 257:../lpc11cx4-library/lpc_chip_11cxx_lib/inc/clock_11xx.h **** 	SYSCTL_CLOCK_RESERVED17,			/*!< 17: Reserved */
 258:../lpc11cx4-library/lpc_chip_11cxx_lib/inc/clock_11xx.h **** #endif
 259:../lpc11cx4-library/lpc_chip_11cxx_lib/inc/clock_11xx.h **** #if !(defined(CHIP_LPC110X) || defined(CHIP_LPC11XXLV))  
 260:../lpc11cx4-library/lpc_chip_11cxx_lib/inc/clock_11xx.h **** 	SYSCTL_CLOCK_SSP1,					/*!< 18: SSP1 clock, LPC11A/C/E/Uxx//1125 only */
 261:../lpc11cx4-library/lpc_chip_11cxx_lib/inc/clock_11xx.h **** #if !defined(CHIP_LPC11CXX)
 262:../lpc11cx4-library/lpc_chip_11cxx_lib/inc/clock_11xx.h **** 	SYSCTL_CLOCK_PINT,					/*!< 19: GPIO Pin int register interface clock, LPC11A/E/Uxx only */
 263:../lpc11cx4-library/lpc_chip_11cxx_lib/inc/clock_11xx.h **** #if defined(CHIP_LPC11AXX)
 264:../lpc11cx4-library/lpc_chip_11cxx_lib/inc/clock_11xx.h **** 	SYSCTL_CLOCK_ACOMP,					/*!< 20: Analog comparator clock, LPC11Axx only */
 265:../lpc11cx4-library/lpc_chip_11cxx_lib/inc/clock_11xx.h **** 	SYSCTL_CLOCK_DAC,					/*!< 21: DAC clock, LPC11Axx only */
 266:../lpc11cx4-library/lpc_chip_11cxx_lib/inc/clock_11xx.h **** #else
 267:../lpc11cx4-library/lpc_chip_11cxx_lib/inc/clock_11xx.h **** 	SYSCTL_CLOCK_RESERVED20,			/*!< 20: Reserved */
 268:../lpc11cx4-library/lpc_chip_11cxx_lib/inc/clock_11xx.h **** 	SYSCTL_CLOCK_RESERVED21,			/*!< 21: Reserved */
 269:../lpc11cx4-library/lpc_chip_11cxx_lib/inc/clock_11xx.h **** #endif
 270:../lpc11cx4-library/lpc_chip_11cxx_lib/inc/clock_11xx.h **** 	SYSCTL_CLOCK_RESERVED22,			/*!< 22: Reserved */
 271:../lpc11cx4-library/lpc_chip_11cxx_lib/inc/clock_11xx.h **** 	SYSCTL_CLOCK_P0INT,					/*!< 23: GPIO GROUP1 interrupt register clock, LPC11Axx only */
 272:../lpc11cx4-library/lpc_chip_11cxx_lib/inc/clock_11xx.h **** 	SYSCTL_CLOCK_GROUP0INT = SYSCTL_CLOCK_P0INT,/*!< 23: GPIO GROUP0 interrupt register interface cloc
 273:../lpc11cx4-library/lpc_chip_11cxx_lib/inc/clock_11xx.h **** 	SYSCTL_CLOCK_P1INT,					/*!< 24: GPIO GROUP1 interrupt register clock, LPC11Axx only */
 274:../lpc11cx4-library/lpc_chip_11cxx_lib/inc/clock_11xx.h **** 	SYSCTL_CLOCK_GROUP1INT = SYSCTL_CLOCK_P1INT,/*!< 24: GPIO GROUP1 interrupt register interface cloc
 275:../lpc11cx4-library/lpc_chip_11cxx_lib/inc/clock_11xx.h **** 	SYSCTL_CLOCK_RESERVED25,			/*!< 25: Reserved */
 276:../lpc11cx4-library/lpc_chip_11cxx_lib/inc/clock_11xx.h **** #if defined(CHIP_LPC11EXX)  || defined(CHIP_LPC11UXX)
 277:../lpc11cx4-library/lpc_chip_11cxx_lib/inc/clock_11xx.h **** 	SYSCTL_CLOCK_RAM1,					/*!< 26: SRAM block (0x20000000) clock, LPC11E/Uxx only */
 278:../lpc11cx4-library/lpc_chip_11cxx_lib/inc/clock_11xx.h **** #else
 279:../lpc11cx4-library/lpc_chip_11cxx_lib/inc/clock_11xx.h **** 	SYSCTL_CLOCK_RESERVED26,			/*!< 26: Reserved */
 280:../lpc11cx4-library/lpc_chip_11cxx_lib/inc/clock_11xx.h **** #endif
 281:../lpc11cx4-library/lpc_chip_11cxx_lib/inc/clock_11xx.h **** #if defined(CHIP_LPC11UXX)
 282:../lpc11cx4-library/lpc_chip_11cxx_lib/inc/clock_11xx.h **** 	SYSCTL_CLOCK_USBRAM,				/*!< 27: USB SRAM block clock, LPC11Uxx only */
 283:../lpc11cx4-library/lpc_chip_11cxx_lib/inc/clock_11xx.h **** #else
 284:../lpc11cx4-library/lpc_chip_11cxx_lib/inc/clock_11xx.h **** 	SYSCTL_CLOCK_RESERVED27,			/*!< 27: Reserved */
ARM GAS  /tmp/ccoBYq2X.s 			page 11


 285:../lpc11cx4-library/lpc_chip_11cxx_lib/inc/clock_11xx.h **** #endif
 286:../lpc11cx4-library/lpc_chip_11cxx_lib/inc/clock_11xx.h **** #endif /* !defined(CHIP_LPC11CXX) */
 287:../lpc11cx4-library/lpc_chip_11cxx_lib/inc/clock_11xx.h **** #endif /* !(defined(CHIP_LPC110X) || defined(CHIP_LPC11XXLV)) */
 288:../lpc11cx4-library/lpc_chip_11cxx_lib/inc/clock_11xx.h **** } CHIP_SYSCTL_CLOCK_T;
 289:../lpc11cx4-library/lpc_chip_11cxx_lib/inc/clock_11xx.h **** 
 290:../lpc11cx4-library/lpc_chip_11cxx_lib/inc/clock_11xx.h **** /**
 291:../lpc11cx4-library/lpc_chip_11cxx_lib/inc/clock_11xx.h ****  * @brief	Enable a system or peripheral clock
 292:../lpc11cx4-library/lpc_chip_11cxx_lib/inc/clock_11xx.h ****  * @param	clk	: Clock to enable
 293:../lpc11cx4-library/lpc_chip_11cxx_lib/inc/clock_11xx.h ****  * @return	Nothing
 294:../lpc11cx4-library/lpc_chip_11cxx_lib/inc/clock_11xx.h ****  */
 295:../lpc11cx4-library/lpc_chip_11cxx_lib/inc/clock_11xx.h **** STATIC INLINE void Chip_Clock_EnablePeriphClock(CHIP_SYSCTL_CLOCK_T clk)
 296:../lpc11cx4-library/lpc_chip_11cxx_lib/inc/clock_11xx.h **** {
 297:../lpc11cx4-library/lpc_chip_11cxx_lib/inc/clock_11xx.h **** 	LPC_SYSCTL->SYSAHBCLKCTRL |= (1 << clk);
 170              		.loc 2 297 0
 171 000c 8022     		mov	r2, #128	@ tmp131,
 172 000e 8020     		mov	r0, #128	@ tmp132,
 173 0010 1049     		ldr	r1, .L9	@ tmp130,
 174 0012 8001     		lsl	r0, r0, #6	@ tmp132, tmp132,
 175 0014 8B58     		ldr	r3, [r1, r2]	@ D.6300, MEM[(struct LPC_SYSCTL_T *)1074036736B].SYSAHBCLKCTRL
 176              	.LBE21:
 177              	.LBE20:
 115:../lpc11cx4-library/lpc_chip_11cxx_lib/src/adc_11xx.c **** 
 116:../lpc11cx4-library/lpc_chip_11cxx_lib/src/adc_11xx.c **** 	Chip_Clock_EnablePeriphClock(SYSCTL_CLOCK_ADC);
 117:../lpc11cx4-library/lpc_chip_11cxx_lib/src/adc_11xx.c **** 
 118:../lpc11cx4-library/lpc_chip_11cxx_lib/src/adc_11xx.c **** 	pADC->INTEN = 0;		/* Disable all interrupts */
 119:../lpc11cx4-library/lpc_chip_11cxx_lib/src/adc_11xx.c **** 
 120:../lpc11cx4-library/lpc_chip_11cxx_lib/src/adc_11xx.c **** 	cr |= ADC_CR_PDN;
 121:../lpc11cx4-library/lpc_chip_11cxx_lib/src/adc_11xx.c **** 
 122:../lpc11cx4-library/lpc_chip_11cxx_lib/src/adc_11xx.c **** 	ADCSetup->adcRate = ADC_MAX_SAMPLE_RATE;
 123:../lpc11cx4-library/lpc_chip_11cxx_lib/src/adc_11xx.c **** 	ADCSetup->bitsAccuracy = ADC_10BITS;
 124:../lpc11cx4-library/lpc_chip_11cxx_lib/src/adc_11xx.c **** 	clk = 11;
 125:../lpc11cx4-library/lpc_chip_11cxx_lib/src/adc_11xx.c **** 
 126:../lpc11cx4-library/lpc_chip_11cxx_lib/src/adc_11xx.c **** 	ADCSetup->burstMode = false;
 127:../lpc11cx4-library/lpc_chip_11cxx_lib/src/adc_11xx.c **** 	div = getClkDiv(pADC, false, ADCSetup->adcRate, clk);
 128:../lpc11cx4-library/lpc_chip_11cxx_lib/src/adc_11xx.c **** 	cr |= ADC_CR_CLKDIV(div);
 129:../lpc11cx4-library/lpc_chip_11cxx_lib/src/adc_11xx.c **** 	cr |= ADC_CR_BITACC(ADCSetup->bitsAccuracy);
 130:../lpc11cx4-library/lpc_chip_11cxx_lib/src/adc_11xx.c **** 	pADC->CR = cr;
 131:../lpc11cx4-library/lpc_chip_11cxx_lib/src/adc_11xx.c **** }
 178              		.loc 1 131 0
 179              		@ sp needed	@
 180              	.LBB23:
 181              	.LBB22:
 182              		.loc 2 297 0
 183 0016 0343     		orr	r3, r0	@ D.6300, tmp132
 184 0018 8B50     		str	r3, [r1, r2]	@ D.6300, MEM[(struct LPC_SYSCTL_T *)1074036736B].SYSAHBCLKCTRL
 185              	.LBE22:
 186              	.LBE23:
 118:../lpc11cx4-library/lpc_chip_11cxx_lib/src/adc_11xx.c **** 
 187              		.loc 1 118 0
 188 001a 0023     		mov	r3, #0	@ tmp135,
 122:../lpc11cx4-library/lpc_chip_11cxx_lib/src/adc_11xx.c **** 	ADCSetup->bitsAccuracy = ADC_10BITS;
 189              		.loc 1 122 0
 190 001c 0E4A     		ldr	r2, .L9+4	@ tmp136,
 118:../lpc11cx4-library/lpc_chip_11cxx_lib/src/adc_11xx.c **** 
 191              		.loc 1 118 0
 192 001e EB60     		str	r3, [r5, #12]	@ tmp135, pADC_5(D)->INTEN
 193              	.LVL12:
ARM GAS  /tmp/ccoBYq2X.s 			page 12


 122:../lpc11cx4-library/lpc_chip_11cxx_lib/src/adc_11xx.c **** 	ADCSetup->bitsAccuracy = ADC_10BITS;
 194              		.loc 1 122 0
 195 0020 2260     		str	r2, [r4]	@ tmp136, ADCSetup_7(D)->adcRate
 123:../lpc11cx4-library/lpc_chip_11cxx_lib/src/adc_11xx.c **** 	clk = 11;
 196              		.loc 1 123 0
 197 0022 2371     		strb	r3, [r4, #4]	@ tmp135, ADCSetup_7(D)->bitsAccuracy
 198              	.LVL13:
 126:../lpc11cx4-library/lpc_chip_11cxx_lib/src/adc_11xx.c **** 	div = getClkDiv(pADC, false, ADCSetup->adcRate, clk);
 199              		.loc 1 126 0
 200 0024 6371     		strb	r3, [r4, #5]	@ tmp135, ADCSetup_7(D)->burstMode
 201              	.LVL14:
 202              	.LBB24:
 203              	.LBB25:
  67:../lpc11cx4-library/lpc_chip_11cxx_lib/src/adc_11xx.c **** 
 204              		.loc 1 67 0
 205 0026 FFF7FEFF 		bl	Chip_Clock_GetSystemClockRate	@
 206              	.LVL15:
 207              	.LBE25:
 208              	.LBE24:
 129:../lpc11cx4-library/lpc_chip_11cxx_lib/src/adc_11xx.c **** 	pADC->CR = cr;
 209              		.loc 1 129 0
 210 002a 2379     		ldrb	r3, [r4, #4]	@ tmp144,
 211 002c 0724     		mov	r4, #7	@ tmp146,
 212              	.LVL16:
 213 002e 1C40     		and	r4, r3	@ D.6299, tmp144
 214 0030 8023     		mov	r3, #128	@ tmp150,
 215 0032 6404     		lsl	r4, r4, #17	@ D.6299, D.6299,
 216 0034 9B03     		lsl	r3, r3, #14	@ tmp150, tmp150,
 217 0036 1C43     		orr	r4, r3	@ D.6298, tmp150
 218              	.LBB27:
 219              	.LBB26:
  77:../lpc11cx4-library/lpc_chip_11cxx_lib/src/adc_11xx.c **** 	return div;
 220              		.loc 1 77 0
 221 0038 084B     		ldr	r3, .L9+8	@ tmp163,
 222 003a 4000     		lsl	r0, r0, #1	@ D.6300, adcBlockFreq,
 223              	.LVL17:
 224 003c 9C46     		mov	ip, r3	@ tmp163, tmp163
 225 003e 0849     		ldr	r1, .L9+12	@,
 226 0040 6044     		add	r0, r0, ip	@ D.6300, tmp163
 227              	.LVL18:
 228 0042 FFF7FEFF 		bl	__aeabi_uidiv	@
 229              	.LVL19:
 230 0046 0138     		sub	r0, r0, #1	@ tmp158,
 231              	.LBE26:
 232              	.LBE27:
 128:../lpc11cx4-library/lpc_chip_11cxx_lib/src/adc_11xx.c **** 	cr |= ADC_CR_BITACC(ADCSetup->bitsAccuracy);
 233              		.loc 1 128 0
 234 0048 C0B2     		uxtb	r0, r0	@ D.6299, tmp158
 235 004a 0002     		lsl	r0, r0, #8	@ D.6299, D.6299,
 129:../lpc11cx4-library/lpc_chip_11cxx_lib/src/adc_11xx.c **** 	pADC->CR = cr;
 236              		.loc 1 129 0
 237 004c 2043     		orr	r0, r4	@ cr, D.6298
 238              	.LVL20:
 130:../lpc11cx4-library/lpc_chip_11cxx_lib/src/adc_11xx.c **** }
 239              		.loc 1 130 0
 240 004e 2860     		str	r0, [r5]	@ cr, pADC_5(D)->CR
 241              	.LVL21:
ARM GAS  /tmp/ccoBYq2X.s 			page 13


 242              		.loc 1 131 0
 243 0050 38BD     		pop	{r3, r4, r5, pc}
 244              	.L10:
 245 0052 C046     		.align	2
 246              	.L9:
 247 0054 00800440 		.word	1074036736
 248 0058 801A0600 		.word	400000
 249 005c 80234300 		.word	4400000
 250 0060 00478600 		.word	8800000
 251              		.cfi_endproc
 252              	.LFE202:
 253              		.size	Chip_ADC_Init, .-Chip_ADC_Init
 254              		.section	.text.Chip_ADC_DeInit,"ax",%progbits
 255              		.align	2
 256              		.global	Chip_ADC_DeInit
 257              		.code	16
 258              		.thumb_func
 259              		.type	Chip_ADC_DeInit, %function
 260              	Chip_ADC_DeInit:
 261              	.LFB203:
 132:../lpc11cx4-library/lpc_chip_11cxx_lib/src/adc_11xx.c **** 
 133:../lpc11cx4-library/lpc_chip_11cxx_lib/src/adc_11xx.c **** /* Shutdown ADC */
 134:../lpc11cx4-library/lpc_chip_11cxx_lib/src/adc_11xx.c **** void Chip_ADC_DeInit(LPC_ADC_T *pADC)
 135:../lpc11cx4-library/lpc_chip_11cxx_lib/src/adc_11xx.c **** {
 262              		.loc 1 135 0
 263              		.cfi_startproc
 264              	.LVL22:
 265 0000 08B5     		push	{r3, lr}	@
 266              		.cfi_def_cfa_offset 8
 267              		.cfi_offset 3, -8
 268              		.cfi_offset 14, -4
 136:../lpc11cx4-library/lpc_chip_11cxx_lib/src/adc_11xx.c **** 	pADC->INTEN = 0x00000100;
 269              		.loc 1 136 0
 270 0002 8023     		mov	r3, #128	@ tmp113,
 271 0004 5B00     		lsl	r3, r3, #1	@ tmp113, tmp113,
 272 0006 C360     		str	r3, [r0, #12]	@ tmp113, pADC_2(D)->INTEN
 137:../lpc11cx4-library/lpc_chip_11cxx_lib/src/adc_11xx.c **** 	pADC->CR = 0;
 273              		.loc 1 137 0
 274 0008 0023     		mov	r3, #0	@ tmp114,
 275              	.LBB28:
 276              	.LBB29:
 298:../lpc11cx4-library/lpc_chip_11cxx_lib/inc/clock_11xx.h **** }
 299:../lpc11cx4-library/lpc_chip_11cxx_lib/inc/clock_11xx.h **** 
 300:../lpc11cx4-library/lpc_chip_11cxx_lib/inc/clock_11xx.h **** /**
 301:../lpc11cx4-library/lpc_chip_11cxx_lib/inc/clock_11xx.h ****  * @brief	Disable a system or peripheral clock
 302:../lpc11cx4-library/lpc_chip_11cxx_lib/inc/clock_11xx.h ****  * @param	clk	: Clock to disable
 303:../lpc11cx4-library/lpc_chip_11cxx_lib/inc/clock_11xx.h ****  * @return	Nothing
 304:../lpc11cx4-library/lpc_chip_11cxx_lib/inc/clock_11xx.h ****  */
 305:../lpc11cx4-library/lpc_chip_11cxx_lib/inc/clock_11xx.h **** STATIC INLINE void Chip_Clock_DisablePeriphClock(CHIP_SYSCTL_CLOCK_T clk)
 306:../lpc11cx4-library/lpc_chip_11cxx_lib/inc/clock_11xx.h **** {
 307:../lpc11cx4-library/lpc_chip_11cxx_lib/inc/clock_11xx.h **** 	LPC_SYSCTL->SYSAHBCLKCTRL &= ~(1 << clk);
 277              		.loc 2 307 0
 278 000a 8022     		mov	r2, #128	@ tmp116,
 279 000c 0449     		ldr	r1, .L12	@ tmp115,
 280              	.LBE29:
 281              	.LBE28:
 282              		.loc 1 137 0
ARM GAS  /tmp/ccoBYq2X.s 			page 14


 283 000e 0360     		str	r3, [r0]	@ tmp114, pADC_2(D)->CR
 284              	.LVL23:
 285              	.LBB32:
 286              	.LBB30:
 287              		.loc 2 307 0
 288 0010 8858     		ldr	r0, [r1, r2]	@ D.6303, MEM[(struct LPC_SYSCTL_T *)1074036736B].SYSAHBCLKCTRL
 289              	.LVL24:
 290 0012 044B     		ldr	r3, .L12+4	@ tmp117,
 291              	.LBE30:
 292              	.LBE32:
 138:../lpc11cx4-library/lpc_chip_11cxx_lib/src/adc_11xx.c **** 	Chip_Clock_DisablePeriphClock(SYSCTL_CLOCK_ADC);
 139:../lpc11cx4-library/lpc_chip_11cxx_lib/src/adc_11xx.c **** 	Chip_SYSCTL_PowerDown(SYSCTL_POWERDOWN_ADC_PD);
 140:../lpc11cx4-library/lpc_chip_11cxx_lib/src/adc_11xx.c **** }
 293              		.loc 1 140 0
 294              		@ sp needed	@
 295              	.LBB33:
 296              	.LBB31:
 297              		.loc 2 307 0
 298 0014 0340     		and	r3, r0	@ D.6303, D.6303
 299 0016 8B50     		str	r3, [r1, r2]	@ D.6303, MEM[(struct LPC_SYSCTL_T *)1074036736B].SYSAHBCLKCTRL
 300              	.LBE31:
 301              	.LBE33:
 139:../lpc11cx4-library/lpc_chip_11cxx_lib/src/adc_11xx.c **** }
 302              		.loc 1 139 0
 303 0018 1020     		mov	r0, #16	@,
 304 001a FFF7FEFF 		bl	Chip_SYSCTL_PowerDown	@
 305              	.LVL25:
 306              		.loc 1 140 0
 307 001e 08BD     		pop	{r3, pc}
 308              	.L13:
 309              		.align	2
 310              	.L12:
 311 0020 00800440 		.word	1074036736
 312 0024 FFDFFFFF 		.word	-8193
 313              		.cfi_endproc
 314              	.LFE203:
 315              		.size	Chip_ADC_DeInit, .-Chip_ADC_DeInit
 316              		.section	.text.Chip_ADC_ReadValue,"ax",%progbits
 317              		.align	2
 318              		.global	Chip_ADC_ReadValue
 319              		.code	16
 320              		.thumb_func
 321              		.type	Chip_ADC_ReadValue, %function
 322              	Chip_ADC_ReadValue:
 323              	.LFB204:
 141:../lpc11cx4-library/lpc_chip_11cxx_lib/src/adc_11xx.c **** 
 142:../lpc11cx4-library/lpc_chip_11cxx_lib/src/adc_11xx.c **** /* Get the ADC value */
 143:../lpc11cx4-library/lpc_chip_11cxx_lib/src/adc_11xx.c **** Status Chip_ADC_ReadValue(LPC_ADC_T *pADC, uint8_t channel, uint16_t *data)
 144:../lpc11cx4-library/lpc_chip_11cxx_lib/src/adc_11xx.c **** {
 324              		.loc 1 144 0
 325              		.cfi_startproc
 326              	.LVL26:
 327              	.LBB34:
 328              	.LBB35:
  93:../lpc11cx4-library/lpc_chip_11cxx_lib/src/adc_11xx.c **** 	if (!ADC_DR_DONE(temp)) {
 329              		.loc 1 93 0
 330 0000 0431     		add	r1, r1, #4	@ tmp121,
ARM GAS  /tmp/ccoBYq2X.s 			page 15


 331              	.LVL27:
 332 0002 8900     		lsl	r1, r1, #2	@ tmp122, tmp121,
 333 0004 0B58     		ldr	r3, [r1, r0]	@ temp, pADC_2(D)->DR
 334              	.LVL28:
  95:../lpc11cx4-library/lpc_chip_11cxx_lib/src/adc_11xx.c **** 	}
 335              		.loc 1 95 0
 336 0006 0020     		mov	r0, #0	@ D.6310,
 337              	.LVL29:
  94:../lpc11cx4-library/lpc_chip_11cxx_lib/src/adc_11xx.c **** 		return ERROR;
 338              		.loc 1 94 0
 339 0008 002B     		cmp	r3, #0	@ temp,
 340 000a 03DA     		bge	.L15	@,
  99:../lpc11cx4-library/lpc_chip_11cxx_lib/src/adc_11xx.c **** 	return SUCCESS;
 341              		.loc 1 99 0
 342 000c 1B04     		lsl	r3, r3, #16	@ tmp126, temp,
 343              	.LVL30:
 344 000e 9B0D     		lsr	r3, r3, #22	@ tmp125, tmp126,
 345 0010 1380     		strh	r3, [r2]	@ tmp125, *data_4(D)
 100:../lpc11cx4-library/lpc_chip_11cxx_lib/src/adc_11xx.c **** }
 346              		.loc 1 100 0
 347 0012 0130     		add	r0, r0, #1	@ D.6310,
 348              	.L15:
 349              	.LBE35:
 350              	.LBE34:
 145:../lpc11cx4-library/lpc_chip_11cxx_lib/src/adc_11xx.c **** 	return readAdcVal(pADC, channel, data);
 146:../lpc11cx4-library/lpc_chip_11cxx_lib/src/adc_11xx.c **** }
 351              		.loc 1 146 0
 352              		@ sp needed	@
 353 0014 7047     		bx	lr
 354              		.cfi_endproc
 355              	.LFE204:
 356              		.size	Chip_ADC_ReadValue, .-Chip_ADC_ReadValue
 357 0016 C046     		.section	.text.Chip_ADC_ReadStatus,"ax",%progbits
 358              		.align	2
 359              		.global	Chip_ADC_ReadStatus
 360              		.code	16
 361              		.thumb_func
 362              		.type	Chip_ADC_ReadStatus, %function
 363              	Chip_ADC_ReadStatus:
 364              	.LFB205:
 147:../lpc11cx4-library/lpc_chip_11cxx_lib/src/adc_11xx.c **** 
 148:../lpc11cx4-library/lpc_chip_11cxx_lib/src/adc_11xx.c **** /* Get ADC Channel status from ADC data register */
 149:../lpc11cx4-library/lpc_chip_11cxx_lib/src/adc_11xx.c **** FlagStatus Chip_ADC_ReadStatus(LPC_ADC_T *pADC, uint8_t channel, uint32_t StatusType)
 150:../lpc11cx4-library/lpc_chip_11cxx_lib/src/adc_11xx.c **** {
 365              		.loc 1 150 0
 366              		.cfi_startproc
 367              	.LVL31:
 151:../lpc11cx4-library/lpc_chip_11cxx_lib/src/adc_11xx.c **** 	switch (StatusType) {
 368              		.loc 1 151 0
 369 0000 012A     		cmp	r2, #1	@ StatusType,
 370 0002 10D0     		beq	.L19	@,
 371 0004 002A     		cmp	r2, #0	@ StatusType,
 372 0006 09D0     		beq	.L20	@,
 373 0008 022A     		cmp	r2, #2	@ StatusType,
 374 000a 01D0     		beq	.L21	@,
 152:../lpc11cx4-library/lpc_chip_11cxx_lib/src/adc_11xx.c **** 	case ADC_DR_DONE_STAT:
 153:../lpc11cx4-library/lpc_chip_11cxx_lib/src/adc_11xx.c **** 		return (pADC->STAT & (1UL << channel)) ? SET : RESET;
ARM GAS  /tmp/ccoBYq2X.s 			page 16


 154:../lpc11cx4-library/lpc_chip_11cxx_lib/src/adc_11xx.c **** 
 155:../lpc11cx4-library/lpc_chip_11cxx_lib/src/adc_11xx.c **** 	case ADC_DR_OVERRUN_STAT:
 156:../lpc11cx4-library/lpc_chip_11cxx_lib/src/adc_11xx.c **** 		channel += 8;
 157:../lpc11cx4-library/lpc_chip_11cxx_lib/src/adc_11xx.c **** 		return (pADC->STAT & (1UL << channel)) ? SET : RESET;
 158:../lpc11cx4-library/lpc_chip_11cxx_lib/src/adc_11xx.c **** 
 159:../lpc11cx4-library/lpc_chip_11cxx_lib/src/adc_11xx.c **** 	case ADC_DR_ADINT_STAT:
 160:../lpc11cx4-library/lpc_chip_11cxx_lib/src/adc_11xx.c **** 		return pADC->STAT >> 16 ? SET : RESET;
 161:../lpc11cx4-library/lpc_chip_11cxx_lib/src/adc_11xx.c **** 
 162:../lpc11cx4-library/lpc_chip_11cxx_lib/src/adc_11xx.c **** 	default:
 163:../lpc11cx4-library/lpc_chip_11cxx_lib/src/adc_11xx.c **** 		break;
 164:../lpc11cx4-library/lpc_chip_11cxx_lib/src/adc_11xx.c **** 	}
 165:../lpc11cx4-library/lpc_chip_11cxx_lib/src/adc_11xx.c **** 	return RESET;
 375              		.loc 1 165 0
 376 000c 0020     		mov	r0, #0	@ D.6315,
 377              	.LVL32:
 378              	.L18:
 166:../lpc11cx4-library/lpc_chip_11cxx_lib/src/adc_11xx.c **** }
 379              		.loc 1 166 0
 380              		@ sp needed	@
 381 000e 7047     		bx	lr
 382              	.LVL33:
 383              	.L21:
 160:../lpc11cx4-library/lpc_chip_11cxx_lib/src/adc_11xx.c **** 
 384              		.loc 1 160 0
 385 0010 006B     		ldr	r0, [r0, #48]	@ D.6316, pADC_4(D)->STAT
 386              	.LVL34:
 387 0012 000C     		lsr	r0, r0, #16	@ D.6316, D.6316,
 388 0014 431E     		sub	r3, r0, #1	@ tmp138, D.6316
 389 0016 9841     		sbc	r0, r0, r3	@ tmp137, D.6316, tmp138
 390 0018 C0B2     		uxtb	r0, r0	@ D.6315, tmp137
 391 001a F8E7     		b	.L18	@
 392              	.LVL35:
 393              	.L20:
 153:../lpc11cx4-library/lpc_chip_11cxx_lib/src/adc_11xx.c **** 
 394              		.loc 1 153 0
 395 001c 036B     		ldr	r3, [r0, #48]	@ D.6316, pADC_4(D)->STAT
 396 001e 0120     		mov	r0, #1	@ tmp128,
 397              	.LVL36:
 398 0020 CB40     		lsr	r3, r3, r1	@ D.6316, D.6316, channel
 399 0022 1840     		and	r0, r3	@ D.6315, D.6316
 400 0024 F3E7     		b	.L18	@
 401              	.LVL37:
 402              	.L19:
 157:../lpc11cx4-library/lpc_chip_11cxx_lib/src/adc_11xx.c **** 
 403              		.loc 1 157 0
 404 0026 036B     		ldr	r3, [r0, #48]	@ D.6316, pADC_4(D)->STAT
 156:../lpc11cx4-library/lpc_chip_11cxx_lib/src/adc_11xx.c **** 		return (pADC->STAT & (1UL << channel)) ? SET : RESET;
 405              		.loc 1 156 0
 406 0028 0831     		add	r1, r1, #8	@ tmp130,
 407              	.LVL38:
 157:../lpc11cx4-library/lpc_chip_11cxx_lib/src/adc_11xx.c **** 
 408              		.loc 1 157 0
 409 002a C9B2     		uxtb	r1, r1	@ D.6317, tmp130
 410 002c CB40     		lsr	r3, r3, r1	@ D.6316, D.6316, D.6317
 411 002e 1A40     		and	r2, r3	@ D.6316, D.6316
 412              	.LVL39:
 413 0030 D0B2     		uxtb	r0, r2	@ D.6315, D.6316
ARM GAS  /tmp/ccoBYq2X.s 			page 17


 414              	.LVL40:
 415 0032 ECE7     		b	.L18	@
 416              		.cfi_endproc
 417              	.LFE205:
 418              		.size	Chip_ADC_ReadStatus, .-Chip_ADC_ReadStatus
 419              		.section	.text.Chip_ADC_Int_SetChannelCmd,"ax",%progbits
 420              		.align	2
 421              		.global	Chip_ADC_Int_SetChannelCmd
 422              		.code	16
 423              		.thumb_func
 424              		.type	Chip_ADC_Int_SetChannelCmd, %function
 425              	Chip_ADC_Int_SetChannelCmd:
 426              	.LFB206:
 167:../lpc11cx4-library/lpc_chip_11cxx_lib/src/adc_11xx.c **** 
 168:../lpc11cx4-library/lpc_chip_11cxx_lib/src/adc_11xx.c **** /* Enable/Disable interrupt for ADC channel */
 169:../lpc11cx4-library/lpc_chip_11cxx_lib/src/adc_11xx.c **** void Chip_ADC_Int_SetChannelCmd(LPC_ADC_T *pADC, uint8_t channel, FunctionalState NewState)
 170:../lpc11cx4-library/lpc_chip_11cxx_lib/src/adc_11xx.c **** {
 427              		.loc 1 170 0
 428              		.cfi_startproc
 429              	.LVL41:
 171:../lpc11cx4-library/lpc_chip_11cxx_lib/src/adc_11xx.c **** 	if (NewState == ENABLE) {
 172:../lpc11cx4-library/lpc_chip_11cxx_lib/src/adc_11xx.c **** 		pADC->INTEN |= (1UL << channel);
 430              		.loc 1 172 0
 431 0000 C368     		ldr	r3, [r0, #12]	@ D.6321,
 171:../lpc11cx4-library/lpc_chip_11cxx_lib/src/adc_11xx.c **** 	if (NewState == ENABLE) {
 432              		.loc 1 171 0
 433 0002 012A     		cmp	r2, #1	@ NewState,
 434 0004 04D0     		beq	.L28	@,
 173:../lpc11cx4-library/lpc_chip_11cxx_lib/src/adc_11xx.c **** 	}
 174:../lpc11cx4-library/lpc_chip_11cxx_lib/src/adc_11xx.c **** 	else {
 175:../lpc11cx4-library/lpc_chip_11cxx_lib/src/adc_11xx.c **** 		pADC->INTEN &= (~(1UL << channel));
 435              		.loc 1 175 0
 436 0006 0122     		mov	r2, #1	@ tmp125,
 437              	.LVL42:
 438 0008 8A40     		lsl	r2, r2, r1	@ D.6321, D.6321, channel
 439 000a 9343     		bic	r3, r2	@ D.6321, D.6321
 440 000c C360     		str	r3, [r0, #12]	@ D.6321, pADC_4(D)->INTEN
 441              	.L25:
 176:../lpc11cx4-library/lpc_chip_11cxx_lib/src/adc_11xx.c **** 	}
 177:../lpc11cx4-library/lpc_chip_11cxx_lib/src/adc_11xx.c **** }
 442              		.loc 1 177 0
 443              		@ sp needed	@
 444 000e 7047     		bx	lr
 445              	.LVL43:
 446              	.L28:
 172:../lpc11cx4-library/lpc_chip_11cxx_lib/src/adc_11xx.c **** 	}
 447              		.loc 1 172 0
 448 0010 8A40     		lsl	r2, r2, r1	@ D.6321, NewState, channel
 449              	.LVL44:
 450 0012 1A43     		orr	r2, r3	@ D.6321, D.6321
 451 0014 C260     		str	r2, [r0, #12]	@ D.6321, pADC_4(D)->INTEN
 452 0016 FAE7     		b	.L25	@
 453              		.cfi_endproc
 454              	.LFE206:
 455              		.size	Chip_ADC_Int_SetChannelCmd, .-Chip_ADC_Int_SetChannelCmd
 456              		.section	.text.Chip_ADC_SetStartMode,"ax",%progbits
 457              		.align	2
ARM GAS  /tmp/ccoBYq2X.s 			page 18


 458              		.global	Chip_ADC_SetStartMode
 459              		.code	16
 460              		.thumb_func
 461              		.type	Chip_ADC_SetStartMode, %function
 462              	Chip_ADC_SetStartMode:
 463              	.LFB207:
 178:../lpc11cx4-library/lpc_chip_11cxx_lib/src/adc_11xx.c **** 
 179:../lpc11cx4-library/lpc_chip_11cxx_lib/src/adc_11xx.c **** /* Select the mode starting the AD conversion */
 180:../lpc11cx4-library/lpc_chip_11cxx_lib/src/adc_11xx.c **** void Chip_ADC_SetStartMode(LPC_ADC_T *pADC, ADC_START_MODE_T mode, ADC_EDGE_CFG_T EdgeOption)
 181:../lpc11cx4-library/lpc_chip_11cxx_lib/src/adc_11xx.c **** {
 464              		.loc 1 181 0
 465              		.cfi_startproc
 466              	.LVL45:
 182:../lpc11cx4-library/lpc_chip_11cxx_lib/src/adc_11xx.c **** 	if ((mode != ADC_START_NOW) && (mode != ADC_NO_START)) {
 467              		.loc 1 182 0
 468 0000 0129     		cmp	r1, #1	@ mode,
 469 0002 05D9     		bls	.L30	@,
 183:../lpc11cx4-library/lpc_chip_11cxx_lib/src/adc_11xx.c **** 		if (EdgeOption) {
 470              		.loc 1 183 0
 471 0004 002A     		cmp	r2, #0	@ EdgeOption,
 472 0006 0AD1     		bne	.L32	@,
 184:../lpc11cx4-library/lpc_chip_11cxx_lib/src/adc_11xx.c **** 			pADC->CR |= ADC_CR_EDGE;
 185:../lpc11cx4-library/lpc_chip_11cxx_lib/src/adc_11xx.c **** 		}
 186:../lpc11cx4-library/lpc_chip_11cxx_lib/src/adc_11xx.c **** 		else {
 187:../lpc11cx4-library/lpc_chip_11cxx_lib/src/adc_11xx.c **** 			pADC->CR &= ~ADC_CR_EDGE;
 473              		.loc 1 187 0
 474 0008 0268     		ldr	r2, [r0]	@ D.6325, pADC_5(D)->CR
 475              	.LVL46:
 476 000a 084B     		ldr	r3, .L33	@ tmp123,
 477 000c 1340     		and	r3, r2	@ D.6325, D.6325
 478 000e 0360     		str	r3, [r0]	@ D.6325,* pADC
 479              	.L30:
 480              	.LVL47:
 481              	.LBB36:
 482              	.LBB37:
  85:../lpc11cx4-library/lpc_chip_11cxx_lib/src/adc_11xx.c **** 	pADC->CR = temp | (ADC_CR_START_MODE_SEL((uint32_t) start_mode));
 483              		.loc 1 85 0
 484 0010 0268     		ldr	r2, [r0]	@ D.6325, pADC_5(D)->CR
 485              	.LVL48:
 486 0012 074B     		ldr	r3, .L33+4	@ tmp126,
  86:../lpc11cx4-library/lpc_chip_11cxx_lib/src/adc_11xx.c **** }
 487              		.loc 1 86 0
 488 0014 0906     		lsl	r1, r1, #24	@ D.6325, mode,
 489              	.LVL49:
  85:../lpc11cx4-library/lpc_chip_11cxx_lib/src/adc_11xx.c **** 	pADC->CR = temp | (ADC_CR_START_MODE_SEL((uint32_t) start_mode));
 490              		.loc 1 85 0
 491 0016 1340     		and	r3, r2	@ temp, D.6325
 492              	.LVL50:
  86:../lpc11cx4-library/lpc_chip_11cxx_lib/src/adc_11xx.c **** }
 493              		.loc 1 86 0
 494 0018 1943     		orr	r1, r3	@ D.6325, temp
 495 001a 0160     		str	r1, [r0]	@ D.6325, pADC_5(D)->CR
 496              	.LBE37:
 497              	.LBE36:
 188:../lpc11cx4-library/lpc_chip_11cxx_lib/src/adc_11xx.c **** 		}
 189:../lpc11cx4-library/lpc_chip_11cxx_lib/src/adc_11xx.c **** 	}
 190:../lpc11cx4-library/lpc_chip_11cxx_lib/src/adc_11xx.c **** 	setStartMode(pADC, (uint8_t) mode);
ARM GAS  /tmp/ccoBYq2X.s 			page 19


 191:../lpc11cx4-library/lpc_chip_11cxx_lib/src/adc_11xx.c **** }
 498              		.loc 1 191 0
 499              		@ sp needed	@
 500 001c 7047     		bx	lr
 501              	.LVL51:
 502              	.L32:
 184:../lpc11cx4-library/lpc_chip_11cxx_lib/src/adc_11xx.c **** 		}
 503              		.loc 1 184 0
 504 001e 8022     		mov	r2, #128	@ tmp122,
 505              	.LVL52:
 506 0020 0368     		ldr	r3, [r0]	@ D.6325, pADC_5(D)->CR
 507 0022 1205     		lsl	r2, r2, #20	@ tmp122, tmp122,
 508 0024 1343     		orr	r3, r2	@ D.6325, tmp122
 509 0026 0360     		str	r3, [r0]	@ D.6325,* pADC
 510 0028 F2E7     		b	.L30	@
 511              	.L34:
 512 002a C046     		.align	2
 513              	.L33:
 514 002c FFFFFFF7 		.word	-134217729
 515 0030 FFFFFFF8 		.word	-117440513
 516              		.cfi_endproc
 517              	.LFE207:
 518              		.size	Chip_ADC_SetStartMode, .-Chip_ADC_SetStartMode
 519              		.section	.text.Chip_ADC_SetSampleRate,"ax",%progbits
 520              		.align	2
 521              		.global	Chip_ADC_SetSampleRate
 522              		.code	16
 523              		.thumb_func
 524              		.type	Chip_ADC_SetSampleRate, %function
 525              	Chip_ADC_SetSampleRate:
 526              	.LFB208:
 192:../lpc11cx4-library/lpc_chip_11cxx_lib/src/adc_11xx.c **** 
 193:../lpc11cx4-library/lpc_chip_11cxx_lib/src/adc_11xx.c **** /* Set the ADC Sample rate */
 194:../lpc11cx4-library/lpc_chip_11cxx_lib/src/adc_11xx.c **** void Chip_ADC_SetSampleRate(LPC_ADC_T *pADC, ADC_CLOCK_SETUP_T *ADCSetup, uint32_t rate)
 195:../lpc11cx4-library/lpc_chip_11cxx_lib/src/adc_11xx.c **** {
 527              		.loc 1 195 0
 528              		.cfi_startproc
 529              	.LVL53:
 530 0000 F8B5     		push	{r3, r4, r5, r6, r7, lr}	@
 531              		.cfi_def_cfa_offset 24
 532              		.cfi_offset 3, -24
 533              		.cfi_offset 4, -20
 534              		.cfi_offset 5, -16
 535              		.cfi_offset 6, -12
 536              		.cfi_offset 7, -8
 537              		.cfi_offset 14, -4
 538 0002 4F46     		mov	r7, r9	@,
 539 0004 4646     		mov	r6, r8	@,
 540 0006 C0B4     		push	{r6, r7}	@
 541              		.cfi_def_cfa_offset 32
 542              		.cfi_offset 8, -32
 543              		.cfi_offset 9, -28
 544              		.loc 1 195 0
 545 0008 0F1C     		mov	r7, r1	@ ADCSetup, ADCSetup
 196:../lpc11cx4-library/lpc_chip_11cxx_lib/src/adc_11xx.c **** 	uint8_t div;
 197:../lpc11cx4-library/lpc_chip_11cxx_lib/src/adc_11xx.c **** 	uint32_t cr;
 198:../lpc11cx4-library/lpc_chip_11cxx_lib/src/adc_11xx.c **** 
ARM GAS  /tmp/ccoBYq2X.s 			page 20


 199:../lpc11cx4-library/lpc_chip_11cxx_lib/src/adc_11xx.c **** 	cr = pADC->CR & (~ADC_SAMPLE_RATE_CONFIG_MASK);
 546              		.loc 1 199 0
 547 000a 0668     		ldr	r6, [r0]	@ D.6336, pADC_2(D)->CR
 548 000c 154B     		ldr	r3, .L39	@ tmp137,
 200:../lpc11cx4-library/lpc_chip_11cxx_lib/src/adc_11xx.c **** 	ADCSetup->adcRate = rate;
 549              		.loc 1 200 0
 550 000e 3A60     		str	r2, [r7]	@ rate, ADCSetup_5(D)->adcRate
 199:../lpc11cx4-library/lpc_chip_11cxx_lib/src/adc_11xx.c **** 	ADCSetup->adcRate = rate;
 551              		.loc 1 199 0
 552 0010 1E40     		and	r6, r3	@ cr, tmp137
 553              	.LVL54:
 201:../lpc11cx4-library/lpc_chip_11cxx_lib/src/adc_11xx.c **** 	div = getClkDiv(pADC, ADCSetup->burstMode, rate, (11 - ADCSetup->bitsAccuracy));
 554              		.loc 1 201 0
 555 0012 4B79     		ldrb	r3, [r1, #5]	@ D.6337,
 195:../lpc11cx4-library/lpc_chip_11cxx_lib/src/adc_11xx.c **** 	uint8_t div;
 556              		.loc 1 195 0
 557 0014 051C     		mov	r5, r0	@ pADC, pADC
 558              		.loc 1 201 0
 559 0016 9846     		mov	r8, r3	@ D.6337, D.6337
 560 0018 0B79     		ldrb	r3, [r1, #4]	@ D.6338,
 195:../lpc11cx4-library/lpc_chip_11cxx_lib/src/adc_11xx.c **** 	uint8_t div;
 561              		.loc 1 195 0
 562 001a 141C     		mov	r4, r2	@ rate, rate
 563              		.loc 1 201 0
 564 001c 9946     		mov	r9, r3	@ D.6338, D.6338
 565              	.LVL55:
 566              	.LBB40:
 567              	.LBB41:
  67:../lpc11cx4-library/lpc_chip_11cxx_lib/src/adc_11xx.c **** 
 568              		.loc 1 67 0
 569 001e FFF7FEFF 		bl	Chip_Clock_GetSystemClockRate	@
 570              	.LVL56:
  69:../lpc11cx4-library/lpc_chip_11cxx_lib/src/adc_11xx.c **** 		fullAdcRate = adcRate * clks;
 571              		.loc 1 69 0
 572 0022 4346     		mov	r3, r8	@ D.6337, D.6337
 573 0024 002B     		cmp	r3, #0	@ D.6337,
 574 0026 17D1     		bne	.L38	@,
  73:../lpc11cx4-library/lpc_chip_11cxx_lib/src/adc_11xx.c **** 	}
 575              		.loc 1 73 0
 576 0028 A100     		lsl	r1, r4, #2	@ tmp143, rate,
 577 002a 0919     		add	r1, r1, r4	@ tmp144, tmp143, rate
 578 002c 4900     		lsl	r1, r1, #1	@ tmp145, tmp144,
 579 002e 0919     		add	r1, r1, r4	@ fullAdcRate, tmp145, rate
 580              	.LVL57:
 581              	.L37:
 582              	.LBE41:
 583              	.LBE40:
 202:../lpc11cx4-library/lpc_chip_11cxx_lib/src/adc_11xx.c **** 	cr |= ADC_CR_CLKDIV(div);
 203:../lpc11cx4-library/lpc_chip_11cxx_lib/src/adc_11xx.c **** 	cr |= ADC_CR_BITACC(ADCSetup->bitsAccuracy);
 584              		.loc 1 203 0
 585 0030 0724     		mov	r4, #7	@ tmp152,
 586              	.LVL58:
 587 0032 3B79     		ldrb	r3, [r7, #4]	@ tmp150,
 588              	.LBB45:
 589              	.LBB42:
  77:../lpc11cx4-library/lpc_chip_11cxx_lib/src/adc_11xx.c **** 	return div;
 590              		.loc 1 77 0
ARM GAS  /tmp/ccoBYq2X.s 			page 21


 591 0034 4000     		lsl	r0, r0, #1	@ D.6336, adcBlockFreq,
 592              	.LVL59:
 593              	.LBE42:
 594              	.LBE45:
 595              		.loc 1 203 0
 596 0036 2340     		and	r3, r4	@ D.6340, tmp152
 597 0038 5B04     		lsl	r3, r3, #17	@ D.6340, D.6340,
 598 003a 3343     		orr	r3, r6	@ D.6339, cr
 599              	.LBB46:
 600              	.LBB43:
  77:../lpc11cx4-library/lpc_chip_11cxx_lib/src/adc_11xx.c **** 	return div;
 601              		.loc 1 77 0
 602 003c 0818     		add	r0, r1, r0	@ D.6336, fullAdcRate, D.6336
 603              	.LVL60:
 604 003e 4900     		lsl	r1, r1, #1	@ D.6336, fullAdcRate,
 605              	.LVL61:
 606 0040 1C1C     		mov	r4, r3	@ D.6339, D.6339
 607 0042 FFF7FEFF 		bl	__aeabi_uidiv	@
 608              	.LVL62:
 609 0046 0138     		sub	r0, r0, #1	@ tmp163,
 610              	.LBE43:
 611              	.LBE46:
 202:../lpc11cx4-library/lpc_chip_11cxx_lib/src/adc_11xx.c **** 	cr |= ADC_CR_CLKDIV(div);
 612              		.loc 1 202 0
 613 0048 C0B2     		uxtb	r0, r0	@ D.6340, tmp163
 614 004a 0002     		lsl	r0, r0, #8	@ D.6340, D.6340,
 615              		.loc 1 203 0
 616 004c 2043     		orr	r0, r4	@ cr, D.6339
 617              	.LVL63:
 204:../lpc11cx4-library/lpc_chip_11cxx_lib/src/adc_11xx.c **** 	pADC->CR = cr;
 618              		.loc 1 204 0
 619 004e 2860     		str	r0, [r5]	@ cr, pADC_2(D)->CR
 205:../lpc11cx4-library/lpc_chip_11cxx_lib/src/adc_11xx.c **** }
 620              		.loc 1 205 0
 621              		@ sp needed	@
 622              	.LVL64:
 623              	.LVL65:
 624              	.LVL66:
 625              	.LVL67:
 626 0050 0CBC     		pop	{r2, r3}
 627 0052 9046     		mov	r8, r2
 628 0054 9946     		mov	r9, r3
 629 0056 F8BD     		pop	{r3, r4, r5, r6, r7, pc}
 630              	.LVL68:
 631              	.L38:
 201:../lpc11cx4-library/lpc_chip_11cxx_lib/src/adc_11xx.c **** 	cr |= ADC_CR_CLKDIV(div);
 632              		.loc 1 201 0
 633 0058 0B21     		mov	r1, #11	@ tmp138,
 634 005a 4B46     		mov	r3, r9	@ D.6338, D.6338
 635 005c C91A     		sub	r1, r1, r3	@ tmp140, tmp138, D.6338
 636              	.LBB47:
 637              	.LBB44:
  70:../lpc11cx4-library/lpc_chip_11cxx_lib/src/adc_11xx.c **** 	}
 638              		.loc 1 70 0
 639 005e C9B2     		uxtb	r1, r1	@ D.6336, tmp140
 640 0060 6143     		mul	r1, r4	@ fullAdcRate, rate
 641              	.LVL69:
ARM GAS  /tmp/ccoBYq2X.s 			page 22


 642 0062 E5E7     		b	.L37	@
 643              	.L40:
 644              		.align	2
 645              	.L39:
 646 0064 FF00F1FF 		.word	-982785
 647              	.LBE44:
 648              	.LBE47:
 649              		.cfi_endproc
 650              	.LFE208:
 651              		.size	Chip_ADC_SetSampleRate, .-Chip_ADC_SetSampleRate
 652              		.section	.text.Chip_ADC_SetResolution,"ax",%progbits
 653              		.align	2
 654              		.global	Chip_ADC_SetResolution
 655              		.code	16
 656              		.thumb_func
 657              		.type	Chip_ADC_SetResolution, %function
 658              	Chip_ADC_SetResolution:
 659              	.LFB209:
 206:../lpc11cx4-library/lpc_chip_11cxx_lib/src/adc_11xx.c **** 
 207:../lpc11cx4-library/lpc_chip_11cxx_lib/src/adc_11xx.c **** /* Set the ADC accuracy bits */
 208:../lpc11cx4-library/lpc_chip_11cxx_lib/src/adc_11xx.c **** void Chip_ADC_SetResolution(LPC_ADC_T *pADC, ADC_CLOCK_SETUP_T *ADCSetup, ADC_RESOLUTION_T resoluti
 209:../lpc11cx4-library/lpc_chip_11cxx_lib/src/adc_11xx.c **** {
 660              		.loc 1 209 0
 661              		.cfi_startproc
 662              	.LVL70:
 663 0000 08B5     		push	{r3, lr}	@
 664              		.cfi_def_cfa_offset 8
 665              		.cfi_offset 3, -8
 666              		.cfi_offset 14, -4
 210:../lpc11cx4-library/lpc_chip_11cxx_lib/src/adc_11xx.c **** 	ADCSetup->bitsAccuracy = resolution;
 667              		.loc 1 210 0
 668 0002 0A71     		strb	r2, [r1, #4]	@ resolution, ADCSetup_2(D)->bitsAccuracy
 211:../lpc11cx4-library/lpc_chip_11cxx_lib/src/adc_11xx.c **** 	Chip_ADC_SetSampleRate(pADC, ADCSetup, ADCSetup->adcRate);
 669              		.loc 1 211 0
 670 0004 0A68     		ldr	r2, [r1]	@ ADCSetup_2(D)->adcRate, ADCSetup_2(D)->adcRate
 671              	.LVL71:
 672 0006 FFF7FEFF 		bl	Chip_ADC_SetSampleRate	@
 673              	.LVL72:
 212:../lpc11cx4-library/lpc_chip_11cxx_lib/src/adc_11xx.c **** }
 674              		.loc 1 212 0
 675              		@ sp needed	@
 676 000a 08BD     		pop	{r3, pc}
 677              		.cfi_endproc
 678              	.LFE209:
 679              		.size	Chip_ADC_SetResolution, .-Chip_ADC_SetResolution
 680              		.section	.text.Chip_ADC_EnableChannel,"ax",%progbits
 681              		.align	2
 682              		.global	Chip_ADC_EnableChannel
 683              		.code	16
 684              		.thumb_func
 685              		.type	Chip_ADC_EnableChannel, %function
 686              	Chip_ADC_EnableChannel:
 687              	.LFB210:
 213:../lpc11cx4-library/lpc_chip_11cxx_lib/src/adc_11xx.c **** 
 214:../lpc11cx4-library/lpc_chip_11cxx_lib/src/adc_11xx.c **** /* Enable or disable the ADC channel on ADC peripheral */
 215:../lpc11cx4-library/lpc_chip_11cxx_lib/src/adc_11xx.c **** void Chip_ADC_EnableChannel(LPC_ADC_T *pADC, ADC_CHANNEL_T channel, FunctionalState NewState)
 216:../lpc11cx4-library/lpc_chip_11cxx_lib/src/adc_11xx.c **** {
ARM GAS  /tmp/ccoBYq2X.s 			page 23


 688              		.loc 1 216 0
 689              		.cfi_startproc
 690              	.LVL73:
 217:../lpc11cx4-library/lpc_chip_11cxx_lib/src/adc_11xx.c **** 	if (NewState == ENABLE) {
 691              		.loc 1 217 0
 692 0000 012A     		cmp	r2, #1	@ NewState,
 693 0002 09D0     		beq	.L45	@,
 218:../lpc11cx4-library/lpc_chip_11cxx_lib/src/adc_11xx.c **** 		pADC->CR |= ADC_CR_CH_SEL(channel);
 219:../lpc11cx4-library/lpc_chip_11cxx_lib/src/adc_11xx.c **** 	}
 220:../lpc11cx4-library/lpc_chip_11cxx_lib/src/adc_11xx.c **** 	else {
 221:../lpc11cx4-library/lpc_chip_11cxx_lib/src/adc_11xx.c **** 		pADC->CR &= ~ADC_CR_START_MASK;
 694              		.loc 1 221 0
 695 0004 0268     		ldr	r2, [r0]	@ D.6346, pADC_4(D)->CR
 696              	.LVL74:
 697 0006 074B     		ldr	r3, .L46	@ tmp126,
 698 0008 1340     		and	r3, r2	@ D.6346, D.6346
 222:../lpc11cx4-library/lpc_chip_11cxx_lib/src/adc_11xx.c **** 		pADC->CR &= ~ADC_CR_CH_SEL(channel);
 699              		.loc 1 222 0
 700 000a 0122     		mov	r2, #1	@ tmp128,
 701 000c 8A40     		lsl	r2, r2, r1	@ D.6346, D.6346, channel
 221:../lpc11cx4-library/lpc_chip_11cxx_lib/src/adc_11xx.c **** 		pADC->CR &= ~ADC_CR_CH_SEL(channel);
 702              		.loc 1 221 0
 703 000e 0360     		str	r3, [r0]	@ D.6346, pADC_4(D)->CR
 704              		.loc 1 222 0
 705 0010 0368     		ldr	r3, [r0]	@ D.6346, pADC_4(D)->CR
 706 0012 9343     		bic	r3, r2	@ D.6346, D.6346
 707 0014 0360     		str	r3, [r0]	@ D.6346, pADC_4(D)->CR
 708              	.L42:
 223:../lpc11cx4-library/lpc_chip_11cxx_lib/src/adc_11xx.c **** 	}
 224:../lpc11cx4-library/lpc_chip_11cxx_lib/src/adc_11xx.c **** }
 709              		.loc 1 224 0
 710              		@ sp needed	@
 711 0016 7047     		bx	lr
 712              	.LVL75:
 713              	.L45:
 218:../lpc11cx4-library/lpc_chip_11cxx_lib/src/adc_11xx.c **** 	}
 714              		.loc 1 218 0
 715 0018 8A40     		lsl	r2, r2, r1	@ D.6346, NewState, channel
 716              	.LVL76:
 717 001a 0368     		ldr	r3, [r0]	@ D.6346, pADC_4(D)->CR
 718 001c 1A43     		orr	r2, r3	@ D.6346, D.6346
 719 001e 0260     		str	r2, [r0]	@ D.6346, pADC_4(D)->CR
 720 0020 F9E7     		b	.L42	@
 721              	.L47:
 722 0022 C046     		.align	2
 723              	.L46:
 724 0024 FFFFFFF8 		.word	-117440513
 725              		.cfi_endproc
 726              	.LFE210:
 727              		.size	Chip_ADC_EnableChannel, .-Chip_ADC_EnableChannel
 728              		.section	.text.Chip_ADC_SetBurstCmd,"ax",%progbits
 729              		.align	2
 730              		.global	Chip_ADC_SetBurstCmd
 731              		.code	16
 732              		.thumb_func
 733              		.type	Chip_ADC_SetBurstCmd, %function
 734              	Chip_ADC_SetBurstCmd:
ARM GAS  /tmp/ccoBYq2X.s 			page 24


 735              	.LFB211:
 225:../lpc11cx4-library/lpc_chip_11cxx_lib/src/adc_11xx.c **** 
 226:../lpc11cx4-library/lpc_chip_11cxx_lib/src/adc_11xx.c **** /* Enable burst mode */
 227:../lpc11cx4-library/lpc_chip_11cxx_lib/src/adc_11xx.c **** void Chip_ADC_SetBurstCmd(LPC_ADC_T *pADC, FunctionalState NewState)
 228:../lpc11cx4-library/lpc_chip_11cxx_lib/src/adc_11xx.c **** {
 736              		.loc 1 228 0
 737              		.cfi_startproc
 738              	.LVL77:
 739              	.LBB48:
 740              	.LBB49:
  85:../lpc11cx4-library/lpc_chip_11cxx_lib/src/adc_11xx.c **** 	pADC->CR = temp | (ADC_CR_START_MODE_SEL((uint32_t) start_mode));
 741              		.loc 1 85 0
 742 0000 0268     		ldr	r2, [r0]	@ D.6350, pADC_3(D)->CR
 743 0002 084B     		ldr	r3, .L52	@ tmp118,
 744 0004 1340     		and	r3, r2	@ temp, D.6350
 745              	.LVL78:
  86:../lpc11cx4-library/lpc_chip_11cxx_lib/src/adc_11xx.c **** }
 746              		.loc 1 86 0
 747 0006 0360     		str	r3, [r0]	@ temp, pADC_3(D)->CR
 748              	.LBE49:
 749              	.LBE48:
 229:../lpc11cx4-library/lpc_chip_11cxx_lib/src/adc_11xx.c **** 	setStartMode(pADC, ADC_NO_START);
 230:../lpc11cx4-library/lpc_chip_11cxx_lib/src/adc_11xx.c **** 
 231:../lpc11cx4-library/lpc_chip_11cxx_lib/src/adc_11xx.c **** 	if (NewState == DISABLE) {
 750              		.loc 1 231 0
 751 0008 0029     		cmp	r1, #0	@ NewState,
 752 000a 05D0     		beq	.L51	@,
 232:../lpc11cx4-library/lpc_chip_11cxx_lib/src/adc_11xx.c **** 		pADC->CR &= ~ADC_CR_BURST;
 233:../lpc11cx4-library/lpc_chip_11cxx_lib/src/adc_11xx.c **** 	}
 234:../lpc11cx4-library/lpc_chip_11cxx_lib/src/adc_11xx.c **** 	else {
 235:../lpc11cx4-library/lpc_chip_11cxx_lib/src/adc_11xx.c **** 		pADC->CR |= ADC_CR_BURST;
 753              		.loc 1 235 0
 754 000c 8022     		mov	r2, #128	@ tmp120,
 755 000e 0368     		ldr	r3, [r0]	@ D.6350, pADC_3(D)->CR
 756              	.LVL79:
 757 0010 5202     		lsl	r2, r2, #9	@ tmp120, tmp120,
 758 0012 1343     		orr	r3, r2	@ D.6350, tmp120
 759 0014 0360     		str	r3, [r0]	@ D.6350,* pADC
 760              	.LVL80:
 761              	.L48:
 236:../lpc11cx4-library/lpc_chip_11cxx_lib/src/adc_11xx.c **** 	}
 237:../lpc11cx4-library/lpc_chip_11cxx_lib/src/adc_11xx.c **** }
 762              		.loc 1 237 0
 763              		@ sp needed	@
 764 0016 7047     		bx	lr
 765              	.LVL81:
 766              	.L51:
 232:../lpc11cx4-library/lpc_chip_11cxx_lib/src/adc_11xx.c **** 		pADC->CR &= ~ADC_CR_BURST;
 767              		.loc 1 232 0
 768 0018 0268     		ldr	r2, [r0]	@ D.6350, pADC_3(D)->CR
 769 001a 034B     		ldr	r3, .L52+4	@ tmp119,
 770              	.LVL82:
 771 001c 1340     		and	r3, r2	@ D.6350, D.6350
 772 001e 0360     		str	r3, [r0]	@ D.6350,* pADC
 773              	.LVL83:
 774 0020 F9E7     		b	.L48	@
 775              	.L53:
ARM GAS  /tmp/ccoBYq2X.s 			page 25


 776 0022 C046     		.align	2
 777              	.L52:
 778 0024 FFFFFFF8 		.word	-117440513
 779 0028 FFFFFEFF 		.word	-65537
 780              		.cfi_endproc
 781              	.LFE211:
 782              		.size	Chip_ADC_SetBurstCmd, .-Chip_ADC_SetBurstCmd
 783              		.section	.text.Chip_ADC_ReadByte,"ax",%progbits
 784              		.align	2
 785              		.global	Chip_ADC_ReadByte
 786              		.code	16
 787              		.thumb_func
 788              		.type	Chip_ADC_ReadByte, %function
 789              	Chip_ADC_ReadByte:
 790              	.LFB212:
 238:../lpc11cx4-library/lpc_chip_11cxx_lib/src/adc_11xx.c **** 
 239:../lpc11cx4-library/lpc_chip_11cxx_lib/src/adc_11xx.c **** /* Read the ADC value and convert it to 8bits value */
 240:../lpc11cx4-library/lpc_chip_11cxx_lib/src/adc_11xx.c **** Status Chip_ADC_ReadByte(LPC_ADC_T *pADC, ADC_CHANNEL_T channel, uint8_t *data)
 241:../lpc11cx4-library/lpc_chip_11cxx_lib/src/adc_11xx.c **** {
 791              		.loc 1 241 0
 792              		.cfi_startproc
 793              	.LVL84:
 794              	.LBB50:
 795              	.LBB51:
  93:../lpc11cx4-library/lpc_chip_11cxx_lib/src/adc_11xx.c **** 	if (!ADC_DR_DONE(temp)) {
 796              		.loc 1 93 0
 797 0000 0431     		add	r1, r1, #4	@ tmp122,
 798              	.LVL85:
 799 0002 8900     		lsl	r1, r1, #2	@ tmp123, tmp122,
 800 0004 0B58     		ldr	r3, [r1, r0]	@ temp, pADC_2(D)->DR
 801              	.LVL86:
  94:../lpc11cx4-library/lpc_chip_11cxx_lib/src/adc_11xx.c **** 		return ERROR;
 802              		.loc 1 94 0
 803 0006 002B     		cmp	r3, #0	@ temp,
 804 0008 03DB     		blt	.L57	@,
 805 000a 0023     		mov	r3, #0	@ D.6358,
 806              	.LVL87:
  95:../lpc11cx4-library/lpc_chip_11cxx_lib/src/adc_11xx.c **** 	}
 807              		.loc 1 95 0
 808 000c 0020     		mov	r0, #0	@ D.6357,
 809              	.LVL88:
 810              	.L55:
 811              	.LBE51:
 812              	.LBE50:
 242:../lpc11cx4-library/lpc_chip_11cxx_lib/src/adc_11xx.c **** 	uint16_t temp = 0;
 243:../lpc11cx4-library/lpc_chip_11cxx_lib/src/adc_11xx.c **** 	Status rt;
 244:../lpc11cx4-library/lpc_chip_11cxx_lib/src/adc_11xx.c **** 
 245:../lpc11cx4-library/lpc_chip_11cxx_lib/src/adc_11xx.c **** 	rt = readAdcVal(pADC, channel, &temp);
 246:../lpc11cx4-library/lpc_chip_11cxx_lib/src/adc_11xx.c **** 	*data = (uint8_t) temp;
 813              		.loc 1 246 0
 814 000e 1370     		strb	r3, [r2]	@ D.6358, *data_5(D)
 247:../lpc11cx4-library/lpc_chip_11cxx_lib/src/adc_11xx.c **** 
 248:../lpc11cx4-library/lpc_chip_11cxx_lib/src/adc_11xx.c **** 	return rt;
 249:../lpc11cx4-library/lpc_chip_11cxx_lib/src/adc_11xx.c **** }
 815              		.loc 1 249 0
 816              		@ sp needed	@
 817 0010 7047     		bx	lr
ARM GAS  /tmp/ccoBYq2X.s 			page 26


 818              	.LVL89:
 819              	.L57:
 820              	.LBB53:
 821              	.LBB52:
  99:../lpc11cx4-library/lpc_chip_11cxx_lib/src/adc_11xx.c **** 	return SUCCESS;
 822              		.loc 1 99 0
 823 0012 9B04     		lsl	r3, r3, #18	@ tmp126, temp,
 824              	.LVL90:
 825 0014 1B0E     		lsr	r3, r3, #24	@ D.6358, tmp126,
 100:../lpc11cx4-library/lpc_chip_11cxx_lib/src/adc_11xx.c **** }
 826              		.loc 1 100 0
 827 0016 0120     		mov	r0, #1	@ D.6357,
 828              	.LVL91:
 829 0018 F9E7     		b	.L55	@
 830              	.LBE52:
 831              	.LBE53:
 832              		.cfi_endproc
 833              	.LFE212:
 834              		.size	Chip_ADC_ReadByte, .-Chip_ADC_ReadByte
 835 001a C046     		.text
 836              	.Letext0:
 837              		.file 3 "/usr/arm-none-eabi/include/machine/_default_types.h"
 838              		.file 4 "/usr/arm-none-eabi/include/stdint.h"
 839              		.file 5 "../lpc11cx4-library/lpc_chip_11cxx_lib/inc/lpc_types.h"
 840              		.file 6 "../lpc11cx4-library/lpc_chip_11cxx_lib/inc/sysctl_11xx.h"
 841              		.file 7 "../lpc11cx4-library/lpc_chip_11cxx_lib/inc/adc_11xx.h"
 842              		.file 8 "../lpc11cx4-library/lpc_chip_11cxx_lib/inc/chip.h"