ARM GAS  /tmp/ccCEgSEj.s 			page 1


   1              		.cpu cortex-m0
   2              		.fpu softvfp
   3              		.eabi_attribute 20, 1	@ Tag_ABI_FP_denormal
   4              		.eabi_attribute 21, 1	@ Tag_ABI_FP_exceptions
   5              		.eabi_attribute 23, 3	@ Tag_ABI_FP_number_model
   6              		.eabi_attribute 24, 1	@ Tag_ABI_align8_needed
   7              		.eabi_attribute 25, 1	@ Tag_ABI_align8_preserved
   8              		.eabi_attribute 26, 1	@ Tag_ABI_enum_size
   9              		.eabi_attribute 30, 2	@ Tag_ABI_optimization_goals
  10              		.eabi_attribute 34, 0	@ Tag_CPU_unaligned_access
  11              		.eabi_attribute 18, 4	@ Tag_ABI_PCS_wchar_t
  12              		.file	"gpio_11xx_2.c"
  13              	@ GNU C (GNU Tools for ARM Embedded Processors) version 4.9.3 20150303 (release) [ARM/embedded-4_9-
  14              	@	compiled by GNU C version 4.8.2, GMP version 5.1.3, MPFR version 3.1.2-p3, MPC version 1.0.1
  15              	@ GGC heuristics: --param ggc-min-expand=100 --param ggc-min-heapsize=131072
  16              	@ options passed:  -I . -I ../lpc11cx4-library/lpc_chip_11cxx_lib/inc
  17              	@ -I ../lpc11cx4-library/evt_lib/inc -I inc -imultilib armv6-m
  18              	@ -iprefix /usr/bin/../lib/gcc/arm-none-eabi/4.9.3/
  19              	@ -isysroot /usr/bin/../arm-none-eabi -MD bin/gpio_11xx_2.d
  20              	@ -MF bin/gpio_11xx_2.d -MP -MQ bin/gpio_11xx_2.o -D__USES_INITFINI__
  21              	@ -D CORE_M0 ../lpc11cx4-library/lpc_chip_11cxx_lib/src/gpio_11xx_2.c
  22              	@ -mcpu=cortex-m0 -mthumb -auxbase-strip bin/gpio_11xx_2.o -g -ggdb3 -O2
  23              	@ -Wall -Wstrict-prototypes -Wextra -std=gnu90 -ffunction-sections
  24              	@ -fdata-sections -fverbose-asm
  25              	@ options enabled:  -faggressive-loop-optimizations -fauto-inc-dec
  26              	@ -fbranch-count-reg -fcaller-saves -fcombine-stack-adjustments -fcommon
  27              	@ -fcompare-elim -fcprop-registers -fcrossjumping -fcse-follow-jumps
  28              	@ -fdata-sections -fdefer-pop -fdelete-null-pointer-checks -fdevirtualize
  29              	@ -fdevirtualize-speculatively -fdwarf2-cfi-asm -fearly-inlining
  30              	@ -feliminate-unused-debug-types -fexpensive-optimizations
  31              	@ -fforward-propagate -ffunction-cse -ffunction-sections -fgcse -fgcse-lm
  32              	@ -fgnu-runtime -fgnu-unique -fguess-branch-probability
  33              	@ -fhoist-adjacent-loads -fident -fif-conversion -fif-conversion2
  34              	@ -findirect-inlining -finline -finline-atomics
  35              	@ -finline-functions-called-once -finline-small-functions -fipa-cp
  36              	@ -fipa-profile -fipa-pure-const -fipa-reference -fipa-sra
  37              	@ -fira-hoist-pressure -fira-share-save-slots -fira-share-spill-slots
  38              	@ -fisolate-erroneous-paths-dereference -fivopts -fkeep-static-consts
  39              	@ -fleading-underscore -flifetime-dse -fmath-errno -fmerge-constants
  40              	@ -fmerge-debug-strings -fmove-loop-invariants -fomit-frame-pointer
  41              	@ -foptimize-sibling-calls -foptimize-strlen -fpartial-inlining -fpeephole
  42              	@ -fpeephole2 -fprefetch-loop-arrays -freg-struct-return -freorder-blocks
  43              	@ -freorder-functions -frerun-cse-after-loop
  44              	@ -fsched-critical-path-heuristic -fsched-dep-count-heuristic
  45              	@ -fsched-group-heuristic -fsched-interblock -fsched-last-insn-heuristic
  46              	@ -fsched-pressure -fsched-rank-heuristic -fsched-spec
  47              	@ -fsched-spec-insn-heuristic -fsched-stalled-insns-dep -fschedule-insns2
  48              	@ -fsection-anchors -fshow-column -fshrink-wrap -fsigned-zeros
  49              	@ -fsplit-ivs-in-unroller -fsplit-wide-types -fstrict-aliasing
  50              	@ -fstrict-overflow -fstrict-volatile-bitfields -fsync-libcalls
  51              	@ -fthread-jumps -ftoplevel-reorder -ftrapping-math -ftree-bit-ccp
  52              	@ -ftree-builtin-call-dce -ftree-ccp -ftree-ch -ftree-coalesce-vars
  53              	@ -ftree-copy-prop -ftree-copyrename -ftree-cselim -ftree-dce
  54              	@ -ftree-dominator-opts -ftree-dse -ftree-forwprop -ftree-fre
  55              	@ -ftree-loop-if-convert -ftree-loop-im -ftree-loop-ivcanon
  56              	@ -ftree-loop-optimize -ftree-parallelize-loops= -ftree-phiprop -ftree-pre
  57              	@ -ftree-pta -ftree-reassoc -ftree-scev-cprop -ftree-sink -ftree-slsr
ARM GAS  /tmp/ccCEgSEj.s 			page 2


  58              	@ -ftree-sra -ftree-switch-conversion -ftree-tail-merge -ftree-ter
  59              	@ -ftree-vrp -funit-at-a-time -fvar-tracking -fvar-tracking-assignments
  60              	@ -fverbose-asm -fzero-initialized-in-bss -mlittle-endian -mlra
  61              	@ -mpic-data-is-text-relative -msched-prolog -mthumb
  62              	@ -mvectorize-with-neon-quad
  63              	
  64              		.text
  65              	.Ltext0:
  66              		.cfi_sections	.debug_frame
  67              		.section	.text.Chip_GPIO_Init,"ax",%progbits
  68              		.align	2
  69              		.global	Chip_GPIO_Init
  70              		.code	16
  71              		.thumb_func
  72              		.type	Chip_GPIO_Init, %function
  73              	Chip_GPIO_Init:
  74              	.LFB198:
  75              		.file 1 "../lpc11cx4-library/lpc_chip_11cxx_lib/src/gpio_11xx_2.c"
   1:../lpc11cx4-library/lpc_chip_11cxx_lib/src/gpio_11xx_2.c **** /*
   2:../lpc11cx4-library/lpc_chip_11cxx_lib/src/gpio_11xx_2.c ****  * @brief LPC11xx GPIO driver for CHIP_LPC11CXX, CHIP_LPC110X, CHIP_LPC11XXLV,
   3:../lpc11cx4-library/lpc_chip_11cxx_lib/src/gpio_11xx_2.c ****  * and CHIP_LPC1125 families only.
   4:../lpc11cx4-library/lpc_chip_11cxx_lib/src/gpio_11xx_2.c ****  *
   5:../lpc11cx4-library/lpc_chip_11cxx_lib/src/gpio_11xx_2.c ****  * @note
   6:../lpc11cx4-library/lpc_chip_11cxx_lib/src/gpio_11xx_2.c ****  * Copyright(C) NXP Semiconductors, 2013
   7:../lpc11cx4-library/lpc_chip_11cxx_lib/src/gpio_11xx_2.c ****  * All rights reserved.
   8:../lpc11cx4-library/lpc_chip_11cxx_lib/src/gpio_11xx_2.c ****  *
   9:../lpc11cx4-library/lpc_chip_11cxx_lib/src/gpio_11xx_2.c ****  * @par
  10:../lpc11cx4-library/lpc_chip_11cxx_lib/src/gpio_11xx_2.c ****  * Software that is described herein is for illustrative purposes only
  11:../lpc11cx4-library/lpc_chip_11cxx_lib/src/gpio_11xx_2.c ****  * which provides customers with programming information regarding the
  12:../lpc11cx4-library/lpc_chip_11cxx_lib/src/gpio_11xx_2.c ****  * LPC products.  This software is supplied "AS IS" without any warranties of
  13:../lpc11cx4-library/lpc_chip_11cxx_lib/src/gpio_11xx_2.c ****  * any kind, and NXP Semiconductors and its licensor disclaim any and
  14:../lpc11cx4-library/lpc_chip_11cxx_lib/src/gpio_11xx_2.c ****  * all warranties, express or implied, including all implied warranties of
  15:../lpc11cx4-library/lpc_chip_11cxx_lib/src/gpio_11xx_2.c ****  * merchantability, fitness for a particular purpose and non-infringement of
  16:../lpc11cx4-library/lpc_chip_11cxx_lib/src/gpio_11xx_2.c ****  * intellectual property rights.  NXP Semiconductors assumes no responsibility
  17:../lpc11cx4-library/lpc_chip_11cxx_lib/src/gpio_11xx_2.c ****  * or liability for the use of the software, conveys no license or rights under any
  18:../lpc11cx4-library/lpc_chip_11cxx_lib/src/gpio_11xx_2.c ****  * patent, copyright, mask work right, or any other intellectual property rights in
  19:../lpc11cx4-library/lpc_chip_11cxx_lib/src/gpio_11xx_2.c ****  * or to any products. NXP Semiconductors reserves the right to make changes
  20:../lpc11cx4-library/lpc_chip_11cxx_lib/src/gpio_11xx_2.c ****  * in the software without notification. NXP Semiconductors also makes no
  21:../lpc11cx4-library/lpc_chip_11cxx_lib/src/gpio_11xx_2.c ****  * representation or warranty that such application will be suitable for the
  22:../lpc11cx4-library/lpc_chip_11cxx_lib/src/gpio_11xx_2.c ****  * specified use without further testing or modification.
  23:../lpc11cx4-library/lpc_chip_11cxx_lib/src/gpio_11xx_2.c ****  *
  24:../lpc11cx4-library/lpc_chip_11cxx_lib/src/gpio_11xx_2.c ****  * @par
  25:../lpc11cx4-library/lpc_chip_11cxx_lib/src/gpio_11xx_2.c ****  * Permission to use, copy, modify, and distribute this software and its
  26:../lpc11cx4-library/lpc_chip_11cxx_lib/src/gpio_11xx_2.c ****  * documentation is hereby granted, under NXP Semiconductors' and its
  27:../lpc11cx4-library/lpc_chip_11cxx_lib/src/gpio_11xx_2.c ****  * licensor's relevant copyrights in the software, without fee, provided that it
  28:../lpc11cx4-library/lpc_chip_11cxx_lib/src/gpio_11xx_2.c ****  * is used in conjunction with NXP Semiconductors microcontrollers.  This
  29:../lpc11cx4-library/lpc_chip_11cxx_lib/src/gpio_11xx_2.c ****  * copyright, permission, and disclaimer notice must appear in all copies of
  30:../lpc11cx4-library/lpc_chip_11cxx_lib/src/gpio_11xx_2.c ****  * this code.
  31:../lpc11cx4-library/lpc_chip_11cxx_lib/src/gpio_11xx_2.c ****  */
  32:../lpc11cx4-library/lpc_chip_11cxx_lib/src/gpio_11xx_2.c **** 
  33:../lpc11cx4-library/lpc_chip_11cxx_lib/src/gpio_11xx_2.c **** #include "chip.h"
  34:../lpc11cx4-library/lpc_chip_11cxx_lib/src/gpio_11xx_2.c **** 
  35:../lpc11cx4-library/lpc_chip_11cxx_lib/src/gpio_11xx_2.c **** #if defined(CHIP_LPC11CXX) || defined(CHIP_LPC110X) || defined(CHIP_LPC11XXLV) || defined(CHIP_LPC1
  36:../lpc11cx4-library/lpc_chip_11cxx_lib/src/gpio_11xx_2.c **** 
  37:../lpc11cx4-library/lpc_chip_11cxx_lib/src/gpio_11xx_2.c **** /*****************************************************************************
  38:../lpc11cx4-library/lpc_chip_11cxx_lib/src/gpio_11xx_2.c ****  * Private types/enumerations/variables
  39:../lpc11cx4-library/lpc_chip_11cxx_lib/src/gpio_11xx_2.c ****  ****************************************************************************/
ARM GAS  /tmp/ccCEgSEj.s 			page 3


  40:../lpc11cx4-library/lpc_chip_11cxx_lib/src/gpio_11xx_2.c **** 
  41:../lpc11cx4-library/lpc_chip_11cxx_lib/src/gpio_11xx_2.c **** /*****************************************************************************
  42:../lpc11cx4-library/lpc_chip_11cxx_lib/src/gpio_11xx_2.c ****  * Public types/enumerations/variables
  43:../lpc11cx4-library/lpc_chip_11cxx_lib/src/gpio_11xx_2.c ****  ****************************************************************************/
  44:../lpc11cx4-library/lpc_chip_11cxx_lib/src/gpio_11xx_2.c **** 
  45:../lpc11cx4-library/lpc_chip_11cxx_lib/src/gpio_11xx_2.c **** /*****************************************************************************
  46:../lpc11cx4-library/lpc_chip_11cxx_lib/src/gpio_11xx_2.c ****  * Private functions
  47:../lpc11cx4-library/lpc_chip_11cxx_lib/src/gpio_11xx_2.c ****  ****************************************************************************/
  48:../lpc11cx4-library/lpc_chip_11cxx_lib/src/gpio_11xx_2.c **** 
  49:../lpc11cx4-library/lpc_chip_11cxx_lib/src/gpio_11xx_2.c **** /*****************************************************************************
  50:../lpc11cx4-library/lpc_chip_11cxx_lib/src/gpio_11xx_2.c ****  * Public functions
  51:../lpc11cx4-library/lpc_chip_11cxx_lib/src/gpio_11xx_2.c ****  ****************************************************************************/
  52:../lpc11cx4-library/lpc_chip_11cxx_lib/src/gpio_11xx_2.c **** 
  53:../lpc11cx4-library/lpc_chip_11cxx_lib/src/gpio_11xx_2.c **** /* Initialize GPIO block */
  54:../lpc11cx4-library/lpc_chip_11cxx_lib/src/gpio_11xx_2.c **** void Chip_GPIO_Init(LPC_GPIO_T *pGPIO)
  55:../lpc11cx4-library/lpc_chip_11cxx_lib/src/gpio_11xx_2.c **** {
  76              		.loc 1 55 0
  77              		.cfi_startproc
  78              	.LVL0:
  79              	.LBB26:
  80              	.LBB27:
  81              		.file 2 "../lpc11cx4-library/lpc_chip_11cxx_lib/inc/clock_11xx.h"
   1:../lpc11cx4-library/lpc_chip_11cxx_lib/inc/clock_11xx.h **** /*
   2:../lpc11cx4-library/lpc_chip_11cxx_lib/inc/clock_11xx.h ****  * @brief LPC11XX Clock control functions
   3:../lpc11cx4-library/lpc_chip_11cxx_lib/inc/clock_11xx.h ****  *
   4:../lpc11cx4-library/lpc_chip_11cxx_lib/inc/clock_11xx.h ****  * @note
   5:../lpc11cx4-library/lpc_chip_11cxx_lib/inc/clock_11xx.h ****  * Copyright(C) NXP Semiconductors, 2012
   6:../lpc11cx4-library/lpc_chip_11cxx_lib/inc/clock_11xx.h ****  * All rights reserved.
   7:../lpc11cx4-library/lpc_chip_11cxx_lib/inc/clock_11xx.h ****  *
   8:../lpc11cx4-library/lpc_chip_11cxx_lib/inc/clock_11xx.h ****  * @par
   9:../lpc11cx4-library/lpc_chip_11cxx_lib/inc/clock_11xx.h ****  * Software that is described herein is for illustrative purposes only
  10:../lpc11cx4-library/lpc_chip_11cxx_lib/inc/clock_11xx.h ****  * which provides customers with programming information regarding the
  11:../lpc11cx4-library/lpc_chip_11cxx_lib/inc/clock_11xx.h ****  * LPC products.  This software is supplied "AS IS" without any warranties of
  12:../lpc11cx4-library/lpc_chip_11cxx_lib/inc/clock_11xx.h ****  * any kind, and NXP Semiconductors and its licensor disclaim any and
  13:../lpc11cx4-library/lpc_chip_11cxx_lib/inc/clock_11xx.h ****  * all warranties, express or implied, including all implied warranties of
  14:../lpc11cx4-library/lpc_chip_11cxx_lib/inc/clock_11xx.h ****  * merchantability, fitness for a particular purpose and non-infringement of
  15:../lpc11cx4-library/lpc_chip_11cxx_lib/inc/clock_11xx.h ****  * intellectual property rights.  NXP Semiconductors assumes no responsibility
  16:../lpc11cx4-library/lpc_chip_11cxx_lib/inc/clock_11xx.h ****  * or liability for the use of the software, conveys no license or rights under any
  17:../lpc11cx4-library/lpc_chip_11cxx_lib/inc/clock_11xx.h ****  * patent, copyright, mask work right, or any other intellectual property rights in
  18:../lpc11cx4-library/lpc_chip_11cxx_lib/inc/clock_11xx.h ****  * or to any products. NXP Semiconductors reserves the right to make changes
  19:../lpc11cx4-library/lpc_chip_11cxx_lib/inc/clock_11xx.h ****  * in the software without notification. NXP Semiconductors also makes no
  20:../lpc11cx4-library/lpc_chip_11cxx_lib/inc/clock_11xx.h ****  * representation or warranty that such application will be suitable for the
  21:../lpc11cx4-library/lpc_chip_11cxx_lib/inc/clock_11xx.h ****  * specified use without further testing or modification.
  22:../lpc11cx4-library/lpc_chip_11cxx_lib/inc/clock_11xx.h ****  *
  23:../lpc11cx4-library/lpc_chip_11cxx_lib/inc/clock_11xx.h ****  * @par
  24:../lpc11cx4-library/lpc_chip_11cxx_lib/inc/clock_11xx.h ****  * Permission to use, copy, modify, and distribute this software and its
  25:../lpc11cx4-library/lpc_chip_11cxx_lib/inc/clock_11xx.h ****  * documentation is hereby granted, under NXP Semiconductors' and its
  26:../lpc11cx4-library/lpc_chip_11cxx_lib/inc/clock_11xx.h ****  * licensor's relevant copyrights in the software, without fee, provided that it
  27:../lpc11cx4-library/lpc_chip_11cxx_lib/inc/clock_11xx.h ****  * is used in conjunction with NXP Semiconductors microcontrollers.  This
  28:../lpc11cx4-library/lpc_chip_11cxx_lib/inc/clock_11xx.h ****  * copyright, permission, and disclaimer notice must appear in all copies of
  29:../lpc11cx4-library/lpc_chip_11cxx_lib/inc/clock_11xx.h ****  * this code.
  30:../lpc11cx4-library/lpc_chip_11cxx_lib/inc/clock_11xx.h ****  */
  31:../lpc11cx4-library/lpc_chip_11cxx_lib/inc/clock_11xx.h **** 
  32:../lpc11cx4-library/lpc_chip_11cxx_lib/inc/clock_11xx.h **** #ifndef __CLOCK_11XX_H_
  33:../lpc11cx4-library/lpc_chip_11cxx_lib/inc/clock_11xx.h **** #define __CLOCK_11XX_H_
  34:../lpc11cx4-library/lpc_chip_11cxx_lib/inc/clock_11xx.h **** 
  35:../lpc11cx4-library/lpc_chip_11cxx_lib/inc/clock_11xx.h **** #ifdef __cplusplus
ARM GAS  /tmp/ccCEgSEj.s 			page 4


  36:../lpc11cx4-library/lpc_chip_11cxx_lib/inc/clock_11xx.h **** extern "C" {
  37:../lpc11cx4-library/lpc_chip_11cxx_lib/inc/clock_11xx.h **** #endif
  38:../lpc11cx4-library/lpc_chip_11cxx_lib/inc/clock_11xx.h **** 
  39:../lpc11cx4-library/lpc_chip_11cxx_lib/inc/clock_11xx.h **** /** @defgroup CLOCK_11XX CHIP: LPC11xx Clock Control block driver
  40:../lpc11cx4-library/lpc_chip_11cxx_lib/inc/clock_11xx.h ****  * @ingroup CHIP_11XX_Drivers
  41:../lpc11cx4-library/lpc_chip_11cxx_lib/inc/clock_11xx.h ****  * @{
  42:../lpc11cx4-library/lpc_chip_11cxx_lib/inc/clock_11xx.h ****  */
  43:../lpc11cx4-library/lpc_chip_11cxx_lib/inc/clock_11xx.h **** 
  44:../lpc11cx4-library/lpc_chip_11cxx_lib/inc/clock_11xx.h **** /** Internal oscillator frequency */
  45:../lpc11cx4-library/lpc_chip_11cxx_lib/inc/clock_11xx.h **** #define SYSCTL_IRC_FREQ (12000000)
  46:../lpc11cx4-library/lpc_chip_11cxx_lib/inc/clock_11xx.h **** 
  47:../lpc11cx4-library/lpc_chip_11cxx_lib/inc/clock_11xx.h **** /**
  48:../lpc11cx4-library/lpc_chip_11cxx_lib/inc/clock_11xx.h ****  * @brief	Set System PLL divider values
  49:../lpc11cx4-library/lpc_chip_11cxx_lib/inc/clock_11xx.h ****  * @param	msel    : PLL feedback divider value. M = msel + 1.
  50:../lpc11cx4-library/lpc_chip_11cxx_lib/inc/clock_11xx.h ****  * @param	psel    : PLL post divider value. P =  (1<<psel).
  51:../lpc11cx4-library/lpc_chip_11cxx_lib/inc/clock_11xx.h ****  * @return	Nothing
  52:../lpc11cx4-library/lpc_chip_11cxx_lib/inc/clock_11xx.h ****  * @note	See the user manual for how to setup the PLL.
  53:../lpc11cx4-library/lpc_chip_11cxx_lib/inc/clock_11xx.h ****  */
  54:../lpc11cx4-library/lpc_chip_11cxx_lib/inc/clock_11xx.h **** STATIC INLINE void Chip_Clock_SetupSystemPLL(uint8_t msel, uint8_t psel)
  55:../lpc11cx4-library/lpc_chip_11cxx_lib/inc/clock_11xx.h **** {
  56:../lpc11cx4-library/lpc_chip_11cxx_lib/inc/clock_11xx.h **** 	LPC_SYSCTL->SYSPLLCTRL = (msel & 0x1F) | ((psel & 0x3) << 5);
  57:../lpc11cx4-library/lpc_chip_11cxx_lib/inc/clock_11xx.h **** }
  58:../lpc11cx4-library/lpc_chip_11cxx_lib/inc/clock_11xx.h **** 
  59:../lpc11cx4-library/lpc_chip_11cxx_lib/inc/clock_11xx.h **** /**
  60:../lpc11cx4-library/lpc_chip_11cxx_lib/inc/clock_11xx.h ****  * @brief	Read System PLL lock status
  61:../lpc11cx4-library/lpc_chip_11cxx_lib/inc/clock_11xx.h ****  * @return	true of the PLL is locked. false if not locked
  62:../lpc11cx4-library/lpc_chip_11cxx_lib/inc/clock_11xx.h ****  */
  63:../lpc11cx4-library/lpc_chip_11cxx_lib/inc/clock_11xx.h **** STATIC INLINE bool Chip_Clock_IsSystemPLLLocked(void)
  64:../lpc11cx4-library/lpc_chip_11cxx_lib/inc/clock_11xx.h **** {
  65:../lpc11cx4-library/lpc_chip_11cxx_lib/inc/clock_11xx.h **** 	return (bool) ((LPC_SYSCTL->SYSPLLSTAT & 1) != 0);
  66:../lpc11cx4-library/lpc_chip_11cxx_lib/inc/clock_11xx.h **** }
  67:../lpc11cx4-library/lpc_chip_11cxx_lib/inc/clock_11xx.h **** 
  68:../lpc11cx4-library/lpc_chip_11cxx_lib/inc/clock_11xx.h **** /**
  69:../lpc11cx4-library/lpc_chip_11cxx_lib/inc/clock_11xx.h ****  * Clock sources for system and USB PLLs
  70:../lpc11cx4-library/lpc_chip_11cxx_lib/inc/clock_11xx.h ****  */
  71:../lpc11cx4-library/lpc_chip_11cxx_lib/inc/clock_11xx.h **** typedef enum CHIP_SYSCTL_PLLCLKSRC {
  72:../lpc11cx4-library/lpc_chip_11cxx_lib/inc/clock_11xx.h **** 	SYSCTL_PLLCLKSRC_IRC = 0,		/*!< Internal oscillator in */
  73:../lpc11cx4-library/lpc_chip_11cxx_lib/inc/clock_11xx.h **** 	SYSCTL_PLLCLKSRC_MAINOSC,		/*!< Crystal (main) oscillator in */
  74:../lpc11cx4-library/lpc_chip_11cxx_lib/inc/clock_11xx.h **** #if defined(CHIP_LPC11AXX)
  75:../lpc11cx4-library/lpc_chip_11cxx_lib/inc/clock_11xx.h **** 	SYSCTL_PLLCLKSRC_EXT_CLKIN,	/*!< External clock in (11Axx only) */
  76:../lpc11cx4-library/lpc_chip_11cxx_lib/inc/clock_11xx.h **** #else
  77:../lpc11cx4-library/lpc_chip_11cxx_lib/inc/clock_11xx.h **** 	SYSCTL_PLLCLKSRC_RESERVED1,	/*!< Reserved */
  78:../lpc11cx4-library/lpc_chip_11cxx_lib/inc/clock_11xx.h **** #endif
  79:../lpc11cx4-library/lpc_chip_11cxx_lib/inc/clock_11xx.h **** 	SYSCTL_PLLCLKSRC_RESERVED2,	/*!< Reserved */
  80:../lpc11cx4-library/lpc_chip_11cxx_lib/inc/clock_11xx.h **** } CHIP_SYSCTL_PLLCLKSRC_T;
  81:../lpc11cx4-library/lpc_chip_11cxx_lib/inc/clock_11xx.h **** 
  82:../lpc11cx4-library/lpc_chip_11cxx_lib/inc/clock_11xx.h **** /**
  83:../lpc11cx4-library/lpc_chip_11cxx_lib/inc/clock_11xx.h ****  * @brief	Set System PLL clock source
  84:../lpc11cx4-library/lpc_chip_11cxx_lib/inc/clock_11xx.h ****  * @param	src	: Clock source for system PLL
  85:../lpc11cx4-library/lpc_chip_11cxx_lib/inc/clock_11xx.h ****  * @return	Nothing
  86:../lpc11cx4-library/lpc_chip_11cxx_lib/inc/clock_11xx.h ****  * @note	This function will also toggle the clock source update register
  87:../lpc11cx4-library/lpc_chip_11cxx_lib/inc/clock_11xx.h ****  * to update the clock source.
  88:../lpc11cx4-library/lpc_chip_11cxx_lib/inc/clock_11xx.h ****  */
  89:../lpc11cx4-library/lpc_chip_11cxx_lib/inc/clock_11xx.h **** void Chip_Clock_SetSystemPLLSource(CHIP_SYSCTL_PLLCLKSRC_T src);
  90:../lpc11cx4-library/lpc_chip_11cxx_lib/inc/clock_11xx.h **** 
  91:../lpc11cx4-library/lpc_chip_11cxx_lib/inc/clock_11xx.h **** #if defined(CHIP_LPC11UXX)
  92:../lpc11cx4-library/lpc_chip_11cxx_lib/inc/clock_11xx.h **** /**
ARM GAS  /tmp/ccCEgSEj.s 			page 5


  93:../lpc11cx4-library/lpc_chip_11cxx_lib/inc/clock_11xx.h ****  * @brief	Set USB PLL divider values
  94:../lpc11cx4-library/lpc_chip_11cxx_lib/inc/clock_11xx.h ****  * @param	msel    : PLL feedback divider value. M = msel + 1.
  95:../lpc11cx4-library/lpc_chip_11cxx_lib/inc/clock_11xx.h ****  * @param	psel    : PLL post divider value. P = (1<<psel).
  96:../lpc11cx4-library/lpc_chip_11cxx_lib/inc/clock_11xx.h ****  * @return	Nothing
  97:../lpc11cx4-library/lpc_chip_11cxx_lib/inc/clock_11xx.h ****  * @note	See the user manual for how to setup the PLL.
  98:../lpc11cx4-library/lpc_chip_11cxx_lib/inc/clock_11xx.h ****  */
  99:../lpc11cx4-library/lpc_chip_11cxx_lib/inc/clock_11xx.h **** STATIC INLINE void Chip_Clock_SetupUSBPLL(uint8_t msel, uint8_t psel)
 100:../lpc11cx4-library/lpc_chip_11cxx_lib/inc/clock_11xx.h **** {
 101:../lpc11cx4-library/lpc_chip_11cxx_lib/inc/clock_11xx.h **** 	LPC_SYSCTL->USBPLLCTRL = (msel & 0x1F) | ((psel & 0x3) << 5);
 102:../lpc11cx4-library/lpc_chip_11cxx_lib/inc/clock_11xx.h **** }
 103:../lpc11cx4-library/lpc_chip_11cxx_lib/inc/clock_11xx.h **** 
 104:../lpc11cx4-library/lpc_chip_11cxx_lib/inc/clock_11xx.h **** /**
 105:../lpc11cx4-library/lpc_chip_11cxx_lib/inc/clock_11xx.h ****  * @brief	Read USB PLL lock status
 106:../lpc11cx4-library/lpc_chip_11cxx_lib/inc/clock_11xx.h ****  * @return	true of the PLL is locked. false if not locked
 107:../lpc11cx4-library/lpc_chip_11cxx_lib/inc/clock_11xx.h ****  */
 108:../lpc11cx4-library/lpc_chip_11cxx_lib/inc/clock_11xx.h **** STATIC INLINE bool Chip_Clock_IsUSBPLLLocked(void)
 109:../lpc11cx4-library/lpc_chip_11cxx_lib/inc/clock_11xx.h **** {
 110:../lpc11cx4-library/lpc_chip_11cxx_lib/inc/clock_11xx.h **** 	return (bool) ((LPC_SYSCTL->USBPLLSTAT & 1) != 0);
 111:../lpc11cx4-library/lpc_chip_11cxx_lib/inc/clock_11xx.h **** }
 112:../lpc11cx4-library/lpc_chip_11cxx_lib/inc/clock_11xx.h **** 
 113:../lpc11cx4-library/lpc_chip_11cxx_lib/inc/clock_11xx.h **** /**
 114:../lpc11cx4-library/lpc_chip_11cxx_lib/inc/clock_11xx.h ****  * @brief	Set USB PLL clock source
 115:../lpc11cx4-library/lpc_chip_11cxx_lib/inc/clock_11xx.h ****  * @param	src	: Clock source for USB PLL
 116:../lpc11cx4-library/lpc_chip_11cxx_lib/inc/clock_11xx.h ****  * @return	Nothing
 117:../lpc11cx4-library/lpc_chip_11cxx_lib/inc/clock_11xx.h ****  * @note	This function will also toggle the clock source update register
 118:../lpc11cx4-library/lpc_chip_11cxx_lib/inc/clock_11xx.h ****  * to update the clock source.
 119:../lpc11cx4-library/lpc_chip_11cxx_lib/inc/clock_11xx.h ****  */
 120:../lpc11cx4-library/lpc_chip_11cxx_lib/inc/clock_11xx.h **** void Chip_Clock_SetUSBPLLSource(CHIP_SYSCTL_PLLCLKSRC_T src);
 121:../lpc11cx4-library/lpc_chip_11cxx_lib/inc/clock_11xx.h **** 
 122:../lpc11cx4-library/lpc_chip_11cxx_lib/inc/clock_11xx.h **** #endif /*defined(CHIP_LPC11UXX)*/
 123:../lpc11cx4-library/lpc_chip_11cxx_lib/inc/clock_11xx.h **** 
 124:../lpc11cx4-library/lpc_chip_11cxx_lib/inc/clock_11xx.h **** /**
 125:../lpc11cx4-library/lpc_chip_11cxx_lib/inc/clock_11xx.h ****  * @brief	Bypass System Oscillator and set oscillator frequency range
 126:../lpc11cx4-library/lpc_chip_11cxx_lib/inc/clock_11xx.h ****  * @param	bypass	: Flag to bypass oscillator
 127:../lpc11cx4-library/lpc_chip_11cxx_lib/inc/clock_11xx.h ****  * @param	highfr	: Flag to set oscillator range from 15-25 MHz
 128:../lpc11cx4-library/lpc_chip_11cxx_lib/inc/clock_11xx.h ****  * @return	Nothing
 129:../lpc11cx4-library/lpc_chip_11cxx_lib/inc/clock_11xx.h ****  * @note	Sets the PLL input to bypass the oscillator. This would be
 130:../lpc11cx4-library/lpc_chip_11cxx_lib/inc/clock_11xx.h ****  * used if an external clock that is not an oscillator is attached
 131:../lpc11cx4-library/lpc_chip_11cxx_lib/inc/clock_11xx.h ****  * to the XTALIN pin.
 132:../lpc11cx4-library/lpc_chip_11cxx_lib/inc/clock_11xx.h ****  */
 133:../lpc11cx4-library/lpc_chip_11cxx_lib/inc/clock_11xx.h **** void Chip_Clock_SetPLLBypass(bool bypass, bool highfr);
 134:../lpc11cx4-library/lpc_chip_11cxx_lib/inc/clock_11xx.h **** 
 135:../lpc11cx4-library/lpc_chip_11cxx_lib/inc/clock_11xx.h **** /**
 136:../lpc11cx4-library/lpc_chip_11cxx_lib/inc/clock_11xx.h ****  * Watchdog and low frequency oscillator frequencies plus or minus 40%
 137:../lpc11cx4-library/lpc_chip_11cxx_lib/inc/clock_11xx.h ****  */
 138:../lpc11cx4-library/lpc_chip_11cxx_lib/inc/clock_11xx.h **** typedef enum CHIP_WDTLFO_OSC {
 139:../lpc11cx4-library/lpc_chip_11cxx_lib/inc/clock_11xx.h **** 	WDTLFO_OSC_ILLEGAL,
 140:../lpc11cx4-library/lpc_chip_11cxx_lib/inc/clock_11xx.h **** 	WDTLFO_OSC_0_60,	/*!< 0.6 MHz watchdog/LFO rate */
 141:../lpc11cx4-library/lpc_chip_11cxx_lib/inc/clock_11xx.h **** 	WDTLFO_OSC_1_05,	/*!< 1.05 MHz watchdog/LFO rate */
 142:../lpc11cx4-library/lpc_chip_11cxx_lib/inc/clock_11xx.h **** 	WDTLFO_OSC_1_40,	/*!< 1.4 MHz watchdog/LFO rate */
 143:../lpc11cx4-library/lpc_chip_11cxx_lib/inc/clock_11xx.h **** 	WDTLFO_OSC_1_75,	/*!< 1.75 MHz watchdog/LFO rate */
 144:../lpc11cx4-library/lpc_chip_11cxx_lib/inc/clock_11xx.h **** 	WDTLFO_OSC_2_10,	/*!< 2.1 MHz watchdog/LFO rate */
 145:../lpc11cx4-library/lpc_chip_11cxx_lib/inc/clock_11xx.h **** 	WDTLFO_OSC_2_40,	/*!< 2.4 MHz watchdog/LFO rate */
 146:../lpc11cx4-library/lpc_chip_11cxx_lib/inc/clock_11xx.h **** 	WDTLFO_OSC_2_70,	/*!< 2.7 MHz watchdog/LFO rate */
 147:../lpc11cx4-library/lpc_chip_11cxx_lib/inc/clock_11xx.h **** 	WDTLFO_OSC_3_00,	/*!< 3.0 MHz watchdog/LFO rate */
 148:../lpc11cx4-library/lpc_chip_11cxx_lib/inc/clock_11xx.h **** 	WDTLFO_OSC_3_25,	/*!< 3.25 MHz watchdog/LFO rate */
 149:../lpc11cx4-library/lpc_chip_11cxx_lib/inc/clock_11xx.h **** 	WDTLFO_OSC_3_50,	/*!< 3.5 MHz watchdog/LFO rate */
ARM GAS  /tmp/ccCEgSEj.s 			page 6


 150:../lpc11cx4-library/lpc_chip_11cxx_lib/inc/clock_11xx.h **** 	WDTLFO_OSC_3_75,	/*!< 3.75 MHz watchdog/LFO rate */
 151:../lpc11cx4-library/lpc_chip_11cxx_lib/inc/clock_11xx.h **** 	WDTLFO_OSC_4_00,	/*!< 4.0 MHz watchdog/LFO rate */
 152:../lpc11cx4-library/lpc_chip_11cxx_lib/inc/clock_11xx.h **** 	WDTLFO_OSC_4_20,	/*!< 4.2 MHz watchdog/LFO rate */
 153:../lpc11cx4-library/lpc_chip_11cxx_lib/inc/clock_11xx.h **** 	WDTLFO_OSC_4_40,	/*!< 4.4 MHz watchdog/LFO rate */
 154:../lpc11cx4-library/lpc_chip_11cxx_lib/inc/clock_11xx.h **** 	WDTLFO_OSC_4_60		/*!< 4.6 MHz watchdog/LFO rate */
 155:../lpc11cx4-library/lpc_chip_11cxx_lib/inc/clock_11xx.h **** } CHIP_WDTLFO_OSC_T;
 156:../lpc11cx4-library/lpc_chip_11cxx_lib/inc/clock_11xx.h **** 
 157:../lpc11cx4-library/lpc_chip_11cxx_lib/inc/clock_11xx.h **** /**
 158:../lpc11cx4-library/lpc_chip_11cxx_lib/inc/clock_11xx.h ****  * @brief	Setup Watchdog oscillator rate and divider
 159:../lpc11cx4-library/lpc_chip_11cxx_lib/inc/clock_11xx.h ****  * @param	wdtclk	: Selected watchdog clock rate
 160:../lpc11cx4-library/lpc_chip_11cxx_lib/inc/clock_11xx.h ****  * @param	div		: Watchdog divider value, even value between 2 and 64
 161:../lpc11cx4-library/lpc_chip_11cxx_lib/inc/clock_11xx.h ****  * @return	Nothing
 162:../lpc11cx4-library/lpc_chip_11cxx_lib/inc/clock_11xx.h ****  * @note	Watchdog rate = selected rate divided by divider rate
 163:../lpc11cx4-library/lpc_chip_11cxx_lib/inc/clock_11xx.h ****  */
 164:../lpc11cx4-library/lpc_chip_11cxx_lib/inc/clock_11xx.h **** STATIC INLINE void Chip_Clock_SetWDTOSC(CHIP_WDTLFO_OSC_T wdtclk, uint8_t div)
 165:../lpc11cx4-library/lpc_chip_11cxx_lib/inc/clock_11xx.h **** {
 166:../lpc11cx4-library/lpc_chip_11cxx_lib/inc/clock_11xx.h **** 	LPC_SYSCTL->WDTOSCCTRL  = (((uint32_t) wdtclk) << 5) | ((div >> 1) - 1);
 167:../lpc11cx4-library/lpc_chip_11cxx_lib/inc/clock_11xx.h **** }
 168:../lpc11cx4-library/lpc_chip_11cxx_lib/inc/clock_11xx.h **** 
 169:../lpc11cx4-library/lpc_chip_11cxx_lib/inc/clock_11xx.h **** #if defined(CHIP_LPC11AXX)
 170:../lpc11cx4-library/lpc_chip_11cxx_lib/inc/clock_11xx.h **** /**
 171:../lpc11cx4-library/lpc_chip_11cxx_lib/inc/clock_11xx.h ****  * @brief	Setup low frequency oscillator rate and divider
 172:../lpc11cx4-library/lpc_chip_11cxx_lib/inc/clock_11xx.h ****  * @param	lfoclk	: Selected low frequency clock rate
 173:../lpc11cx4-library/lpc_chip_11cxx_lib/inc/clock_11xx.h ****  * @param	div		: Low frequency divider value, even value between 2 and 64
 174:../lpc11cx4-library/lpc_chip_11cxx_lib/inc/clock_11xx.h ****  * @return	Nothing
 175:../lpc11cx4-library/lpc_chip_11cxx_lib/inc/clock_11xx.h ****  * @note	Low frequency oscillator rate = selected rate divided by divider rate
 176:../lpc11cx4-library/lpc_chip_11cxx_lib/inc/clock_11xx.h ****  */
 177:../lpc11cx4-library/lpc_chip_11cxx_lib/inc/clock_11xx.h **** STATIC INLINE void Chip_Clock_SetLFOSC(CHIP_WDTLFO_OSC_T lfoclk, uint8_t div)
 178:../lpc11cx4-library/lpc_chip_11cxx_lib/inc/clock_11xx.h **** {
 179:../lpc11cx4-library/lpc_chip_11cxx_lib/inc/clock_11xx.h **** 	LPC_SYSCTL->LFOSCCTRL  = (((uint32_t) lfoclk) << 5) | ((div >> 1) - 1);
 180:../lpc11cx4-library/lpc_chip_11cxx_lib/inc/clock_11xx.h **** }
 181:../lpc11cx4-library/lpc_chip_11cxx_lib/inc/clock_11xx.h **** 
 182:../lpc11cx4-library/lpc_chip_11cxx_lib/inc/clock_11xx.h **** #endif /*CHIP_LPC11AXX*/
 183:../lpc11cx4-library/lpc_chip_11cxx_lib/inc/clock_11xx.h **** 
 184:../lpc11cx4-library/lpc_chip_11cxx_lib/inc/clock_11xx.h **** /**
 185:../lpc11cx4-library/lpc_chip_11cxx_lib/inc/clock_11xx.h ****  * Clock sources for main system clock
 186:../lpc11cx4-library/lpc_chip_11cxx_lib/inc/clock_11xx.h ****  */
 187:../lpc11cx4-library/lpc_chip_11cxx_lib/inc/clock_11xx.h **** typedef enum CHIP_SYSCTL_MAINCLKSRC {
 188:../lpc11cx4-library/lpc_chip_11cxx_lib/inc/clock_11xx.h **** 	SYSCTL_MAINCLKSRC_IRC = 0,		/*!< Internal oscillator */
 189:../lpc11cx4-library/lpc_chip_11cxx_lib/inc/clock_11xx.h **** 	SYSCTL_MAINCLKSRC_PLLIN,		/*!< System PLL input */
 190:../lpc11cx4-library/lpc_chip_11cxx_lib/inc/clock_11xx.h **** 	SYSCTL_MAINCLKSRC_LFOSC,		/*!< LF oscillator rate (11Axx only) */
 191:../lpc11cx4-library/lpc_chip_11cxx_lib/inc/clock_11xx.h **** 	SYSCTL_MAINCLKSRC_WDTOSC = SYSCTL_MAINCLKSRC_LFOSC,	/*!< Watchdog oscillator rate */
 192:../lpc11cx4-library/lpc_chip_11cxx_lib/inc/clock_11xx.h **** 	SYSCTL_MAINCLKSRC_PLLOUT,		/*!< System PLL output */
 193:../lpc11cx4-library/lpc_chip_11cxx_lib/inc/clock_11xx.h **** } CHIP_SYSCTL_MAINCLKSRC_T;
 194:../lpc11cx4-library/lpc_chip_11cxx_lib/inc/clock_11xx.h **** 
 195:../lpc11cx4-library/lpc_chip_11cxx_lib/inc/clock_11xx.h **** /**
 196:../lpc11cx4-library/lpc_chip_11cxx_lib/inc/clock_11xx.h ****  * @brief	Set main system clock source
 197:../lpc11cx4-library/lpc_chip_11cxx_lib/inc/clock_11xx.h ****  * @param	src	: Clock source for main system
 198:../lpc11cx4-library/lpc_chip_11cxx_lib/inc/clock_11xx.h ****  * @return	Nothing
 199:../lpc11cx4-library/lpc_chip_11cxx_lib/inc/clock_11xx.h ****  * @note	This function will also toggle the clock source update register
 200:../lpc11cx4-library/lpc_chip_11cxx_lib/inc/clock_11xx.h ****  * to update the clock source.
 201:../lpc11cx4-library/lpc_chip_11cxx_lib/inc/clock_11xx.h ****  */
 202:../lpc11cx4-library/lpc_chip_11cxx_lib/inc/clock_11xx.h **** void Chip_Clock_SetMainClockSource(CHIP_SYSCTL_MAINCLKSRC_T src);
 203:../lpc11cx4-library/lpc_chip_11cxx_lib/inc/clock_11xx.h **** 
 204:../lpc11cx4-library/lpc_chip_11cxx_lib/inc/clock_11xx.h **** /**
 205:../lpc11cx4-library/lpc_chip_11cxx_lib/inc/clock_11xx.h ****  * @brief   Returns the main clock source
 206:../lpc11cx4-library/lpc_chip_11cxx_lib/inc/clock_11xx.h ****  * @return	Which clock is used for the core clock source?
ARM GAS  /tmp/ccCEgSEj.s 			page 7


 207:../lpc11cx4-library/lpc_chip_11cxx_lib/inc/clock_11xx.h ****  */
 208:../lpc11cx4-library/lpc_chip_11cxx_lib/inc/clock_11xx.h **** STATIC INLINE CHIP_SYSCTL_MAINCLKSRC_T Chip_Clock_GetMainClockSource(void)
 209:../lpc11cx4-library/lpc_chip_11cxx_lib/inc/clock_11xx.h **** {
 210:../lpc11cx4-library/lpc_chip_11cxx_lib/inc/clock_11xx.h **** 	return (CHIP_SYSCTL_MAINCLKSRC_T) (LPC_SYSCTL->MAINCLKSEL);
 211:../lpc11cx4-library/lpc_chip_11cxx_lib/inc/clock_11xx.h **** }
 212:../lpc11cx4-library/lpc_chip_11cxx_lib/inc/clock_11xx.h **** 
 213:../lpc11cx4-library/lpc_chip_11cxx_lib/inc/clock_11xx.h **** /**
 214:../lpc11cx4-library/lpc_chip_11cxx_lib/inc/clock_11xx.h ****  * @brief	Set system clock divider
 215:../lpc11cx4-library/lpc_chip_11cxx_lib/inc/clock_11xx.h ****  * @param	div	: divider for system clock
 216:../lpc11cx4-library/lpc_chip_11cxx_lib/inc/clock_11xx.h ****  * @return	Nothing
 217:../lpc11cx4-library/lpc_chip_11cxx_lib/inc/clock_11xx.h ****  * @note	Use 0 to disable, or a divider value of 1 to 255. The system clock
 218:../lpc11cx4-library/lpc_chip_11cxx_lib/inc/clock_11xx.h ****  * rate is the main system clock divided by this value.
 219:../lpc11cx4-library/lpc_chip_11cxx_lib/inc/clock_11xx.h ****  */
 220:../lpc11cx4-library/lpc_chip_11cxx_lib/inc/clock_11xx.h **** STATIC INLINE void Chip_Clock_SetSysClockDiv(uint32_t div)
 221:../lpc11cx4-library/lpc_chip_11cxx_lib/inc/clock_11xx.h **** {
 222:../lpc11cx4-library/lpc_chip_11cxx_lib/inc/clock_11xx.h **** 	LPC_SYSCTL->SYSAHBCLKDIV  = div;
 223:../lpc11cx4-library/lpc_chip_11cxx_lib/inc/clock_11xx.h **** }
 224:../lpc11cx4-library/lpc_chip_11cxx_lib/inc/clock_11xx.h **** 
 225:../lpc11cx4-library/lpc_chip_11cxx_lib/inc/clock_11xx.h **** /**
 226:../lpc11cx4-library/lpc_chip_11cxx_lib/inc/clock_11xx.h ****  * System and peripheral clocks
 227:../lpc11cx4-library/lpc_chip_11cxx_lib/inc/clock_11xx.h ****  */
 228:../lpc11cx4-library/lpc_chip_11cxx_lib/inc/clock_11xx.h **** typedef enum CHIP_SYSCTL_CLOCK {
 229:../lpc11cx4-library/lpc_chip_11cxx_lib/inc/clock_11xx.h **** 	SYSCTL_CLOCK_SYS = 0,				/*!< 0: System clock */
 230:../lpc11cx4-library/lpc_chip_11cxx_lib/inc/clock_11xx.h **** 	SYSCTL_CLOCK_ROM,					/*!<1:  ROM clock */
 231:../lpc11cx4-library/lpc_chip_11cxx_lib/inc/clock_11xx.h **** 	SYSCTL_CLOCK_RAM,					/*!< 2: RAM clock */
 232:../lpc11cx4-library/lpc_chip_11cxx_lib/inc/clock_11xx.h **** 	SYSCTL_CLOCK_FLASHREG,				/*!< 3: FLASH register interface clock */
 233:../lpc11cx4-library/lpc_chip_11cxx_lib/inc/clock_11xx.h **** 	SYSCTL_CLOCK_FLASHARRAY,			/*!< 4: FLASH array access clock */
 234:../lpc11cx4-library/lpc_chip_11cxx_lib/inc/clock_11xx.h **** #if defined(CHIP_LPC110X)
 235:../lpc11cx4-library/lpc_chip_11cxx_lib/inc/clock_11xx.h **** 	SYSCTL_CLOCK_RESERVED5,				/*!< 5: Reserved */
 236:../lpc11cx4-library/lpc_chip_11cxx_lib/inc/clock_11xx.h **** #else
 237:../lpc11cx4-library/lpc_chip_11cxx_lib/inc/clock_11xx.h **** 	SYSCTL_CLOCK_I2C,					/*!< 5: I2C clock, not on LPC110x */
 238:../lpc11cx4-library/lpc_chip_11cxx_lib/inc/clock_11xx.h **** #endif
 239:../lpc11cx4-library/lpc_chip_11cxx_lib/inc/clock_11xx.h **** 	SYSCTL_CLOCK_GPIO,					/*!< 6: GPIO clock */
 240:../lpc11cx4-library/lpc_chip_11cxx_lib/inc/clock_11xx.h **** 	SYSCTL_CLOCK_CT16B0,				/*!< 7: 16-bit Counter/timer 0 clock */
 241:../lpc11cx4-library/lpc_chip_11cxx_lib/inc/clock_11xx.h **** 	SYSCTL_CLOCK_CT16B1,				/*!< 8: 16-bit Counter/timer 1 clock */
 242:../lpc11cx4-library/lpc_chip_11cxx_lib/inc/clock_11xx.h **** 	SYSCTL_CLOCK_CT32B0,				/*!< 9: 32-bit Counter/timer 0 clock */
 243:../lpc11cx4-library/lpc_chip_11cxx_lib/inc/clock_11xx.h **** 	SYSCTL_CLOCK_CT32B1,				/*!< 10: 32-bit Counter/timer 1 clock */
 244:../lpc11cx4-library/lpc_chip_11cxx_lib/inc/clock_11xx.h **** 	SYSCTL_CLOCK_SSP0,					/*!< 11: SSP0 clock */
 245:../lpc11cx4-library/lpc_chip_11cxx_lib/inc/clock_11xx.h **** 	SYSCTL_CLOCK_UART0,					/*!< 12: UART0 clock */
 246:../lpc11cx4-library/lpc_chip_11cxx_lib/inc/clock_11xx.h **** 	SYSCTL_CLOCK_ADC,					/*!< 13: ADC clock */
 247:../lpc11cx4-library/lpc_chip_11cxx_lib/inc/clock_11xx.h **** #if defined(CHIP_LPC11UXX)
 248:../lpc11cx4-library/lpc_chip_11cxx_lib/inc/clock_11xx.h **** 	SYSCTL_CLOCK_USB,					/*!< 14: USB clock, LPC11Uxx only */
 249:../lpc11cx4-library/lpc_chip_11cxx_lib/inc/clock_11xx.h **** #else
 250:../lpc11cx4-library/lpc_chip_11cxx_lib/inc/clock_11xx.h **** 	SYSCTL_CLOCK_RESERVED14,			/*!< 14: Reserved */
 251:../lpc11cx4-library/lpc_chip_11cxx_lib/inc/clock_11xx.h **** #endif
 252:../lpc11cx4-library/lpc_chip_11cxx_lib/inc/clock_11xx.h **** 	SYSCTL_CLOCK_WDT,					/*!< 15: Watchdog timer clock */
 253:../lpc11cx4-library/lpc_chip_11cxx_lib/inc/clock_11xx.h **** 	SYSCTL_CLOCK_IOCON,					/*!< 16: IOCON block clock */
 254:../lpc11cx4-library/lpc_chip_11cxx_lib/inc/clock_11xx.h **** #if defined(CHIP_LPC11CXX)
 255:../lpc11cx4-library/lpc_chip_11cxx_lib/inc/clock_11xx.h **** 	SYSCTL_CLOCK_CAN,					/*!< 17: CAN clock, LPC11Cxx only */
 256:../lpc11cx4-library/lpc_chip_11cxx_lib/inc/clock_11xx.h **** #else
 257:../lpc11cx4-library/lpc_chip_11cxx_lib/inc/clock_11xx.h **** 	SYSCTL_CLOCK_RESERVED17,			/*!< 17: Reserved */
 258:../lpc11cx4-library/lpc_chip_11cxx_lib/inc/clock_11xx.h **** #endif
 259:../lpc11cx4-library/lpc_chip_11cxx_lib/inc/clock_11xx.h **** #if !(defined(CHIP_LPC110X) || defined(CHIP_LPC11XXLV))  
 260:../lpc11cx4-library/lpc_chip_11cxx_lib/inc/clock_11xx.h **** 	SYSCTL_CLOCK_SSP1,					/*!< 18: SSP1 clock, LPC11A/C/E/Uxx//1125 only */
 261:../lpc11cx4-library/lpc_chip_11cxx_lib/inc/clock_11xx.h **** #if !defined(CHIP_LPC11CXX)
 262:../lpc11cx4-library/lpc_chip_11cxx_lib/inc/clock_11xx.h **** 	SYSCTL_CLOCK_PINT,					/*!< 19: GPIO Pin int register interface clock, LPC11A/E/Uxx only */
 263:../lpc11cx4-library/lpc_chip_11cxx_lib/inc/clock_11xx.h **** #if defined(CHIP_LPC11AXX)
ARM GAS  /tmp/ccCEgSEj.s 			page 8


 264:../lpc11cx4-library/lpc_chip_11cxx_lib/inc/clock_11xx.h **** 	SYSCTL_CLOCK_ACOMP,					/*!< 20: Analog comparator clock, LPC11Axx only */
 265:../lpc11cx4-library/lpc_chip_11cxx_lib/inc/clock_11xx.h **** 	SYSCTL_CLOCK_DAC,					/*!< 21: DAC clock, LPC11Axx only */
 266:../lpc11cx4-library/lpc_chip_11cxx_lib/inc/clock_11xx.h **** #else
 267:../lpc11cx4-library/lpc_chip_11cxx_lib/inc/clock_11xx.h **** 	SYSCTL_CLOCK_RESERVED20,			/*!< 20: Reserved */
 268:../lpc11cx4-library/lpc_chip_11cxx_lib/inc/clock_11xx.h **** 	SYSCTL_CLOCK_RESERVED21,			/*!< 21: Reserved */
 269:../lpc11cx4-library/lpc_chip_11cxx_lib/inc/clock_11xx.h **** #endif
 270:../lpc11cx4-library/lpc_chip_11cxx_lib/inc/clock_11xx.h **** 	SYSCTL_CLOCK_RESERVED22,			/*!< 22: Reserved */
 271:../lpc11cx4-library/lpc_chip_11cxx_lib/inc/clock_11xx.h **** 	SYSCTL_CLOCK_P0INT,					/*!< 23: GPIO GROUP1 interrupt register clock, LPC11Axx only */
 272:../lpc11cx4-library/lpc_chip_11cxx_lib/inc/clock_11xx.h **** 	SYSCTL_CLOCK_GROUP0INT = SYSCTL_CLOCK_P0INT,/*!< 23: GPIO GROUP0 interrupt register interface cloc
 273:../lpc11cx4-library/lpc_chip_11cxx_lib/inc/clock_11xx.h **** 	SYSCTL_CLOCK_P1INT,					/*!< 24: GPIO GROUP1 interrupt register clock, LPC11Axx only */
 274:../lpc11cx4-library/lpc_chip_11cxx_lib/inc/clock_11xx.h **** 	SYSCTL_CLOCK_GROUP1INT = SYSCTL_CLOCK_P1INT,/*!< 24: GPIO GROUP1 interrupt register interface cloc
 275:../lpc11cx4-library/lpc_chip_11cxx_lib/inc/clock_11xx.h **** 	SYSCTL_CLOCK_RESERVED25,			/*!< 25: Reserved */
 276:../lpc11cx4-library/lpc_chip_11cxx_lib/inc/clock_11xx.h **** #if defined(CHIP_LPC11EXX)  || defined(CHIP_LPC11UXX)
 277:../lpc11cx4-library/lpc_chip_11cxx_lib/inc/clock_11xx.h **** 	SYSCTL_CLOCK_RAM1,					/*!< 26: SRAM block (0x20000000) clock, LPC11E/Uxx only */
 278:../lpc11cx4-library/lpc_chip_11cxx_lib/inc/clock_11xx.h **** #else
 279:../lpc11cx4-library/lpc_chip_11cxx_lib/inc/clock_11xx.h **** 	SYSCTL_CLOCK_RESERVED26,			/*!< 26: Reserved */
 280:../lpc11cx4-library/lpc_chip_11cxx_lib/inc/clock_11xx.h **** #endif
 281:../lpc11cx4-library/lpc_chip_11cxx_lib/inc/clock_11xx.h **** #if defined(CHIP_LPC11UXX)
 282:../lpc11cx4-library/lpc_chip_11cxx_lib/inc/clock_11xx.h **** 	SYSCTL_CLOCK_USBRAM,				/*!< 27: USB SRAM block clock, LPC11Uxx only */
 283:../lpc11cx4-library/lpc_chip_11cxx_lib/inc/clock_11xx.h **** #else
 284:../lpc11cx4-library/lpc_chip_11cxx_lib/inc/clock_11xx.h **** 	SYSCTL_CLOCK_RESERVED27,			/*!< 27: Reserved */
 285:../lpc11cx4-library/lpc_chip_11cxx_lib/inc/clock_11xx.h **** #endif
 286:../lpc11cx4-library/lpc_chip_11cxx_lib/inc/clock_11xx.h **** #endif /* !defined(CHIP_LPC11CXX) */
 287:../lpc11cx4-library/lpc_chip_11cxx_lib/inc/clock_11xx.h **** #endif /* !(defined(CHIP_LPC110X) || defined(CHIP_LPC11XXLV)) */
 288:../lpc11cx4-library/lpc_chip_11cxx_lib/inc/clock_11xx.h **** } CHIP_SYSCTL_CLOCK_T;
 289:../lpc11cx4-library/lpc_chip_11cxx_lib/inc/clock_11xx.h **** 
 290:../lpc11cx4-library/lpc_chip_11cxx_lib/inc/clock_11xx.h **** /**
 291:../lpc11cx4-library/lpc_chip_11cxx_lib/inc/clock_11xx.h ****  * @brief	Enable a system or peripheral clock
 292:../lpc11cx4-library/lpc_chip_11cxx_lib/inc/clock_11xx.h ****  * @param	clk	: Clock to enable
 293:../lpc11cx4-library/lpc_chip_11cxx_lib/inc/clock_11xx.h ****  * @return	Nothing
 294:../lpc11cx4-library/lpc_chip_11cxx_lib/inc/clock_11xx.h ****  */
 295:../lpc11cx4-library/lpc_chip_11cxx_lib/inc/clock_11xx.h **** STATIC INLINE void Chip_Clock_EnablePeriphClock(CHIP_SYSCTL_CLOCK_T clk)
 296:../lpc11cx4-library/lpc_chip_11cxx_lib/inc/clock_11xx.h **** {
 297:../lpc11cx4-library/lpc_chip_11cxx_lib/inc/clock_11xx.h **** 	LPC_SYSCTL->SYSAHBCLKCTRL |= (1 << clk);
  82              		.loc 2 297 0
  83 0000 8022     		mov	r2, #128	@ tmp114,
  84 0002 4023     		mov	r3, #64	@ tmp115,
  85 0004 0249     		ldr	r1, .L2	@ tmp113,
  86              	.LBE27:
  87              	.LBE26:
  56:../lpc11cx4-library/lpc_chip_11cxx_lib/src/gpio_11xx_2.c **** 	Chip_Clock_EnablePeriphClock(SYSCTL_CLOCK_GPIO);
  57:../lpc11cx4-library/lpc_chip_11cxx_lib/src/gpio_11xx_2.c **** }
  88              		.loc 1 57 0
  89              		@ sp needed	@
  90              	.LBB29:
  91              	.LBB28:
  92              		.loc 2 297 0
  93 0006 8858     		ldr	r0, [r1, r2]	@ D.6227, MEM[(struct LPC_SYSCTL_T *)1074036736B].SYSAHBCLKCTRL
  94              	.LVL1:
  95 0008 0343     		orr	r3, r0	@ D.6227, D.6227
  96 000a 8B50     		str	r3, [r1, r2]	@ D.6227, MEM[(struct LPC_SYSCTL_T *)1074036736B].SYSAHBCLKCTRL
  97              	.LBE28:
  98              	.LBE29:
  99              		.loc 1 57 0
 100 000c 7047     		bx	lr
 101              	.L3:
 102 000e C046     		.align	2
ARM GAS  /tmp/ccCEgSEj.s 			page 9


 103              	.L2:
 104 0010 00800440 		.word	1074036736
 105              		.cfi_endproc
 106              	.LFE198:
 107              		.size	Chip_GPIO_Init, .-Chip_GPIO_Init
 108              		.section	.text.Chip_GPIO_DeInit,"ax",%progbits
 109              		.align	2
 110              		.global	Chip_GPIO_DeInit
 111              		.code	16
 112              		.thumb_func
 113              		.type	Chip_GPIO_DeInit, %function
 114              	Chip_GPIO_DeInit:
 115              	.LFB199:
  58:../lpc11cx4-library/lpc_chip_11cxx_lib/src/gpio_11xx_2.c **** 
  59:../lpc11cx4-library/lpc_chip_11cxx_lib/src/gpio_11xx_2.c **** /* De-Initialize GPIO block */
  60:../lpc11cx4-library/lpc_chip_11cxx_lib/src/gpio_11xx_2.c **** void Chip_GPIO_DeInit(LPC_GPIO_T *pGPIO)
  61:../lpc11cx4-library/lpc_chip_11cxx_lib/src/gpio_11xx_2.c **** {
 116              		.loc 1 61 0
 117              		.cfi_startproc
 118              	.LVL2:
 119              	.LBB30:
 120              	.LBB31:
 298:../lpc11cx4-library/lpc_chip_11cxx_lib/inc/clock_11xx.h **** }
 299:../lpc11cx4-library/lpc_chip_11cxx_lib/inc/clock_11xx.h **** 
 300:../lpc11cx4-library/lpc_chip_11cxx_lib/inc/clock_11xx.h **** /**
 301:../lpc11cx4-library/lpc_chip_11cxx_lib/inc/clock_11xx.h ****  * @brief	Disable a system or peripheral clock
 302:../lpc11cx4-library/lpc_chip_11cxx_lib/inc/clock_11xx.h ****  * @param	clk	: Clock to disable
 303:../lpc11cx4-library/lpc_chip_11cxx_lib/inc/clock_11xx.h ****  * @return	Nothing
 304:../lpc11cx4-library/lpc_chip_11cxx_lib/inc/clock_11xx.h ****  */
 305:../lpc11cx4-library/lpc_chip_11cxx_lib/inc/clock_11xx.h **** STATIC INLINE void Chip_Clock_DisablePeriphClock(CHIP_SYSCTL_CLOCK_T clk)
 306:../lpc11cx4-library/lpc_chip_11cxx_lib/inc/clock_11xx.h **** {
 307:../lpc11cx4-library/lpc_chip_11cxx_lib/inc/clock_11xx.h **** 	LPC_SYSCTL->SYSAHBCLKCTRL &= ~(1 << clk);
 121              		.loc 2 307 0
 122 0000 8022     		mov	r2, #128	@ tmp114,
 123 0002 4020     		mov	r0, #64	@ tmp115,
 124              	.LVL3:
 125 0004 0249     		ldr	r1, .L5	@ tmp113,
 126              	.LBE31:
 127              	.LBE30:
  62:../lpc11cx4-library/lpc_chip_11cxx_lib/src/gpio_11xx_2.c **** 	Chip_Clock_DisablePeriphClock(SYSCTL_CLOCK_GPIO);
  63:../lpc11cx4-library/lpc_chip_11cxx_lib/src/gpio_11xx_2.c **** }
 128              		.loc 1 63 0
 129              		@ sp needed	@
 130              	.LBB33:
 131              	.LBB32:
 132              		.loc 2 307 0
 133 0006 8B58     		ldr	r3, [r1, r2]	@ D.6230, MEM[(struct LPC_SYSCTL_T *)1074036736B].SYSAHBCLKCTRL
 134 0008 8343     		bic	r3, r0	@ D.6230, tmp115
 135 000a 8B50     		str	r3, [r1, r2]	@ D.6230, MEM[(struct LPC_SYSCTL_T *)1074036736B].SYSAHBCLKCTRL
 136              	.LBE32:
 137              	.LBE33:
 138              		.loc 1 63 0
 139 000c 7047     		bx	lr
 140              	.L6:
 141 000e C046     		.align	2
 142              	.L5:
 143 0010 00800440 		.word	1074036736
ARM GAS  /tmp/ccCEgSEj.s 			page 10


 144              		.cfi_endproc
 145              	.LFE199:
 146              		.size	Chip_GPIO_DeInit, .-Chip_GPIO_DeInit
 147              		.section	.text.Chip_GPIO_WriteDirBit,"ax",%progbits
 148              		.align	2
 149              		.global	Chip_GPIO_WriteDirBit
 150              		.code	16
 151              		.thumb_func
 152              		.type	Chip_GPIO_WriteDirBit, %function
 153              	Chip_GPIO_WriteDirBit:
 154              	.LFB200:
  64:../lpc11cx4-library/lpc_chip_11cxx_lib/src/gpio_11xx_2.c **** 
  65:../lpc11cx4-library/lpc_chip_11cxx_lib/src/gpio_11xx_2.c **** /* Set GPIO direction */
  66:../lpc11cx4-library/lpc_chip_11cxx_lib/src/gpio_11xx_2.c **** void Chip_GPIO_WriteDirBit(LPC_GPIO_T *pGPIO, uint32_t port, uint8_t bit, bool setting)
  67:../lpc11cx4-library/lpc_chip_11cxx_lib/src/gpio_11xx_2.c **** {
 155              		.loc 1 67 0
 156              		.cfi_startproc
 157              	.LVL4:
 158 0000 10B5     		push	{r4, lr}	@
 159              		.cfi_def_cfa_offset 8
 160              		.cfi_offset 4, -8
 161              		.cfi_offset 14, -4
  68:../lpc11cx4-library/lpc_chip_11cxx_lib/src/gpio_11xx_2.c **** 	if (setting) {
  69:../lpc11cx4-library/lpc_chip_11cxx_lib/src/gpio_11xx_2.c **** 		pGPIO[port].DIR |= 1UL << bit;
 162              		.loc 1 69 0
 163 0002 8024     		mov	r4, #128	@ tmp128,
 164 0004 0904     		lsl	r1, r1, #16	@ D.6233, port,
 165              	.LVL5:
 166 0006 4018     		add	r0, r0, r1	@ D.6234, pGPIO, D.6233
 167              	.LVL6:
 168 0008 2402     		lsl	r4, r4, #8	@ tmp128, tmp128,
  68:../lpc11cx4-library/lpc_chip_11cxx_lib/src/gpio_11xx_2.c **** 	if (setting) {
 169              		.loc 1 68 0
 170 000a 002B     		cmp	r3, #0	@ setting,
 171 000c 05D1     		bne	.L11	@,
  70:../lpc11cx4-library/lpc_chip_11cxx_lib/src/gpio_11xx_2.c **** 	}
  71:../lpc11cx4-library/lpc_chip_11cxx_lib/src/gpio_11xx_2.c **** 	else {
  72:../lpc11cx4-library/lpc_chip_11cxx_lib/src/gpio_11xx_2.c **** 		pGPIO[port].DIR &= ~(1UL << bit);
 172              		.loc 1 72 0
 173 000e 0121     		mov	r1, #1	@ tmp135,
 174 0010 9140     		lsl	r1, r1, r2	@ D.6233, D.6233, bit
 175 0012 0359     		ldr	r3, [r0, r4]	@ D.6233,
 176              	.LVL7:
 177 0014 8B43     		bic	r3, r1	@ D.6233, D.6233
 178 0016 0351     		str	r3, [r0, r4]	@ D.6233, _15->DIR
 179              	.LVL8:
 180              	.L7:
  73:../lpc11cx4-library/lpc_chip_11cxx_lib/src/gpio_11xx_2.c **** 	}
  74:../lpc11cx4-library/lpc_chip_11cxx_lib/src/gpio_11xx_2.c **** }
 181              		.loc 1 74 0
 182              		@ sp needed	@
 183 0018 10BD     		pop	{r4, pc}
 184              	.LVL9:
 185              	.L11:
  69:../lpc11cx4-library/lpc_chip_11cxx_lib/src/gpio_11xx_2.c **** 	}
 186              		.loc 1 69 0
 187 001a 0121     		mov	r1, #1	@ tmp130,
ARM GAS  /tmp/ccCEgSEj.s 			page 11


 188 001c 9140     		lsl	r1, r1, r2	@ D.6233, D.6233, bit
 189 001e 0A1C     		mov	r2, r1	@ D.6233, D.6233
 190              	.LVL10:
 191 0020 0359     		ldr	r3, [r0, r4]	@ D.6233,
 192              	.LVL11:
 193 0022 1A43     		orr	r2, r3	@ D.6233, D.6233
 194 0024 0251     		str	r2, [r0, r4]	@ D.6233, _6->DIR
 195 0026 F7E7     		b	.L7	@
 196              		.cfi_endproc
 197              	.LFE200:
 198              		.size	Chip_GPIO_WriteDirBit, .-Chip_GPIO_WriteDirBit
 199              		.section	.text.Chip_GPIO_SetDir,"ax",%progbits
 200              		.align	2
 201              		.global	Chip_GPIO_SetDir
 202              		.code	16
 203              		.thumb_func
 204              		.type	Chip_GPIO_SetDir, %function
 205              	Chip_GPIO_SetDir:
 206              	.LFB201:
  75:../lpc11cx4-library/lpc_chip_11cxx_lib/src/gpio_11xx_2.c **** 
  76:../lpc11cx4-library/lpc_chip_11cxx_lib/src/gpio_11xx_2.c **** /* Set Direction for a GPIO port */
  77:../lpc11cx4-library/lpc_chip_11cxx_lib/src/gpio_11xx_2.c **** void Chip_GPIO_SetDir(LPC_GPIO_T *pGPIO, uint8_t port, uint32_t bit, uint8_t out)
  78:../lpc11cx4-library/lpc_chip_11cxx_lib/src/gpio_11xx_2.c **** {
 207              		.loc 1 78 0
 208              		.cfi_startproc
 209              	.LVL12:
  79:../lpc11cx4-library/lpc_chip_11cxx_lib/src/gpio_11xx_2.c **** 	if (out) {
  80:../lpc11cx4-library/lpc_chip_11cxx_lib/src/gpio_11xx_2.c **** 		pGPIO[port].DIR |= bit;
 210              		.loc 1 80 0
 211 0000 0904     		lsl	r1, r1, #16	@ D.6238, port,
 212              	.LVL13:
 213 0002 4018     		add	r0, r0, r1	@ D.6239, pGPIO, D.6238
 214              	.LVL14:
 215 0004 8021     		mov	r1, #128	@ tmp126,
 216 0006 0902     		lsl	r1, r1, #8	@ tmp126, tmp126,
  79:../lpc11cx4-library/lpc_chip_11cxx_lib/src/gpio_11xx_2.c **** 	if (out) {
 217              		.loc 1 79 0
 218 0008 002B     		cmp	r3, #0	@ out,
 219 000a 03D1     		bne	.L15	@,
  81:../lpc11cx4-library/lpc_chip_11cxx_lib/src/gpio_11xx_2.c **** 	}
  82:../lpc11cx4-library/lpc_chip_11cxx_lib/src/gpio_11xx_2.c **** 	else {
  83:../lpc11cx4-library/lpc_chip_11cxx_lib/src/gpio_11xx_2.c **** 		pGPIO[port].DIR &= ~bit;
 220              		.loc 1 83 0
 221 000c 4358     		ldr	r3, [r0, r1]	@ D.6240,
 222              	.LVL15:
 223 000e 9343     		bic	r3, r2	@ D.6240, bit
 224 0010 4350     		str	r3, [r0, r1]	@ D.6240, _15->DIR
 225              	.LVL16:
 226              	.L12:
  84:../lpc11cx4-library/lpc_chip_11cxx_lib/src/gpio_11xx_2.c **** 	}
  85:../lpc11cx4-library/lpc_chip_11cxx_lib/src/gpio_11xx_2.c **** }
 227              		.loc 1 85 0
 228              		@ sp needed	@
 229 0012 7047     		bx	lr
 230              	.LVL17:
 231              	.L15:
  80:../lpc11cx4-library/lpc_chip_11cxx_lib/src/gpio_11xx_2.c **** 	}
ARM GAS  /tmp/ccCEgSEj.s 			page 12


 232              		.loc 1 80 0
 233 0014 4358     		ldr	r3, [r0, r1]	@ D.6240,
 234              	.LVL18:
 235 0016 1A43     		orr	r2, r3	@ D.6240, D.6240
 236              	.LVL19:
 237 0018 4250     		str	r2, [r0, r1]	@ D.6240, _7->DIR
 238 001a FAE7     		b	.L12	@
 239              		.cfi_endproc
 240              	.LFE201:
 241              		.size	Chip_GPIO_SetDir, .-Chip_GPIO_SetDir
 242              		.section	.text.Chip_GPIO_SetPinDIR,"ax",%progbits
 243              		.align	2
 244              		.global	Chip_GPIO_SetPinDIR
 245              		.code	16
 246              		.thumb_func
 247              		.type	Chip_GPIO_SetPinDIR, %function
 248              	Chip_GPIO_SetPinDIR:
 249              	.LFB202:
  86:../lpc11cx4-library/lpc_chip_11cxx_lib/src/gpio_11xx_2.c **** 
  87:../lpc11cx4-library/lpc_chip_11cxx_lib/src/gpio_11xx_2.c **** /* Set GPIO direction for a single GPIO pin */
  88:../lpc11cx4-library/lpc_chip_11cxx_lib/src/gpio_11xx_2.c **** void Chip_GPIO_SetPinDIR(LPC_GPIO_T *pGPIO, uint8_t port, uint8_t pin, bool output)
  89:../lpc11cx4-library/lpc_chip_11cxx_lib/src/gpio_11xx_2.c **** {
 250              		.loc 1 89 0
 251              		.cfi_startproc
 252              	.LVL20:
 253 0000 10B5     		push	{r4, lr}	@
 254              		.cfi_def_cfa_offset 8
 255              		.cfi_offset 4, -8
 256              		.cfi_offset 14, -4
 257              	.LBB34:
 258              	.LBB35:
 259              		.file 3 "../lpc11cx4-library/lpc_chip_11cxx_lib/inc/gpio_11xx_2.h"
   1:../lpc11cx4-library/lpc_chip_11cxx_lib/inc/gpio_11xx_2.h **** /*
   2:../lpc11cx4-library/lpc_chip_11cxx_lib/inc/gpio_11xx_2.h ****  * @brief LPC11xx GPIO driver for CHIP_LPC11CXX, CHIP_LPC110X, CHIP_LPC11XXLV,
   3:../lpc11cx4-library/lpc_chip_11cxx_lib/inc/gpio_11xx_2.h ****  * and CHIP_LPC1125 families only.
   4:../lpc11cx4-library/lpc_chip_11cxx_lib/inc/gpio_11xx_2.h ****  *
   5:../lpc11cx4-library/lpc_chip_11cxx_lib/inc/gpio_11xx_2.h ****  * @note
   6:../lpc11cx4-library/lpc_chip_11cxx_lib/inc/gpio_11xx_2.h ****  * Copyright(C) NXP Semiconductors, 2013
   7:../lpc11cx4-library/lpc_chip_11cxx_lib/inc/gpio_11xx_2.h ****  * All rights reserved.
   8:../lpc11cx4-library/lpc_chip_11cxx_lib/inc/gpio_11xx_2.h ****  *
   9:../lpc11cx4-library/lpc_chip_11cxx_lib/inc/gpio_11xx_2.h ****  * @par
  10:../lpc11cx4-library/lpc_chip_11cxx_lib/inc/gpio_11xx_2.h ****  * Software that is described herein is for illustrative purposes only
  11:../lpc11cx4-library/lpc_chip_11cxx_lib/inc/gpio_11xx_2.h ****  * which provides customers with programming information regarding the
  12:../lpc11cx4-library/lpc_chip_11cxx_lib/inc/gpio_11xx_2.h ****  * LPC products.  This software is supplied "AS IS" without any warranties of
  13:../lpc11cx4-library/lpc_chip_11cxx_lib/inc/gpio_11xx_2.h ****  * any kind, and NXP Semiconductors and its licensor disclaim any and
  14:../lpc11cx4-library/lpc_chip_11cxx_lib/inc/gpio_11xx_2.h ****  * all warranties, express or implied, including all implied warranties of
  15:../lpc11cx4-library/lpc_chip_11cxx_lib/inc/gpio_11xx_2.h ****  * merchantability, fitness for a particular purpose and non-infringement of
  16:../lpc11cx4-library/lpc_chip_11cxx_lib/inc/gpio_11xx_2.h ****  * intellectual property rights.  NXP Semiconductors assumes no responsibility
  17:../lpc11cx4-library/lpc_chip_11cxx_lib/inc/gpio_11xx_2.h ****  * or liability for the use of the software, conveys no license or rights under any
  18:../lpc11cx4-library/lpc_chip_11cxx_lib/inc/gpio_11xx_2.h ****  * patent, copyright, mask work right, or any other intellectual property rights in
  19:../lpc11cx4-library/lpc_chip_11cxx_lib/inc/gpio_11xx_2.h ****  * or to any products. NXP Semiconductors reserves the right to make changes
  20:../lpc11cx4-library/lpc_chip_11cxx_lib/inc/gpio_11xx_2.h ****  * in the software without notification. NXP Semiconductors also makes no
  21:../lpc11cx4-library/lpc_chip_11cxx_lib/inc/gpio_11xx_2.h ****  * representation or warranty that such application will be suitable for the
  22:../lpc11cx4-library/lpc_chip_11cxx_lib/inc/gpio_11xx_2.h ****  * specified use without further testing or modification.
  23:../lpc11cx4-library/lpc_chip_11cxx_lib/inc/gpio_11xx_2.h ****  *
  24:../lpc11cx4-library/lpc_chip_11cxx_lib/inc/gpio_11xx_2.h ****  * @par
  25:../lpc11cx4-library/lpc_chip_11cxx_lib/inc/gpio_11xx_2.h ****  * Permission to use, copy, modify, and distribute this software and its
ARM GAS  /tmp/ccCEgSEj.s 			page 13


  26:../lpc11cx4-library/lpc_chip_11cxx_lib/inc/gpio_11xx_2.h ****  * documentation is hereby granted, under NXP Semiconductors' and its
  27:../lpc11cx4-library/lpc_chip_11cxx_lib/inc/gpio_11xx_2.h ****  * licensor's relevant copyrights in the software, without fee, provided that it
  28:../lpc11cx4-library/lpc_chip_11cxx_lib/inc/gpio_11xx_2.h ****  * is used in conjunction with NXP Semiconductors microcontrollers.  This
  29:../lpc11cx4-library/lpc_chip_11cxx_lib/inc/gpio_11xx_2.h ****  * copyright, permission, and disclaimer notice must appear in all copies of
  30:../lpc11cx4-library/lpc_chip_11cxx_lib/inc/gpio_11xx_2.h ****  * this code.
  31:../lpc11cx4-library/lpc_chip_11cxx_lib/inc/gpio_11xx_2.h ****  */
  32:../lpc11cx4-library/lpc_chip_11cxx_lib/inc/gpio_11xx_2.h **** 
  33:../lpc11cx4-library/lpc_chip_11cxx_lib/inc/gpio_11xx_2.h **** #ifndef __GPIO_11XX_2_H_
  34:../lpc11cx4-library/lpc_chip_11cxx_lib/inc/gpio_11xx_2.h **** #define __GPIO_11XX_2_H_
  35:../lpc11cx4-library/lpc_chip_11cxx_lib/inc/gpio_11xx_2.h **** 
  36:../lpc11cx4-library/lpc_chip_11cxx_lib/inc/gpio_11xx_2.h **** #ifdef __cplusplus
  37:../lpc11cx4-library/lpc_chip_11cxx_lib/inc/gpio_11xx_2.h **** extern "C" {
  38:../lpc11cx4-library/lpc_chip_11cxx_lib/inc/gpio_11xx_2.h **** #endif
  39:../lpc11cx4-library/lpc_chip_11cxx_lib/inc/gpio_11xx_2.h **** 
  40:../lpc11cx4-library/lpc_chip_11cxx_lib/inc/gpio_11xx_2.h **** /** @defgroup GPIO_11XX_2 CHIP: LPC11xx GPIO driver for CHIP_LPC11CXX, CHIP_LPC110X, and CHIP_LPC11
  41:../lpc11cx4-library/lpc_chip_11cxx_lib/inc/gpio_11xx_2.h ****  * @ingroup CHIP_11XX_Drivers
  42:../lpc11cx4-library/lpc_chip_11cxx_lib/inc/gpio_11xx_2.h ****  * For device familes identified with CHIP definitions CHIP_LPC11CXX,
  43:../lpc11cx4-library/lpc_chip_11cxx_lib/inc/gpio_11xx_2.h ****  * CHIP_LPC110X, and CHIP_LPC11XXLV only.
  44:../lpc11cx4-library/lpc_chip_11cxx_lib/inc/gpio_11xx_2.h ****  * @{
  45:../lpc11cx4-library/lpc_chip_11cxx_lib/inc/gpio_11xx_2.h ****  */
  46:../lpc11cx4-library/lpc_chip_11cxx_lib/inc/gpio_11xx_2.h **** 
  47:../lpc11cx4-library/lpc_chip_11cxx_lib/inc/gpio_11xx_2.h **** #if defined(CHIP_LPC11CXX) || defined(CHIP_LPC110X) || defined(CHIP_LPC11XXLV) || defined(CHIP_LPC1
  48:../lpc11cx4-library/lpc_chip_11cxx_lib/inc/gpio_11xx_2.h **** 
  49:../lpc11cx4-library/lpc_chip_11cxx_lib/inc/gpio_11xx_2.h **** /**
  50:../lpc11cx4-library/lpc_chip_11cxx_lib/inc/gpio_11xx_2.h ****  * @brief  GPIO port register block structure
  51:../lpc11cx4-library/lpc_chip_11cxx_lib/inc/gpio_11xx_2.h ****  */
  52:../lpc11cx4-library/lpc_chip_11cxx_lib/inc/gpio_11xx_2.h **** typedef struct {				/*!< GPIO_PORT Structure */
  53:../lpc11cx4-library/lpc_chip_11cxx_lib/inc/gpio_11xx_2.h **** 	__IO uint32_t DATA[4096];			/*!< Offset: 0x0000 to 0x3FFC Data address masking register (R/W) */
  54:../lpc11cx4-library/lpc_chip_11cxx_lib/inc/gpio_11xx_2.h **** 	uint32_t RESERVED1[4096];
  55:../lpc11cx4-library/lpc_chip_11cxx_lib/inc/gpio_11xx_2.h **** 	__IO uint32_t DIR;					/*!< Offset: 0x8000 Data direction register (R/W) */
  56:../lpc11cx4-library/lpc_chip_11cxx_lib/inc/gpio_11xx_2.h **** 	__IO uint32_t IS;					/*!< Offset: 0x8004 Interrupt sense register (R/W) */
  57:../lpc11cx4-library/lpc_chip_11cxx_lib/inc/gpio_11xx_2.h **** 	__IO uint32_t IBE;					/*!< Offset: 0x8008 Interrupt both edges register (R/W) */
  58:../lpc11cx4-library/lpc_chip_11cxx_lib/inc/gpio_11xx_2.h **** 	__IO uint32_t IEV;					/*!< Offset: 0x800C Interrupt event register  (R/W) */
  59:../lpc11cx4-library/lpc_chip_11cxx_lib/inc/gpio_11xx_2.h **** 	__IO uint32_t IE;					/*!< Offset: 0x8010 Interrupt mask register (R/W) */
  60:../lpc11cx4-library/lpc_chip_11cxx_lib/inc/gpio_11xx_2.h **** 	__I  uint32_t RIS;					/*!< Offset: 0x8014 Raw interrupt status register (R/ ) */
  61:../lpc11cx4-library/lpc_chip_11cxx_lib/inc/gpio_11xx_2.h **** 	__I  uint32_t MIS;					/*!< Offset: 0x8018 Masked interrupt status register (R/ ) */
  62:../lpc11cx4-library/lpc_chip_11cxx_lib/inc/gpio_11xx_2.h **** 	__O  uint32_t IC;					/*!< Offset: 0x801C Interrupt clear register (W) */
  63:../lpc11cx4-library/lpc_chip_11cxx_lib/inc/gpio_11xx_2.h **** 	uint32_t RESERVED2[8184];			/* Padding added for aligning contiguous GPIO blocks */
  64:../lpc11cx4-library/lpc_chip_11cxx_lib/inc/gpio_11xx_2.h **** } LPC_GPIO_T;
  65:../lpc11cx4-library/lpc_chip_11cxx_lib/inc/gpio_11xx_2.h **** 
  66:../lpc11cx4-library/lpc_chip_11cxx_lib/inc/gpio_11xx_2.h **** /**
  67:../lpc11cx4-library/lpc_chip_11cxx_lib/inc/gpio_11xx_2.h ****  * @brief	Initialize GPIO block
  68:../lpc11cx4-library/lpc_chip_11cxx_lib/inc/gpio_11xx_2.h ****  * @param	pGPIO	: The base of GPIO peripheral on the chip
  69:../lpc11cx4-library/lpc_chip_11cxx_lib/inc/gpio_11xx_2.h ****  * @return	Nothing
  70:../lpc11cx4-library/lpc_chip_11cxx_lib/inc/gpio_11xx_2.h ****  */
  71:../lpc11cx4-library/lpc_chip_11cxx_lib/inc/gpio_11xx_2.h **** void Chip_GPIO_Init(LPC_GPIO_T *pGPIO);
  72:../lpc11cx4-library/lpc_chip_11cxx_lib/inc/gpio_11xx_2.h **** 
  73:../lpc11cx4-library/lpc_chip_11cxx_lib/inc/gpio_11xx_2.h **** /**
  74:../lpc11cx4-library/lpc_chip_11cxx_lib/inc/gpio_11xx_2.h ****  * @brief	De-Initialize GPIO block
  75:../lpc11cx4-library/lpc_chip_11cxx_lib/inc/gpio_11xx_2.h ****  * @param	pGPIO	: The base of GPIO peripheral on the chip
  76:../lpc11cx4-library/lpc_chip_11cxx_lib/inc/gpio_11xx_2.h ****  * @return	Nothing
  77:../lpc11cx4-library/lpc_chip_11cxx_lib/inc/gpio_11xx_2.h ****  */
  78:../lpc11cx4-library/lpc_chip_11cxx_lib/inc/gpio_11xx_2.h **** void Chip_GPIO_DeInit(LPC_GPIO_T *pGPIO);
  79:../lpc11cx4-library/lpc_chip_11cxx_lib/inc/gpio_11xx_2.h **** 
  80:../lpc11cx4-library/lpc_chip_11cxx_lib/inc/gpio_11xx_2.h **** /**
  81:../lpc11cx4-library/lpc_chip_11cxx_lib/inc/gpio_11xx_2.h ****  * @brief	Set a GPIO port/bit state
  82:../lpc11cx4-library/lpc_chip_11cxx_lib/inc/gpio_11xx_2.h ****  * @param	pGPIO	: The base of GPIO peripheral on the chip
ARM GAS  /tmp/ccCEgSEj.s 			page 14


  83:../lpc11cx4-library/lpc_chip_11cxx_lib/inc/gpio_11xx_2.h ****  * @param	port	: GPIO port to set
  84:../lpc11cx4-library/lpc_chip_11cxx_lib/inc/gpio_11xx_2.h ****  * @param	bit		: GPIO bit to set
  85:../lpc11cx4-library/lpc_chip_11cxx_lib/inc/gpio_11xx_2.h ****  * @param	setting	: true for high, false for low
  86:../lpc11cx4-library/lpc_chip_11cxx_lib/inc/gpio_11xx_2.h ****  * @return	Nothing
  87:../lpc11cx4-library/lpc_chip_11cxx_lib/inc/gpio_11xx_2.h ****  */
  88:../lpc11cx4-library/lpc_chip_11cxx_lib/inc/gpio_11xx_2.h **** STATIC INLINE void Chip_GPIO_WritePortBit(LPC_GPIO_T *pGPIO, uint32_t port, uint8_t bit, bool setti
  89:../lpc11cx4-library/lpc_chip_11cxx_lib/inc/gpio_11xx_2.h **** {
  90:../lpc11cx4-library/lpc_chip_11cxx_lib/inc/gpio_11xx_2.h **** 	pGPIO[port].DATA[1 << bit] = setting << bit;
  91:../lpc11cx4-library/lpc_chip_11cxx_lib/inc/gpio_11xx_2.h **** }
  92:../lpc11cx4-library/lpc_chip_11cxx_lib/inc/gpio_11xx_2.h **** 
  93:../lpc11cx4-library/lpc_chip_11cxx_lib/inc/gpio_11xx_2.h **** /**
  94:../lpc11cx4-library/lpc_chip_11cxx_lib/inc/gpio_11xx_2.h ****  * @brief	Set a GPIO pin state via the GPIO byte register
  95:../lpc11cx4-library/lpc_chip_11cxx_lib/inc/gpio_11xx_2.h ****  * @param	pGPIO	: The base of GPIO peripheral on the chip
  96:../lpc11cx4-library/lpc_chip_11cxx_lib/inc/gpio_11xx_2.h ****  * @param	port	: Port number
  97:../lpc11cx4-library/lpc_chip_11cxx_lib/inc/gpio_11xx_2.h ****  * @param	pin		: GPIO pin to set
  98:../lpc11cx4-library/lpc_chip_11cxx_lib/inc/gpio_11xx_2.h ****  * @param	setting	: true for high, false for low
  99:../lpc11cx4-library/lpc_chip_11cxx_lib/inc/gpio_11xx_2.h ****  * @return	Nothing
 100:../lpc11cx4-library/lpc_chip_11cxx_lib/inc/gpio_11xx_2.h ****  * @note	This function replaces Chip_GPIO_WritePortBit()
 101:../lpc11cx4-library/lpc_chip_11cxx_lib/inc/gpio_11xx_2.h ****  */
 102:../lpc11cx4-library/lpc_chip_11cxx_lib/inc/gpio_11xx_2.h **** STATIC INLINE void Chip_GPIO_SetPinState(LPC_GPIO_T *pGPIO, uint8_t port, uint8_t pin, bool setting
 103:../lpc11cx4-library/lpc_chip_11cxx_lib/inc/gpio_11xx_2.h **** {
 104:../lpc11cx4-library/lpc_chip_11cxx_lib/inc/gpio_11xx_2.h **** 	pGPIO[port].DATA[1 << pin] = setting << pin;
 105:../lpc11cx4-library/lpc_chip_11cxx_lib/inc/gpio_11xx_2.h **** }
 106:../lpc11cx4-library/lpc_chip_11cxx_lib/inc/gpio_11xx_2.h **** 
 107:../lpc11cx4-library/lpc_chip_11cxx_lib/inc/gpio_11xx_2.h **** /**
 108:../lpc11cx4-library/lpc_chip_11cxx_lib/inc/gpio_11xx_2.h ****  * @brief	Read a GPIO state
 109:../lpc11cx4-library/lpc_chip_11cxx_lib/inc/gpio_11xx_2.h ****  * @param	pGPIO	: The base of GPIO peripheral on the chip
 110:../lpc11cx4-library/lpc_chip_11cxx_lib/inc/gpio_11xx_2.h ****  * @param	port	: GPIO port to read
 111:../lpc11cx4-library/lpc_chip_11cxx_lib/inc/gpio_11xx_2.h ****  * @param	bit		: GPIO bit to read
 112:../lpc11cx4-library/lpc_chip_11cxx_lib/inc/gpio_11xx_2.h ****  * @return	true of the GPIO is high, false if low
 113:../lpc11cx4-library/lpc_chip_11cxx_lib/inc/gpio_11xx_2.h ****  * @note	It is recommended to use the Chip_GPIO_GetPinState() function instead.
 114:../lpc11cx4-library/lpc_chip_11cxx_lib/inc/gpio_11xx_2.h ****  */
 115:../lpc11cx4-library/lpc_chip_11cxx_lib/inc/gpio_11xx_2.h **** STATIC INLINE bool Chip_GPIO_ReadPortBit(LPC_GPIO_T *pGPIO, uint32_t port, uint8_t bit)
 116:../lpc11cx4-library/lpc_chip_11cxx_lib/inc/gpio_11xx_2.h **** {
 117:../lpc11cx4-library/lpc_chip_11cxx_lib/inc/gpio_11xx_2.h **** 	return (bool) ((pGPIO[port].DATA[1 << bit] >> bit) & 1);
 118:../lpc11cx4-library/lpc_chip_11cxx_lib/inc/gpio_11xx_2.h **** }
 119:../lpc11cx4-library/lpc_chip_11cxx_lib/inc/gpio_11xx_2.h **** 
 120:../lpc11cx4-library/lpc_chip_11cxx_lib/inc/gpio_11xx_2.h **** /**
 121:../lpc11cx4-library/lpc_chip_11cxx_lib/inc/gpio_11xx_2.h ****  * @brief	Get a GPIO pin state via the GPIO byte register
 122:../lpc11cx4-library/lpc_chip_11cxx_lib/inc/gpio_11xx_2.h ****  * @param	pGPIO	: The base of GPIO peripheral on the chip
 123:../lpc11cx4-library/lpc_chip_11cxx_lib/inc/gpio_11xx_2.h ****  * @param	port	: Port number
 124:../lpc11cx4-library/lpc_chip_11cxx_lib/inc/gpio_11xx_2.h ****  * @param	pin		: GPIO pin to get state for
 125:../lpc11cx4-library/lpc_chip_11cxx_lib/inc/gpio_11xx_2.h ****  * @return	true if the GPIO is high, false if low
 126:../lpc11cx4-library/lpc_chip_11cxx_lib/inc/gpio_11xx_2.h ****  * @note	This function replaces Chip_GPIO_ReadPortBit()
 127:../lpc11cx4-library/lpc_chip_11cxx_lib/inc/gpio_11xx_2.h ****  */
 128:../lpc11cx4-library/lpc_chip_11cxx_lib/inc/gpio_11xx_2.h **** STATIC INLINE bool Chip_GPIO_GetPinState(LPC_GPIO_T *pGPIO, uint8_t port, uint8_t pin)
 129:../lpc11cx4-library/lpc_chip_11cxx_lib/inc/gpio_11xx_2.h **** {
 130:../lpc11cx4-library/lpc_chip_11cxx_lib/inc/gpio_11xx_2.h **** 	return (pGPIO[port].DATA[1 << pin]) != 0;
 131:../lpc11cx4-library/lpc_chip_11cxx_lib/inc/gpio_11xx_2.h **** }
 132:../lpc11cx4-library/lpc_chip_11cxx_lib/inc/gpio_11xx_2.h **** 
 133:../lpc11cx4-library/lpc_chip_11cxx_lib/inc/gpio_11xx_2.h **** /**
 134:../lpc11cx4-library/lpc_chip_11cxx_lib/inc/gpio_11xx_2.h ****  * @brief	Seta GPIO direction
 135:../lpc11cx4-library/lpc_chip_11cxx_lib/inc/gpio_11xx_2.h ****  * @param	pGPIO	: The base of GPIO peripheral on the chip
 136:../lpc11cx4-library/lpc_chip_11cxx_lib/inc/gpio_11xx_2.h ****  * @param	port	: GPIO port to set
 137:../lpc11cx4-library/lpc_chip_11cxx_lib/inc/gpio_11xx_2.h ****  * @param	bit		: GPIO bit to set
 138:../lpc11cx4-library/lpc_chip_11cxx_lib/inc/gpio_11xx_2.h ****  * @param	setting	: true for output, false for input
 139:../lpc11cx4-library/lpc_chip_11cxx_lib/inc/gpio_11xx_2.h ****  * @return	Nothing
ARM GAS  /tmp/ccCEgSEj.s 			page 15


 140:../lpc11cx4-library/lpc_chip_11cxx_lib/inc/gpio_11xx_2.h ****  * @note	It is recommended to use the Chip_GPIO_SetPinDIROutput(), 
 141:../lpc11cx4-library/lpc_chip_11cxx_lib/inc/gpio_11xx_2.h ****  * Chip_GPIO_SetPinDIRInput() or Chip_GPIO_SetPinDIR() functions instead
 142:../lpc11cx4-library/lpc_chip_11cxx_lib/inc/gpio_11xx_2.h ****  * of this function.
 143:../lpc11cx4-library/lpc_chip_11cxx_lib/inc/gpio_11xx_2.h ****  */
 144:../lpc11cx4-library/lpc_chip_11cxx_lib/inc/gpio_11xx_2.h **** void Chip_GPIO_WriteDirBit(LPC_GPIO_T *pGPIO, uint32_t port, uint8_t bit, bool setting);
 145:../lpc11cx4-library/lpc_chip_11cxx_lib/inc/gpio_11xx_2.h **** 
 146:../lpc11cx4-library/lpc_chip_11cxx_lib/inc/gpio_11xx_2.h **** /**
 147:../lpc11cx4-library/lpc_chip_11cxx_lib/inc/gpio_11xx_2.h ****  * @brief	Set GPIO direction for a single GPIO pin to an output
 148:../lpc11cx4-library/lpc_chip_11cxx_lib/inc/gpio_11xx_2.h ****  * @param	pGPIO	: The base of GPIO peripheral on the chip
 149:../lpc11cx4-library/lpc_chip_11cxx_lib/inc/gpio_11xx_2.h ****  * @param	port	: Port number
 150:../lpc11cx4-library/lpc_chip_11cxx_lib/inc/gpio_11xx_2.h ****  * @param	pin		: GPIO pin to set direction on as output
 151:../lpc11cx4-library/lpc_chip_11cxx_lib/inc/gpio_11xx_2.h ****  * @return	Nothing
 152:../lpc11cx4-library/lpc_chip_11cxx_lib/inc/gpio_11xx_2.h ****  */
 153:../lpc11cx4-library/lpc_chip_11cxx_lib/inc/gpio_11xx_2.h **** STATIC INLINE void Chip_GPIO_SetPinDIROutput(LPC_GPIO_T *pGPIO, uint8_t port, uint8_t pin)
 154:../lpc11cx4-library/lpc_chip_11cxx_lib/inc/gpio_11xx_2.h **** {
 155:../lpc11cx4-library/lpc_chip_11cxx_lib/inc/gpio_11xx_2.h **** 	pGPIO[port].DIR |= (1UL << pin);
 260              		.loc 3 155 0
 261 0002 8024     		mov	r4, #128	@ tmp130,
 262 0004 0904     		lsl	r1, r1, #16	@ D.6243, port,
 263              	.LVL21:
 264 0006 4018     		add	r0, r0, r1	@ D.6244, pGPIO, D.6243
 265              	.LVL22:
 266 0008 2402     		lsl	r4, r4, #8	@ tmp130, tmp130,
 267              	.LBE35:
 268              	.LBE34:
  90:../lpc11cx4-library/lpc_chip_11cxx_lib/src/gpio_11xx_2.c **** 	if (output) {
 269              		.loc 1 90 0
 270 000a 002B     		cmp	r3, #0	@ output,
 271 000c 05D1     		bne	.L19	@,
 272              	.LVL23:
 273              	.LBB37:
 274              	.LBB38:
 156:../lpc11cx4-library/lpc_chip_11cxx_lib/inc/gpio_11xx_2.h **** }
 157:../lpc11cx4-library/lpc_chip_11cxx_lib/inc/gpio_11xx_2.h **** 
 158:../lpc11cx4-library/lpc_chip_11cxx_lib/inc/gpio_11xx_2.h **** /**
 159:../lpc11cx4-library/lpc_chip_11cxx_lib/inc/gpio_11xx_2.h ****  * @brief	Set GPIO direction for a single GPIO pin to an input
 160:../lpc11cx4-library/lpc_chip_11cxx_lib/inc/gpio_11xx_2.h ****  * @param	pGPIO	: The base of GPIO peripheral on the chip
 161:../lpc11cx4-library/lpc_chip_11cxx_lib/inc/gpio_11xx_2.h ****  * @param	port	: Port number
 162:../lpc11cx4-library/lpc_chip_11cxx_lib/inc/gpio_11xx_2.h ****  * @param	pin		: GPIO pin to set direction on as input
 163:../lpc11cx4-library/lpc_chip_11cxx_lib/inc/gpio_11xx_2.h ****  * @return	Nothing
 164:../lpc11cx4-library/lpc_chip_11cxx_lib/inc/gpio_11xx_2.h ****  */
 165:../lpc11cx4-library/lpc_chip_11cxx_lib/inc/gpio_11xx_2.h **** STATIC INLINE void Chip_GPIO_SetPinDIRInput(LPC_GPIO_T *pGPIO, uint8_t port, uint8_t pin)
 166:../lpc11cx4-library/lpc_chip_11cxx_lib/inc/gpio_11xx_2.h **** {
 167:../lpc11cx4-library/lpc_chip_11cxx_lib/inc/gpio_11xx_2.h **** 	pGPIO[port].DIR &= ~(1UL << pin);
 275              		.loc 3 167 0
 276 000e 0121     		mov	r1, #1	@ tmp137,
 277 0010 9140     		lsl	r1, r1, r2	@ D.6245, D.6245, pin
 278 0012 0359     		ldr	r3, [r0, r4]	@ D.6245,
 279              	.LVL24:
 280 0014 8B43     		bic	r3, r1	@ D.6245, D.6245
 281 0016 0351     		str	r3, [r0, r4]	@ D.6245, _17->DIR
 282              	.LVL25:
 283              	.L16:
 284              	.LBE38:
 285              	.LBE37:
  91:../lpc11cx4-library/lpc_chip_11cxx_lib/src/gpio_11xx_2.c **** 		Chip_GPIO_SetPinDIROutput(pGPIO, port, pin);
  92:../lpc11cx4-library/lpc_chip_11cxx_lib/src/gpio_11xx_2.c **** 	}
ARM GAS  /tmp/ccCEgSEj.s 			page 16


  93:../lpc11cx4-library/lpc_chip_11cxx_lib/src/gpio_11xx_2.c **** 	else {
  94:../lpc11cx4-library/lpc_chip_11cxx_lib/src/gpio_11xx_2.c **** 		Chip_GPIO_SetPinDIRInput(pGPIO, port, pin);
  95:../lpc11cx4-library/lpc_chip_11cxx_lib/src/gpio_11xx_2.c **** 	}
  96:../lpc11cx4-library/lpc_chip_11cxx_lib/src/gpio_11xx_2.c **** }
 286              		.loc 1 96 0
 287              		@ sp needed	@
 288 0018 10BD     		pop	{r4, pc}
 289              	.LVL26:
 290              	.L19:
 291              	.LBB39:
 292              	.LBB36:
 155:../lpc11cx4-library/lpc_chip_11cxx_lib/inc/gpio_11xx_2.h **** }
 293              		.loc 3 155 0
 294 001a 0121     		mov	r1, #1	@ tmp132,
 295 001c 9140     		lsl	r1, r1, r2	@ D.6245, D.6245, pin
 296 001e 0A1C     		mov	r2, r1	@ D.6245, D.6245
 297              	.LVL27:
 298 0020 0359     		ldr	r3, [r0, r4]	@ D.6245,
 299              	.LVL28:
 300 0022 1A43     		orr	r2, r3	@ D.6245, D.6245
 301 0024 0251     		str	r2, [r0, r4]	@ D.6245, _11->DIR
 302 0026 F7E7     		b	.L16	@
 303              	.LBE36:
 304              	.LBE39:
 305              		.cfi_endproc
 306              	.LFE202:
 307              		.size	Chip_GPIO_SetPinDIR, .-Chip_GPIO_SetPinDIR
 308              		.section	.text.Chip_GPIO_SetPortDIR,"ax",%progbits
 309              		.align	2
 310              		.global	Chip_GPIO_SetPortDIR
 311              		.code	16
 312              		.thumb_func
 313              		.type	Chip_GPIO_SetPortDIR, %function
 314              	Chip_GPIO_SetPortDIR:
 315              	.LFB203:
  97:../lpc11cx4-library/lpc_chip_11cxx_lib/src/gpio_11xx_2.c **** 
  98:../lpc11cx4-library/lpc_chip_11cxx_lib/src/gpio_11xx_2.c **** 
  99:../lpc11cx4-library/lpc_chip_11cxx_lib/src/gpio_11xx_2.c **** /* Set GPIO direction for a all selected GPIO pins to an input or output */
 100:../lpc11cx4-library/lpc_chip_11cxx_lib/src/gpio_11xx_2.c **** void Chip_GPIO_SetPortDIR(LPC_GPIO_T *pGPIO, uint8_t port, uint32_t pinMask, bool outSet)
 101:../lpc11cx4-library/lpc_chip_11cxx_lib/src/gpio_11xx_2.c **** {
 316              		.loc 1 101 0
 317              		.cfi_startproc
 318              	.LVL29:
 319              	.LBB40:
 320              	.LBB41:
 168:../lpc11cx4-library/lpc_chip_11cxx_lib/inc/gpio_11xx_2.h **** }
 169:../lpc11cx4-library/lpc_chip_11cxx_lib/inc/gpio_11xx_2.h **** 
 170:../lpc11cx4-library/lpc_chip_11cxx_lib/inc/gpio_11xx_2.h **** /**
 171:../lpc11cx4-library/lpc_chip_11cxx_lib/inc/gpio_11xx_2.h ****  * @brief	Set GPIO direction for a single GPIO pin
 172:../lpc11cx4-library/lpc_chip_11cxx_lib/inc/gpio_11xx_2.h ****  * @param	pGPIO	: The base of GPIO peripheral on the chip
 173:../lpc11cx4-library/lpc_chip_11cxx_lib/inc/gpio_11xx_2.h ****  * @param	port	: Port number
 174:../lpc11cx4-library/lpc_chip_11cxx_lib/inc/gpio_11xx_2.h ****  * @param	pin		: GPIO pin to set direction for
 175:../lpc11cx4-library/lpc_chip_11cxx_lib/inc/gpio_11xx_2.h ****  * @param	output	: true for output, false for input
 176:../lpc11cx4-library/lpc_chip_11cxx_lib/inc/gpio_11xx_2.h ****  * @return	Nothing
 177:../lpc11cx4-library/lpc_chip_11cxx_lib/inc/gpio_11xx_2.h ****  */
 178:../lpc11cx4-library/lpc_chip_11cxx_lib/inc/gpio_11xx_2.h **** void Chip_GPIO_SetPinDIR(LPC_GPIO_T *pGPIO, uint8_t port, uint8_t pin, bool output);
 179:../lpc11cx4-library/lpc_chip_11cxx_lib/inc/gpio_11xx_2.h **** 
ARM GAS  /tmp/ccCEgSEj.s 			page 17


 180:../lpc11cx4-library/lpc_chip_11cxx_lib/inc/gpio_11xx_2.h **** /**
 181:../lpc11cx4-library/lpc_chip_11cxx_lib/inc/gpio_11xx_2.h ****  * @brief	Read a GPIO direction (out or in)
 182:../lpc11cx4-library/lpc_chip_11cxx_lib/inc/gpio_11xx_2.h ****  * @param	pGPIO	: The base of GPIO peripheral on the chip
 183:../lpc11cx4-library/lpc_chip_11cxx_lib/inc/gpio_11xx_2.h ****  * @param	port	: GPIO port to read
 184:../lpc11cx4-library/lpc_chip_11cxx_lib/inc/gpio_11xx_2.h ****  * @param	bit		: GPIO bit to read
 185:../lpc11cx4-library/lpc_chip_11cxx_lib/inc/gpio_11xx_2.h ****  * @return	true of the GPIO is an output, false if input
 186:../lpc11cx4-library/lpc_chip_11cxx_lib/inc/gpio_11xx_2.h ****  * @note	It is recommended to use the Chip_GPIO_GetPinDIR() function instead.
 187:../lpc11cx4-library/lpc_chip_11cxx_lib/inc/gpio_11xx_2.h ****  */
 188:../lpc11cx4-library/lpc_chip_11cxx_lib/inc/gpio_11xx_2.h **** STATIC INLINE bool Chip_GPIO_ReadDirBit(LPC_GPIO_T *pGPIO, uint32_t port, uint8_t bit)
 189:../lpc11cx4-library/lpc_chip_11cxx_lib/inc/gpio_11xx_2.h **** {
 190:../lpc11cx4-library/lpc_chip_11cxx_lib/inc/gpio_11xx_2.h **** 	return (bool) (((pGPIO[port].DIR) >> bit) & 1);
 191:../lpc11cx4-library/lpc_chip_11cxx_lib/inc/gpio_11xx_2.h **** }
 192:../lpc11cx4-library/lpc_chip_11cxx_lib/inc/gpio_11xx_2.h **** 
 193:../lpc11cx4-library/lpc_chip_11cxx_lib/inc/gpio_11xx_2.h **** /**
 194:../lpc11cx4-library/lpc_chip_11cxx_lib/inc/gpio_11xx_2.h ****  * @brief	Get GPIO direction for a single GPIO pin
 195:../lpc11cx4-library/lpc_chip_11cxx_lib/inc/gpio_11xx_2.h ****  * @param	pGPIO	: The base of GPIO peripheral on the chip
 196:../lpc11cx4-library/lpc_chip_11cxx_lib/inc/gpio_11xx_2.h ****  * @param	port	: Port number
 197:../lpc11cx4-library/lpc_chip_11cxx_lib/inc/gpio_11xx_2.h ****  * @param	pin		: GPIO pin to get direction for
 198:../lpc11cx4-library/lpc_chip_11cxx_lib/inc/gpio_11xx_2.h ****  * @return	true if the GPIO is an output, false if input
 199:../lpc11cx4-library/lpc_chip_11cxx_lib/inc/gpio_11xx_2.h ****  */
 200:../lpc11cx4-library/lpc_chip_11cxx_lib/inc/gpio_11xx_2.h **** STATIC INLINE bool Chip_GPIO_GetPinDIR(LPC_GPIO_T *pGPIO, uint8_t port, uint8_t pin)
 201:../lpc11cx4-library/lpc_chip_11cxx_lib/inc/gpio_11xx_2.h **** {
 202:../lpc11cx4-library/lpc_chip_11cxx_lib/inc/gpio_11xx_2.h **** 	return (bool) (pGPIO[port].DIR >> pin) & 1;
 203:../lpc11cx4-library/lpc_chip_11cxx_lib/inc/gpio_11xx_2.h **** }
 204:../lpc11cx4-library/lpc_chip_11cxx_lib/inc/gpio_11xx_2.h **** 
 205:../lpc11cx4-library/lpc_chip_11cxx_lib/inc/gpio_11xx_2.h **** /**
 206:../lpc11cx4-library/lpc_chip_11cxx_lib/inc/gpio_11xx_2.h ****  * @brief	Set Direction for a GPIO port
 207:../lpc11cx4-library/lpc_chip_11cxx_lib/inc/gpio_11xx_2.h ****  * @param	pGPIO	: The base of GPIO peripheral on the chip
 208:../lpc11cx4-library/lpc_chip_11cxx_lib/inc/gpio_11xx_2.h ****  * @param	port	: Port Number
 209:../lpc11cx4-library/lpc_chip_11cxx_lib/inc/gpio_11xx_2.h ****  * @param	bit		: GPIO bit to set
 210:../lpc11cx4-library/lpc_chip_11cxx_lib/inc/gpio_11xx_2.h ****  * @param	out		: Direction value, 0 = input, !0 = output
 211:../lpc11cx4-library/lpc_chip_11cxx_lib/inc/gpio_11xx_2.h ****  * @return	None
 212:../lpc11cx4-library/lpc_chip_11cxx_lib/inc/gpio_11xx_2.h ****  * @note	Bits set to '0' are not altered. It is recommended to use the
 213:../lpc11cx4-library/lpc_chip_11cxx_lib/inc/gpio_11xx_2.h ****  * Chip_GPIO_SetPortDIR() function instead.
 214:../lpc11cx4-library/lpc_chip_11cxx_lib/inc/gpio_11xx_2.h ****  */
 215:../lpc11cx4-library/lpc_chip_11cxx_lib/inc/gpio_11xx_2.h **** void Chip_GPIO_SetDir(LPC_GPIO_T *pGPIO, uint8_t port, uint32_t bit, uint8_t out);
 216:../lpc11cx4-library/lpc_chip_11cxx_lib/inc/gpio_11xx_2.h **** 
 217:../lpc11cx4-library/lpc_chip_11cxx_lib/inc/gpio_11xx_2.h **** /**
 218:../lpc11cx4-library/lpc_chip_11cxx_lib/inc/gpio_11xx_2.h ****  * @brief	Set GPIO direction for a all selected GPIO pins to an output
 219:../lpc11cx4-library/lpc_chip_11cxx_lib/inc/gpio_11xx_2.h ****  * @param	pGPIO	: The base of GPIO peripheral on the chip
 220:../lpc11cx4-library/lpc_chip_11cxx_lib/inc/gpio_11xx_2.h ****  * @param	port	: Port number
 221:../lpc11cx4-library/lpc_chip_11cxx_lib/inc/gpio_11xx_2.h ****  * @param	pinMask	: GPIO pin mask to set direction on as output (bits 0..n for pins 0..n)
 222:../lpc11cx4-library/lpc_chip_11cxx_lib/inc/gpio_11xx_2.h ****  * @return	Nothing
 223:../lpc11cx4-library/lpc_chip_11cxx_lib/inc/gpio_11xx_2.h ****  * @note	Sets multiple GPIO pins to the output direction, each bit's position that is
 224:../lpc11cx4-library/lpc_chip_11cxx_lib/inc/gpio_11xx_2.h ****  * high sets the corresponding pin number for that bit to an output.
 225:../lpc11cx4-library/lpc_chip_11cxx_lib/inc/gpio_11xx_2.h ****  */
 226:../lpc11cx4-library/lpc_chip_11cxx_lib/inc/gpio_11xx_2.h **** STATIC INLINE void Chip_GPIO_SetPortDIROutput(LPC_GPIO_T *pGPIO, uint8_t port, uint32_t pinMask)
 227:../lpc11cx4-library/lpc_chip_11cxx_lib/inc/gpio_11xx_2.h **** {
 228:../lpc11cx4-library/lpc_chip_11cxx_lib/inc/gpio_11xx_2.h **** 	pGPIO[port].DIR |= pinMask;
 321              		.loc 3 228 0
 322 0000 0904     		lsl	r1, r1, #16	@ D.6249, port,
 323              	.LVL30:
 324 0002 4018     		add	r0, r0, r1	@ D.6250, pGPIO, D.6249
 325              	.LVL31:
 326 0004 8021     		mov	r1, #128	@ tmp126,
 327 0006 0902     		lsl	r1, r1, #8	@ tmp126, tmp126,
 328              	.LBE41:
ARM GAS  /tmp/ccCEgSEj.s 			page 18


 329              	.LBE40:
 102:../lpc11cx4-library/lpc_chip_11cxx_lib/src/gpio_11xx_2.c **** 	if (outSet) {
 330              		.loc 1 102 0
 331 0008 002B     		cmp	r3, #0	@ outSet,
 332 000a 03D1     		bne	.L23	@,
 333              	.LVL32:
 334              	.LBB43:
 335              	.LBB44:
 229:../lpc11cx4-library/lpc_chip_11cxx_lib/inc/gpio_11xx_2.h **** }
 230:../lpc11cx4-library/lpc_chip_11cxx_lib/inc/gpio_11xx_2.h **** 
 231:../lpc11cx4-library/lpc_chip_11cxx_lib/inc/gpio_11xx_2.h **** /**
 232:../lpc11cx4-library/lpc_chip_11cxx_lib/inc/gpio_11xx_2.h ****  * @brief	Set GPIO direction for a all selected GPIO pins to an input
 233:../lpc11cx4-library/lpc_chip_11cxx_lib/inc/gpio_11xx_2.h ****  * @param	pGPIO	: The base of GPIO peripheral on the chip
 234:../lpc11cx4-library/lpc_chip_11cxx_lib/inc/gpio_11xx_2.h ****  * @param	port	: Port number
 235:../lpc11cx4-library/lpc_chip_11cxx_lib/inc/gpio_11xx_2.h ****  * @param	pinMask	: GPIO pin mask to set direction on as input (bits 0..b for pins 0..n)
 236:../lpc11cx4-library/lpc_chip_11cxx_lib/inc/gpio_11xx_2.h ****  * @return	Nothing
 237:../lpc11cx4-library/lpc_chip_11cxx_lib/inc/gpio_11xx_2.h ****  * @note	Sets multiple GPIO pins to the input direction, each bit's position that is
 238:../lpc11cx4-library/lpc_chip_11cxx_lib/inc/gpio_11xx_2.h ****  * high sets the corresponding pin number for that bit to an input.
 239:../lpc11cx4-library/lpc_chip_11cxx_lib/inc/gpio_11xx_2.h ****  */
 240:../lpc11cx4-library/lpc_chip_11cxx_lib/inc/gpio_11xx_2.h **** STATIC INLINE void Chip_GPIO_SetPortDIRInput(LPC_GPIO_T *pGPIO, uint8_t port, uint32_t pinMask)
 241:../lpc11cx4-library/lpc_chip_11cxx_lib/inc/gpio_11xx_2.h **** {
 242:../lpc11cx4-library/lpc_chip_11cxx_lib/inc/gpio_11xx_2.h **** 	pGPIO[port].DIR &= ~pinMask;
 336              		.loc 3 242 0
 337 000c 4358     		ldr	r3, [r0, r1]	@ D.6251,
 338              	.LVL33:
 339 000e 9343     		bic	r3, r2	@ D.6251, pinMask
 340 0010 4350     		str	r3, [r0, r1]	@ D.6251, _15->DIR
 341              	.LVL34:
 342              	.L20:
 343              	.LBE44:
 344              	.LBE43:
 103:../lpc11cx4-library/lpc_chip_11cxx_lib/src/gpio_11xx_2.c **** 		Chip_GPIO_SetPortDIROutput(pGPIO, port, pinMask);
 104:../lpc11cx4-library/lpc_chip_11cxx_lib/src/gpio_11xx_2.c **** 	}
 105:../lpc11cx4-library/lpc_chip_11cxx_lib/src/gpio_11xx_2.c **** 	else {
 106:../lpc11cx4-library/lpc_chip_11cxx_lib/src/gpio_11xx_2.c **** 		Chip_GPIO_SetPortDIRInput(pGPIO, port, pinMask);
 107:../lpc11cx4-library/lpc_chip_11cxx_lib/src/gpio_11xx_2.c **** 	}
 108:../lpc11cx4-library/lpc_chip_11cxx_lib/src/gpio_11xx_2.c **** }
 345              		.loc 1 108 0
 346              		@ sp needed	@
 347 0012 7047     		bx	lr
 348              	.LVL35:
 349              	.L23:
 350              	.LBB45:
 351              	.LBB42:
 228:../lpc11cx4-library/lpc_chip_11cxx_lib/inc/gpio_11xx_2.h **** }
 352              		.loc 3 228 0
 353 0014 4358     		ldr	r3, [r0, r1]	@ D.6251,
 354              	.LVL36:
 355 0016 1A43     		orr	r2, r3	@ D.6251, D.6251
 356              	.LVL37:
 357 0018 4250     		str	r2, [r0, r1]	@ D.6251, _11->DIR
 358 001a FAE7     		b	.L20	@
 359              	.LBE42:
 360              	.LBE45:
 361              		.cfi_endproc
 362              	.LFE203:
 363              		.size	Chip_GPIO_SetPortDIR, .-Chip_GPIO_SetPortDIR
ARM GAS  /tmp/ccCEgSEj.s 			page 19


 364              		.section	.text.Chip_GPIO_SetupPinInt,"ax",%progbits
 365              		.align	2
 366              		.global	Chip_GPIO_SetupPinInt
 367              		.code	16
 368              		.thumb_func
 369              		.type	Chip_GPIO_SetupPinInt, %function
 370              	Chip_GPIO_SetupPinInt:
 371              	.LFB204:
 109:../lpc11cx4-library/lpc_chip_11cxx_lib/src/gpio_11xx_2.c **** 
 110:../lpc11cx4-library/lpc_chip_11cxx_lib/src/gpio_11xx_2.c **** /* Composite function for setting up a full interrupt configuration for a single pin */
 111:../lpc11cx4-library/lpc_chip_11cxx_lib/src/gpio_11xx_2.c **** void Chip_GPIO_SetupPinInt(LPC_GPIO_T *pGPIO, uint8_t port, uint8_t pin, GPIO_INT_MODE_T mode)
 112:../lpc11cx4-library/lpc_chip_11cxx_lib/src/gpio_11xx_2.c **** {
 372              		.loc 1 112 0
 373              		.cfi_startproc
 374              	.LVL38:
 375 0000 30B5     		push	{r4, r5, lr}	@
 376              		.cfi_def_cfa_offset 12
 377              		.cfi_offset 4, -12
 378              		.cfi_offset 5, -8
 379              		.cfi_offset 14, -4
 113:../lpc11cx4-library/lpc_chip_11cxx_lib/src/gpio_11xx_2.c **** 	uint32_t pinMask = (1 << pin);
 380              		.loc 1 113 0
 381 0002 0124     		mov	r4, #1	@ tmp139,
 382 0004 9440     		lsl	r4, r4, r2	@ pinMask, pinMask, pin
 383              	.LBB46:
 384              	.LBB47:
 243:../lpc11cx4-library/lpc_chip_11cxx_lib/inc/gpio_11xx_2.h **** }
 244:../lpc11cx4-library/lpc_chip_11cxx_lib/inc/gpio_11xx_2.h **** 
 245:../lpc11cx4-library/lpc_chip_11cxx_lib/inc/gpio_11xx_2.h **** /**
 246:../lpc11cx4-library/lpc_chip_11cxx_lib/inc/gpio_11xx_2.h ****  * @brief	Set GPIO direction for a all selected GPIO pins to an input or output
 247:../lpc11cx4-library/lpc_chip_11cxx_lib/inc/gpio_11xx_2.h ****  * @param	pGPIO	: The base of GPIO peripheral on the chip
 248:../lpc11cx4-library/lpc_chip_11cxx_lib/inc/gpio_11xx_2.h ****  * @param	port	: Port number
 249:../lpc11cx4-library/lpc_chip_11cxx_lib/inc/gpio_11xx_2.h ****  * @param	pinMask	: GPIO pin mask to set direction on (bits 0..b for pins 0..n)
 250:../lpc11cx4-library/lpc_chip_11cxx_lib/inc/gpio_11xx_2.h ****  * @param	outSet	: Direction value, false = set as inputs, true = set as outputs
 251:../lpc11cx4-library/lpc_chip_11cxx_lib/inc/gpio_11xx_2.h ****  * @return	Nothing
 252:../lpc11cx4-library/lpc_chip_11cxx_lib/inc/gpio_11xx_2.h ****  * @note	Sets multiple GPIO pins to the input direction, each bit's position that is
 253:../lpc11cx4-library/lpc_chip_11cxx_lib/inc/gpio_11xx_2.h ****  * high sets the corresponding pin number for that bit to an input.
 254:../lpc11cx4-library/lpc_chip_11cxx_lib/inc/gpio_11xx_2.h ****  */
 255:../lpc11cx4-library/lpc_chip_11cxx_lib/inc/gpio_11xx_2.h **** void Chip_GPIO_SetPortDIR(LPC_GPIO_T *pGPIO, uint8_t port, uint32_t pinMask, bool outSet);
 256:../lpc11cx4-library/lpc_chip_11cxx_lib/inc/gpio_11xx_2.h **** 
 257:../lpc11cx4-library/lpc_chip_11cxx_lib/inc/gpio_11xx_2.h **** /**
 258:../lpc11cx4-library/lpc_chip_11cxx_lib/inc/gpio_11xx_2.h ****  * @brief	Get GPIO direction for a all GPIO pins
 259:../lpc11cx4-library/lpc_chip_11cxx_lib/inc/gpio_11xx_2.h ****  * @param	pGPIO	: The base of GPIO peripheral on the chip
 260:../lpc11cx4-library/lpc_chip_11cxx_lib/inc/gpio_11xx_2.h ****  * @param	port	: Port number
 261:../lpc11cx4-library/lpc_chip_11cxx_lib/inc/gpio_11xx_2.h ****  * @return	a bitfield containing the input and output states for each pin
 262:../lpc11cx4-library/lpc_chip_11cxx_lib/inc/gpio_11xx_2.h ****  * @note	For pins 0..n, a high state in a bit corresponds to an output state for the
 263:../lpc11cx4-library/lpc_chip_11cxx_lib/inc/gpio_11xx_2.h ****  * same pin, while a low  state corresponds to an input state.
 264:../lpc11cx4-library/lpc_chip_11cxx_lib/inc/gpio_11xx_2.h ****  */
 265:../lpc11cx4-library/lpc_chip_11cxx_lib/inc/gpio_11xx_2.h **** STATIC INLINE uint32_t Chip_GPIO_GetPortDIR(LPC_GPIO_T *pGPIO, uint8_t port)
 266:../lpc11cx4-library/lpc_chip_11cxx_lib/inc/gpio_11xx_2.h **** {
 267:../lpc11cx4-library/lpc_chip_11cxx_lib/inc/gpio_11xx_2.h **** 	return pGPIO[port].DIR;
 268:../lpc11cx4-library/lpc_chip_11cxx_lib/inc/gpio_11xx_2.h **** }
 269:../lpc11cx4-library/lpc_chip_11cxx_lib/inc/gpio_11xx_2.h **** 
 270:../lpc11cx4-library/lpc_chip_11cxx_lib/inc/gpio_11xx_2.h **** /**
 271:../lpc11cx4-library/lpc_chip_11cxx_lib/inc/gpio_11xx_2.h ****  * @brief	Set all GPIO raw pin states (regardless of masking)
 272:../lpc11cx4-library/lpc_chip_11cxx_lib/inc/gpio_11xx_2.h ****  * @param	pGPIO	: The base of GPIO peripheral on the chip
 273:../lpc11cx4-library/lpc_chip_11cxx_lib/inc/gpio_11xx_2.h ****  * @param	port	: Port number
ARM GAS  /tmp/ccCEgSEj.s 			page 20


 274:../lpc11cx4-library/lpc_chip_11cxx_lib/inc/gpio_11xx_2.h ****  * @param	value	: Value to set all GPIO pin states (0..n) to
 275:../lpc11cx4-library/lpc_chip_11cxx_lib/inc/gpio_11xx_2.h ****  * @return	Nothing
 276:../lpc11cx4-library/lpc_chip_11cxx_lib/inc/gpio_11xx_2.h ****  */
 277:../lpc11cx4-library/lpc_chip_11cxx_lib/inc/gpio_11xx_2.h **** STATIC INLINE void Chip_GPIO_SetPortValue(LPC_GPIO_T *pGPIO, uint8_t port, uint32_t value)
 278:../lpc11cx4-library/lpc_chip_11cxx_lib/inc/gpio_11xx_2.h **** {
 279:../lpc11cx4-library/lpc_chip_11cxx_lib/inc/gpio_11xx_2.h **** 	pGPIO[port].DATA[0xFFF] = value;
 280:../lpc11cx4-library/lpc_chip_11cxx_lib/inc/gpio_11xx_2.h **** }
 281:../lpc11cx4-library/lpc_chip_11cxx_lib/inc/gpio_11xx_2.h **** 
 282:../lpc11cx4-library/lpc_chip_11cxx_lib/inc/gpio_11xx_2.h **** /**
 283:../lpc11cx4-library/lpc_chip_11cxx_lib/inc/gpio_11xx_2.h ****  * @brief	Get all GPIO raw pin states (regardless of masking)
 284:../lpc11cx4-library/lpc_chip_11cxx_lib/inc/gpio_11xx_2.h ****  * @param	pGPIO	: The base of GPIO peripheral on the chip
 285:../lpc11cx4-library/lpc_chip_11cxx_lib/inc/gpio_11xx_2.h ****  * @param	port	: Port number
 286:../lpc11cx4-library/lpc_chip_11cxx_lib/inc/gpio_11xx_2.h ****  * @return	Current (raw) state of all GPIO pins
 287:../lpc11cx4-library/lpc_chip_11cxx_lib/inc/gpio_11xx_2.h ****  */
 288:../lpc11cx4-library/lpc_chip_11cxx_lib/inc/gpio_11xx_2.h **** STATIC INLINE uint32_t Chip_GPIO_GetPortValue(LPC_GPIO_T *pGPIO, uint8_t port)
 289:../lpc11cx4-library/lpc_chip_11cxx_lib/inc/gpio_11xx_2.h **** {
 290:../lpc11cx4-library/lpc_chip_11cxx_lib/inc/gpio_11xx_2.h **** 	return pGPIO[port].DATA[0xFFF];
 291:../lpc11cx4-library/lpc_chip_11cxx_lib/inc/gpio_11xx_2.h **** }
 292:../lpc11cx4-library/lpc_chip_11cxx_lib/inc/gpio_11xx_2.h **** 
 293:../lpc11cx4-library/lpc_chip_11cxx_lib/inc/gpio_11xx_2.h **** /**
 294:../lpc11cx4-library/lpc_chip_11cxx_lib/inc/gpio_11xx_2.h ****  * @brief	Set a GPIO port/bit to the high state
 295:../lpc11cx4-library/lpc_chip_11cxx_lib/inc/gpio_11xx_2.h ****  * @param	pGPIO	: The base of GPIO peripheral on the chip
 296:../lpc11cx4-library/lpc_chip_11cxx_lib/inc/gpio_11xx_2.h ****  * @param	port	: Port number
 297:../lpc11cx4-library/lpc_chip_11cxx_lib/inc/gpio_11xx_2.h ****  * @param	bit		: Bit(s) in the port to set high
 298:../lpc11cx4-library/lpc_chip_11cxx_lib/inc/gpio_11xx_2.h ****  * @return	None
 299:../lpc11cx4-library/lpc_chip_11cxx_lib/inc/gpio_11xx_2.h ****  * @note	Any bit set as a '0' will not have it's state changed. This only
 300:../lpc11cx4-library/lpc_chip_11cxx_lib/inc/gpio_11xx_2.h ****  * applies to ports configured as an output. It is recommended to use the
 301:../lpc11cx4-library/lpc_chip_11cxx_lib/inc/gpio_11xx_2.h ****  * Chip_GPIO_SetPortOutHigh() function instead.
 302:../lpc11cx4-library/lpc_chip_11cxx_lib/inc/gpio_11xx_2.h ****  */
 303:../lpc11cx4-library/lpc_chip_11cxx_lib/inc/gpio_11xx_2.h **** STATIC INLINE void Chip_GPIO_SetValue(LPC_GPIO_T *pGPIO, uint8_t port, uint32_t bit)
 304:../lpc11cx4-library/lpc_chip_11cxx_lib/inc/gpio_11xx_2.h **** {
 305:../lpc11cx4-library/lpc_chip_11cxx_lib/inc/gpio_11xx_2.h **** 	pGPIO[port].DATA[bit] = bit;
 306:../lpc11cx4-library/lpc_chip_11cxx_lib/inc/gpio_11xx_2.h **** }
 307:../lpc11cx4-library/lpc_chip_11cxx_lib/inc/gpio_11xx_2.h **** 
 308:../lpc11cx4-library/lpc_chip_11cxx_lib/inc/gpio_11xx_2.h **** /**
 309:../lpc11cx4-library/lpc_chip_11cxx_lib/inc/gpio_11xx_2.h ****  * @brief	Set selected GPIO output pins to the high state
 310:../lpc11cx4-library/lpc_chip_11cxx_lib/inc/gpio_11xx_2.h ****  * @param	pGPIO	: The base of GPIO peripheral on the chip
 311:../lpc11cx4-library/lpc_chip_11cxx_lib/inc/gpio_11xx_2.h ****  * @param	port	: Port number
 312:../lpc11cx4-library/lpc_chip_11cxx_lib/inc/gpio_11xx_2.h ****  * @param	pins	: pins (0..n) to set high
 313:../lpc11cx4-library/lpc_chip_11cxx_lib/inc/gpio_11xx_2.h ****  * @return	None
 314:../lpc11cx4-library/lpc_chip_11cxx_lib/inc/gpio_11xx_2.h ****  * @note	Any bit set as a '0' will not have it's state changed. This only
 315:../lpc11cx4-library/lpc_chip_11cxx_lib/inc/gpio_11xx_2.h ****  * applies to ports configured as an output.
 316:../lpc11cx4-library/lpc_chip_11cxx_lib/inc/gpio_11xx_2.h ****  */
 317:../lpc11cx4-library/lpc_chip_11cxx_lib/inc/gpio_11xx_2.h **** STATIC INLINE void Chip_GPIO_SetPortOutHigh(LPC_GPIO_T *pGPIO, uint8_t port, uint32_t pins)
 318:../lpc11cx4-library/lpc_chip_11cxx_lib/inc/gpio_11xx_2.h **** {
 319:../lpc11cx4-library/lpc_chip_11cxx_lib/inc/gpio_11xx_2.h **** 	pGPIO[port].DATA[pins] = 0xFFF;
 320:../lpc11cx4-library/lpc_chip_11cxx_lib/inc/gpio_11xx_2.h **** }
 321:../lpc11cx4-library/lpc_chip_11cxx_lib/inc/gpio_11xx_2.h **** 
 322:../lpc11cx4-library/lpc_chip_11cxx_lib/inc/gpio_11xx_2.h **** /**
 323:../lpc11cx4-library/lpc_chip_11cxx_lib/inc/gpio_11xx_2.h ****  * @brief	Set an individual GPIO output pin to the high state
 324:../lpc11cx4-library/lpc_chip_11cxx_lib/inc/gpio_11xx_2.h ****  * @param	pGPIO	: The base of GPIO peripheral on the chip
 325:../lpc11cx4-library/lpc_chip_11cxx_lib/inc/gpio_11xx_2.h ****  * @param	port	: Port number
 326:../lpc11cx4-library/lpc_chip_11cxx_lib/inc/gpio_11xx_2.h ****  * @param	pin		: pin number (0..n) to set high
 327:../lpc11cx4-library/lpc_chip_11cxx_lib/inc/gpio_11xx_2.h ****  * @return	None
 328:../lpc11cx4-library/lpc_chip_11cxx_lib/inc/gpio_11xx_2.h ****  * @note	Any bit set as a '0' will not have it's state changed. This only
 329:../lpc11cx4-library/lpc_chip_11cxx_lib/inc/gpio_11xx_2.h ****  * applies to ports configured as an output.
 330:../lpc11cx4-library/lpc_chip_11cxx_lib/inc/gpio_11xx_2.h ****  */
ARM GAS  /tmp/ccCEgSEj.s 			page 21


 331:../lpc11cx4-library/lpc_chip_11cxx_lib/inc/gpio_11xx_2.h **** STATIC INLINE void Chip_GPIO_SetPinOutHigh(LPC_GPIO_T *pGPIO, uint8_t port, uint8_t pin)
 332:../lpc11cx4-library/lpc_chip_11cxx_lib/inc/gpio_11xx_2.h **** {
 333:../lpc11cx4-library/lpc_chip_11cxx_lib/inc/gpio_11xx_2.h **** 	pGPIO[port].DATA[1 << pin] = (1 << pin);
 334:../lpc11cx4-library/lpc_chip_11cxx_lib/inc/gpio_11xx_2.h **** }
 335:../lpc11cx4-library/lpc_chip_11cxx_lib/inc/gpio_11xx_2.h **** 
 336:../lpc11cx4-library/lpc_chip_11cxx_lib/inc/gpio_11xx_2.h **** /**
 337:../lpc11cx4-library/lpc_chip_11cxx_lib/inc/gpio_11xx_2.h ****  * @brief	Set a GPIO port/bit to the low state
 338:../lpc11cx4-library/lpc_chip_11cxx_lib/inc/gpio_11xx_2.h ****  * @param	pGPIO	: The base of GPIO peripheral on the chip
 339:../lpc11cx4-library/lpc_chip_11cxx_lib/inc/gpio_11xx_2.h ****  * @param	port	: Port number
 340:../lpc11cx4-library/lpc_chip_11cxx_lib/inc/gpio_11xx_2.h ****  * @param	bit		: Bit(s) in the port to set low
 341:../lpc11cx4-library/lpc_chip_11cxx_lib/inc/gpio_11xx_2.h ****  * @return	None
 342:../lpc11cx4-library/lpc_chip_11cxx_lib/inc/gpio_11xx_2.h ****  * @note	Any bit set as a '0' will not have it's state changed. This only
 343:../lpc11cx4-library/lpc_chip_11cxx_lib/inc/gpio_11xx_2.h ****  * applies to ports configured as an output.
 344:../lpc11cx4-library/lpc_chip_11cxx_lib/inc/gpio_11xx_2.h ****  */
 345:../lpc11cx4-library/lpc_chip_11cxx_lib/inc/gpio_11xx_2.h **** STATIC INLINE void Chip_GPIO_ClearValue(LPC_GPIO_T *pGPIO, uint8_t port, uint32_t bit)
 346:../lpc11cx4-library/lpc_chip_11cxx_lib/inc/gpio_11xx_2.h **** {
 347:../lpc11cx4-library/lpc_chip_11cxx_lib/inc/gpio_11xx_2.h **** 	pGPIO[port].DATA[bit] = ~bit;
 348:../lpc11cx4-library/lpc_chip_11cxx_lib/inc/gpio_11xx_2.h **** }
 349:../lpc11cx4-library/lpc_chip_11cxx_lib/inc/gpio_11xx_2.h **** 
 350:../lpc11cx4-library/lpc_chip_11cxx_lib/inc/gpio_11xx_2.h **** /**
 351:../lpc11cx4-library/lpc_chip_11cxx_lib/inc/gpio_11xx_2.h ****  * @brief	Set selected GPIO output pins to the low state
 352:../lpc11cx4-library/lpc_chip_11cxx_lib/inc/gpio_11xx_2.h ****  * @param	pGPIO	: The base of GPIO peripheral on the chip
 353:../lpc11cx4-library/lpc_chip_11cxx_lib/inc/gpio_11xx_2.h ****  * @param	port	: Port number
 354:../lpc11cx4-library/lpc_chip_11cxx_lib/inc/gpio_11xx_2.h ****  * @param	pins	: pins (0..n) to set low
 355:../lpc11cx4-library/lpc_chip_11cxx_lib/inc/gpio_11xx_2.h ****  * @return	None
 356:../lpc11cx4-library/lpc_chip_11cxx_lib/inc/gpio_11xx_2.h ****  * @note	Any bit set as a '0' will not have it's state changed. This only
 357:../lpc11cx4-library/lpc_chip_11cxx_lib/inc/gpio_11xx_2.h ****  * applies to ports configured as an output.
 358:../lpc11cx4-library/lpc_chip_11cxx_lib/inc/gpio_11xx_2.h ****  */
 359:../lpc11cx4-library/lpc_chip_11cxx_lib/inc/gpio_11xx_2.h **** STATIC INLINE void Chip_GPIO_SetPortOutLow(LPC_GPIO_T *pGPIO, uint8_t port, uint32_t pins)
 360:../lpc11cx4-library/lpc_chip_11cxx_lib/inc/gpio_11xx_2.h **** {
 361:../lpc11cx4-library/lpc_chip_11cxx_lib/inc/gpio_11xx_2.h **** 	pGPIO[port].DATA[pins] = 0;
 362:../lpc11cx4-library/lpc_chip_11cxx_lib/inc/gpio_11xx_2.h **** }
 363:../lpc11cx4-library/lpc_chip_11cxx_lib/inc/gpio_11xx_2.h **** 
 364:../lpc11cx4-library/lpc_chip_11cxx_lib/inc/gpio_11xx_2.h **** /**
 365:../lpc11cx4-library/lpc_chip_11cxx_lib/inc/gpio_11xx_2.h ****  * @brief	Set an individual GPIO output pin to the low state
 366:../lpc11cx4-library/lpc_chip_11cxx_lib/inc/gpio_11xx_2.h ****  * @param	pGPIO	: The base of GPIO peripheral on the chip
 367:../lpc11cx4-library/lpc_chip_11cxx_lib/inc/gpio_11xx_2.h ****  * @param	port	: Port number
 368:../lpc11cx4-library/lpc_chip_11cxx_lib/inc/gpio_11xx_2.h ****  * @param	pin		: pin number (0..n) to set low
 369:../lpc11cx4-library/lpc_chip_11cxx_lib/inc/gpio_11xx_2.h ****  * @return	None
 370:../lpc11cx4-library/lpc_chip_11cxx_lib/inc/gpio_11xx_2.h ****  * @note	Any bit set as a '0' will not have it's state changed. This only
 371:../lpc11cx4-library/lpc_chip_11cxx_lib/inc/gpio_11xx_2.h ****  * applies to ports configured as an output.
 372:../lpc11cx4-library/lpc_chip_11cxx_lib/inc/gpio_11xx_2.h ****  */
 373:../lpc11cx4-library/lpc_chip_11cxx_lib/inc/gpio_11xx_2.h **** STATIC INLINE void Chip_GPIO_SetPinOutLow(LPC_GPIO_T *pGPIO, uint8_t port, uint8_t pin)
 374:../lpc11cx4-library/lpc_chip_11cxx_lib/inc/gpio_11xx_2.h **** {
 375:../lpc11cx4-library/lpc_chip_11cxx_lib/inc/gpio_11xx_2.h **** 	pGPIO[port].DATA[1 << pin] = 0;
 376:../lpc11cx4-library/lpc_chip_11cxx_lib/inc/gpio_11xx_2.h **** }
 377:../lpc11cx4-library/lpc_chip_11cxx_lib/inc/gpio_11xx_2.h **** 
 378:../lpc11cx4-library/lpc_chip_11cxx_lib/inc/gpio_11xx_2.h **** /**
 379:../lpc11cx4-library/lpc_chip_11cxx_lib/inc/gpio_11xx_2.h ****  * @brief	Toggle selected GPIO output pins to the opposite state
 380:../lpc11cx4-library/lpc_chip_11cxx_lib/inc/gpio_11xx_2.h ****  * @param	pGPIO	: The base of GPIO peripheral on the chip
 381:../lpc11cx4-library/lpc_chip_11cxx_lib/inc/gpio_11xx_2.h ****  * @param	port	: Port number
 382:../lpc11cx4-library/lpc_chip_11cxx_lib/inc/gpio_11xx_2.h ****  * @param	pins	: pins (0..n) to toggle
 383:../lpc11cx4-library/lpc_chip_11cxx_lib/inc/gpio_11xx_2.h ****  * @return	None
 384:../lpc11cx4-library/lpc_chip_11cxx_lib/inc/gpio_11xx_2.h ****  * @note	Any bit set as a '0' will not have it's state changed. This only
 385:../lpc11cx4-library/lpc_chip_11cxx_lib/inc/gpio_11xx_2.h ****  * applies to ports configured as an output.
 386:../lpc11cx4-library/lpc_chip_11cxx_lib/inc/gpio_11xx_2.h ****  */
 387:../lpc11cx4-library/lpc_chip_11cxx_lib/inc/gpio_11xx_2.h **** STATIC INLINE void Chip_GPIO_SetPortToggle(LPC_GPIO_T *pGPIO, uint8_t port, uint32_t pins)
ARM GAS  /tmp/ccCEgSEj.s 			page 22


 388:../lpc11cx4-library/lpc_chip_11cxx_lib/inc/gpio_11xx_2.h **** {
 389:../lpc11cx4-library/lpc_chip_11cxx_lib/inc/gpio_11xx_2.h **** 	pGPIO[port].DATA[pins] ^= 0xFFF;
 390:../lpc11cx4-library/lpc_chip_11cxx_lib/inc/gpio_11xx_2.h **** }
 391:../lpc11cx4-library/lpc_chip_11cxx_lib/inc/gpio_11xx_2.h **** 
 392:../lpc11cx4-library/lpc_chip_11cxx_lib/inc/gpio_11xx_2.h **** /**
 393:../lpc11cx4-library/lpc_chip_11cxx_lib/inc/gpio_11xx_2.h ****  * @brief	Toggle an individual GPIO output pin to the opposite state
 394:../lpc11cx4-library/lpc_chip_11cxx_lib/inc/gpio_11xx_2.h ****  * @param	pGPIO	: The base of GPIO peripheral on the chip
 395:../lpc11cx4-library/lpc_chip_11cxx_lib/inc/gpio_11xx_2.h ****  * @param	port	: Port number
 396:../lpc11cx4-library/lpc_chip_11cxx_lib/inc/gpio_11xx_2.h ****  * @param	pin		: pin number (0..n) to toggle
 397:../lpc11cx4-library/lpc_chip_11cxx_lib/inc/gpio_11xx_2.h ****  * @return	None
 398:../lpc11cx4-library/lpc_chip_11cxx_lib/inc/gpio_11xx_2.h ****  * @note	Any bit set as a '0' will not have it's state changed. This only
 399:../lpc11cx4-library/lpc_chip_11cxx_lib/inc/gpio_11xx_2.h ****  * applies to ports configured as an output.
 400:../lpc11cx4-library/lpc_chip_11cxx_lib/inc/gpio_11xx_2.h ****  */
 401:../lpc11cx4-library/lpc_chip_11cxx_lib/inc/gpio_11xx_2.h **** STATIC INLINE void Chip_GPIO_SetPinToggle(LPC_GPIO_T *pGPIO, uint8_t port, uint8_t pin)
 402:../lpc11cx4-library/lpc_chip_11cxx_lib/inc/gpio_11xx_2.h **** {
 403:../lpc11cx4-library/lpc_chip_11cxx_lib/inc/gpio_11xx_2.h **** 	pGPIO[port].DATA[1 << pin] ^= (1 << pin);
 404:../lpc11cx4-library/lpc_chip_11cxx_lib/inc/gpio_11xx_2.h **** }
 405:../lpc11cx4-library/lpc_chip_11cxx_lib/inc/gpio_11xx_2.h **** 
 406:../lpc11cx4-library/lpc_chip_11cxx_lib/inc/gpio_11xx_2.h **** /**
 407:../lpc11cx4-library/lpc_chip_11cxx_lib/inc/gpio_11xx_2.h ****  * @brief	Read current bit states for the selected port
 408:../lpc11cx4-library/lpc_chip_11cxx_lib/inc/gpio_11xx_2.h ****  * @param	pGPIO	: The base of GPIO peripheral on the chip
 409:../lpc11cx4-library/lpc_chip_11cxx_lib/inc/gpio_11xx_2.h ****  * @param	port	: Port number to read
 410:../lpc11cx4-library/lpc_chip_11cxx_lib/inc/gpio_11xx_2.h ****  * @return	Current value of GPIO port
 411:../lpc11cx4-library/lpc_chip_11cxx_lib/inc/gpio_11xx_2.h ****  * @note	The current states of the bits for the port are read, regardless of
 412:../lpc11cx4-library/lpc_chip_11cxx_lib/inc/gpio_11xx_2.h ****  * whether the GPIO port bits are input or output.
 413:../lpc11cx4-library/lpc_chip_11cxx_lib/inc/gpio_11xx_2.h ****  */
 414:../lpc11cx4-library/lpc_chip_11cxx_lib/inc/gpio_11xx_2.h **** STATIC INLINE uint32_t Chip_GPIO_ReadValue(LPC_GPIO_T *pGPIO, uint8_t port)
 415:../lpc11cx4-library/lpc_chip_11cxx_lib/inc/gpio_11xx_2.h **** {
 416:../lpc11cx4-library/lpc_chip_11cxx_lib/inc/gpio_11xx_2.h **** 	return pGPIO[port].DATA[4095];
 417:../lpc11cx4-library/lpc_chip_11cxx_lib/inc/gpio_11xx_2.h **** }
 418:../lpc11cx4-library/lpc_chip_11cxx_lib/inc/gpio_11xx_2.h **** 
 419:../lpc11cx4-library/lpc_chip_11cxx_lib/inc/gpio_11xx_2.h **** /**
 420:../lpc11cx4-library/lpc_chip_11cxx_lib/inc/gpio_11xx_2.h ****  * @brief	Configure the pins as edge sensitive for interrupts 
 421:../lpc11cx4-library/lpc_chip_11cxx_lib/inc/gpio_11xx_2.h ****  * @param	pGPIO	: The base of GPIO peripheral on the chip
 422:../lpc11cx4-library/lpc_chip_11cxx_lib/inc/gpio_11xx_2.h ****  * @param	port	: Port number
 423:../lpc11cx4-library/lpc_chip_11cxx_lib/inc/gpio_11xx_2.h ****  * @param	pinmask	: Pins to set to edge mode (ORed value of bits 0..11)
 424:../lpc11cx4-library/lpc_chip_11cxx_lib/inc/gpio_11xx_2.h ****  * @return	Nothing
 425:../lpc11cx4-library/lpc_chip_11cxx_lib/inc/gpio_11xx_2.h ****  */
 426:../lpc11cx4-library/lpc_chip_11cxx_lib/inc/gpio_11xx_2.h **** STATIC INLINE void Chip_GPIO_SetPinModeEdge(LPC_GPIO_T *pGPIO, uint8_t port, uint32_t pinmask)
 427:../lpc11cx4-library/lpc_chip_11cxx_lib/inc/gpio_11xx_2.h **** {
 428:../lpc11cx4-library/lpc_chip_11cxx_lib/inc/gpio_11xx_2.h ****     pGPIO[port].IS &= ~pinmask;
 385              		.loc 3 428 0
 386 0006 0904     		lsl	r1, r1, #16	@ D.6256, port,
 387              	.LVL39:
 388              	.LBE47:
 389              	.LBE46:
 390              		.loc 1 113 0
 391 0008 221C     		mov	r2, r4	@ pinMask, pinMask
 392              	.LVL40:
 393              	.LBB50:
 394              	.LBB48:
 395              		.loc 3 428 0
 396 000a 4118     		add	r1, r0, r1	@ D.6255, pGPIO, D.6256
 397              	.LBE48:
 398              	.LBE50:
 114:../lpc11cx4-library/lpc_chip_11cxx_lib/src/gpio_11xx_2.c **** 
 115:../lpc11cx4-library/lpc_chip_11cxx_lib/src/gpio_11xx_2.c **** 	/* Edge mode selected? */
ARM GAS  /tmp/ccCEgSEj.s 			page 23


 116:../lpc11cx4-library/lpc_chip_11cxx_lib/src/gpio_11xx_2.c **** 	if ((uint32_t) mode & 0x2) {
 399              		.loc 1 116 0
 400 000c 9C07     		lsl	r4, r3, #30	@ tmp173, mode,
 401 000e 11D5     		bpl	.L25	@,
 402              	.LVL41:
 403              	.LBB51:
 404              	.LBB49:
 405              		.loc 3 428 0
 406 0010 D443     		mvn	r4, r2	@ D.6257, pinMask
 407 0012 104D     		ldr	r5, .L31	@ tmp147,
 408 0014 4859     		ldr	r0, [r1, r5]	@ D.6257, _20->IS
 409              	.LVL42:
 410 0016 2040     		and	r0, r4	@ D.6257, D.6257
 411 0018 4851     		str	r0, [r1, r5]	@ D.6257, _20->IS
 412              	.LBE49:
 413              	.LBE51:
 117:../lpc11cx4-library/lpc_chip_11cxx_lib/src/gpio_11xx_2.c **** 		Chip_GPIO_SetPinModeEdge(pGPIO, port, pinMask);
 118:../lpc11cx4-library/lpc_chip_11cxx_lib/src/gpio_11xx_2.c **** 
 119:../lpc11cx4-library/lpc_chip_11cxx_lib/src/gpio_11xx_2.c **** 		/* Interrupt on both edges selected? */
 120:../lpc11cx4-library/lpc_chip_11cxx_lib/src/gpio_11xx_2.c **** 		if ((uint32_t) mode & 0x4) {
 414              		.loc 1 120 0
 415 001a 5807     		lsl	r0, r3, #29	@ tmp174, mode,
 416 001c 15D5     		bpl	.L26	@,
 417              	.LVL43:
 418              	.LBB52:
 419              	.LBB53:
 429:../lpc11cx4-library/lpc_chip_11cxx_lib/inc/gpio_11xx_2.h **** }
 430:../lpc11cx4-library/lpc_chip_11cxx_lib/inc/gpio_11xx_2.h **** 
 431:../lpc11cx4-library/lpc_chip_11cxx_lib/inc/gpio_11xx_2.h **** /**
 432:../lpc11cx4-library/lpc_chip_11cxx_lib/inc/gpio_11xx_2.h ****  * @brief	Configure the pins as level sensitive for interrupts 
 433:../lpc11cx4-library/lpc_chip_11cxx_lib/inc/gpio_11xx_2.h ****  * @param	pGPIO	: The base of GPIO peripheral on the chip
 434:../lpc11cx4-library/lpc_chip_11cxx_lib/inc/gpio_11xx_2.h ****  * @param	port	: Port number
 435:../lpc11cx4-library/lpc_chip_11cxx_lib/inc/gpio_11xx_2.h ****  * @param	pinmask	: Pins to set to level mode (ORed value of bits 0..11)
 436:../lpc11cx4-library/lpc_chip_11cxx_lib/inc/gpio_11xx_2.h ****  * @return	Nothing
 437:../lpc11cx4-library/lpc_chip_11cxx_lib/inc/gpio_11xx_2.h ****  */
 438:../lpc11cx4-library/lpc_chip_11cxx_lib/inc/gpio_11xx_2.h **** STATIC INLINE void Chip_GPIO_SetPinModeLevel(LPC_GPIO_T *pGPIO, uint8_t port, uint32_t pinmask)
 439:../lpc11cx4-library/lpc_chip_11cxx_lib/inc/gpio_11xx_2.h **** {
 440:../lpc11cx4-library/lpc_chip_11cxx_lib/inc/gpio_11xx_2.h ****     pGPIO[port].IS |= pinmask;
 441:../lpc11cx4-library/lpc_chip_11cxx_lib/inc/gpio_11xx_2.h **** }
 442:../lpc11cx4-library/lpc_chip_11cxx_lib/inc/gpio_11xx_2.h **** 
 443:../lpc11cx4-library/lpc_chip_11cxx_lib/inc/gpio_11xx_2.h **** /**
 444:../lpc11cx4-library/lpc_chip_11cxx_lib/inc/gpio_11xx_2.h ****  * @brief	Returns current GPIO edge or high level interrupt configuration for all pins for a port
 445:../lpc11cx4-library/lpc_chip_11cxx_lib/inc/gpio_11xx_2.h ****  * @param	pGPIO	: The base of GPIO peripheral on the chip
 446:../lpc11cx4-library/lpc_chip_11cxx_lib/inc/gpio_11xx_2.h ****  * @param	port	: Port number
 447:../lpc11cx4-library/lpc_chip_11cxx_lib/inc/gpio_11xx_2.h ****  * @return	A bifield containing the edge/level interrupt configuration for each
 448:../lpc11cx4-library/lpc_chip_11cxx_lib/inc/gpio_11xx_2.h ****  * pin for the selected port. Bit 0 = pin 0, 1 = pin 1.
 449:../lpc11cx4-library/lpc_chip_11cxx_lib/inc/gpio_11xx_2.h ****  * For each bit, a 0 means the edge interrupt is configured, while a 1 means a level
 450:../lpc11cx4-library/lpc_chip_11cxx_lib/inc/gpio_11xx_2.h ****  * interrupt is configured. Mask with this return value to determine the
 451:../lpc11cx4-library/lpc_chip_11cxx_lib/inc/gpio_11xx_2.h ****  * edge/level configuration for each pin in a port.
 452:../lpc11cx4-library/lpc_chip_11cxx_lib/inc/gpio_11xx_2.h ****  */
 453:../lpc11cx4-library/lpc_chip_11cxx_lib/inc/gpio_11xx_2.h **** STATIC INLINE uint32_t Chip_GPIO_IsLevelEnabled(LPC_GPIO_T *pGPIO, uint8_t port)
 454:../lpc11cx4-library/lpc_chip_11cxx_lib/inc/gpio_11xx_2.h **** {
 455:../lpc11cx4-library/lpc_chip_11cxx_lib/inc/gpio_11xx_2.h ****     return pGPIO[port].IS;
 456:../lpc11cx4-library/lpc_chip_11cxx_lib/inc/gpio_11xx_2.h **** }
 457:../lpc11cx4-library/lpc_chip_11cxx_lib/inc/gpio_11xx_2.h **** 
 458:../lpc11cx4-library/lpc_chip_11cxx_lib/inc/gpio_11xx_2.h **** /**
 459:../lpc11cx4-library/lpc_chip_11cxx_lib/inc/gpio_11xx_2.h ****  * @brief	Sets GPIO interrupt configuration for both edges for selected pins
ARM GAS  /tmp/ccCEgSEj.s 			page 24


 460:../lpc11cx4-library/lpc_chip_11cxx_lib/inc/gpio_11xx_2.h ****  * @param	pGPIO	: The base of GPIO peripheral on the chip
 461:../lpc11cx4-library/lpc_chip_11cxx_lib/inc/gpio_11xx_2.h ****  * @param	port	: Port number
 462:../lpc11cx4-library/lpc_chip_11cxx_lib/inc/gpio_11xx_2.h ****  * @param	pinmask	: Pins to set to dual edge mode (ORed value of bits 0..11)
 463:../lpc11cx4-library/lpc_chip_11cxx_lib/inc/gpio_11xx_2.h ****  * @return	Nothing
 464:../lpc11cx4-library/lpc_chip_11cxx_lib/inc/gpio_11xx_2.h ****  */
 465:../lpc11cx4-library/lpc_chip_11cxx_lib/inc/gpio_11xx_2.h **** STATIC INLINE void Chip_GPIO_SetEdgeModeBoth(LPC_GPIO_T *pGPIO, uint8_t port, uint32_t pinmask)
 466:../lpc11cx4-library/lpc_chip_11cxx_lib/inc/gpio_11xx_2.h **** {
 467:../lpc11cx4-library/lpc_chip_11cxx_lib/inc/gpio_11xx_2.h ****     pGPIO[port].IBE |= pinmask;
 420              		.loc 3 467 0
 421 001e 0E4C     		ldr	r4, .L31+4	@ tmp155,
 422 0020 0859     		ldr	r0, [r1, r4]	@ D.6257,
 423 0022 1043     		orr	r0, r2	@ D.6257, pinMask
 424 0024 0851     		str	r0, [r1, r4]	@ D.6257,
 425              	.LBE53:
 426              	.LBE52:
 427              	.LBB54:
 428              	.LBB55:
 468:../lpc11cx4-library/lpc_chip_11cxx_lib/inc/gpio_11xx_2.h **** }
 469:../lpc11cx4-library/lpc_chip_11cxx_lib/inc/gpio_11xx_2.h **** 
 470:../lpc11cx4-library/lpc_chip_11cxx_lib/inc/gpio_11xx_2.h **** /**
 471:../lpc11cx4-library/lpc_chip_11cxx_lib/inc/gpio_11xx_2.h ****  * @brief	Sets GPIO interrupt configuration for a single edge for selected pins
 472:../lpc11cx4-library/lpc_chip_11cxx_lib/inc/gpio_11xx_2.h ****  * @param	pGPIO	: The base of GPIO peripheral on the chip
 473:../lpc11cx4-library/lpc_chip_11cxx_lib/inc/gpio_11xx_2.h ****  * @param	port	: Port number
 474:../lpc11cx4-library/lpc_chip_11cxx_lib/inc/gpio_11xx_2.h ****  * @param	pinmask	: Pins to set to single edge mode (ORed value of bits 0..11)
 475:../lpc11cx4-library/lpc_chip_11cxx_lib/inc/gpio_11xx_2.h ****  * @return	Nothing
 476:../lpc11cx4-library/lpc_chip_11cxx_lib/inc/gpio_11xx_2.h ****  */
 477:../lpc11cx4-library/lpc_chip_11cxx_lib/inc/gpio_11xx_2.h **** STATIC INLINE void Chip_GPIO_SetEdgeModeSingle(LPC_GPIO_T *pGPIO, uint8_t port, uint32_t pinmask)
 478:../lpc11cx4-library/lpc_chip_11cxx_lib/inc/gpio_11xx_2.h **** {
 479:../lpc11cx4-library/lpc_chip_11cxx_lib/inc/gpio_11xx_2.h ****     pGPIO[port].IBE &= ~pinmask;
 480:../lpc11cx4-library/lpc_chip_11cxx_lib/inc/gpio_11xx_2.h **** }
 481:../lpc11cx4-library/lpc_chip_11cxx_lib/inc/gpio_11xx_2.h **** 
 482:../lpc11cx4-library/lpc_chip_11cxx_lib/inc/gpio_11xx_2.h **** /**
 483:../lpc11cx4-library/lpc_chip_11cxx_lib/inc/gpio_11xx_2.h ****  * @brief	Returns current GPIO interrupt dual or single edge configuration for all pins for a port
 484:../lpc11cx4-library/lpc_chip_11cxx_lib/inc/gpio_11xx_2.h ****  * @param	pGPIO	: The base of GPIO peripheral on the chip
 485:../lpc11cx4-library/lpc_chip_11cxx_lib/inc/gpio_11xx_2.h ****  * @param	port	: Port number
 486:../lpc11cx4-library/lpc_chip_11cxx_lib/inc/gpio_11xx_2.h ****  * @return	A bifield containing the single/dual interrupt configuration for each
 487:../lpc11cx4-library/lpc_chip_11cxx_lib/inc/gpio_11xx_2.h ****  * pin for the selected port. Bit 0 = pin 0, 1 = pin 1.
 488:../lpc11cx4-library/lpc_chip_11cxx_lib/inc/gpio_11xx_2.h ****  * For each bit, a 0 means the interrupt triggers on a single edge (use the
 489:../lpc11cx4-library/lpc_chip_11cxx_lib/inc/gpio_11xx_2.h ****  * Chip_GPIO_SetEdgeModeHigh() and Chip_GPIO_SetEdgeModeLow() functions to configure
 490:../lpc11cx4-library/lpc_chip_11cxx_lib/inc/gpio_11xx_2.h ****  * selected edge), while a 1 means the interrupt triggers on both edges. Mask
 491:../lpc11cx4-library/lpc_chip_11cxx_lib/inc/gpio_11xx_2.h ****  * with this return value to determine the edge/level configuration for each pin in
 492:../lpc11cx4-library/lpc_chip_11cxx_lib/inc/gpio_11xx_2.h ****  * a port.
 493:../lpc11cx4-library/lpc_chip_11cxx_lib/inc/gpio_11xx_2.h ****  */
 494:../lpc11cx4-library/lpc_chip_11cxx_lib/inc/gpio_11xx_2.h **** STATIC INLINE uint32_t Chip_GPIO_GetEdgeModeDir(LPC_GPIO_T *pGPIO, uint8_t port)
 495:../lpc11cx4-library/lpc_chip_11cxx_lib/inc/gpio_11xx_2.h **** {
 496:../lpc11cx4-library/lpc_chip_11cxx_lib/inc/gpio_11xx_2.h ****     return pGPIO[port].IBE;
 497:../lpc11cx4-library/lpc_chip_11cxx_lib/inc/gpio_11xx_2.h **** }
 498:../lpc11cx4-library/lpc_chip_11cxx_lib/inc/gpio_11xx_2.h **** 
 499:../lpc11cx4-library/lpc_chip_11cxx_lib/inc/gpio_11xx_2.h **** /**
 500:../lpc11cx4-library/lpc_chip_11cxx_lib/inc/gpio_11xx_2.h ****  * @brief	Sets GPIO interrupt configuration when in single edge or level mode to high edge trigger 
 501:../lpc11cx4-library/lpc_chip_11cxx_lib/inc/gpio_11xx_2.h ****  * @param	pGPIO	: The base of GPIO peripheral on the chip
 502:../lpc11cx4-library/lpc_chip_11cxx_lib/inc/gpio_11xx_2.h ****  * @param	port	: Port number
 503:../lpc11cx4-library/lpc_chip_11cxx_lib/inc/gpio_11xx_2.h ****  * @param	pinmask	: Pins to set to high mode (ORed value of bits 0..11)
 504:../lpc11cx4-library/lpc_chip_11cxx_lib/inc/gpio_11xx_2.h ****  * @return	Nothing
 505:../lpc11cx4-library/lpc_chip_11cxx_lib/inc/gpio_11xx_2.h ****  * @note	Use this function to select high level or high edge interrupt mode
 506:../lpc11cx4-library/lpc_chip_11cxx_lib/inc/gpio_11xx_2.h ****  * for the selected pins on the selected port when not in dual edge mode.
 507:../lpc11cx4-library/lpc_chip_11cxx_lib/inc/gpio_11xx_2.h ****  */
ARM GAS  /tmp/ccCEgSEj.s 			page 25


 508:../lpc11cx4-library/lpc_chip_11cxx_lib/inc/gpio_11xx_2.h **** STATIC INLINE void Chip_GPIO_SetModeHigh(LPC_GPIO_T *pGPIO, uint8_t port, uint32_t pinmask)
 509:../lpc11cx4-library/lpc_chip_11cxx_lib/inc/gpio_11xx_2.h **** {
 510:../lpc11cx4-library/lpc_chip_11cxx_lib/inc/gpio_11xx_2.h ****     pGPIO[port].IEV |= pinmask;
 429              		.loc 3 510 0
 430 0026 0D48     		ldr	r0, .L31+8	@ tmp168,
 431              	.LBE55:
 432              	.LBE54:
 121:../lpc11cx4-library/lpc_chip_11cxx_lib/src/gpio_11xx_2.c **** 			Chip_GPIO_SetEdgeModeBoth(pGPIO, port, pinMask);
 122:../lpc11cx4-library/lpc_chip_11cxx_lib/src/gpio_11xx_2.c **** 		}
 123:../lpc11cx4-library/lpc_chip_11cxx_lib/src/gpio_11xx_2.c **** 		else {
 124:../lpc11cx4-library/lpc_chip_11cxx_lib/src/gpio_11xx_2.c **** 			Chip_GPIO_SetEdgeModeSingle(pGPIO, port, pinMask);
 125:../lpc11cx4-library/lpc_chip_11cxx_lib/src/gpio_11xx_2.c **** 		}
 126:../lpc11cx4-library/lpc_chip_11cxx_lib/src/gpio_11xx_2.c **** 	}
 127:../lpc11cx4-library/lpc_chip_11cxx_lib/src/gpio_11xx_2.c **** 	else {
 128:../lpc11cx4-library/lpc_chip_11cxx_lib/src/gpio_11xx_2.c **** 		/* Level mode */
 129:../lpc11cx4-library/lpc_chip_11cxx_lib/src/gpio_11xx_2.c **** 		Chip_GPIO_SetPinModeLevel(pGPIO, port, pinMask);
 130:../lpc11cx4-library/lpc_chip_11cxx_lib/src/gpio_11xx_2.c **** 	}
 131:../lpc11cx4-library/lpc_chip_11cxx_lib/src/gpio_11xx_2.c **** 
 132:../lpc11cx4-library/lpc_chip_11cxx_lib/src/gpio_11xx_2.c **** 	/* Level selections will not alter 'dual edge' mode */
 133:../lpc11cx4-library/lpc_chip_11cxx_lib/src/gpio_11xx_2.c **** 	if ((uint32_t) mode & 0x1) {
 433              		.loc 1 133 0
 434 0028 DB07     		lsl	r3, r3, #31	@ tmp175, mode,
 435 002a 0AD5     		bpl	.L28	@,
 436              	.LVL44:
 437              	.L30:
 438              	.LBB58:
 439              	.LBB56:
 440              		.loc 3 510 0
 441 002c 0B58     		ldr	r3, [r1, r0]	@ D.6257,
 442 002e 1A43     		orr	r2, r3	@ D.6257, D.6257
 443              	.LVL45:
 444 0030 0A50     		str	r2, [r1, r0]	@ D.6257, _12->IEV
 445 0032 09E0     		b	.L24	@
 446              	.LVL46:
 447              	.L25:
 448              	.LBE56:
 449              	.LBE58:
 450              	.LBB59:
 451              	.LBB60:
 440:../lpc11cx4-library/lpc_chip_11cxx_lib/inc/gpio_11xx_2.h **** }
 452              		.loc 3 440 0
 453 0034 074C     		ldr	r4, .L31	@ tmp160,
 454 0036 0859     		ldr	r0, [r1, r4]	@ D.6257,
 455              	.LVL47:
 456 0038 1043     		orr	r0, r2	@ D.6257, pinMask
 457 003a 0851     		str	r0, [r1, r4]	@ D.6257,
 458              	.LVL48:
 459              	.L27:
 460              	.LBE60:
 461              	.LBE59:
 462              	.LBB61:
 463              	.LBB57:
 464              		.loc 3 510 0
 465 003c 0748     		ldr	r0, .L31+8	@ tmp168,
 466              	.LBE57:
 467              	.LBE61:
 468              		.loc 1 133 0
ARM GAS  /tmp/ccCEgSEj.s 			page 26


 469 003e DB07     		lsl	r3, r3, #31	@ tmp175, mode,
 470 0040 F4D4     		bmi	.L30	@,
 471              	.LVL49:
 472              	.L28:
 473              	.LBB62:
 474              	.LBB63:
 511:../lpc11cx4-library/lpc_chip_11cxx_lib/inc/gpio_11xx_2.h **** }
 512:../lpc11cx4-library/lpc_chip_11cxx_lib/inc/gpio_11xx_2.h **** 
 513:../lpc11cx4-library/lpc_chip_11cxx_lib/inc/gpio_11xx_2.h **** /**
 514:../lpc11cx4-library/lpc_chip_11cxx_lib/inc/gpio_11xx_2.h ****  * @brief	Sets GPIO interrupt configuration when in single edge or level mode to low edge trigger o
 515:../lpc11cx4-library/lpc_chip_11cxx_lib/inc/gpio_11xx_2.h ****  * @param	pGPIO	: The base of GPIO peripheral on the chip
 516:../lpc11cx4-library/lpc_chip_11cxx_lib/inc/gpio_11xx_2.h ****  * @param	port	: Port number
 517:../lpc11cx4-library/lpc_chip_11cxx_lib/inc/gpio_11xx_2.h ****  * @param	pinmask	: Pins to set to low mode (ORed value of bits 0..11)
 518:../lpc11cx4-library/lpc_chip_11cxx_lib/inc/gpio_11xx_2.h ****  * @return	Nothing
 519:../lpc11cx4-library/lpc_chip_11cxx_lib/inc/gpio_11xx_2.h ****  * @note	Use this function to select low level or low edge interrupt mode
 520:../lpc11cx4-library/lpc_chip_11cxx_lib/inc/gpio_11xx_2.h ****  * for the selected pins on the selected port when not in dual edge mode.
 521:../lpc11cx4-library/lpc_chip_11cxx_lib/inc/gpio_11xx_2.h ****  */
 522:../lpc11cx4-library/lpc_chip_11cxx_lib/inc/gpio_11xx_2.h **** STATIC INLINE void Chip_GPIO_SetModeLow(LPC_GPIO_T *pGPIO, uint8_t port, uint32_t pinmask)
 523:../lpc11cx4-library/lpc_chip_11cxx_lib/inc/gpio_11xx_2.h **** {
 524:../lpc11cx4-library/lpc_chip_11cxx_lib/inc/gpio_11xx_2.h ****     pGPIO[port].IEV &= ~pinmask;
 475              		.loc 3 524 0
 476 0042 0B58     		ldr	r3, [r1, r0]	@ D.6257,
 477 0044 9343     		bic	r3, r2	@ D.6257, pinMask
 478 0046 0B50     		str	r3, [r1, r0]	@ D.6257, _12->IEV
 479              	.LVL50:
 480              	.L24:
 481              	.LBE63:
 482              	.LBE62:
 134:../lpc11cx4-library/lpc_chip_11cxx_lib/src/gpio_11xx_2.c **** 		/* High edge or level mode selected */
 135:../lpc11cx4-library/lpc_chip_11cxx_lib/src/gpio_11xx_2.c **** 		Chip_GPIO_SetModeHigh(pGPIO, port, pinMask);
 136:../lpc11cx4-library/lpc_chip_11cxx_lib/src/gpio_11xx_2.c **** 	}
 137:../lpc11cx4-library/lpc_chip_11cxx_lib/src/gpio_11xx_2.c **** 	else {
 138:../lpc11cx4-library/lpc_chip_11cxx_lib/src/gpio_11xx_2.c **** 		Chip_GPIO_SetModeLow(pGPIO, port, pinMask);
 139:../lpc11cx4-library/lpc_chip_11cxx_lib/src/gpio_11xx_2.c **** 	}
 140:../lpc11cx4-library/lpc_chip_11cxx_lib/src/gpio_11xx_2.c **** }
 483              		.loc 1 140 0
 484              		@ sp needed	@
 485 0048 30BD     		pop	{r4, r5, pc}
 486              	.LVL51:
 487              	.L26:
 488              	.LBB64:
 489              	.LBB65:
 479:../lpc11cx4-library/lpc_chip_11cxx_lib/inc/gpio_11xx_2.h **** }
 490              		.loc 3 479 0
 491 004a 0348     		ldr	r0, .L31+4	@ tmp157,
 492 004c 0D58     		ldr	r5, [r1, r0]	@ D.6257, _20->IBE
 493 004e 2C40     		and	r4, r5	@ D.6257, D.6257
 494 0050 0C50     		str	r4, [r1, r0]	@ D.6257, _20->IBE
 495 0052 F3E7     		b	.L27	@
 496              	.L32:
 497              		.align	2
 498              	.L31:
 499 0054 04800000 		.word	32772
 500 0058 08800000 		.word	32776
 501 005c 0C800000 		.word	32780
 502              	.LBE65:
 503              	.LBE64:
ARM GAS  /tmp/ccCEgSEj.s 			page 27


 504              		.cfi_endproc
 505              	.LFE204:
 506              		.size	Chip_GPIO_SetupPinInt, .-Chip_GPIO_SetupPinInt
 507              		.text
 508              	.Letext0:
 509              		.file 4 "/usr/arm-none-eabi/include/machine/_default_types.h"
 510              		.file 5 "/usr/arm-none-eabi/include/stdint.h"
 511              		.file 6 "../lpc11cx4-library/lpc_chip_11cxx_lib/inc/sysctl_11xx.h"
 512              		.file 7 "../lpc11cx4-library/lpc_chip_11cxx_lib/inc/chip.h"