ARM GAS  /tmp/ccXTVNcx.s 			page 1


   1              		.cpu cortex-m0
   2              		.fpu softvfp
   3              		.eabi_attribute 20, 1	@ Tag_ABI_FP_denormal
   4              		.eabi_attribute 21, 1	@ Tag_ABI_FP_exceptions
   5              		.eabi_attribute 23, 3	@ Tag_ABI_FP_number_model
   6              		.eabi_attribute 24, 1	@ Tag_ABI_align8_needed
   7              		.eabi_attribute 25, 1	@ Tag_ABI_align8_preserved
   8              		.eabi_attribute 26, 1	@ Tag_ABI_enum_size
   9              		.eabi_attribute 30, 2	@ Tag_ABI_optimization_goals
  10              		.eabi_attribute 34, 0	@ Tag_CPU_unaligned_access
  11              		.eabi_attribute 18, 4	@ Tag_ABI_PCS_wchar_t
  12              		.file	"i2c_11xx.c"
  13              	@ GNU C (GNU Tools for ARM Embedded Processors) version 4.9.3 20150303 (release) [ARM/embedded-4_9-
  14              	@	compiled by GNU C version 4.8.2, GMP version 5.1.3, MPFR version 3.1.2-p3, MPC version 1.0.1
  15              	@ GGC heuristics: --param ggc-min-expand=100 --param ggc-min-heapsize=131072
  16              	@ options passed:  -I . -I ../lpc11cx4-library/lpc_chip_11cxx_lib/inc
  17              	@ -I ../lpc11cx4-library/evt_lib/inc -I inc -imultilib armv6-m
  18              	@ -iprefix /usr/bin/../lib/gcc/arm-none-eabi/4.9.3/
  19              	@ -isysroot /usr/bin/../arm-none-eabi -MD bin/i2c_11xx.d -MF bin/i2c_11xx.d
  20              	@ -MP -MQ bin/i2c_11xx.o -D__USES_INITFINI__ -D CORE_M0
  21              	@ ../lpc11cx4-library/lpc_chip_11cxx_lib/src/i2c_11xx.c -mcpu=cortex-m0
  22              	@ -mthumb -auxbase-strip bin/i2c_11xx.o -g -ggdb3 -O2 -Wall
  23              	@ -Wstrict-prototypes -Wextra -std=gnu90 -ffunction-sections
  24              	@ -fdata-sections -fverbose-asm
  25              	@ options enabled:  -faggressive-loop-optimizations -fauto-inc-dec
  26              	@ -fbranch-count-reg -fcaller-saves -fcombine-stack-adjustments -fcommon
  27              	@ -fcompare-elim -fcprop-registers -fcrossjumping -fcse-follow-jumps
  28              	@ -fdata-sections -fdefer-pop -fdelete-null-pointer-checks -fdevirtualize
  29              	@ -fdevirtualize-speculatively -fdwarf2-cfi-asm -fearly-inlining
  30              	@ -feliminate-unused-debug-types -fexpensive-optimizations
  31              	@ -fforward-propagate -ffunction-cse -ffunction-sections -fgcse -fgcse-lm
  32              	@ -fgnu-runtime -fgnu-unique -fguess-branch-probability
  33              	@ -fhoist-adjacent-loads -fident -fif-conversion -fif-conversion2
  34              	@ -findirect-inlining -finline -finline-atomics
  35              	@ -finline-functions-called-once -finline-small-functions -fipa-cp
  36              	@ -fipa-profile -fipa-pure-const -fipa-reference -fipa-sra
  37              	@ -fira-hoist-pressure -fira-share-save-slots -fira-share-spill-slots
  38              	@ -fisolate-erroneous-paths-dereference -fivopts -fkeep-static-consts
  39              	@ -fleading-underscore -flifetime-dse -fmath-errno -fmerge-constants
  40              	@ -fmerge-debug-strings -fmove-loop-invariants -fomit-frame-pointer
  41              	@ -foptimize-sibling-calls -foptimize-strlen -fpartial-inlining -fpeephole
  42              	@ -fpeephole2 -fprefetch-loop-arrays -freg-struct-return -freorder-blocks
  43              	@ -freorder-functions -frerun-cse-after-loop
  44              	@ -fsched-critical-path-heuristic -fsched-dep-count-heuristic
  45              	@ -fsched-group-heuristic -fsched-interblock -fsched-last-insn-heuristic
  46              	@ -fsched-pressure -fsched-rank-heuristic -fsched-spec
  47              	@ -fsched-spec-insn-heuristic -fsched-stalled-insns-dep -fschedule-insns2
  48              	@ -fsection-anchors -fshow-column -fshrink-wrap -fsigned-zeros
  49              	@ -fsplit-ivs-in-unroller -fsplit-wide-types -fstrict-aliasing
  50              	@ -fstrict-overflow -fstrict-volatile-bitfields -fsync-libcalls
  51              	@ -fthread-jumps -ftoplevel-reorder -ftrapping-math -ftree-bit-ccp
  52              	@ -ftree-builtin-call-dce -ftree-ccp -ftree-ch -ftree-coalesce-vars
  53              	@ -ftree-copy-prop -ftree-copyrename -ftree-cselim -ftree-dce
  54              	@ -ftree-dominator-opts -ftree-dse -ftree-forwprop -ftree-fre
  55              	@ -ftree-loop-if-convert -ftree-loop-im -ftree-loop-ivcanon
  56              	@ -ftree-loop-optimize -ftree-parallelize-loops= -ftree-phiprop -ftree-pre
  57              	@ -ftree-pta -ftree-reassoc -ftree-scev-cprop -ftree-sink -ftree-slsr
ARM GAS  /tmp/ccXTVNcx.s 			page 2


  58              	@ -ftree-sra -ftree-switch-conversion -ftree-tail-merge -ftree-ter
  59              	@ -ftree-vrp -funit-at-a-time -fvar-tracking -fvar-tracking-assignments
  60              	@ -fverbose-asm -fzero-initialized-in-bss -mlittle-endian -mlra
  61              	@ -mpic-data-is-text-relative -msched-prolog -mthumb
  62              	@ -mvectorize-with-neon-quad
  63              	
  64              		.text
  65              	.Ltext0:
  66              		.cfi_sections	.debug_frame
  67              		.section	.text.Chip_I2C_EventHandler,"ax",%progbits
  68              		.align	2
  69              		.global	Chip_I2C_EventHandler
  70              		.code	16
  71              		.thumb_func
  72              		.type	Chip_I2C_EventHandler, %function
  73              	Chip_I2C_EventHandler:
  74              	.LFB212:
  75              		.file 1 "../lpc11cx4-library/lpc_chip_11cxx_lib/src/i2c_11xx.c"
   1:../lpc11cx4-library/lpc_chip_11cxx_lib/src/i2c_11xx.c **** /*
   2:../lpc11cx4-library/lpc_chip_11cxx_lib/src/i2c_11xx.c ****  * @brief LPC11xx I2C driver
   3:../lpc11cx4-library/lpc_chip_11cxx_lib/src/i2c_11xx.c ****  *
   4:../lpc11cx4-library/lpc_chip_11cxx_lib/src/i2c_11xx.c ****  * @note
   5:../lpc11cx4-library/lpc_chip_11cxx_lib/src/i2c_11xx.c ****  * Copyright(C) NXP Semiconductors, 2012
   6:../lpc11cx4-library/lpc_chip_11cxx_lib/src/i2c_11xx.c ****  * All rights reserved.
   7:../lpc11cx4-library/lpc_chip_11cxx_lib/src/i2c_11xx.c ****  *
   8:../lpc11cx4-library/lpc_chip_11cxx_lib/src/i2c_11xx.c ****  * @par
   9:../lpc11cx4-library/lpc_chip_11cxx_lib/src/i2c_11xx.c ****  * Software that is described herein is for illustrative purposes only
  10:../lpc11cx4-library/lpc_chip_11cxx_lib/src/i2c_11xx.c ****  * which provides customers with programming information regarding the
  11:../lpc11cx4-library/lpc_chip_11cxx_lib/src/i2c_11xx.c ****  * LPC products.  This software is supplied "AS IS" without any warranties of
  12:../lpc11cx4-library/lpc_chip_11cxx_lib/src/i2c_11xx.c ****  * any kind, and NXP Semiconductors and its licensor disclaim any and
  13:../lpc11cx4-library/lpc_chip_11cxx_lib/src/i2c_11xx.c ****  * all warranties, express or implied, including all implied warranties of
  14:../lpc11cx4-library/lpc_chip_11cxx_lib/src/i2c_11xx.c ****  * merchantability, fitness for a particular purpose and non-infringement of
  15:../lpc11cx4-library/lpc_chip_11cxx_lib/src/i2c_11xx.c ****  * intellectual property rights.  NXP Semiconductors assumes no responsibility
  16:../lpc11cx4-library/lpc_chip_11cxx_lib/src/i2c_11xx.c ****  * or liability for the use of the software, conveys no license or rights under any
  17:../lpc11cx4-library/lpc_chip_11cxx_lib/src/i2c_11xx.c ****  * patent, copyright, mask work right, or any other intellectual property rights in
  18:../lpc11cx4-library/lpc_chip_11cxx_lib/src/i2c_11xx.c ****  * or to any products. NXP Semiconductors reserves the right to make changes
  19:../lpc11cx4-library/lpc_chip_11cxx_lib/src/i2c_11xx.c ****  * in the software without notification. NXP Semiconductors also makes no
  20:../lpc11cx4-library/lpc_chip_11cxx_lib/src/i2c_11xx.c ****  * representation or warranty that such application will be suitable for the
  21:../lpc11cx4-library/lpc_chip_11cxx_lib/src/i2c_11xx.c ****  * specified use without further testing or modification.
  22:../lpc11cx4-library/lpc_chip_11cxx_lib/src/i2c_11xx.c ****  *
  23:../lpc11cx4-library/lpc_chip_11cxx_lib/src/i2c_11xx.c ****  * @par
  24:../lpc11cx4-library/lpc_chip_11cxx_lib/src/i2c_11xx.c ****  * Permission to use, copy, modify, and distribute this software and its
  25:../lpc11cx4-library/lpc_chip_11cxx_lib/src/i2c_11xx.c ****  * documentation is hereby granted, under NXP Semiconductors' and its
  26:../lpc11cx4-library/lpc_chip_11cxx_lib/src/i2c_11xx.c ****  * licensor's relevant copyrights in the software, without fee, provided that it
  27:../lpc11cx4-library/lpc_chip_11cxx_lib/src/i2c_11xx.c ****  * is used in conjunction with NXP Semiconductors microcontrollers.  This
  28:../lpc11cx4-library/lpc_chip_11cxx_lib/src/i2c_11xx.c ****  * copyright, permission, and disclaimer notice must appear in all copies of
  29:../lpc11cx4-library/lpc_chip_11cxx_lib/src/i2c_11xx.c ****  * this code.
  30:../lpc11cx4-library/lpc_chip_11cxx_lib/src/i2c_11xx.c ****  */
  31:../lpc11cx4-library/lpc_chip_11cxx_lib/src/i2c_11xx.c **** 
  32:../lpc11cx4-library/lpc_chip_11cxx_lib/src/i2c_11xx.c **** #include "chip.h"
  33:../lpc11cx4-library/lpc_chip_11cxx_lib/src/i2c_11xx.c **** 
  34:../lpc11cx4-library/lpc_chip_11cxx_lib/src/i2c_11xx.c **** #if !defined(CHIP_LPC110X)
  35:../lpc11cx4-library/lpc_chip_11cxx_lib/src/i2c_11xx.c **** 
  36:../lpc11cx4-library/lpc_chip_11cxx_lib/src/i2c_11xx.c **** /*****************************************************************************
  37:../lpc11cx4-library/lpc_chip_11cxx_lib/src/i2c_11xx.c ****  * Private types/enumerations/variables
  38:../lpc11cx4-library/lpc_chip_11cxx_lib/src/i2c_11xx.c ****  ****************************************************************************/
  39:../lpc11cx4-library/lpc_chip_11cxx_lib/src/i2c_11xx.c **** 
ARM GAS  /tmp/ccXTVNcx.s 			page 3


  40:../lpc11cx4-library/lpc_chip_11cxx_lib/src/i2c_11xx.c **** /* Control flags */
  41:../lpc11cx4-library/lpc_chip_11cxx_lib/src/i2c_11xx.c **** #define I2C_CON_FLAGS (I2C_CON_AA | I2C_CON_SI | I2C_CON_STO | I2C_CON_STA)
  42:../lpc11cx4-library/lpc_chip_11cxx_lib/src/i2c_11xx.c **** #define LPC_I2Cx(id)      ((i2c[id].ip))
  43:../lpc11cx4-library/lpc_chip_11cxx_lib/src/i2c_11xx.c **** #define SLAVE_ACTIVE(iic) (((iic)->flags & 0xFF00) != 0)
  44:../lpc11cx4-library/lpc_chip_11cxx_lib/src/i2c_11xx.c **** 
  45:../lpc11cx4-library/lpc_chip_11cxx_lib/src/i2c_11xx.c **** /* I2C common interface structure */
  46:../lpc11cx4-library/lpc_chip_11cxx_lib/src/i2c_11xx.c **** struct i2c_interface {
  47:../lpc11cx4-library/lpc_chip_11cxx_lib/src/i2c_11xx.c **** 	LPC_I2C_T *ip;		/* IP base address of the I2C device */
  48:../lpc11cx4-library/lpc_chip_11cxx_lib/src/i2c_11xx.c **** 	CHIP_SYSCTL_CLOCK_T clk;	/* Clock used by I2C */
  49:../lpc11cx4-library/lpc_chip_11cxx_lib/src/i2c_11xx.c **** 	I2C_EVENTHANDLER_T mEvent;	/* Current active Master event handler */
  50:../lpc11cx4-library/lpc_chip_11cxx_lib/src/i2c_11xx.c **** 	I2C_EVENTHANDLER_T sEvent;	/* Slave transfer events */
  51:../lpc11cx4-library/lpc_chip_11cxx_lib/src/i2c_11xx.c **** 	I2C_XFER_T *mXfer;	/* Current active xfer pointer */
  52:../lpc11cx4-library/lpc_chip_11cxx_lib/src/i2c_11xx.c **** 	I2C_XFER_T *sXfer;	/* Pointer to store xfer when bus is busy */
  53:../lpc11cx4-library/lpc_chip_11cxx_lib/src/i2c_11xx.c **** 	uint32_t flags;		/* Flags used by I2C master and slave */
  54:../lpc11cx4-library/lpc_chip_11cxx_lib/src/i2c_11xx.c **** };
  55:../lpc11cx4-library/lpc_chip_11cxx_lib/src/i2c_11xx.c **** 
  56:../lpc11cx4-library/lpc_chip_11cxx_lib/src/i2c_11xx.c **** /* Slave interface structure */
  57:../lpc11cx4-library/lpc_chip_11cxx_lib/src/i2c_11xx.c **** struct i2c_slave_interface {
  58:../lpc11cx4-library/lpc_chip_11cxx_lib/src/i2c_11xx.c **** 	I2C_XFER_T *xfer;
  59:../lpc11cx4-library/lpc_chip_11cxx_lib/src/i2c_11xx.c **** 	I2C_EVENTHANDLER_T event;
  60:../lpc11cx4-library/lpc_chip_11cxx_lib/src/i2c_11xx.c **** };
  61:../lpc11cx4-library/lpc_chip_11cxx_lib/src/i2c_11xx.c **** 
  62:../lpc11cx4-library/lpc_chip_11cxx_lib/src/i2c_11xx.c **** /* I2C interfaces */
  63:../lpc11cx4-library/lpc_chip_11cxx_lib/src/i2c_11xx.c **** static struct i2c_interface i2c[I2C_NUM_INTERFACE] = {
  64:../lpc11cx4-library/lpc_chip_11cxx_lib/src/i2c_11xx.c **** 	{LPC_I2C, SYSCTL_CLOCK_I2C, Chip_I2C_EventHandler, NULL, NULL, NULL, 0}
  65:../lpc11cx4-library/lpc_chip_11cxx_lib/src/i2c_11xx.c **** };
  66:../lpc11cx4-library/lpc_chip_11cxx_lib/src/i2c_11xx.c **** 
  67:../lpc11cx4-library/lpc_chip_11cxx_lib/src/i2c_11xx.c **** static struct i2c_slave_interface i2c_slave[I2C_NUM_INTERFACE][I2C_SLAVE_NUM_INTERFACE];
  68:../lpc11cx4-library/lpc_chip_11cxx_lib/src/i2c_11xx.c **** 
  69:../lpc11cx4-library/lpc_chip_11cxx_lib/src/i2c_11xx.c **** /*****************************************************************************
  70:../lpc11cx4-library/lpc_chip_11cxx_lib/src/i2c_11xx.c ****  * Public types/enumerations/variables
  71:../lpc11cx4-library/lpc_chip_11cxx_lib/src/i2c_11xx.c ****  ****************************************************************************/
  72:../lpc11cx4-library/lpc_chip_11cxx_lib/src/i2c_11xx.c **** 
  73:../lpc11cx4-library/lpc_chip_11cxx_lib/src/i2c_11xx.c **** /*****************************************************************************
  74:../lpc11cx4-library/lpc_chip_11cxx_lib/src/i2c_11xx.c ****  * Private functions
  75:../lpc11cx4-library/lpc_chip_11cxx_lib/src/i2c_11xx.c ****  ****************************************************************************/
  76:../lpc11cx4-library/lpc_chip_11cxx_lib/src/i2c_11xx.c ****  
  77:../lpc11cx4-library/lpc_chip_11cxx_lib/src/i2c_11xx.c **** STATIC INLINE void enableClk(I2C_ID_T id)
  78:../lpc11cx4-library/lpc_chip_11cxx_lib/src/i2c_11xx.c **** {
  79:../lpc11cx4-library/lpc_chip_11cxx_lib/src/i2c_11xx.c **** 	Chip_Clock_EnablePeriphClock(i2c[id].clk);
  80:../lpc11cx4-library/lpc_chip_11cxx_lib/src/i2c_11xx.c **** }
  81:../lpc11cx4-library/lpc_chip_11cxx_lib/src/i2c_11xx.c **** 
  82:../lpc11cx4-library/lpc_chip_11cxx_lib/src/i2c_11xx.c **** STATIC INLINE void disableClk(I2C_ID_T id)
  83:../lpc11cx4-library/lpc_chip_11cxx_lib/src/i2c_11xx.c **** {
  84:../lpc11cx4-library/lpc_chip_11cxx_lib/src/i2c_11xx.c **** 	Chip_Clock_DisablePeriphClock(i2c[id].clk);
  85:../lpc11cx4-library/lpc_chip_11cxx_lib/src/i2c_11xx.c **** }
  86:../lpc11cx4-library/lpc_chip_11cxx_lib/src/i2c_11xx.c **** 
  87:../lpc11cx4-library/lpc_chip_11cxx_lib/src/i2c_11xx.c **** /* Get the ADC Clock Rate */
  88:../lpc11cx4-library/lpc_chip_11cxx_lib/src/i2c_11xx.c **** STATIC INLINE uint32_t getClkRate(I2C_ID_T id)
  89:../lpc11cx4-library/lpc_chip_11cxx_lib/src/i2c_11xx.c **** {
  90:../lpc11cx4-library/lpc_chip_11cxx_lib/src/i2c_11xx.c **** 	return Chip_Clock_GetMainClockRate();
  91:../lpc11cx4-library/lpc_chip_11cxx_lib/src/i2c_11xx.c **** }
  92:../lpc11cx4-library/lpc_chip_11cxx_lib/src/i2c_11xx.c **** 
  93:../lpc11cx4-library/lpc_chip_11cxx_lib/src/i2c_11xx.c **** /* Enable I2C and start master transfer */
  94:../lpc11cx4-library/lpc_chip_11cxx_lib/src/i2c_11xx.c **** STATIC INLINE void startMasterXfer(LPC_I2C_T *pI2C)
  95:../lpc11cx4-library/lpc_chip_11cxx_lib/src/i2c_11xx.c **** {
  96:../lpc11cx4-library/lpc_chip_11cxx_lib/src/i2c_11xx.c **** 	/* Reset STA, STO, SI */
ARM GAS  /tmp/ccXTVNcx.s 			page 4


  97:../lpc11cx4-library/lpc_chip_11cxx_lib/src/i2c_11xx.c **** 	pI2C->CONCLR = I2C_CON_SI | I2C_CON_STO | I2C_CON_STA | I2C_CON_AA;
  98:../lpc11cx4-library/lpc_chip_11cxx_lib/src/i2c_11xx.c **** 
  99:../lpc11cx4-library/lpc_chip_11cxx_lib/src/i2c_11xx.c **** 	/* Enter to Master Transmitter mode */
 100:../lpc11cx4-library/lpc_chip_11cxx_lib/src/i2c_11xx.c **** 	pI2C->CONSET = I2C_CON_I2EN | I2C_CON_STA;
 101:../lpc11cx4-library/lpc_chip_11cxx_lib/src/i2c_11xx.c **** }
 102:../lpc11cx4-library/lpc_chip_11cxx_lib/src/i2c_11xx.c **** 
 103:../lpc11cx4-library/lpc_chip_11cxx_lib/src/i2c_11xx.c **** /* Enable I2C and enable slave transfers */
 104:../lpc11cx4-library/lpc_chip_11cxx_lib/src/i2c_11xx.c **** STATIC INLINE void startSlaverXfer(LPC_I2C_T *pI2C)
 105:../lpc11cx4-library/lpc_chip_11cxx_lib/src/i2c_11xx.c **** {
 106:../lpc11cx4-library/lpc_chip_11cxx_lib/src/i2c_11xx.c **** 	/* Reset STA, STO, SI */
 107:../lpc11cx4-library/lpc_chip_11cxx_lib/src/i2c_11xx.c **** 	pI2C->CONCLR = I2C_CON_SI | I2C_CON_STO | I2C_CON_STA;
 108:../lpc11cx4-library/lpc_chip_11cxx_lib/src/i2c_11xx.c **** 
 109:../lpc11cx4-library/lpc_chip_11cxx_lib/src/i2c_11xx.c **** 	/* Enter to Master Transmitter mode */
 110:../lpc11cx4-library/lpc_chip_11cxx_lib/src/i2c_11xx.c **** 	pI2C->CONSET = I2C_CON_I2EN | I2C_CON_AA;
 111:../lpc11cx4-library/lpc_chip_11cxx_lib/src/i2c_11xx.c **** }
 112:../lpc11cx4-library/lpc_chip_11cxx_lib/src/i2c_11xx.c **** 
 113:../lpc11cx4-library/lpc_chip_11cxx_lib/src/i2c_11xx.c **** /* Check if I2C bus is free */
 114:../lpc11cx4-library/lpc_chip_11cxx_lib/src/i2c_11xx.c **** STATIC INLINE int isI2CBusFree(LPC_I2C_T *pI2C)
 115:../lpc11cx4-library/lpc_chip_11cxx_lib/src/i2c_11xx.c **** {
 116:../lpc11cx4-library/lpc_chip_11cxx_lib/src/i2c_11xx.c **** 	return !(pI2C->CONSET & I2C_CON_STO);
 117:../lpc11cx4-library/lpc_chip_11cxx_lib/src/i2c_11xx.c **** }
 118:../lpc11cx4-library/lpc_chip_11cxx_lib/src/i2c_11xx.c **** 
 119:../lpc11cx4-library/lpc_chip_11cxx_lib/src/i2c_11xx.c **** /* Get current state of the I2C peripheral */
 120:../lpc11cx4-library/lpc_chip_11cxx_lib/src/i2c_11xx.c **** STATIC INLINE int getCurState(LPC_I2C_T *pI2C)
 121:../lpc11cx4-library/lpc_chip_11cxx_lib/src/i2c_11xx.c **** {
 122:../lpc11cx4-library/lpc_chip_11cxx_lib/src/i2c_11xx.c **** 	return (int) (pI2C->STAT & I2C_STAT_CODE_BITMASK);
 123:../lpc11cx4-library/lpc_chip_11cxx_lib/src/i2c_11xx.c **** }
 124:../lpc11cx4-library/lpc_chip_11cxx_lib/src/i2c_11xx.c **** 
 125:../lpc11cx4-library/lpc_chip_11cxx_lib/src/i2c_11xx.c **** /* Check if the active state belongs to master mode*/
 126:../lpc11cx4-library/lpc_chip_11cxx_lib/src/i2c_11xx.c **** STATIC INLINE int isMasterState(LPC_I2C_T *pI2C)
 127:../lpc11cx4-library/lpc_chip_11cxx_lib/src/i2c_11xx.c **** {
 128:../lpc11cx4-library/lpc_chip_11cxx_lib/src/i2c_11xx.c **** 	return getCurState(pI2C) < 0x60;
 129:../lpc11cx4-library/lpc_chip_11cxx_lib/src/i2c_11xx.c **** }
 130:../lpc11cx4-library/lpc_chip_11cxx_lib/src/i2c_11xx.c **** 
 131:../lpc11cx4-library/lpc_chip_11cxx_lib/src/i2c_11xx.c **** /* Set OWN slave address for specific slave ID */
 132:../lpc11cx4-library/lpc_chip_11cxx_lib/src/i2c_11xx.c **** STATIC void setSlaveAddr(LPC_I2C_T *pI2C, I2C_SLAVE_ID sid, uint8_t addr, uint8_t mask)
 133:../lpc11cx4-library/lpc_chip_11cxx_lib/src/i2c_11xx.c **** {
 134:../lpc11cx4-library/lpc_chip_11cxx_lib/src/i2c_11xx.c **** 	uint32_t index = (uint32_t) sid - 1;
 135:../lpc11cx4-library/lpc_chip_11cxx_lib/src/i2c_11xx.c **** 	pI2C->MASK[index] = mask;
 136:../lpc11cx4-library/lpc_chip_11cxx_lib/src/i2c_11xx.c **** 	if (sid == I2C_SLAVE_0) {
 137:../lpc11cx4-library/lpc_chip_11cxx_lib/src/i2c_11xx.c **** 		pI2C->ADR0 = addr;
 138:../lpc11cx4-library/lpc_chip_11cxx_lib/src/i2c_11xx.c **** 	}
 139:../lpc11cx4-library/lpc_chip_11cxx_lib/src/i2c_11xx.c **** 	else {
 140:../lpc11cx4-library/lpc_chip_11cxx_lib/src/i2c_11xx.c **** 		volatile uint32_t *abase = &pI2C->ADR1;
 141:../lpc11cx4-library/lpc_chip_11cxx_lib/src/i2c_11xx.c **** 		abase[index - 1] = addr;
 142:../lpc11cx4-library/lpc_chip_11cxx_lib/src/i2c_11xx.c **** 	}
 143:../lpc11cx4-library/lpc_chip_11cxx_lib/src/i2c_11xx.c **** }
 144:../lpc11cx4-library/lpc_chip_11cxx_lib/src/i2c_11xx.c **** 
 145:../lpc11cx4-library/lpc_chip_11cxx_lib/src/i2c_11xx.c **** /* Match the slave address */
 146:../lpc11cx4-library/lpc_chip_11cxx_lib/src/i2c_11xx.c **** STATIC int isSlaveAddrMatching(uint8_t addr1, uint8_t addr2, uint8_t mask)
 147:../lpc11cx4-library/lpc_chip_11cxx_lib/src/i2c_11xx.c **** {
 148:../lpc11cx4-library/lpc_chip_11cxx_lib/src/i2c_11xx.c **** 	mask |= 1;
 149:../lpc11cx4-library/lpc_chip_11cxx_lib/src/i2c_11xx.c **** 	return (addr1 & ~mask) == (addr2 & ~mask);
 150:../lpc11cx4-library/lpc_chip_11cxx_lib/src/i2c_11xx.c **** }
 151:../lpc11cx4-library/lpc_chip_11cxx_lib/src/i2c_11xx.c **** 
 152:../lpc11cx4-library/lpc_chip_11cxx_lib/src/i2c_11xx.c **** /* Get the index of the active slave */
 153:../lpc11cx4-library/lpc_chip_11cxx_lib/src/i2c_11xx.c **** STATIC I2C_SLAVE_ID lookupSlaveIndex(LPC_I2C_T *pI2C, uint8_t slaveAddr)
ARM GAS  /tmp/ccXTVNcx.s 			page 5


 154:../lpc11cx4-library/lpc_chip_11cxx_lib/src/i2c_11xx.c **** {
 155:../lpc11cx4-library/lpc_chip_11cxx_lib/src/i2c_11xx.c **** 	if (!(slaveAddr >> 1)) {
 156:../lpc11cx4-library/lpc_chip_11cxx_lib/src/i2c_11xx.c **** 		return I2C_SLAVE_GENERAL;					/* General call address */
 157:../lpc11cx4-library/lpc_chip_11cxx_lib/src/i2c_11xx.c **** 	}
 158:../lpc11cx4-library/lpc_chip_11cxx_lib/src/i2c_11xx.c **** 	if (isSlaveAddrMatching(pI2C->ADR0, slaveAddr, pI2C->MASK[0])) {
 159:../lpc11cx4-library/lpc_chip_11cxx_lib/src/i2c_11xx.c **** 		return I2C_SLAVE_0;
 160:../lpc11cx4-library/lpc_chip_11cxx_lib/src/i2c_11xx.c **** 	}
 161:../lpc11cx4-library/lpc_chip_11cxx_lib/src/i2c_11xx.c **** 	if (isSlaveAddrMatching(pI2C->ADR1, slaveAddr, pI2C->MASK[1])) {
 162:../lpc11cx4-library/lpc_chip_11cxx_lib/src/i2c_11xx.c **** 		return I2C_SLAVE_1;
 163:../lpc11cx4-library/lpc_chip_11cxx_lib/src/i2c_11xx.c **** 	}
 164:../lpc11cx4-library/lpc_chip_11cxx_lib/src/i2c_11xx.c **** 	if (isSlaveAddrMatching(pI2C->ADR2, slaveAddr, pI2C->MASK[2])) {
 165:../lpc11cx4-library/lpc_chip_11cxx_lib/src/i2c_11xx.c **** 		return I2C_SLAVE_2;
 166:../lpc11cx4-library/lpc_chip_11cxx_lib/src/i2c_11xx.c **** 	}
 167:../lpc11cx4-library/lpc_chip_11cxx_lib/src/i2c_11xx.c **** 	if (isSlaveAddrMatching(pI2C->ADR3, slaveAddr, pI2C->MASK[3])) {
 168:../lpc11cx4-library/lpc_chip_11cxx_lib/src/i2c_11xx.c **** 		return I2C_SLAVE_3;
 169:../lpc11cx4-library/lpc_chip_11cxx_lib/src/i2c_11xx.c **** 	}
 170:../lpc11cx4-library/lpc_chip_11cxx_lib/src/i2c_11xx.c **** 
 171:../lpc11cx4-library/lpc_chip_11cxx_lib/src/i2c_11xx.c **** 	/* If everything is fine the code should never come here */
 172:../lpc11cx4-library/lpc_chip_11cxx_lib/src/i2c_11xx.c **** 	return I2C_SLAVE_GENERAL;
 173:../lpc11cx4-library/lpc_chip_11cxx_lib/src/i2c_11xx.c **** }
 174:../lpc11cx4-library/lpc_chip_11cxx_lib/src/i2c_11xx.c **** 
 175:../lpc11cx4-library/lpc_chip_11cxx_lib/src/i2c_11xx.c **** /* Master transfer state change handler handler */
 176:../lpc11cx4-library/lpc_chip_11cxx_lib/src/i2c_11xx.c **** int handleMasterXferState(LPC_I2C_T *pI2C, I2C_XFER_T  *xfer)
 177:../lpc11cx4-library/lpc_chip_11cxx_lib/src/i2c_11xx.c **** {
 178:../lpc11cx4-library/lpc_chip_11cxx_lib/src/i2c_11xx.c **** 	uint32_t cclr = I2C_CON_FLAGS;
 179:../lpc11cx4-library/lpc_chip_11cxx_lib/src/i2c_11xx.c **** 
 180:../lpc11cx4-library/lpc_chip_11cxx_lib/src/i2c_11xx.c **** 	switch (getCurState(pI2C)) {
 181:../lpc11cx4-library/lpc_chip_11cxx_lib/src/i2c_11xx.c **** 	case 0x08:		/* Start condition on bus */
 182:../lpc11cx4-library/lpc_chip_11cxx_lib/src/i2c_11xx.c **** 	case 0x10:		/* Repeated start condition */
 183:../lpc11cx4-library/lpc_chip_11cxx_lib/src/i2c_11xx.c **** 		pI2C->DAT = (xfer->slaveAddr << 1) | (xfer->txSz == 0);
 184:../lpc11cx4-library/lpc_chip_11cxx_lib/src/i2c_11xx.c **** 		break;
 185:../lpc11cx4-library/lpc_chip_11cxx_lib/src/i2c_11xx.c **** 
 186:../lpc11cx4-library/lpc_chip_11cxx_lib/src/i2c_11xx.c **** 	/* Tx handling */
 187:../lpc11cx4-library/lpc_chip_11cxx_lib/src/i2c_11xx.c **** 	case 0x18:		/* SLA+W sent and ACK received */
 188:../lpc11cx4-library/lpc_chip_11cxx_lib/src/i2c_11xx.c **** 	case 0x28:		/* DATA sent and ACK received */
 189:../lpc11cx4-library/lpc_chip_11cxx_lib/src/i2c_11xx.c **** 		if (!xfer->txSz) {
 190:../lpc11cx4-library/lpc_chip_11cxx_lib/src/i2c_11xx.c **** 			cclr &= ~(xfer->rxSz ? I2C_CON_STA : I2C_CON_STO);
 191:../lpc11cx4-library/lpc_chip_11cxx_lib/src/i2c_11xx.c **** 		}
 192:../lpc11cx4-library/lpc_chip_11cxx_lib/src/i2c_11xx.c **** 		else {
 193:../lpc11cx4-library/lpc_chip_11cxx_lib/src/i2c_11xx.c **** 			pI2C->DAT = *xfer->txBuff++;
 194:../lpc11cx4-library/lpc_chip_11cxx_lib/src/i2c_11xx.c **** 			xfer->txSz--;
 195:../lpc11cx4-library/lpc_chip_11cxx_lib/src/i2c_11xx.c **** 		}
 196:../lpc11cx4-library/lpc_chip_11cxx_lib/src/i2c_11xx.c **** 		break;
 197:../lpc11cx4-library/lpc_chip_11cxx_lib/src/i2c_11xx.c **** 
 198:../lpc11cx4-library/lpc_chip_11cxx_lib/src/i2c_11xx.c **** 	/* Rx handling */
 199:../lpc11cx4-library/lpc_chip_11cxx_lib/src/i2c_11xx.c **** 	case 0x58:		/* Data Received and NACK sent */
 200:../lpc11cx4-library/lpc_chip_11cxx_lib/src/i2c_11xx.c **** 		cclr &= ~I2C_CON_STO;
 201:../lpc11cx4-library/lpc_chip_11cxx_lib/src/i2c_11xx.c **** 
 202:../lpc11cx4-library/lpc_chip_11cxx_lib/src/i2c_11xx.c **** 	case 0x50:		/* Data Received and ACK sent */
 203:../lpc11cx4-library/lpc_chip_11cxx_lib/src/i2c_11xx.c **** 		*xfer->rxBuff++ = pI2C->DAT;
 204:../lpc11cx4-library/lpc_chip_11cxx_lib/src/i2c_11xx.c **** 		xfer->rxSz--;
 205:../lpc11cx4-library/lpc_chip_11cxx_lib/src/i2c_11xx.c **** 
 206:../lpc11cx4-library/lpc_chip_11cxx_lib/src/i2c_11xx.c **** 	case 0x40:		/* SLA+R sent and ACK received */
 207:../lpc11cx4-library/lpc_chip_11cxx_lib/src/i2c_11xx.c **** 		if (xfer->rxSz > 1) {
 208:../lpc11cx4-library/lpc_chip_11cxx_lib/src/i2c_11xx.c **** 			cclr &= ~I2C_CON_AA;
 209:../lpc11cx4-library/lpc_chip_11cxx_lib/src/i2c_11xx.c **** 		}
 210:../lpc11cx4-library/lpc_chip_11cxx_lib/src/i2c_11xx.c **** 		break;
ARM GAS  /tmp/ccXTVNcx.s 			page 6


 211:../lpc11cx4-library/lpc_chip_11cxx_lib/src/i2c_11xx.c **** 
 212:../lpc11cx4-library/lpc_chip_11cxx_lib/src/i2c_11xx.c **** 	/* NAK Handling */
 213:../lpc11cx4-library/lpc_chip_11cxx_lib/src/i2c_11xx.c **** 	case 0x20:		/* SLA+W sent NAK received */
 214:../lpc11cx4-library/lpc_chip_11cxx_lib/src/i2c_11xx.c **** 	case 0x30:		/* DATA sent NAK received */
 215:../lpc11cx4-library/lpc_chip_11cxx_lib/src/i2c_11xx.c **** 	case 0x48:		/* SLA+R sent NAK received */
 216:../lpc11cx4-library/lpc_chip_11cxx_lib/src/i2c_11xx.c **** 		xfer->status = I2C_STATUS_NAK;
 217:../lpc11cx4-library/lpc_chip_11cxx_lib/src/i2c_11xx.c **** 		cclr &= ~I2C_CON_STO;
 218:../lpc11cx4-library/lpc_chip_11cxx_lib/src/i2c_11xx.c **** 		break;
 219:../lpc11cx4-library/lpc_chip_11cxx_lib/src/i2c_11xx.c **** 
 220:../lpc11cx4-library/lpc_chip_11cxx_lib/src/i2c_11xx.c **** 	case 0x38:		/* Arbitration lost */
 221:../lpc11cx4-library/lpc_chip_11cxx_lib/src/i2c_11xx.c **** 		xfer->status = I2C_STATUS_ARBLOST;
 222:../lpc11cx4-library/lpc_chip_11cxx_lib/src/i2c_11xx.c **** 		break;
 223:../lpc11cx4-library/lpc_chip_11cxx_lib/src/i2c_11xx.c **** 
 224:../lpc11cx4-library/lpc_chip_11cxx_lib/src/i2c_11xx.c **** 	/* Bus Error */
 225:../lpc11cx4-library/lpc_chip_11cxx_lib/src/i2c_11xx.c **** 	case 0x00:
 226:../lpc11cx4-library/lpc_chip_11cxx_lib/src/i2c_11xx.c **** 		xfer->status = I2C_STATUS_BUSERR;
 227:../lpc11cx4-library/lpc_chip_11cxx_lib/src/i2c_11xx.c **** 		cclr &= ~I2C_CON_STO;
 228:../lpc11cx4-library/lpc_chip_11cxx_lib/src/i2c_11xx.c **** 	}
 229:../lpc11cx4-library/lpc_chip_11cxx_lib/src/i2c_11xx.c **** 
 230:../lpc11cx4-library/lpc_chip_11cxx_lib/src/i2c_11xx.c **** 	/* Set clear control flags */
 231:../lpc11cx4-library/lpc_chip_11cxx_lib/src/i2c_11xx.c **** 	pI2C->CONSET = cclr ^ I2C_CON_FLAGS;
 232:../lpc11cx4-library/lpc_chip_11cxx_lib/src/i2c_11xx.c **** 	pI2C->CONCLR = cclr;
 233:../lpc11cx4-library/lpc_chip_11cxx_lib/src/i2c_11xx.c **** 
 234:../lpc11cx4-library/lpc_chip_11cxx_lib/src/i2c_11xx.c **** 	/* If stopped return 0 */
 235:../lpc11cx4-library/lpc_chip_11cxx_lib/src/i2c_11xx.c **** 	if (!(cclr & I2C_CON_STO) || (xfer->status == I2C_STATUS_ARBLOST)) {
 236:../lpc11cx4-library/lpc_chip_11cxx_lib/src/i2c_11xx.c **** 		if (xfer->status == I2C_STATUS_BUSY) {
 237:../lpc11cx4-library/lpc_chip_11cxx_lib/src/i2c_11xx.c **** 			xfer->status = I2C_STATUS_DONE;
 238:../lpc11cx4-library/lpc_chip_11cxx_lib/src/i2c_11xx.c **** 		}
 239:../lpc11cx4-library/lpc_chip_11cxx_lib/src/i2c_11xx.c **** 		return 0;
 240:../lpc11cx4-library/lpc_chip_11cxx_lib/src/i2c_11xx.c **** 	}
 241:../lpc11cx4-library/lpc_chip_11cxx_lib/src/i2c_11xx.c **** 	return 1;
 242:../lpc11cx4-library/lpc_chip_11cxx_lib/src/i2c_11xx.c **** }
 243:../lpc11cx4-library/lpc_chip_11cxx_lib/src/i2c_11xx.c **** 
 244:../lpc11cx4-library/lpc_chip_11cxx_lib/src/i2c_11xx.c **** /* Find the slave address of SLA+W or SLA+R */
 245:../lpc11cx4-library/lpc_chip_11cxx_lib/src/i2c_11xx.c **** I2C_SLAVE_ID getSlaveIndex(LPC_I2C_T *pI2C)
 246:../lpc11cx4-library/lpc_chip_11cxx_lib/src/i2c_11xx.c **** {
 247:../lpc11cx4-library/lpc_chip_11cxx_lib/src/i2c_11xx.c **** 	switch (getCurState(pI2C)) {
 248:../lpc11cx4-library/lpc_chip_11cxx_lib/src/i2c_11xx.c **** 	case 0x60:
 249:../lpc11cx4-library/lpc_chip_11cxx_lib/src/i2c_11xx.c **** 	case 0x68:
 250:../lpc11cx4-library/lpc_chip_11cxx_lib/src/i2c_11xx.c **** 	case 0x70:
 251:../lpc11cx4-library/lpc_chip_11cxx_lib/src/i2c_11xx.c **** 	case 0x78:
 252:../lpc11cx4-library/lpc_chip_11cxx_lib/src/i2c_11xx.c **** 	case 0xA8:
 253:../lpc11cx4-library/lpc_chip_11cxx_lib/src/i2c_11xx.c **** 	case 0xB0:
 254:../lpc11cx4-library/lpc_chip_11cxx_lib/src/i2c_11xx.c **** 		return lookupSlaveIndex(pI2C, pI2C->DAT);
 255:../lpc11cx4-library/lpc_chip_11cxx_lib/src/i2c_11xx.c **** 	}
 256:../lpc11cx4-library/lpc_chip_11cxx_lib/src/i2c_11xx.c **** 
 257:../lpc11cx4-library/lpc_chip_11cxx_lib/src/i2c_11xx.c **** 	/* If everything is fine code should never come here */
 258:../lpc11cx4-library/lpc_chip_11cxx_lib/src/i2c_11xx.c **** 	return I2C_SLAVE_GENERAL;
 259:../lpc11cx4-library/lpc_chip_11cxx_lib/src/i2c_11xx.c **** }
 260:../lpc11cx4-library/lpc_chip_11cxx_lib/src/i2c_11xx.c **** 
 261:../lpc11cx4-library/lpc_chip_11cxx_lib/src/i2c_11xx.c **** /* Slave state machine handler */
 262:../lpc11cx4-library/lpc_chip_11cxx_lib/src/i2c_11xx.c **** int handleSlaveXferState(LPC_I2C_T *pI2C, I2C_XFER_T *xfer)
 263:../lpc11cx4-library/lpc_chip_11cxx_lib/src/i2c_11xx.c **** {
 264:../lpc11cx4-library/lpc_chip_11cxx_lib/src/i2c_11xx.c **** 	uint32_t cclr = I2C_CON_FLAGS;
 265:../lpc11cx4-library/lpc_chip_11cxx_lib/src/i2c_11xx.c **** 	int ret = RET_SLAVE_BUSY;
 266:../lpc11cx4-library/lpc_chip_11cxx_lib/src/i2c_11xx.c **** 
 267:../lpc11cx4-library/lpc_chip_11cxx_lib/src/i2c_11xx.c **** 	xfer->status = I2C_STATUS_BUSY;
ARM GAS  /tmp/ccXTVNcx.s 			page 7


 268:../lpc11cx4-library/lpc_chip_11cxx_lib/src/i2c_11xx.c **** 	switch (getCurState(pI2C)) {
 269:../lpc11cx4-library/lpc_chip_11cxx_lib/src/i2c_11xx.c **** 	case 0x80:		/* SLA: Data received + ACK sent */
 270:../lpc11cx4-library/lpc_chip_11cxx_lib/src/i2c_11xx.c **** 	case 0x90:		/* GC: Data received + ACK sent */
 271:../lpc11cx4-library/lpc_chip_11cxx_lib/src/i2c_11xx.c **** 		*xfer->rxBuff++ = pI2C->DAT;
 272:../lpc11cx4-library/lpc_chip_11cxx_lib/src/i2c_11xx.c **** 		xfer->rxSz--;
 273:../lpc11cx4-library/lpc_chip_11cxx_lib/src/i2c_11xx.c **** 		ret = RET_SLAVE_RX;
 274:../lpc11cx4-library/lpc_chip_11cxx_lib/src/i2c_11xx.c **** 		if (xfer->rxSz > 1) {
 275:../lpc11cx4-library/lpc_chip_11cxx_lib/src/i2c_11xx.c **** 			cclr &= ~I2C_CON_AA;
 276:../lpc11cx4-library/lpc_chip_11cxx_lib/src/i2c_11xx.c **** 		}
 277:../lpc11cx4-library/lpc_chip_11cxx_lib/src/i2c_11xx.c **** 		break;
 278:../lpc11cx4-library/lpc_chip_11cxx_lib/src/i2c_11xx.c **** 
 279:../lpc11cx4-library/lpc_chip_11cxx_lib/src/i2c_11xx.c **** 	case 0x60:		/* Own SLA+W received */
 280:../lpc11cx4-library/lpc_chip_11cxx_lib/src/i2c_11xx.c **** 	case 0x68:		/* Own SLA+W received after losing arbitration */
 281:../lpc11cx4-library/lpc_chip_11cxx_lib/src/i2c_11xx.c **** 	case 0x70:		/* GC+W received */
 282:../lpc11cx4-library/lpc_chip_11cxx_lib/src/i2c_11xx.c **** 	case 0x78:		/* GC+W received after losing arbitration */
 283:../lpc11cx4-library/lpc_chip_11cxx_lib/src/i2c_11xx.c **** 		xfer->slaveAddr = pI2C->DAT & ~1;
 284:../lpc11cx4-library/lpc_chip_11cxx_lib/src/i2c_11xx.c **** 		if (xfer->rxSz > 1) {
 285:../lpc11cx4-library/lpc_chip_11cxx_lib/src/i2c_11xx.c **** 			cclr &= ~I2C_CON_AA;
 286:../lpc11cx4-library/lpc_chip_11cxx_lib/src/i2c_11xx.c **** 		}
 287:../lpc11cx4-library/lpc_chip_11cxx_lib/src/i2c_11xx.c **** 		break;
 288:../lpc11cx4-library/lpc_chip_11cxx_lib/src/i2c_11xx.c **** 
 289:../lpc11cx4-library/lpc_chip_11cxx_lib/src/i2c_11xx.c **** 	case 0xA8:		/* SLA+R received */
 290:../lpc11cx4-library/lpc_chip_11cxx_lib/src/i2c_11xx.c **** 	case 0xB0:		/* SLA+R received after losing arbitration */
 291:../lpc11cx4-library/lpc_chip_11cxx_lib/src/i2c_11xx.c **** 		xfer->slaveAddr = pI2C->DAT & ~1;
 292:../lpc11cx4-library/lpc_chip_11cxx_lib/src/i2c_11xx.c **** 
 293:../lpc11cx4-library/lpc_chip_11cxx_lib/src/i2c_11xx.c **** 	case 0xB8:		/* DATA sent and ACK received */
 294:../lpc11cx4-library/lpc_chip_11cxx_lib/src/i2c_11xx.c **** 		pI2C->DAT = *xfer->txBuff++;
 295:../lpc11cx4-library/lpc_chip_11cxx_lib/src/i2c_11xx.c **** 		xfer->txSz--;
 296:../lpc11cx4-library/lpc_chip_11cxx_lib/src/i2c_11xx.c **** 		if (xfer->txSz > 0) {
 297:../lpc11cx4-library/lpc_chip_11cxx_lib/src/i2c_11xx.c **** 			cclr &= ~I2C_CON_AA;
 298:../lpc11cx4-library/lpc_chip_11cxx_lib/src/i2c_11xx.c **** 		}
 299:../lpc11cx4-library/lpc_chip_11cxx_lib/src/i2c_11xx.c **** 		ret = RET_SLAVE_TX;
 300:../lpc11cx4-library/lpc_chip_11cxx_lib/src/i2c_11xx.c **** 		break;
 301:../lpc11cx4-library/lpc_chip_11cxx_lib/src/i2c_11xx.c **** 
 302:../lpc11cx4-library/lpc_chip_11cxx_lib/src/i2c_11xx.c **** 	case 0xC0:		/* Data transmitted and NAK received */
 303:../lpc11cx4-library/lpc_chip_11cxx_lib/src/i2c_11xx.c **** 	case 0xC8:		/* Last data transmitted and ACK received */
 304:../lpc11cx4-library/lpc_chip_11cxx_lib/src/i2c_11xx.c **** 	case 0x88:		/* SLA: Data received + NAK sent */
 305:../lpc11cx4-library/lpc_chip_11cxx_lib/src/i2c_11xx.c **** 	case 0x98:		/* GC: Data received + NAK sent */
 306:../lpc11cx4-library/lpc_chip_11cxx_lib/src/i2c_11xx.c **** 	case 0xA0:		/* STOP/Repeated START condition received */
 307:../lpc11cx4-library/lpc_chip_11cxx_lib/src/i2c_11xx.c **** 		ret = RET_SLAVE_IDLE;
 308:../lpc11cx4-library/lpc_chip_11cxx_lib/src/i2c_11xx.c **** 		cclr &= ~I2C_CON_AA;
 309:../lpc11cx4-library/lpc_chip_11cxx_lib/src/i2c_11xx.c **** 		xfer->status = I2C_STATUS_DONE;
 310:../lpc11cx4-library/lpc_chip_11cxx_lib/src/i2c_11xx.c **** 		if (xfer->slaveAddr & 1) {
 311:../lpc11cx4-library/lpc_chip_11cxx_lib/src/i2c_11xx.c **** 			cclr &= ~I2C_CON_STA;
 312:../lpc11cx4-library/lpc_chip_11cxx_lib/src/i2c_11xx.c **** 		}
 313:../lpc11cx4-library/lpc_chip_11cxx_lib/src/i2c_11xx.c **** 		break;
 314:../lpc11cx4-library/lpc_chip_11cxx_lib/src/i2c_11xx.c **** 	}
 315:../lpc11cx4-library/lpc_chip_11cxx_lib/src/i2c_11xx.c **** 
 316:../lpc11cx4-library/lpc_chip_11cxx_lib/src/i2c_11xx.c **** 	/* Set clear control flags */
 317:../lpc11cx4-library/lpc_chip_11cxx_lib/src/i2c_11xx.c **** 	pI2C->CONSET = cclr ^ I2C_CON_FLAGS;
 318:../lpc11cx4-library/lpc_chip_11cxx_lib/src/i2c_11xx.c **** 	pI2C->CONCLR = cclr;
 319:../lpc11cx4-library/lpc_chip_11cxx_lib/src/i2c_11xx.c **** 
 320:../lpc11cx4-library/lpc_chip_11cxx_lib/src/i2c_11xx.c **** 	return ret;
 321:../lpc11cx4-library/lpc_chip_11cxx_lib/src/i2c_11xx.c **** }
 322:../lpc11cx4-library/lpc_chip_11cxx_lib/src/i2c_11xx.c **** 
 323:../lpc11cx4-library/lpc_chip_11cxx_lib/src/i2c_11xx.c **** /*****************************************************************************
 324:../lpc11cx4-library/lpc_chip_11cxx_lib/src/i2c_11xx.c ****  * Public functions
ARM GAS  /tmp/ccXTVNcx.s 			page 8


 325:../lpc11cx4-library/lpc_chip_11cxx_lib/src/i2c_11xx.c ****  ****************************************************************************/
 326:../lpc11cx4-library/lpc_chip_11cxx_lib/src/i2c_11xx.c **** 
 327:../lpc11cx4-library/lpc_chip_11cxx_lib/src/i2c_11xx.c **** /* Chip event handler interrupt based */
 328:../lpc11cx4-library/lpc_chip_11cxx_lib/src/i2c_11xx.c **** void Chip_I2C_EventHandler(I2C_ID_T id, I2C_EVENT_T event)
 329:../lpc11cx4-library/lpc_chip_11cxx_lib/src/i2c_11xx.c **** {
  76              		.loc 1 329 0
  77              		.cfi_startproc
  78              	.LVL0:
 330:../lpc11cx4-library/lpc_chip_11cxx_lib/src/i2c_11xx.c **** 	struct i2c_interface *iic = &i2c[id];
 331:../lpc11cx4-library/lpc_chip_11cxx_lib/src/i2c_11xx.c **** 	volatile I2C_STATUS_T *stat;
 332:../lpc11cx4-library/lpc_chip_11cxx_lib/src/i2c_11xx.c **** 
 333:../lpc11cx4-library/lpc_chip_11cxx_lib/src/i2c_11xx.c **** 	/* Only WAIT event needs to be handled */
 334:../lpc11cx4-library/lpc_chip_11cxx_lib/src/i2c_11xx.c **** 	if (event != I2C_EVENT_WAIT) {
  79              		.loc 1 334 0
  80 0000 0129     		cmp	r1, #1	@ event,
  81 0002 00D0     		beq	.L7	@,
  82              	.LVL1:
  83              	.L1:
 335:../lpc11cx4-library/lpc_chip_11cxx_lib/src/i2c_11xx.c **** 		return;
 336:../lpc11cx4-library/lpc_chip_11cxx_lib/src/i2c_11xx.c **** 	}
 337:../lpc11cx4-library/lpc_chip_11cxx_lib/src/i2c_11xx.c **** 
 338:../lpc11cx4-library/lpc_chip_11cxx_lib/src/i2c_11xx.c **** 	stat = &iic->mXfer->status;
 339:../lpc11cx4-library/lpc_chip_11cxx_lib/src/i2c_11xx.c **** 	/* Wait for the status to change */
 340:../lpc11cx4-library/lpc_chip_11cxx_lib/src/i2c_11xx.c **** 	while (*stat == I2C_STATUS_BUSY) {}
 341:../lpc11cx4-library/lpc_chip_11cxx_lib/src/i2c_11xx.c **** }
  84              		.loc 1 341 0
  85              		@ sp needed	@
  86 0004 7047     		bx	lr
  87              	.LVL2:
  88              	.L7:
 338:../lpc11cx4-library/lpc_chip_11cxx_lib/src/i2c_11xx.c **** 	/* Wait for the status to change */
  89              		.loc 1 338 0
  90 0006 C300     		lsl	r3, r0, #3	@ tmp117, id,
  91 0008 1B1A     		sub	r3, r3, r0	@ tmp118, tmp117, id
  92 000a 9800     		lsl	r0, r3, #2	@ tmp119, tmp118,
  93              	.LVL3:
  94 000c 034B     		ldr	r3, .L8	@ tmp115,
  95 000e 1B18     		add	r3, r3, r0	@ tmp120, tmp115, tmp119
  96 0010 1A69     		ldr	r2, [r3, #16]	@ D.6646, MEM[(struct i2c_interface *)&i2c][_2].mXfer
  97              	.LVL4:
  98              	.L3:
 340:../lpc11cx4-library/lpc_chip_11cxx_lib/src/i2c_11xx.c **** }
  99              		.loc 1 340 0 discriminator 1
 100 0012 137D     		ldrb	r3, [r2, #20]	@ MEM[(volatile I2C_STATUS_T *)_5 + 20B], MEM[(volatile I2C_STATUS_T *)_5 + 20B
 101 0014 042B     		cmp	r3, #4	@ MEM[(volatile I2C_STATUS_T *)_5 + 20B],
 102 0016 FCD0     		beq	.L3	@,
 103 0018 F4E7     		b	.L1	@
 104              	.L9:
 105 001a C046     		.align	2
 106              	.L8:
 107 001c 00000000 		.word	.LANCHOR0
 108              		.cfi_endproc
 109              	.LFE212:
 110              		.size	Chip_I2C_EventHandler, .-Chip_I2C_EventHandler
 111              		.section	.text.handleMasterXferState,"ax",%progbits
 112              		.align	2
 113              		.global	handleMasterXferState
ARM GAS  /tmp/ccXTVNcx.s 			page 9


 114              		.code	16
 115              		.thumb_func
 116              		.type	handleMasterXferState, %function
 117              	handleMasterXferState:
 118              	.LFB209:
 177:../lpc11cx4-library/lpc_chip_11cxx_lib/src/i2c_11xx.c **** 	uint32_t cclr = I2C_CON_FLAGS;
 119              		.loc 1 177 0
 120              		.cfi_startproc
 121              	.LVL5:
 122              	.LBB53:
 123              	.LBB54:
 122:../lpc11cx4-library/lpc_chip_11cxx_lib/src/i2c_11xx.c **** }
 124              		.loc 1 122 0
 125 0000 4368     		ldr	r3, [r0, #4]	@ D.6660, pI2C_10(D)->STAT
 126              	.LBE54:
 127              	.LBE53:
 177:../lpc11cx4-library/lpc_chip_11cxx_lib/src/i2c_11xx.c **** 	uint32_t cclr = I2C_CON_FLAGS;
 128              		.loc 1 177 0
 129 0002 021C     		mov	r2, r0	@ pI2C, pI2C
 130              	.LBB57:
 131              	.LBB55:
 122:../lpc11cx4-library/lpc_chip_11cxx_lib/src/i2c_11xx.c **** }
 132              		.loc 1 122 0
 133 0004 F820     		mov	r0, #248	@ tmp154,
 134              	.LVL6:
 135              	.LBE55:
 136              	.LBE57:
 177:../lpc11cx4-library/lpc_chip_11cxx_lib/src/i2c_11xx.c **** 	uint32_t cclr = I2C_CON_FLAGS;
 137              		.loc 1 177 0
 138 0006 30B5     		push	{r4, r5, lr}	@
 139              		.cfi_def_cfa_offset 12
 140              		.cfi_offset 4, -12
 141              		.cfi_offset 5, -8
 142              		.cfi_offset 14, -4
 143              	.LBB58:
 144              	.LBB56:
 122:../lpc11cx4-library/lpc_chip_11cxx_lib/src/i2c_11xx.c **** }
 145              		.loc 1 122 0
 146 0008 0340     		and	r3, r0	@ D.6656, tmp154
 147              	.LBE56:
 148              	.LBE58:
 180:../lpc11cx4-library/lpc_chip_11cxx_lib/src/i2c_11xx.c **** 	case 0x08:		/* Start condition on bus */
 149              		.loc 1 180 0
 150 000a 582B     		cmp	r3, #88	@ D.6656,
 151 000c 52D8     		bhi	.L11	@,
 152 000e 3A48     		ldr	r0, .L43	@ tmp158,
 153 0010 9B00     		lsl	r3, r3, #2	@ tmp156, D.6656,
 154 0012 C358     		ldr	r3, [r0, r3]	@ tmp159,
 155 0014 9F46     		mov	pc, r3	@ tmp159
 156              		.section	.rodata.handleMasterXferState,"a",%progbits
 157              		.align	2
 158              	.L13:
 159 0000 54000000 		.word	.L12
 160 0004 B4000000 		.word	.L11
 161 0008 B4000000 		.word	.L11
 162 000c B4000000 		.word	.L11
 163 0010 B4000000 		.word	.L11
ARM GAS  /tmp/ccXTVNcx.s 			page 10


 164 0014 B4000000 		.word	.L11
 165 0018 B4000000 		.word	.L11
 166 001c B4000000 		.word	.L11
 167 0020 64000000 		.word	.L14
 168 0024 B4000000 		.word	.L11
 169 0028 B4000000 		.word	.L11
 170 002c B4000000 		.word	.L11
 171 0030 B4000000 		.word	.L11
 172 0034 B4000000 		.word	.L11
 173 0038 B4000000 		.word	.L11
 174 003c B4000000 		.word	.L11
 175 0040 64000000 		.word	.L14
 176 0044 B4000000 		.word	.L11
 177 0048 B4000000 		.word	.L11
 178 004c B4000000 		.word	.L11
 179 0050 B4000000 		.word	.L11
 180 0054 B4000000 		.word	.L11
 181 0058 B4000000 		.word	.L11
 182 005c B4000000 		.word	.L11
 183 0060 84000000 		.word	.L15
 184 0064 B4000000 		.word	.L11
 185 0068 B4000000 		.word	.L11
 186 006c B4000000 		.word	.L11
 187 0070 B4000000 		.word	.L11
 188 0074 B4000000 		.word	.L11
 189 0078 B4000000 		.word	.L11
 190 007c B4000000 		.word	.L11
 191 0080 98000000 		.word	.L16
 192 0084 B4000000 		.word	.L11
 193 0088 B4000000 		.word	.L11
 194 008c B4000000 		.word	.L11
 195 0090 B4000000 		.word	.L11
 196 0094 B4000000 		.word	.L11
 197 0098 B4000000 		.word	.L11
 198 009c B4000000 		.word	.L11
 199 00a0 84000000 		.word	.L15
 200 00a4 B4000000 		.word	.L11
 201 00a8 B4000000 		.word	.L11
 202 00ac B4000000 		.word	.L11
 203 00b0 B4000000 		.word	.L11
 204 00b4 B4000000 		.word	.L11
 205 00b8 B4000000 		.word	.L11
 206 00bc B4000000 		.word	.L11
 207 00c0 98000000 		.word	.L16
 208 00c4 B4000000 		.word	.L11
 209 00c8 B4000000 		.word	.L11
 210 00cc B4000000 		.word	.L11
 211 00d0 B4000000 		.word	.L11
 212 00d4 B4000000 		.word	.L11
 213 00d8 B4000000 		.word	.L11
 214 00dc B4000000 		.word	.L11
 215 00e0 9E000000 		.word	.L17
 216 00e4 B4000000 		.word	.L11
 217 00e8 B4000000 		.word	.L11
 218 00ec B4000000 		.word	.L11
 219 00f0 B4000000 		.word	.L11
 220 00f4 B4000000 		.word	.L11
ARM GAS  /tmp/ccXTVNcx.s 			page 11


 221 00f8 B4000000 		.word	.L11
 222 00fc B4000000 		.word	.L11
 223 0100 A6000000 		.word	.L18
 224 0104 B4000000 		.word	.L11
 225 0108 B4000000 		.word	.L11
 226 010c B4000000 		.word	.L11
 227 0110 B4000000 		.word	.L11
 228 0114 B4000000 		.word	.L11
 229 0118 B4000000 		.word	.L11
 230 011c B4000000 		.word	.L11
 231 0120 98000000 		.word	.L16
 232 0124 B4000000 		.word	.L11
 233 0128 B4000000 		.word	.L11
 234 012c B4000000 		.word	.L11
 235 0130 B4000000 		.word	.L11
 236 0134 B4000000 		.word	.L11
 237 0138 B4000000 		.word	.L11
 238 013c B4000000 		.word	.L11
 239 0140 16000000 		.word	.L32
 240 0144 B4000000 		.word	.L11
 241 0148 B4000000 		.word	.L11
 242 014c B4000000 		.word	.L11
 243 0150 B4000000 		.word	.L11
 244 0154 B4000000 		.word	.L11
 245 0158 B4000000 		.word	.L11
 246 015c B4000000 		.word	.L11
 247 0160 50000000 		.word	.L20
 248              		.section	.text.handleMasterXferState
 249              	.L32:
 178:../lpc11cx4-library/lpc_chip_11cxx_lib/src/i2c_11xx.c **** 
 250              		.loc 1 178 0
 251 0016 3C20     		mov	r0, #60	@ cclr,
 252              	.L19:
 253              	.LVL7:
 203:../lpc11cx4-library/lpc_chip_11cxx_lib/src/i2c_11xx.c **** 		xfer->rxSz--;
 254              		.loc 1 203 0
 255 0018 CB68     		ldr	r3, [r1, #12]	@ D.6662, xfer_11(D)->rxBuff
 256 001a 5C1C     		add	r4, r3, #1	@ D.6662, D.6662,
 257 001c CC60     		str	r4, [r1, #12]	@ D.6662, xfer_11(D)->rxBuff
 258 001e 9468     		ldr	r4, [r2, #8]	@ D.6660, pI2C_10(D)->DAT
 259 0020 1C70     		strb	r4, [r3]	@ D.6660, *_32
 204:../lpc11cx4-library/lpc_chip_11cxx_lib/src/i2c_11xx.c **** 
 260              		.loc 1 204 0
 261 0022 0B69     		ldr	r3, [r1, #16]	@ tmp221, xfer_11(D)->rxSz
 262 0024 013B     		sub	r3, r3, #1	@ D.6656,
 263 0026 0B61     		str	r3, [r1, #16]	@ D.6656, xfer_11(D)->rxSz
 207:../lpc11cx4-library/lpc_chip_11cxx_lib/src/i2c_11xx.c **** 			cclr &= ~I2C_CON_AA;
 264              		.loc 1 207 0
 265 0028 012B     		cmp	r3, #1	@ D.6656,
 266 002a 51DD     		ble	.L25	@,
 267 002c 0423     		mov	r3, #4	@ tmp182,
 268 002e 051C     		mov	r5, r0	@ D.6663, cclr
 269 0030 3C24     		mov	r4, #60	@ tmp183,
 270 0032 9D43     		bic	r5, r3	@ D.6663, tmp182
 271 0034 0C33     		add	r3, r3, #12	@ tmp184,
 272 0036 0340     		and	r3, r0	@ D.6660, cclr
 273 0038 281C     		mov	r0, r5	@ cclr, D.6663
ARM GAS  /tmp/ccXTVNcx.s 			page 12


 274              	.LVL8:
 275 003a 6C40     		eor	r4, r5	@ D.6660, D.6663
 276              	.L24:
 277              	.LVL9:
 231:../lpc11cx4-library/lpc_chip_11cxx_lib/src/i2c_11xx.c **** 	pI2C->CONCLR = cclr;
 278              		.loc 1 231 0
 279 003c 1460     		str	r4, [r2]	@ D.6660, pI2C_10(D)->CONSET
 232:../lpc11cx4-library/lpc_chip_11cxx_lib/src/i2c_11xx.c **** 
 280              		.loc 1 232 0
 281 003e 9061     		str	r0, [r2, #24]	@ cclr, pI2C_10(D)->CONCLR
 235:../lpc11cx4-library/lpc_chip_11cxx_lib/src/i2c_11xx.c **** 		if (xfer->status == I2C_STATUS_BUSY) {
 282              		.loc 1 235 0
 283 0040 002B     		cmp	r3, #0	@ D.6660,
 284 0042 40D1     		bne	.L38	@,
 236:../lpc11cx4-library/lpc_chip_11cxx_lib/src/i2c_11xx.c **** 			xfer->status = I2C_STATUS_DONE;
 285              		.loc 1 236 0
 286 0044 0A7D     		ldrb	r2, [r1, #20]	@ tmp198,
 287              	.LVL10:
 288 0046 042A     		cmp	r2, #4	@ tmp198,
 289 0048 0AD1     		bne	.L39	@,
 239:../lpc11cx4-library/lpc_chip_11cxx_lib/src/i2c_11xx.c **** 	}
 290              		.loc 1 239 0
 291 004a 0020     		mov	r0, #0	@ D.6656,
 292              	.LVL11:
 237:../lpc11cx4-library/lpc_chip_11cxx_lib/src/i2c_11xx.c **** 		}
 293              		.loc 1 237 0
 294 004c 0B75     		strb	r3, [r1, #20]	@ D.6660, xfer_11(D)->status
 295              	.LVL12:
 296              	.L36:
 242:../lpc11cx4-library/lpc_chip_11cxx_lib/src/i2c_11xx.c **** 
 297              		.loc 1 242 0
 298              		@ sp needed	@
 299 004e 30BD     		pop	{r4, r5, pc}
 300              	.LVL13:
 301              	.L20:
 200:../lpc11cx4-library/lpc_chip_11cxx_lib/src/i2c_11xx.c **** 
 302              		.loc 1 200 0
 303 0050 2C20     		mov	r0, #44	@ cclr,
 304 0052 E1E7     		b	.L19	@
 305              	.L12:
 226:../lpc11cx4-library/lpc_chip_11cxx_lib/src/i2c_11xx.c **** 		cclr &= ~I2C_CON_STO;
 306              		.loc 1 226 0
 307 0054 0323     		mov	r3, #3	@ tmp189,
 308 0056 0B75     		strb	r3, [r1, #20]	@ tmp189, xfer_11(D)->status
 309              	.LVL14:
 310              	.L26:
 231:../lpc11cx4-library/lpc_chip_11cxx_lib/src/i2c_11xx.c **** 	pI2C->CONCLR = cclr;
 311              		.loc 1 231 0
 312 0058 1023     		mov	r3, #16	@ tmp217,
 313 005a 1360     		str	r3, [r2]	@ tmp217, pI2C_10(D)->CONSET
 232:../lpc11cx4-library/lpc_chip_11cxx_lib/src/i2c_11xx.c **** 
 314              		.loc 1 232 0
 315 005c 1C33     		add	r3, r3, #28	@ tmp218,
 316 005e 9361     		str	r3, [r2, #24]	@ tmp218, pI2C_10(D)->CONCLR
 317              	.LVL15:
 318              	.L39:
 239:../lpc11cx4-library/lpc_chip_11cxx_lib/src/i2c_11xx.c **** 	}
ARM GAS  /tmp/ccXTVNcx.s 			page 13


 319              		.loc 1 239 0
 320 0060 0020     		mov	r0, #0	@ D.6656,
 321 0062 F4E7     		b	.L36	@
 322              	.LVL16:
 323              	.L14:
 183:../lpc11cx4-library/lpc_chip_11cxx_lib/src/i2c_11xx.c **** 		break;
 324              		.loc 1 183 0
 325 0064 8868     		ldr	r0, [r1, #8]	@ D.6659, xfer_11(D)->txSz
 326 0066 4342     		neg	r3, r0	@ tmp163, D.6659
 327 0068 5841     		adc	r0, r0, r3	@ D.6659, D.6659, tmp163
 328 006a 0B78     		ldrb	r3, [r1]	@ D.6656, *xfer_11(D)
 329 006c 5B00     		lsl	r3, r3, #1	@ D.6656, D.6656,
 330 006e 0343     		orr	r3, r0	@ D.6660, D.6659
 331 0070 9360     		str	r3, [r2, #8]	@ D.6660, pI2C_10(D)->DAT
 332 0072 087D     		ldrb	r0, [r1, #20]	@ tmp167,
 333 0074 0238     		sub	r0, r0, #2	@ tmp169,
 334 0076 431E     		sub	r3, r0, #1	@ tmp170, tmp169
 335 0078 9841     		sbc	r0, r0, r3	@ D.6656, tmp169, tmp170
 336              	.L21:
 231:../lpc11cx4-library/lpc_chip_11cxx_lib/src/i2c_11xx.c **** 	pI2C->CONCLR = cclr;
 337              		.loc 1 231 0
 338 007a 0023     		mov	r3, #0	@ tmp215,
 339 007c 1360     		str	r3, [r2]	@ tmp215, pI2C_10(D)->CONSET
 232:../lpc11cx4-library/lpc_chip_11cxx_lib/src/i2c_11xx.c **** 
 340              		.loc 1 232 0
 341 007e 3C33     		add	r3, r3, #60	@ tmp216,
 342 0080 9361     		str	r3, [r2, #24]	@ tmp216, pI2C_10(D)->CONCLR
 343 0082 E4E7     		b	.L36	@
 344              	.L15:
 189:../lpc11cx4-library/lpc_chip_11cxx_lib/src/i2c_11xx.c **** 			cclr &= ~(xfer->rxSz ? I2C_CON_STA : I2C_CON_STO);
 345              		.loc 1 189 0
 346 0084 8B68     		ldr	r3, [r1, #8]	@ D.6656, xfer_11(D)->txSz
 347 0086 002B     		cmp	r3, #0	@ D.6656,
 348 0088 27D1     		bne	.L22	@,
 190:../lpc11cx4-library/lpc_chip_11cxx_lib/src/i2c_11xx.c **** 		}
 349              		.loc 1 190 0
 350 008a 0B69     		ldr	r3, [r1, #16]	@ tmp220, xfer_11(D)->rxSz
 351 008c 002B     		cmp	r3, #0	@ tmp220,
 352 008e 30D0     		beq	.L41	@,
 353 0090 1023     		mov	r3, #16	@ D.6660,
 354 0092 2024     		mov	r4, #32	@ D.6660,
 355 0094 1C20     		mov	r0, #28	@ cclr,
 356              	.LVL17:
 357 0096 D1E7     		b	.L24	@
 358              	.LVL18:
 359              	.L16:
 216:../lpc11cx4-library/lpc_chip_11cxx_lib/src/i2c_11xx.c **** 		cclr &= ~I2C_CON_STO;
 360              		.loc 1 216 0
 361 0098 0123     		mov	r3, #1	@ tmp185,
 362 009a 0B75     		strb	r3, [r1, #20]	@ tmp185, xfer_11(D)->status
 363              	.LVL19:
 218:../lpc11cx4-library/lpc_chip_11cxx_lib/src/i2c_11xx.c **** 
 364              		.loc 1 218 0
 365 009c DCE7     		b	.L26	@
 366              	.LVL20:
 367              	.L17:
 221:../lpc11cx4-library/lpc_chip_11cxx_lib/src/i2c_11xx.c **** 		break;
ARM GAS  /tmp/ccXTVNcx.s 			page 14


 368              		.loc 1 221 0
 369 009e 0223     		mov	r3, #2	@ tmp187,
 222:../lpc11cx4-library/lpc_chip_11cxx_lib/src/i2c_11xx.c **** 
 370              		.loc 1 222 0
 371 00a0 0020     		mov	r0, #0	@ D.6656,
 221:../lpc11cx4-library/lpc_chip_11cxx_lib/src/i2c_11xx.c **** 		break;
 372              		.loc 1 221 0
 373 00a2 0B75     		strb	r3, [r1, #20]	@ tmp187, xfer_11(D)->status
 222:../lpc11cx4-library/lpc_chip_11cxx_lib/src/i2c_11xx.c **** 
 374              		.loc 1 222 0
 375 00a4 E9E7     		b	.L21	@
 376              	.L18:
 207:../lpc11cx4-library/lpc_chip_11cxx_lib/src/i2c_11xx.c **** 			cclr &= ~I2C_CON_AA;
 377              		.loc 1 207 0
 378 00a6 0B69     		ldr	r3, [r1, #16]	@ tmp223, xfer_11(D)->rxSz
 379 00a8 012B     		cmp	r3, #1	@ tmp223,
 380 00aa 08DD     		ble	.L42	@,
 381 00ac 1023     		mov	r3, #16	@ D.6660,
 382 00ae 0424     		mov	r4, #4	@ D.6660,
 383 00b0 3820     		mov	r0, #56	@ cclr,
 384              	.LVL21:
 385 00b2 C3E7     		b	.L24	@
 386              	.LVL22:
 387              	.L11:
 388 00b4 087D     		ldrb	r0, [r1, #20]	@ tmp211,
 389 00b6 0238     		sub	r0, r0, #2	@ tmp213,
 390 00b8 431E     		sub	r3, r0, #1	@ tmp214, tmp213
 391 00ba 9841     		sbc	r0, r0, r3	@ D.6656, tmp213, tmp214
 392 00bc DDE7     		b	.L21	@
 393              	.L42:
 231:../lpc11cx4-library/lpc_chip_11cxx_lib/src/i2c_11xx.c **** 	pI2C->CONCLR = cclr;
 394              		.loc 1 231 0
 395 00be 0023     		mov	r3, #0	@ tmp202,
 396 00c0 1360     		str	r3, [r2]	@ tmp202, pI2C_10(D)->CONSET
 232:../lpc11cx4-library/lpc_chip_11cxx_lib/src/i2c_11xx.c **** 
 397              		.loc 1 232 0
 398 00c2 3C33     		add	r3, r3, #60	@ tmp203,
 399 00c4 9361     		str	r3, [r2, #24]	@ tmp203, pI2C_10(D)->CONCLR
 400              	.LVL23:
 401              	.L38:
 402 00c6 087D     		ldrb	r0, [r1, #20]	@ tmp205,
 403 00c8 0238     		sub	r0, r0, #2	@ tmp207,
 404 00ca 431E     		sub	r3, r0, #1	@ tmp208, tmp207
 405 00cc 9841     		sbc	r0, r0, r3	@ D.6656, tmp207, tmp208
 406 00ce BEE7     		b	.L36	@
 407              	.LVL24:
 408              	.L25:
 409 00d0 3C24     		mov	r4, #60	@ tmp191,
 410 00d2 1023     		mov	r3, #16	@ tmp192,
 411 00d4 4440     		eor	r4, r0	@ D.6660, cclr
 412 00d6 0340     		and	r3, r0	@ D.6660, cclr
 413 00d8 B0E7     		b	.L24	@
 414              	.LVL25:
 415              	.L22:
 193:../lpc11cx4-library/lpc_chip_11cxx_lib/src/i2c_11xx.c **** 			xfer->txSz--;
 416              		.loc 1 193 0
 417 00da 4868     		ldr	r0, [r1, #4]	@ D.6661, xfer_11(D)->txBuff
ARM GAS  /tmp/ccXTVNcx.s 			page 15


 194:../lpc11cx4-library/lpc_chip_11cxx_lib/src/i2c_11xx.c **** 		}
 418              		.loc 1 194 0
 419 00dc 013B     		sub	r3, r3, #1	@ D.6656,
 193:../lpc11cx4-library/lpc_chip_11cxx_lib/src/i2c_11xx.c **** 			xfer->txSz--;
 420              		.loc 1 193 0
 421 00de 441C     		add	r4, r0, #1	@ D.6661, D.6661,
 422 00e0 4C60     		str	r4, [r1, #4]	@ D.6661, xfer_11(D)->txBuff
 423 00e2 0078     		ldrb	r0, [r0]	@ D.6660, *_22
 424 00e4 9060     		str	r0, [r2, #8]	@ D.6660, pI2C_10(D)->DAT
 425 00e6 087D     		ldrb	r0, [r1, #20]	@ tmp175,
 194:../lpc11cx4-library/lpc_chip_11cxx_lib/src/i2c_11xx.c **** 		}
 426              		.loc 1 194 0
 427 00e8 8B60     		str	r3, [r1, #8]	@ D.6656, xfer_11(D)->txSz
 428 00ea 0238     		sub	r0, r0, #2	@ tmp177,
 429 00ec 431E     		sub	r3, r0, #1	@ tmp178, tmp177
 430 00ee 9841     		sbc	r0, r0, r3	@ D.6656, tmp177, tmp178
 431 00f0 C3E7     		b	.L21	@
 432              	.L41:
 190:../lpc11cx4-library/lpc_chip_11cxx_lib/src/i2c_11xx.c **** 		}
 433              		.loc 1 190 0
 434 00f2 1024     		mov	r4, #16	@ D.6660,
 435 00f4 2C20     		mov	r0, #44	@ cclr,
 436 00f6 A1E7     		b	.L24	@
 437              	.L44:
 438              		.align	2
 439              	.L43:
 440 00f8 00000000 		.word	.L13
 441              		.cfi_endproc
 442              	.LFE209:
 443              		.size	handleMasterXferState, .-handleMasterXferState
 444              		.section	.text.getSlaveIndex,"ax",%progbits
 445              		.align	2
 446              		.global	getSlaveIndex
 447              		.code	16
 448              		.thumb_func
 449              		.type	getSlaveIndex, %function
 450              	getSlaveIndex:
 451              	.LFB210:
 246:../lpc11cx4-library/lpc_chip_11cxx_lib/src/i2c_11xx.c **** 	switch (getCurState(pI2C)) {
 452              		.loc 1 246 0
 453              		.cfi_startproc
 454              	.LVL26:
 455              	.LBB75:
 456              	.LBB76:
 122:../lpc11cx4-library/lpc_chip_11cxx_lib/src/i2c_11xx.c **** }
 457              		.loc 1 122 0
 458 0000 F821     		mov	r1, #248	@ tmp159,
 459 0002 4368     		ldr	r3, [r0, #4]	@ D.6693, pI2C_4(D)->STAT
 460              	.LBE76:
 461              	.LBE75:
 246:../lpc11cx4-library/lpc_chip_11cxx_lib/src/i2c_11xx.c **** 	switch (getCurState(pI2C)) {
 462              		.loc 1 246 0
 463 0004 10B5     		push	{r4, lr}	@
 464              		.cfi_def_cfa_offset 8
 465              		.cfi_offset 4, -8
 466              		.cfi_offset 14, -4
 246:../lpc11cx4-library/lpc_chip_11cxx_lib/src/i2c_11xx.c **** 	switch (getCurState(pI2C)) {
ARM GAS  /tmp/ccXTVNcx.s 			page 16


 467              		.loc 1 246 0
 468 0006 021C     		mov	r2, r0	@ pI2C, pI2C
 469              	.LBB78:
 470              	.LBB77:
 122:../lpc11cx4-library/lpc_chip_11cxx_lib/src/i2c_11xx.c **** }
 471              		.loc 1 122 0
 472 0008 0B40     		and	r3, r1	@ D.6694, tmp159
 473              	.LBE77:
 474              	.LBE78:
 247:../lpc11cx4-library/lpc_chip_11cxx_lib/src/i2c_11xx.c **** 	case 0x60:
 475              		.loc 1 247 0
 476 000a 702B     		cmp	r3, #112	@ D.6694,
 477 000c 0CD0     		beq	.L47	@,
 478 000e 07DD     		ble	.L77	@,
 479 0010 A82B     		cmp	r3, #168	@ D.6694,
 480 0012 09D0     		beq	.L47	@,
 481 0014 B02B     		cmp	r3, #176	@ D.6694,
 482 0016 07D0     		beq	.L47	@,
 483 0018 782B     		cmp	r3, #120	@ D.6694,
 484 001a 05D0     		beq	.L47	@,
 485              	.L49:
 258:../lpc11cx4-library/lpc_chip_11cxx_lib/src/i2c_11xx.c **** }
 486              		.loc 1 258 0
 487 001c 0020     		mov	r0, #0	@ D.6691,
 488              	.LVL27:
 489              	.L46:
 259:../lpc11cx4-library/lpc_chip_11cxx_lib/src/i2c_11xx.c **** 
 490              		.loc 1 259 0
 491              		@ sp needed	@
 492 001e 10BD     		pop	{r4, pc}
 493              	.LVL28:
 494              	.L77:
 247:../lpc11cx4-library/lpc_chip_11cxx_lib/src/i2c_11xx.c **** 	case 0x60:
 495              		.loc 1 247 0
 496 0020 602B     		cmp	r3, #96	@ D.6694,
 497 0022 01D0     		beq	.L47	@,
 498 0024 682B     		cmp	r3, #104	@ D.6694,
 499 0026 F9D1     		bne	.L49	@,
 500              	.L47:
 501              	.LVL29:
 502              	.LBB79:
 503              	.LBB80:
 254:../lpc11cx4-library/lpc_chip_11cxx_lib/src/i2c_11xx.c **** 	}
 504              		.loc 1 254 0
 505 0028 9068     		ldr	r0, [r2, #8]	@ D.6693, pI2C_4(D)->DAT
 506              	.LVL30:
 507 002a C1B2     		uxtb	r1, r0	@ D.6692, D.6693
 508              	.LVL31:
 509              	.LBB81:
 510              	.LBB82:
 155:../lpc11cx4-library/lpc_chip_11cxx_lib/src/i2c_11xx.c **** 		return I2C_SLAVE_GENERAL;					/* General call address */
 511              		.loc 1 155 0
 512 002c 4B08     		lsr	r3, r1, #1	@ tmp163, D.6692,
 156:../lpc11cx4-library/lpc_chip_11cxx_lib/src/i2c_11xx.c **** 	}
 513              		.loc 1 156 0
 514 002e 0020     		mov	r0, #0	@ D.6691,
 155:../lpc11cx4-library/lpc_chip_11cxx_lib/src/i2c_11xx.c **** 		return I2C_SLAVE_GENERAL;					/* General call address */
ARM GAS  /tmp/ccXTVNcx.s 			page 17


 515              		.loc 1 155 0
 516 0030 002B     		cmp	r3, #0	@ tmp163,
 517 0032 F4D0     		beq	.L46	@,
 518              	.LBB83:
 519              	.LBB84:
 148:../lpc11cx4-library/lpc_chip_11cxx_lib/src/i2c_11xx.c **** 	return (addr1 & ~mask) == (addr2 & ~mask);
 520              		.loc 1 148 0
 521 0034 0124     		mov	r4, #1	@ tmp164,
 522              	.LBE84:
 523              	.LBE83:
 158:../lpc11cx4-library/lpc_chip_11cxx_lib/src/i2c_11xx.c **** 		return I2C_SLAVE_0;
 524              		.loc 1 158 0
 525 0036 D368     		ldr	r3, [r2, #12]	@ D.6693, pI2C_4(D)->ADR0
 526 0038 106B     		ldr	r0, [r2, #48]	@ D.6693, pI2C_4(D)->MASK
 527              	.LVL32:
 528              	.LBB86:
 529              	.LBB85:
 149:../lpc11cx4-library/lpc_chip_11cxx_lib/src/i2c_11xx.c **** }
 530              		.loc 1 149 0
 531 003a 4B40     		eor	r3, r1	@ tmp171, D.6692
 532              	.LVL33:
 148:../lpc11cx4-library/lpc_chip_11cxx_lib/src/i2c_11xx.c **** 	return (addr1 & ~mask) == (addr2 & ~mask);
 533              		.loc 1 148 0
 534 003c 2043     		orr	r0, r4	@ tmp167, tmp164
 535              	.LVL34:
 149:../lpc11cx4-library/lpc_chip_11cxx_lib/src/i2c_11xx.c **** }
 536              		.loc 1 149 0
 537 003e C0B2     		uxtb	r0, r0	@ D.6694, tmp167
 538 0040 DBB2     		uxtb	r3, r3	@ D.6694, tmp171
 539 0042 8343     		bic	r3, r0	@ D.6694, D.6694
 540              	.LBE85:
 541              	.LBE86:
 159:../lpc11cx4-library/lpc_chip_11cxx_lib/src/i2c_11xx.c **** 	}
 542              		.loc 1 159 0
 543 0044 0120     		mov	r0, #1	@ D.6691,
 158:../lpc11cx4-library/lpc_chip_11cxx_lib/src/i2c_11xx.c **** 		return I2C_SLAVE_0;
 544              		.loc 1 158 0
 545 0046 002B     		cmp	r3, #0	@ D.6694,
 546 0048 E9D0     		beq	.L46	@,
 161:../lpc11cx4-library/lpc_chip_11cxx_lib/src/i2c_11xx.c **** 		return I2C_SLAVE_1;
 547              		.loc 1 161 0
 548 004a 136A     		ldr	r3, [r2, #32]	@ D.6693, pI2C_4(D)->ADR1
 549 004c 506B     		ldr	r0, [r2, #52]	@ D.6693, pI2C_4(D)->MASK
 550              	.LVL35:
 551              	.LBB87:
 552              	.LBB88:
 149:../lpc11cx4-library/lpc_chip_11cxx_lib/src/i2c_11xx.c **** }
 553              		.loc 1 149 0
 554 004e 4B40     		eor	r3, r1	@ tmp181, D.6692
 555              	.LVL36:
 148:../lpc11cx4-library/lpc_chip_11cxx_lib/src/i2c_11xx.c **** 	return (addr1 & ~mask) == (addr2 & ~mask);
 556              		.loc 1 148 0
 557 0050 2043     		orr	r0, r4	@ tmp177, tmp164
 558              	.LVL37:
 149:../lpc11cx4-library/lpc_chip_11cxx_lib/src/i2c_11xx.c **** }
 559              		.loc 1 149 0
 560 0052 C0B2     		uxtb	r0, r0	@ D.6694, tmp177
ARM GAS  /tmp/ccXTVNcx.s 			page 18


 561 0054 DBB2     		uxtb	r3, r3	@ D.6694, tmp181
 562 0056 8343     		bic	r3, r0	@ D.6694, D.6694
 563              	.LBE88:
 564              	.LBE87:
 162:../lpc11cx4-library/lpc_chip_11cxx_lib/src/i2c_11xx.c **** 	}
 565              		.loc 1 162 0
 566 0058 0220     		mov	r0, #2	@ D.6691,
 161:../lpc11cx4-library/lpc_chip_11cxx_lib/src/i2c_11xx.c **** 		return I2C_SLAVE_1;
 567              		.loc 1 161 0
 568 005a 002B     		cmp	r3, #0	@ D.6694,
 569 005c DFD0     		beq	.L46	@,
 164:../lpc11cx4-library/lpc_chip_11cxx_lib/src/i2c_11xx.c **** 		return I2C_SLAVE_2;
 570              		.loc 1 164 0
 571 005e 536A     		ldr	r3, [r2, #36]	@ D.6693, pI2C_4(D)->ADR2
 572 0060 906B     		ldr	r0, [r2, #56]	@ D.6693, pI2C_4(D)->MASK
 573              	.LVL38:
 574              	.LBB89:
 575              	.LBB90:
 149:../lpc11cx4-library/lpc_chip_11cxx_lib/src/i2c_11xx.c **** }
 576              		.loc 1 149 0
 577 0062 4B40     		eor	r3, r1	@ tmp191, D.6692
 578              	.LVL39:
 148:../lpc11cx4-library/lpc_chip_11cxx_lib/src/i2c_11xx.c **** 	return (addr1 & ~mask) == (addr2 & ~mask);
 579              		.loc 1 148 0
 580 0064 2043     		orr	r0, r4	@ tmp187, tmp164
 581              	.LVL40:
 149:../lpc11cx4-library/lpc_chip_11cxx_lib/src/i2c_11xx.c **** }
 582              		.loc 1 149 0
 583 0066 C0B2     		uxtb	r0, r0	@ D.6694, tmp187
 584 0068 DBB2     		uxtb	r3, r3	@ D.6694, tmp191
 585 006a 8343     		bic	r3, r0	@ D.6694, D.6694
 586              	.LBE90:
 587              	.LBE89:
 165:../lpc11cx4-library/lpc_chip_11cxx_lib/src/i2c_11xx.c **** 	}
 588              		.loc 1 165 0
 589 006c 0320     		mov	r0, #3	@ D.6691,
 164:../lpc11cx4-library/lpc_chip_11cxx_lib/src/i2c_11xx.c **** 		return I2C_SLAVE_2;
 590              		.loc 1 164 0
 591 006e 002B     		cmp	r3, #0	@ D.6694,
 592 0070 D5D0     		beq	.L46	@,
 167:../lpc11cx4-library/lpc_chip_11cxx_lib/src/i2c_11xx.c **** 		return I2C_SLAVE_3;
 593              		.loc 1 167 0
 594 0072 936A     		ldr	r3, [r2, #40]	@ D.6693, pI2C_4(D)->ADR3
 595 0074 D26B     		ldr	r2, [r2, #60]	@ D.6693, pI2C_4(D)->MASK
 596              	.LVL41:
 597              	.LBB91:
 598              	.LBB92:
 149:../lpc11cx4-library/lpc_chip_11cxx_lib/src/i2c_11xx.c **** }
 599              		.loc 1 149 0
 600 0076 5940     		eor	r1, r3	@ tmp201, D.6693
 601              	.LVL42:
 148:../lpc11cx4-library/lpc_chip_11cxx_lib/src/i2c_11xx.c **** 	return (addr1 & ~mask) == (addr2 & ~mask);
 602              		.loc 1 148 0
 603 0078 1443     		orr	r4, r2	@ tmp197, D.6693
 149:../lpc11cx4-library/lpc_chip_11cxx_lib/src/i2c_11xx.c **** }
 604              		.loc 1 149 0
 605 007a E4B2     		uxtb	r4, r4	@ D.6694, tmp197
ARM GAS  /tmp/ccXTVNcx.s 			page 19


 606 007c C8B2     		uxtb	r0, r1	@ D.6694, tmp201
 607 007e A043     		bic	r0, r4	@ D.6694, D.6694
 608              	.LBE92:
 609              	.LBE91:
 172:../lpc11cx4-library/lpc_chip_11cxx_lib/src/i2c_11xx.c **** }
 610              		.loc 1 172 0
 611 0080 4342     		neg	r3, r0	@ tmp206, D.6694
 612 0082 5841     		adc	r0, r0, r3	@ tmp205, D.6694, tmp206
 613              	.LVL43:
 614 0084 8000     		lsl	r0, r0, #2	@ D.6691, tmp205,
 615 0086 CAE7     		b	.L46	@
 616              	.LBE82:
 617              	.LBE81:
 618              	.LBE80:
 619              	.LBE79:
 620              		.cfi_endproc
 621              	.LFE210:
 622              		.size	getSlaveIndex, .-getSlaveIndex
 623              		.section	.text.handleSlaveXferState,"ax",%progbits
 624              		.align	2
 625              		.global	handleSlaveXferState
 626              		.code	16
 627              		.thumb_func
 628              		.type	handleSlaveXferState, %function
 629              	handleSlaveXferState:
 630              	.LFB211:
 263:../lpc11cx4-library/lpc_chip_11cxx_lib/src/i2c_11xx.c **** 	uint32_t cclr = I2C_CON_FLAGS;
 631              		.loc 1 263 0
 632              		.cfi_startproc
 633              	.LVL44:
 267:../lpc11cx4-library/lpc_chip_11cxx_lib/src/i2c_11xx.c **** 	switch (getCurState(pI2C)) {
 634              		.loc 1 267 0
 635 0000 0423     		mov	r3, #4	@ tmp140,
 263:../lpc11cx4-library/lpc_chip_11cxx_lib/src/i2c_11xx.c **** 	uint32_t cclr = I2C_CON_FLAGS;
 636              		.loc 1 263 0
 637 0002 021C     		mov	r2, r0	@ pI2C, pI2C
 267:../lpc11cx4-library/lpc_chip_11cxx_lib/src/i2c_11xx.c **** 	switch (getCurState(pI2C)) {
 638              		.loc 1 267 0
 639 0004 0B75     		strb	r3, [r1, #20]	@ tmp140, xfer_6(D)->status
 640              	.LVL45:
 641              	.LBB93:
 642              	.LBB94:
 122:../lpc11cx4-library/lpc_chip_11cxx_lib/src/i2c_11xx.c **** }
 643              		.loc 1 122 0
 644 0006 4368     		ldr	r3, [r0, #4]	@ D.6704, pI2C_8(D)->STAT
 645 0008 F820     		mov	r0, #248	@ tmp142,
 646              	.LVL46:
 647 000a 0340     		and	r3, r0	@ D.6706, tmp142
 648              	.LBE94:
 649              	.LBE93:
 268:../lpc11cx4-library/lpc_chip_11cxx_lib/src/i2c_11xx.c **** 	case 0x80:		/* SLA: Data received + ACK sent */
 650              		.loc 1 268 0
 651 000c 603B     		sub	r3, r3, #96	@ tmp144,
 652 000e 682B     		cmp	r3, #104	@ tmp144,
 653 0010 39D8     		bhi	.L88	@,
 654 0012 2548     		ldr	r0, .L91	@ tmp147,
 655 0014 9B00     		lsl	r3, r3, #2	@ tmp145, tmp144,
ARM GAS  /tmp/ccXTVNcx.s 			page 20


 656 0016 C358     		ldr	r3, [r0, r3]	@ tmp148,
 657 0018 9F46     		mov	pc, r3	@ tmp148
 658              		.section	.rodata.handleSlaveXferState,"a",%progbits
 659              		.align	2
 660              	.L81:
 661 0000 42000000 		.word	.L80
 662 0004 86000000 		.word	.L88
 663 0008 86000000 		.word	.L88
 664 000c 86000000 		.word	.L88
 665 0010 86000000 		.word	.L88
 666 0014 86000000 		.word	.L88
 667 0018 86000000 		.word	.L88
 668 001c 86000000 		.word	.L88
 669 0020 42000000 		.word	.L80
 670 0024 86000000 		.word	.L88
 671 0028 86000000 		.word	.L88
 672 002c 86000000 		.word	.L88
 673 0030 86000000 		.word	.L88
 674 0034 86000000 		.word	.L88
 675 0038 86000000 		.word	.L88
 676 003c 86000000 		.word	.L88
 677 0040 42000000 		.word	.L80
 678 0044 86000000 		.word	.L88
 679 0048 86000000 		.word	.L88
 680 004c 86000000 		.word	.L88
 681 0050 86000000 		.word	.L88
 682 0054 86000000 		.word	.L88
 683 0058 86000000 		.word	.L88
 684 005c 86000000 		.word	.L88
 685 0060 42000000 		.word	.L80
 686 0064 86000000 		.word	.L88
 687 0068 86000000 		.word	.L88
 688 006c 86000000 		.word	.L88
 689 0070 86000000 		.word	.L88
 690 0074 86000000 		.word	.L88
 691 0078 86000000 		.word	.L88
 692 007c 86000000 		.word	.L88
 693 0080 58000000 		.word	.L82
 694 0084 86000000 		.word	.L88
 695 0088 86000000 		.word	.L88
 696 008c 86000000 		.word	.L88
 697 0090 86000000 		.word	.L88
 698 0094 86000000 		.word	.L88
 699 0098 86000000 		.word	.L88
 700 009c 86000000 		.word	.L88
 701 00a0 74000000 		.word	.L83
 702 00a4 86000000 		.word	.L88
 703 00a8 86000000 		.word	.L88
 704 00ac 86000000 		.word	.L88
 705 00b0 86000000 		.word	.L88
 706 00b4 86000000 		.word	.L88
 707 00b8 86000000 		.word	.L88
 708 00bc 86000000 		.word	.L88
 709 00c0 58000000 		.word	.L82
 710 00c4 86000000 		.word	.L88
 711 00c8 86000000 		.word	.L88
 712 00cc 86000000 		.word	.L88
ARM GAS  /tmp/ccXTVNcx.s 			page 21


 713 00d0 86000000 		.word	.L88
 714 00d4 86000000 		.word	.L88
 715 00d8 86000000 		.word	.L88
 716 00dc 86000000 		.word	.L88
 717 00e0 74000000 		.word	.L83
 718 00e4 86000000 		.word	.L88
 719 00e8 86000000 		.word	.L88
 720 00ec 86000000 		.word	.L88
 721 00f0 86000000 		.word	.L88
 722 00f4 86000000 		.word	.L88
 723 00f8 86000000 		.word	.L88
 724 00fc 86000000 		.word	.L88
 725 0100 74000000 		.word	.L83
 726 0104 86000000 		.word	.L88
 727 0108 86000000 		.word	.L88
 728 010c 86000000 		.word	.L88
 729 0110 86000000 		.word	.L88
 730 0114 86000000 		.word	.L88
 731 0118 86000000 		.word	.L88
 732 011c 86000000 		.word	.L88
 733 0120 1A000000 		.word	.L84
 734 0124 86000000 		.word	.L88
 735 0128 86000000 		.word	.L88
 736 012c 86000000 		.word	.L88
 737 0130 86000000 		.word	.L88
 738 0134 86000000 		.word	.L88
 739 0138 86000000 		.word	.L88
 740 013c 86000000 		.word	.L88
 741 0140 1A000000 		.word	.L84
 742 0144 86000000 		.word	.L88
 743 0148 86000000 		.word	.L88
 744 014c 86000000 		.word	.L88
 745 0150 86000000 		.word	.L88
 746 0154 86000000 		.word	.L88
 747 0158 86000000 		.word	.L88
 748 015c 86000000 		.word	.L88
 749 0160 22000000 		.word	.L85
 750 0164 86000000 		.word	.L88
 751 0168 86000000 		.word	.L88
 752 016c 86000000 		.word	.L88
 753 0170 86000000 		.word	.L88
 754 0174 86000000 		.word	.L88
 755 0178 86000000 		.word	.L88
 756 017c 86000000 		.word	.L88
 757 0180 74000000 		.word	.L83
 758 0184 86000000 		.word	.L88
 759 0188 86000000 		.word	.L88
 760 018c 86000000 		.word	.L88
 761 0190 86000000 		.word	.L88
 762 0194 86000000 		.word	.L88
 763 0198 86000000 		.word	.L88
 764 019c 86000000 		.word	.L88
 765 01a0 74000000 		.word	.L83
 766              		.section	.text.handleSlaveXferState
 767              	.L84:
 291:../lpc11cx4-library/lpc_chip_11cxx_lib/src/i2c_11xx.c **** 
 768              		.loc 1 291 0
ARM GAS  /tmp/ccXTVNcx.s 			page 22


 769 001a 0120     		mov	r0, #1	@ tmp159,
 770 001c 9368     		ldr	r3, [r2, #8]	@ D.6704, pI2C_8(D)->DAT
 771 001e 8343     		bic	r3, r0	@ tmp158, tmp159
 772 0020 0B70     		strb	r3, [r1]	@ tmp158, xfer_6(D)->slaveAddr
 773              	.L85:
 294:../lpc11cx4-library/lpc_chip_11cxx_lib/src/i2c_11xx.c **** 		xfer->txSz--;
 774              		.loc 1 294 0
 775 0022 4B68     		ldr	r3, [r1, #4]	@ D.6707, xfer_6(D)->txBuff
 776 0024 581C     		add	r0, r3, #1	@ D.6707, D.6707,
 777 0026 4860     		str	r0, [r1, #4]	@ D.6707, xfer_6(D)->txBuff
 778 0028 1B78     		ldrb	r3, [r3]	@ D.6704, *_27
 779 002a 9360     		str	r3, [r2, #8]	@ D.6704, pI2C_8(D)->DAT
 295:../lpc11cx4-library/lpc_chip_11cxx_lib/src/i2c_11xx.c **** 		if (xfer->txSz > 0) {
 780              		.loc 1 295 0
 781 002c 8B68     		ldr	r3, [r1, #8]	@ tmp176, xfer_6(D)->txSz
 782 002e 013B     		sub	r3, r3, #1	@ D.6706,
 783 0030 8B60     		str	r3, [r1, #8]	@ D.6706, xfer_6(D)->txSz
 296:../lpc11cx4-library/lpc_chip_11cxx_lib/src/i2c_11xx.c **** 			cclr &= ~I2C_CON_AA;
 784              		.loc 1 296 0
 785 0032 002B     		cmp	r3, #0	@ D.6706,
 786 0034 2BDD     		ble	.L89	@,
 787 0036 0421     		mov	r1, #4	@ D.6704,
 788              	.LVL47:
 299:../lpc11cx4-library/lpc_chip_11cxx_lib/src/i2c_11xx.c **** 		break;
 789              		.loc 1 299 0
 790 0038 0620     		mov	r0, #6	@ ret,
 297:../lpc11cx4-library/lpc_chip_11cxx_lib/src/i2c_11xx.c **** 		}
 791              		.loc 1 297 0
 792 003a 3823     		mov	r3, #56	@ cclr,
 793              	.LVL48:
 794              	.L79:
 317:../lpc11cx4-library/lpc_chip_11cxx_lib/src/i2c_11xx.c **** 	pI2C->CONCLR = cclr;
 795              		.loc 1 317 0
 796 003c 1160     		str	r1, [r2]	@ D.6704, pI2C_8(D)->CONSET
 321:../lpc11cx4-library/lpc_chip_11cxx_lib/src/i2c_11xx.c **** 
 797              		.loc 1 321 0
 798              		@ sp needed	@
 318:../lpc11cx4-library/lpc_chip_11cxx_lib/src/i2c_11xx.c **** 
 799              		.loc 1 318 0
 800 003e 9361     		str	r3, [r2, #24]	@ cclr, pI2C_8(D)->CONCLR
 321:../lpc11cx4-library/lpc_chip_11cxx_lib/src/i2c_11xx.c **** 
 801              		.loc 1 321 0
 802 0040 7047     		bx	lr
 803              	.LVL49:
 804              	.L80:
 283:../lpc11cx4-library/lpc_chip_11cxx_lib/src/i2c_11xx.c **** 		if (xfer->rxSz > 1) {
 805              		.loc 1 283 0
 806 0042 0120     		mov	r0, #1	@ tmp154,
 807 0044 9368     		ldr	r3, [r2, #8]	@ D.6704, pI2C_8(D)->DAT
 808 0046 8343     		bic	r3, r0	@ tmp153, tmp154
 809 0048 0B70     		strb	r3, [r1]	@ tmp153, xfer_6(D)->slaveAddr
 284:../lpc11cx4-library/lpc_chip_11cxx_lib/src/i2c_11xx.c **** 			cclr &= ~I2C_CON_AA;
 810              		.loc 1 284 0
 811 004a 0B69     		ldr	r3, [r1, #16]	@ xfer_6(D)->rxSz, xfer_6(D)->rxSz
 812 004c 012B     		cmp	r3, #1	@ xfer_6(D)->rxSz,
 813 004e 1ADD     		ble	.L88	@,
 814 0050 0421     		mov	r1, #4	@ D.6704,
ARM GAS  /tmp/ccXTVNcx.s 			page 23


 815              	.LVL50:
 265:../lpc11cx4-library/lpc_chip_11cxx_lib/src/i2c_11xx.c **** 
 816              		.loc 1 265 0
 817 0052 0020     		mov	r0, #0	@ ret,
 285:../lpc11cx4-library/lpc_chip_11cxx_lib/src/i2c_11xx.c **** 		}
 818              		.loc 1 285 0
 819 0054 3823     		mov	r3, #56	@ cclr,
 820 0056 F1E7     		b	.L79	@
 821              	.LVL51:
 822              	.L82:
 271:../lpc11cx4-library/lpc_chip_11cxx_lib/src/i2c_11xx.c **** 		xfer->rxSz--;
 823              		.loc 1 271 0
 824 0058 CB68     		ldr	r3, [r1, #12]	@ D.6703, xfer_6(D)->rxBuff
 825 005a 581C     		add	r0, r3, #1	@ D.6703, D.6703,
 826 005c C860     		str	r0, [r1, #12]	@ D.6703, xfer_6(D)->rxBuff
 827 005e 9068     		ldr	r0, [r2, #8]	@ D.6704, pI2C_8(D)->DAT
 828 0060 1870     		strb	r0, [r3]	@ D.6704, *_9
 272:../lpc11cx4-library/lpc_chip_11cxx_lib/src/i2c_11xx.c **** 		ret = RET_SLAVE_RX;
 829              		.loc 1 272 0
 830 0062 0B69     		ldr	r3, [r1, #16]	@ tmp175, xfer_6(D)->rxSz
 831 0064 013B     		sub	r3, r3, #1	@ D.6706,
 832 0066 0B61     		str	r3, [r1, #16]	@ D.6706, xfer_6(D)->rxSz
 833              	.LVL52:
 274:../lpc11cx4-library/lpc_chip_11cxx_lib/src/i2c_11xx.c **** 			cclr &= ~I2C_CON_AA;
 834              		.loc 1 274 0
 835 0068 012B     		cmp	r3, #1	@ D.6706,
 836 006a 18DD     		ble	.L87	@,
 837 006c 0421     		mov	r1, #4	@ D.6704,
 838              	.LVL53:
 273:../lpc11cx4-library/lpc_chip_11cxx_lib/src/i2c_11xx.c **** 		if (xfer->rxSz > 1) {
 839              		.loc 1 273 0
 840 006e 0520     		mov	r0, #5	@ ret,
 275:../lpc11cx4-library/lpc_chip_11cxx_lib/src/i2c_11xx.c **** 		}
 841              		.loc 1 275 0
 842 0070 3823     		mov	r3, #56	@ cclr,
 843 0072 E3E7     		b	.L79	@
 844              	.LVL54:
 845              	.L83:
 309:../lpc11cx4-library/lpc_chip_11cxx_lib/src/i2c_11xx.c **** 		if (xfer->slaveAddr & 1) {
 846              		.loc 1 309 0
 847 0074 0023     		mov	r3, #0	@ tmp163,
 848 0076 0B75     		strb	r3, [r1, #20]	@ tmp163, xfer_6(D)->status
 310:../lpc11cx4-library/lpc_chip_11cxx_lib/src/i2c_11xx.c **** 			cclr &= ~I2C_CON_STA;
 849              		.loc 1 310 0
 850 0078 0B78     		ldrb	r3, [r1]	@ *xfer_6(D), *xfer_6(D)
 851 007a DB07     		lsl	r3, r3, #31	@ tmp174, *xfer_6(D),
 852 007c 0BD5     		bpl	.L90	@,
 853 007e 2421     		mov	r1, #36	@ D.6704,
 854              	.LVL55:
 307:../lpc11cx4-library/lpc_chip_11cxx_lib/src/i2c_11xx.c **** 		cclr &= ~I2C_CON_AA;
 855              		.loc 1 307 0
 856 0080 0220     		mov	r0, #2	@ ret,
 311:../lpc11cx4-library/lpc_chip_11cxx_lib/src/i2c_11xx.c **** 		}
 857              		.loc 1 311 0
 858 0082 1823     		mov	r3, #24	@ cclr,
 859 0084 DAE7     		b	.L79	@
 860              	.LVL56:
ARM GAS  /tmp/ccXTVNcx.s 			page 24


 861              	.L88:
 862 0086 0021     		mov	r1, #0	@ D.6704,
 863              	.LVL57:
 265:../lpc11cx4-library/lpc_chip_11cxx_lib/src/i2c_11xx.c **** 
 864              		.loc 1 265 0
 865 0088 0020     		mov	r0, #0	@ ret,
 264:../lpc11cx4-library/lpc_chip_11cxx_lib/src/i2c_11xx.c **** 	int ret = RET_SLAVE_BUSY;
 866              		.loc 1 264 0
 867 008a 3C23     		mov	r3, #60	@ cclr,
 868 008c D6E7     		b	.L79	@
 869              	.LVL58:
 870              	.L89:
 871 008e 0021     		mov	r1, #0	@ D.6704,
 872              	.LVL59:
 299:../lpc11cx4-library/lpc_chip_11cxx_lib/src/i2c_11xx.c **** 		break;
 873              		.loc 1 299 0
 874 0090 0620     		mov	r0, #6	@ ret,
 264:../lpc11cx4-library/lpc_chip_11cxx_lib/src/i2c_11xx.c **** 	int ret = RET_SLAVE_BUSY;
 875              		.loc 1 264 0
 876 0092 3C23     		mov	r3, #60	@ cclr,
 877 0094 D2E7     		b	.L79	@
 878              	.LVL60:
 879              	.L90:
 880 0096 0421     		mov	r1, #4	@ D.6704,
 881              	.LVL61:
 307:../lpc11cx4-library/lpc_chip_11cxx_lib/src/i2c_11xx.c **** 		cclr &= ~I2C_CON_AA;
 882              		.loc 1 307 0
 883 0098 0220     		mov	r0, #2	@ ret,
 308:../lpc11cx4-library/lpc_chip_11cxx_lib/src/i2c_11xx.c **** 		xfer->status = I2C_STATUS_DONE;
 884              		.loc 1 308 0
 885 009a 3823     		mov	r3, #56	@ cclr,
 886 009c CEE7     		b	.L79	@
 887              	.LVL62:
 888              	.L87:
 889 009e 0021     		mov	r1, #0	@ D.6704,
 890              	.LVL63:
 273:../lpc11cx4-library/lpc_chip_11cxx_lib/src/i2c_11xx.c **** 		if (xfer->rxSz > 1) {
 891              		.loc 1 273 0
 892 00a0 0520     		mov	r0, #5	@ ret,
 264:../lpc11cx4-library/lpc_chip_11cxx_lib/src/i2c_11xx.c **** 	int ret = RET_SLAVE_BUSY;
 893              		.loc 1 264 0
 894 00a2 3C23     		mov	r3, #60	@ cclr,
 895 00a4 CAE7     		b	.L79	@
 896              	.L92:
 897 00a6 C046     		.align	2
 898              	.L91:
 899 00a8 00000000 		.word	.L81
 900              		.cfi_endproc
 901              	.LFE211:
 902              		.size	handleSlaveXferState, .-handleSlaveXferState
 903              		.section	.text.Chip_I2C_Init,"ax",%progbits
 904              		.align	2
 905              		.global	Chip_I2C_Init
 906              		.code	16
 907              		.thumb_func
 908              		.type	Chip_I2C_Init, %function
 909              	Chip_I2C_Init:
ARM GAS  /tmp/ccXTVNcx.s 			page 25


 910              	.LFB214:
 342:../lpc11cx4-library/lpc_chip_11cxx_lib/src/i2c_11xx.c **** 
 343:../lpc11cx4-library/lpc_chip_11cxx_lib/src/i2c_11xx.c **** /* Chip polling event handler */
 344:../lpc11cx4-library/lpc_chip_11cxx_lib/src/i2c_11xx.c **** void Chip_I2C_EventHandlerPolling(I2C_ID_T id, I2C_EVENT_T event)
 345:../lpc11cx4-library/lpc_chip_11cxx_lib/src/i2c_11xx.c **** {
 346:../lpc11cx4-library/lpc_chip_11cxx_lib/src/i2c_11xx.c **** 	struct i2c_interface *iic = &i2c[id];
 347:../lpc11cx4-library/lpc_chip_11cxx_lib/src/i2c_11xx.c **** 	volatile I2C_STATUS_T *stat;
 348:../lpc11cx4-library/lpc_chip_11cxx_lib/src/i2c_11xx.c **** 
 349:../lpc11cx4-library/lpc_chip_11cxx_lib/src/i2c_11xx.c **** 	/* Only WAIT event needs to be handled */
 350:../lpc11cx4-library/lpc_chip_11cxx_lib/src/i2c_11xx.c **** 	if (event != I2C_EVENT_WAIT) {
 351:../lpc11cx4-library/lpc_chip_11cxx_lib/src/i2c_11xx.c **** 		return;
 352:../lpc11cx4-library/lpc_chip_11cxx_lib/src/i2c_11xx.c **** 	}
 353:../lpc11cx4-library/lpc_chip_11cxx_lib/src/i2c_11xx.c **** 
 354:../lpc11cx4-library/lpc_chip_11cxx_lib/src/i2c_11xx.c **** 	stat = &iic->mXfer->status;
 355:../lpc11cx4-library/lpc_chip_11cxx_lib/src/i2c_11xx.c **** 	/* Call the state change handler till xfer is done */
 356:../lpc11cx4-library/lpc_chip_11cxx_lib/src/i2c_11xx.c **** 	while (*stat == I2C_STATUS_BUSY) {
 357:../lpc11cx4-library/lpc_chip_11cxx_lib/src/i2c_11xx.c **** 		if (Chip_I2C_IsStateChanged(id)) {
 358:../lpc11cx4-library/lpc_chip_11cxx_lib/src/i2c_11xx.c **** 			Chip_I2C_MasterStateHandler(id);
 359:../lpc11cx4-library/lpc_chip_11cxx_lib/src/i2c_11xx.c **** 		}
 360:../lpc11cx4-library/lpc_chip_11cxx_lib/src/i2c_11xx.c **** 	}
 361:../lpc11cx4-library/lpc_chip_11cxx_lib/src/i2c_11xx.c **** }
 362:../lpc11cx4-library/lpc_chip_11cxx_lib/src/i2c_11xx.c **** 
 363:../lpc11cx4-library/lpc_chip_11cxx_lib/src/i2c_11xx.c **** /* Initializes the LPC_I2C peripheral with specified parameter */
 364:../lpc11cx4-library/lpc_chip_11cxx_lib/src/i2c_11xx.c **** void Chip_I2C_Init(I2C_ID_T id)
 365:../lpc11cx4-library/lpc_chip_11cxx_lib/src/i2c_11xx.c **** {
 911              		.loc 1 365 0
 912              		.cfi_startproc
 913              	.LVL64:
 914 0000 70B5     		push	{r4, r5, r6, lr}	@
 915              		.cfi_def_cfa_offset 16
 916              		.cfi_offset 4, -16
 917              		.cfi_offset 5, -12
 918              		.cfi_offset 6, -8
 919              		.cfi_offset 14, -4
 920              	.LBB95:
 921              	.LBB96:
  79:../lpc11cx4-library/lpc_chip_11cxx_lib/src/i2c_11xx.c **** }
 922              		.loc 1 79 0
 923 0002 C300     		lsl	r3, r0, #3	@ tmp123, id,
 924 0004 0749     		ldr	r1, .L94	@ tmp121,
 925 0006 181A     		sub	r0, r3, r0	@ tmp124, tmp123, id
 926              	.LVL65:
 927 0008 8000     		lsl	r0, r0, #2	@ tmp125, tmp124,
 928 000a 0B18     		add	r3, r1, r0	@ tmp126, tmp121, tmp125
 929              	.LBB97:
 930              	.LBB98:
 931              		.file 2 "../lpc11cx4-library/lpc_chip_11cxx_lib/inc/clock_11xx.h"
   1:../lpc11cx4-library/lpc_chip_11cxx_lib/inc/clock_11xx.h **** /*
   2:../lpc11cx4-library/lpc_chip_11cxx_lib/inc/clock_11xx.h ****  * @brief LPC11XX Clock control functions
   3:../lpc11cx4-library/lpc_chip_11cxx_lib/inc/clock_11xx.h ****  *
   4:../lpc11cx4-library/lpc_chip_11cxx_lib/inc/clock_11xx.h ****  * @note
   5:../lpc11cx4-library/lpc_chip_11cxx_lib/inc/clock_11xx.h ****  * Copyright(C) NXP Semiconductors, 2012
   6:../lpc11cx4-library/lpc_chip_11cxx_lib/inc/clock_11xx.h ****  * All rights reserved.
   7:../lpc11cx4-library/lpc_chip_11cxx_lib/inc/clock_11xx.h ****  *
   8:../lpc11cx4-library/lpc_chip_11cxx_lib/inc/clock_11xx.h ****  * @par
   9:../lpc11cx4-library/lpc_chip_11cxx_lib/inc/clock_11xx.h ****  * Software that is described herein is for illustrative purposes only
  10:../lpc11cx4-library/lpc_chip_11cxx_lib/inc/clock_11xx.h ****  * which provides customers with programming information regarding the
ARM GAS  /tmp/ccXTVNcx.s 			page 26


  11:../lpc11cx4-library/lpc_chip_11cxx_lib/inc/clock_11xx.h ****  * LPC products.  This software is supplied "AS IS" without any warranties of
  12:../lpc11cx4-library/lpc_chip_11cxx_lib/inc/clock_11xx.h ****  * any kind, and NXP Semiconductors and its licensor disclaim any and
  13:../lpc11cx4-library/lpc_chip_11cxx_lib/inc/clock_11xx.h ****  * all warranties, express or implied, including all implied warranties of
  14:../lpc11cx4-library/lpc_chip_11cxx_lib/inc/clock_11xx.h ****  * merchantability, fitness for a particular purpose and non-infringement of
  15:../lpc11cx4-library/lpc_chip_11cxx_lib/inc/clock_11xx.h ****  * intellectual property rights.  NXP Semiconductors assumes no responsibility
  16:../lpc11cx4-library/lpc_chip_11cxx_lib/inc/clock_11xx.h ****  * or liability for the use of the software, conveys no license or rights under any
  17:../lpc11cx4-library/lpc_chip_11cxx_lib/inc/clock_11xx.h ****  * patent, copyright, mask work right, or any other intellectual property rights in
  18:../lpc11cx4-library/lpc_chip_11cxx_lib/inc/clock_11xx.h ****  * or to any products. NXP Semiconductors reserves the right to make changes
  19:../lpc11cx4-library/lpc_chip_11cxx_lib/inc/clock_11xx.h ****  * in the software without notification. NXP Semiconductors also makes no
  20:../lpc11cx4-library/lpc_chip_11cxx_lib/inc/clock_11xx.h ****  * representation or warranty that such application will be suitable for the
  21:../lpc11cx4-library/lpc_chip_11cxx_lib/inc/clock_11xx.h ****  * specified use without further testing or modification.
  22:../lpc11cx4-library/lpc_chip_11cxx_lib/inc/clock_11xx.h ****  *
  23:../lpc11cx4-library/lpc_chip_11cxx_lib/inc/clock_11xx.h ****  * @par
  24:../lpc11cx4-library/lpc_chip_11cxx_lib/inc/clock_11xx.h ****  * Permission to use, copy, modify, and distribute this software and its
  25:../lpc11cx4-library/lpc_chip_11cxx_lib/inc/clock_11xx.h ****  * documentation is hereby granted, under NXP Semiconductors' and its
  26:../lpc11cx4-library/lpc_chip_11cxx_lib/inc/clock_11xx.h ****  * licensor's relevant copyrights in the software, without fee, provided that it
  27:../lpc11cx4-library/lpc_chip_11cxx_lib/inc/clock_11xx.h ****  * is used in conjunction with NXP Semiconductors microcontrollers.  This
  28:../lpc11cx4-library/lpc_chip_11cxx_lib/inc/clock_11xx.h ****  * copyright, permission, and disclaimer notice must appear in all copies of
  29:../lpc11cx4-library/lpc_chip_11cxx_lib/inc/clock_11xx.h ****  * this code.
  30:../lpc11cx4-library/lpc_chip_11cxx_lib/inc/clock_11xx.h ****  */
  31:../lpc11cx4-library/lpc_chip_11cxx_lib/inc/clock_11xx.h **** 
  32:../lpc11cx4-library/lpc_chip_11cxx_lib/inc/clock_11xx.h **** #ifndef __CLOCK_11XX_H_
  33:../lpc11cx4-library/lpc_chip_11cxx_lib/inc/clock_11xx.h **** #define __CLOCK_11XX_H_
  34:../lpc11cx4-library/lpc_chip_11cxx_lib/inc/clock_11xx.h **** 
  35:../lpc11cx4-library/lpc_chip_11cxx_lib/inc/clock_11xx.h **** #ifdef __cplusplus
  36:../lpc11cx4-library/lpc_chip_11cxx_lib/inc/clock_11xx.h **** extern "C" {
  37:../lpc11cx4-library/lpc_chip_11cxx_lib/inc/clock_11xx.h **** #endif
  38:../lpc11cx4-library/lpc_chip_11cxx_lib/inc/clock_11xx.h **** 
  39:../lpc11cx4-library/lpc_chip_11cxx_lib/inc/clock_11xx.h **** /** @defgroup CLOCK_11XX CHIP: LPC11xx Clock Control block driver
  40:../lpc11cx4-library/lpc_chip_11cxx_lib/inc/clock_11xx.h ****  * @ingroup CHIP_11XX_Drivers
  41:../lpc11cx4-library/lpc_chip_11cxx_lib/inc/clock_11xx.h ****  * @{
  42:../lpc11cx4-library/lpc_chip_11cxx_lib/inc/clock_11xx.h ****  */
  43:../lpc11cx4-library/lpc_chip_11cxx_lib/inc/clock_11xx.h **** 
  44:../lpc11cx4-library/lpc_chip_11cxx_lib/inc/clock_11xx.h **** /** Internal oscillator frequency */
  45:../lpc11cx4-library/lpc_chip_11cxx_lib/inc/clock_11xx.h **** #define SYSCTL_IRC_FREQ (12000000)
  46:../lpc11cx4-library/lpc_chip_11cxx_lib/inc/clock_11xx.h **** 
  47:../lpc11cx4-library/lpc_chip_11cxx_lib/inc/clock_11xx.h **** /**
  48:../lpc11cx4-library/lpc_chip_11cxx_lib/inc/clock_11xx.h ****  * @brief	Set System PLL divider values
  49:../lpc11cx4-library/lpc_chip_11cxx_lib/inc/clock_11xx.h ****  * @param	msel    : PLL feedback divider value. M = msel + 1.
  50:../lpc11cx4-library/lpc_chip_11cxx_lib/inc/clock_11xx.h ****  * @param	psel    : PLL post divider value. P =  (1<<psel).
  51:../lpc11cx4-library/lpc_chip_11cxx_lib/inc/clock_11xx.h ****  * @return	Nothing
  52:../lpc11cx4-library/lpc_chip_11cxx_lib/inc/clock_11xx.h ****  * @note	See the user manual for how to setup the PLL.
  53:../lpc11cx4-library/lpc_chip_11cxx_lib/inc/clock_11xx.h ****  */
  54:../lpc11cx4-library/lpc_chip_11cxx_lib/inc/clock_11xx.h **** STATIC INLINE void Chip_Clock_SetupSystemPLL(uint8_t msel, uint8_t psel)
  55:../lpc11cx4-library/lpc_chip_11cxx_lib/inc/clock_11xx.h **** {
  56:../lpc11cx4-library/lpc_chip_11cxx_lib/inc/clock_11xx.h **** 	LPC_SYSCTL->SYSPLLCTRL = (msel & 0x1F) | ((psel & 0x3) << 5);
  57:../lpc11cx4-library/lpc_chip_11cxx_lib/inc/clock_11xx.h **** }
  58:../lpc11cx4-library/lpc_chip_11cxx_lib/inc/clock_11xx.h **** 
  59:../lpc11cx4-library/lpc_chip_11cxx_lib/inc/clock_11xx.h **** /**
  60:../lpc11cx4-library/lpc_chip_11cxx_lib/inc/clock_11xx.h ****  * @brief	Read System PLL lock status
  61:../lpc11cx4-library/lpc_chip_11cxx_lib/inc/clock_11xx.h ****  * @return	true of the PLL is locked. false if not locked
  62:../lpc11cx4-library/lpc_chip_11cxx_lib/inc/clock_11xx.h ****  */
  63:../lpc11cx4-library/lpc_chip_11cxx_lib/inc/clock_11xx.h **** STATIC INLINE bool Chip_Clock_IsSystemPLLLocked(void)
  64:../lpc11cx4-library/lpc_chip_11cxx_lib/inc/clock_11xx.h **** {
  65:../lpc11cx4-library/lpc_chip_11cxx_lib/inc/clock_11xx.h **** 	return (bool) ((LPC_SYSCTL->SYSPLLSTAT & 1) != 0);
  66:../lpc11cx4-library/lpc_chip_11cxx_lib/inc/clock_11xx.h **** }
  67:../lpc11cx4-library/lpc_chip_11cxx_lib/inc/clock_11xx.h **** 
ARM GAS  /tmp/ccXTVNcx.s 			page 27


  68:../lpc11cx4-library/lpc_chip_11cxx_lib/inc/clock_11xx.h **** /**
  69:../lpc11cx4-library/lpc_chip_11cxx_lib/inc/clock_11xx.h ****  * Clock sources for system and USB PLLs
  70:../lpc11cx4-library/lpc_chip_11cxx_lib/inc/clock_11xx.h ****  */
  71:../lpc11cx4-library/lpc_chip_11cxx_lib/inc/clock_11xx.h **** typedef enum CHIP_SYSCTL_PLLCLKSRC {
  72:../lpc11cx4-library/lpc_chip_11cxx_lib/inc/clock_11xx.h **** 	SYSCTL_PLLCLKSRC_IRC = 0,		/*!< Internal oscillator in */
  73:../lpc11cx4-library/lpc_chip_11cxx_lib/inc/clock_11xx.h **** 	SYSCTL_PLLCLKSRC_MAINOSC,		/*!< Crystal (main) oscillator in */
  74:../lpc11cx4-library/lpc_chip_11cxx_lib/inc/clock_11xx.h **** #if defined(CHIP_LPC11AXX)
  75:../lpc11cx4-library/lpc_chip_11cxx_lib/inc/clock_11xx.h **** 	SYSCTL_PLLCLKSRC_EXT_CLKIN,	/*!< External clock in (11Axx only) */
  76:../lpc11cx4-library/lpc_chip_11cxx_lib/inc/clock_11xx.h **** #else
  77:../lpc11cx4-library/lpc_chip_11cxx_lib/inc/clock_11xx.h **** 	SYSCTL_PLLCLKSRC_RESERVED1,	/*!< Reserved */
  78:../lpc11cx4-library/lpc_chip_11cxx_lib/inc/clock_11xx.h **** #endif
  79:../lpc11cx4-library/lpc_chip_11cxx_lib/inc/clock_11xx.h **** 	SYSCTL_PLLCLKSRC_RESERVED2,	/*!< Reserved */
  80:../lpc11cx4-library/lpc_chip_11cxx_lib/inc/clock_11xx.h **** } CHIP_SYSCTL_PLLCLKSRC_T;
  81:../lpc11cx4-library/lpc_chip_11cxx_lib/inc/clock_11xx.h **** 
  82:../lpc11cx4-library/lpc_chip_11cxx_lib/inc/clock_11xx.h **** /**
  83:../lpc11cx4-library/lpc_chip_11cxx_lib/inc/clock_11xx.h ****  * @brief	Set System PLL clock source
  84:../lpc11cx4-library/lpc_chip_11cxx_lib/inc/clock_11xx.h ****  * @param	src	: Clock source for system PLL
  85:../lpc11cx4-library/lpc_chip_11cxx_lib/inc/clock_11xx.h ****  * @return	Nothing
  86:../lpc11cx4-library/lpc_chip_11cxx_lib/inc/clock_11xx.h ****  * @note	This function will also toggle the clock source update register
  87:../lpc11cx4-library/lpc_chip_11cxx_lib/inc/clock_11xx.h ****  * to update the clock source.
  88:../lpc11cx4-library/lpc_chip_11cxx_lib/inc/clock_11xx.h ****  */
  89:../lpc11cx4-library/lpc_chip_11cxx_lib/inc/clock_11xx.h **** void Chip_Clock_SetSystemPLLSource(CHIP_SYSCTL_PLLCLKSRC_T src);
  90:../lpc11cx4-library/lpc_chip_11cxx_lib/inc/clock_11xx.h **** 
  91:../lpc11cx4-library/lpc_chip_11cxx_lib/inc/clock_11xx.h **** #if defined(CHIP_LPC11UXX)
  92:../lpc11cx4-library/lpc_chip_11cxx_lib/inc/clock_11xx.h **** /**
  93:../lpc11cx4-library/lpc_chip_11cxx_lib/inc/clock_11xx.h ****  * @brief	Set USB PLL divider values
  94:../lpc11cx4-library/lpc_chip_11cxx_lib/inc/clock_11xx.h ****  * @param	msel    : PLL feedback divider value. M = msel + 1.
  95:../lpc11cx4-library/lpc_chip_11cxx_lib/inc/clock_11xx.h ****  * @param	psel    : PLL post divider value. P = (1<<psel).
  96:../lpc11cx4-library/lpc_chip_11cxx_lib/inc/clock_11xx.h ****  * @return	Nothing
  97:../lpc11cx4-library/lpc_chip_11cxx_lib/inc/clock_11xx.h ****  * @note	See the user manual for how to setup the PLL.
  98:../lpc11cx4-library/lpc_chip_11cxx_lib/inc/clock_11xx.h ****  */
  99:../lpc11cx4-library/lpc_chip_11cxx_lib/inc/clock_11xx.h **** STATIC INLINE void Chip_Clock_SetupUSBPLL(uint8_t msel, uint8_t psel)
 100:../lpc11cx4-library/lpc_chip_11cxx_lib/inc/clock_11xx.h **** {
 101:../lpc11cx4-library/lpc_chip_11cxx_lib/inc/clock_11xx.h **** 	LPC_SYSCTL->USBPLLCTRL = (msel & 0x1F) | ((psel & 0x3) << 5);
 102:../lpc11cx4-library/lpc_chip_11cxx_lib/inc/clock_11xx.h **** }
 103:../lpc11cx4-library/lpc_chip_11cxx_lib/inc/clock_11xx.h **** 
 104:../lpc11cx4-library/lpc_chip_11cxx_lib/inc/clock_11xx.h **** /**
 105:../lpc11cx4-library/lpc_chip_11cxx_lib/inc/clock_11xx.h ****  * @brief	Read USB PLL lock status
 106:../lpc11cx4-library/lpc_chip_11cxx_lib/inc/clock_11xx.h ****  * @return	true of the PLL is locked. false if not locked
 107:../lpc11cx4-library/lpc_chip_11cxx_lib/inc/clock_11xx.h ****  */
 108:../lpc11cx4-library/lpc_chip_11cxx_lib/inc/clock_11xx.h **** STATIC INLINE bool Chip_Clock_IsUSBPLLLocked(void)
 109:../lpc11cx4-library/lpc_chip_11cxx_lib/inc/clock_11xx.h **** {
 110:../lpc11cx4-library/lpc_chip_11cxx_lib/inc/clock_11xx.h **** 	return (bool) ((LPC_SYSCTL->USBPLLSTAT & 1) != 0);
 111:../lpc11cx4-library/lpc_chip_11cxx_lib/inc/clock_11xx.h **** }
 112:../lpc11cx4-library/lpc_chip_11cxx_lib/inc/clock_11xx.h **** 
 113:../lpc11cx4-library/lpc_chip_11cxx_lib/inc/clock_11xx.h **** /**
 114:../lpc11cx4-library/lpc_chip_11cxx_lib/inc/clock_11xx.h ****  * @brief	Set USB PLL clock source
 115:../lpc11cx4-library/lpc_chip_11cxx_lib/inc/clock_11xx.h ****  * @param	src	: Clock source for USB PLL
 116:../lpc11cx4-library/lpc_chip_11cxx_lib/inc/clock_11xx.h ****  * @return	Nothing
 117:../lpc11cx4-library/lpc_chip_11cxx_lib/inc/clock_11xx.h ****  * @note	This function will also toggle the clock source update register
 118:../lpc11cx4-library/lpc_chip_11cxx_lib/inc/clock_11xx.h ****  * to update the clock source.
 119:../lpc11cx4-library/lpc_chip_11cxx_lib/inc/clock_11xx.h ****  */
 120:../lpc11cx4-library/lpc_chip_11cxx_lib/inc/clock_11xx.h **** void Chip_Clock_SetUSBPLLSource(CHIP_SYSCTL_PLLCLKSRC_T src);
 121:../lpc11cx4-library/lpc_chip_11cxx_lib/inc/clock_11xx.h **** 
 122:../lpc11cx4-library/lpc_chip_11cxx_lib/inc/clock_11xx.h **** #endif /*defined(CHIP_LPC11UXX)*/
 123:../lpc11cx4-library/lpc_chip_11cxx_lib/inc/clock_11xx.h **** 
 124:../lpc11cx4-library/lpc_chip_11cxx_lib/inc/clock_11xx.h **** /**
ARM GAS  /tmp/ccXTVNcx.s 			page 28


 125:../lpc11cx4-library/lpc_chip_11cxx_lib/inc/clock_11xx.h ****  * @brief	Bypass System Oscillator and set oscillator frequency range
 126:../lpc11cx4-library/lpc_chip_11cxx_lib/inc/clock_11xx.h ****  * @param	bypass	: Flag to bypass oscillator
 127:../lpc11cx4-library/lpc_chip_11cxx_lib/inc/clock_11xx.h ****  * @param	highfr	: Flag to set oscillator range from 15-25 MHz
 128:../lpc11cx4-library/lpc_chip_11cxx_lib/inc/clock_11xx.h ****  * @return	Nothing
 129:../lpc11cx4-library/lpc_chip_11cxx_lib/inc/clock_11xx.h ****  * @note	Sets the PLL input to bypass the oscillator. This would be
 130:../lpc11cx4-library/lpc_chip_11cxx_lib/inc/clock_11xx.h ****  * used if an external clock that is not an oscillator is attached
 131:../lpc11cx4-library/lpc_chip_11cxx_lib/inc/clock_11xx.h ****  * to the XTALIN pin.
 132:../lpc11cx4-library/lpc_chip_11cxx_lib/inc/clock_11xx.h ****  */
 133:../lpc11cx4-library/lpc_chip_11cxx_lib/inc/clock_11xx.h **** void Chip_Clock_SetPLLBypass(bool bypass, bool highfr);
 134:../lpc11cx4-library/lpc_chip_11cxx_lib/inc/clock_11xx.h **** 
 135:../lpc11cx4-library/lpc_chip_11cxx_lib/inc/clock_11xx.h **** /**
 136:../lpc11cx4-library/lpc_chip_11cxx_lib/inc/clock_11xx.h ****  * Watchdog and low frequency oscillator frequencies plus or minus 40%
 137:../lpc11cx4-library/lpc_chip_11cxx_lib/inc/clock_11xx.h ****  */
 138:../lpc11cx4-library/lpc_chip_11cxx_lib/inc/clock_11xx.h **** typedef enum CHIP_WDTLFO_OSC {
 139:../lpc11cx4-library/lpc_chip_11cxx_lib/inc/clock_11xx.h **** 	WDTLFO_OSC_ILLEGAL,
 140:../lpc11cx4-library/lpc_chip_11cxx_lib/inc/clock_11xx.h **** 	WDTLFO_OSC_0_60,	/*!< 0.6 MHz watchdog/LFO rate */
 141:../lpc11cx4-library/lpc_chip_11cxx_lib/inc/clock_11xx.h **** 	WDTLFO_OSC_1_05,	/*!< 1.05 MHz watchdog/LFO rate */
 142:../lpc11cx4-library/lpc_chip_11cxx_lib/inc/clock_11xx.h **** 	WDTLFO_OSC_1_40,	/*!< 1.4 MHz watchdog/LFO rate */
 143:../lpc11cx4-library/lpc_chip_11cxx_lib/inc/clock_11xx.h **** 	WDTLFO_OSC_1_75,	/*!< 1.75 MHz watchdog/LFO rate */
 144:../lpc11cx4-library/lpc_chip_11cxx_lib/inc/clock_11xx.h **** 	WDTLFO_OSC_2_10,	/*!< 2.1 MHz watchdog/LFO rate */
 145:../lpc11cx4-library/lpc_chip_11cxx_lib/inc/clock_11xx.h **** 	WDTLFO_OSC_2_40,	/*!< 2.4 MHz watchdog/LFO rate */
 146:../lpc11cx4-library/lpc_chip_11cxx_lib/inc/clock_11xx.h **** 	WDTLFO_OSC_2_70,	/*!< 2.7 MHz watchdog/LFO rate */
 147:../lpc11cx4-library/lpc_chip_11cxx_lib/inc/clock_11xx.h **** 	WDTLFO_OSC_3_00,	/*!< 3.0 MHz watchdog/LFO rate */
 148:../lpc11cx4-library/lpc_chip_11cxx_lib/inc/clock_11xx.h **** 	WDTLFO_OSC_3_25,	/*!< 3.25 MHz watchdog/LFO rate */
 149:../lpc11cx4-library/lpc_chip_11cxx_lib/inc/clock_11xx.h **** 	WDTLFO_OSC_3_50,	/*!< 3.5 MHz watchdog/LFO rate */
 150:../lpc11cx4-library/lpc_chip_11cxx_lib/inc/clock_11xx.h **** 	WDTLFO_OSC_3_75,	/*!< 3.75 MHz watchdog/LFO rate */
 151:../lpc11cx4-library/lpc_chip_11cxx_lib/inc/clock_11xx.h **** 	WDTLFO_OSC_4_00,	/*!< 4.0 MHz watchdog/LFO rate */
 152:../lpc11cx4-library/lpc_chip_11cxx_lib/inc/clock_11xx.h **** 	WDTLFO_OSC_4_20,	/*!< 4.2 MHz watchdog/LFO rate */
 153:../lpc11cx4-library/lpc_chip_11cxx_lib/inc/clock_11xx.h **** 	WDTLFO_OSC_4_40,	/*!< 4.4 MHz watchdog/LFO rate */
 154:../lpc11cx4-library/lpc_chip_11cxx_lib/inc/clock_11xx.h **** 	WDTLFO_OSC_4_60		/*!< 4.6 MHz watchdog/LFO rate */
 155:../lpc11cx4-library/lpc_chip_11cxx_lib/inc/clock_11xx.h **** } CHIP_WDTLFO_OSC_T;
 156:../lpc11cx4-library/lpc_chip_11cxx_lib/inc/clock_11xx.h **** 
 157:../lpc11cx4-library/lpc_chip_11cxx_lib/inc/clock_11xx.h **** /**
 158:../lpc11cx4-library/lpc_chip_11cxx_lib/inc/clock_11xx.h ****  * @brief	Setup Watchdog oscillator rate and divider
 159:../lpc11cx4-library/lpc_chip_11cxx_lib/inc/clock_11xx.h ****  * @param	wdtclk	: Selected watchdog clock rate
 160:../lpc11cx4-library/lpc_chip_11cxx_lib/inc/clock_11xx.h ****  * @param	div		: Watchdog divider value, even value between 2 and 64
 161:../lpc11cx4-library/lpc_chip_11cxx_lib/inc/clock_11xx.h ****  * @return	Nothing
 162:../lpc11cx4-library/lpc_chip_11cxx_lib/inc/clock_11xx.h ****  * @note	Watchdog rate = selected rate divided by divider rate
 163:../lpc11cx4-library/lpc_chip_11cxx_lib/inc/clock_11xx.h ****  */
 164:../lpc11cx4-library/lpc_chip_11cxx_lib/inc/clock_11xx.h **** STATIC INLINE void Chip_Clock_SetWDTOSC(CHIP_WDTLFO_OSC_T wdtclk, uint8_t div)
 165:../lpc11cx4-library/lpc_chip_11cxx_lib/inc/clock_11xx.h **** {
 166:../lpc11cx4-library/lpc_chip_11cxx_lib/inc/clock_11xx.h **** 	LPC_SYSCTL->WDTOSCCTRL  = (((uint32_t) wdtclk) << 5) | ((div >> 1) - 1);
 167:../lpc11cx4-library/lpc_chip_11cxx_lib/inc/clock_11xx.h **** }
 168:../lpc11cx4-library/lpc_chip_11cxx_lib/inc/clock_11xx.h **** 
 169:../lpc11cx4-library/lpc_chip_11cxx_lib/inc/clock_11xx.h **** #if defined(CHIP_LPC11AXX)
 170:../lpc11cx4-library/lpc_chip_11cxx_lib/inc/clock_11xx.h **** /**
 171:../lpc11cx4-library/lpc_chip_11cxx_lib/inc/clock_11xx.h ****  * @brief	Setup low frequency oscillator rate and divider
 172:../lpc11cx4-library/lpc_chip_11cxx_lib/inc/clock_11xx.h ****  * @param	lfoclk	: Selected low frequency clock rate
 173:../lpc11cx4-library/lpc_chip_11cxx_lib/inc/clock_11xx.h ****  * @param	div		: Low frequency divider value, even value between 2 and 64
 174:../lpc11cx4-library/lpc_chip_11cxx_lib/inc/clock_11xx.h ****  * @return	Nothing
 175:../lpc11cx4-library/lpc_chip_11cxx_lib/inc/clock_11xx.h ****  * @note	Low frequency oscillator rate = selected rate divided by divider rate
 176:../lpc11cx4-library/lpc_chip_11cxx_lib/inc/clock_11xx.h ****  */
 177:../lpc11cx4-library/lpc_chip_11cxx_lib/inc/clock_11xx.h **** STATIC INLINE void Chip_Clock_SetLFOSC(CHIP_WDTLFO_OSC_T lfoclk, uint8_t div)
 178:../lpc11cx4-library/lpc_chip_11cxx_lib/inc/clock_11xx.h **** {
 179:../lpc11cx4-library/lpc_chip_11cxx_lib/inc/clock_11xx.h **** 	LPC_SYSCTL->LFOSCCTRL  = (((uint32_t) lfoclk) << 5) | ((div >> 1) - 1);
 180:../lpc11cx4-library/lpc_chip_11cxx_lib/inc/clock_11xx.h **** }
 181:../lpc11cx4-library/lpc_chip_11cxx_lib/inc/clock_11xx.h **** 
ARM GAS  /tmp/ccXTVNcx.s 			page 29


 182:../lpc11cx4-library/lpc_chip_11cxx_lib/inc/clock_11xx.h **** #endif /*CHIP_LPC11AXX*/
 183:../lpc11cx4-library/lpc_chip_11cxx_lib/inc/clock_11xx.h **** 
 184:../lpc11cx4-library/lpc_chip_11cxx_lib/inc/clock_11xx.h **** /**
 185:../lpc11cx4-library/lpc_chip_11cxx_lib/inc/clock_11xx.h ****  * Clock sources for main system clock
 186:../lpc11cx4-library/lpc_chip_11cxx_lib/inc/clock_11xx.h ****  */
 187:../lpc11cx4-library/lpc_chip_11cxx_lib/inc/clock_11xx.h **** typedef enum CHIP_SYSCTL_MAINCLKSRC {
 188:../lpc11cx4-library/lpc_chip_11cxx_lib/inc/clock_11xx.h **** 	SYSCTL_MAINCLKSRC_IRC = 0,		/*!< Internal oscillator */
 189:../lpc11cx4-library/lpc_chip_11cxx_lib/inc/clock_11xx.h **** 	SYSCTL_MAINCLKSRC_PLLIN,		/*!< System PLL input */
 190:../lpc11cx4-library/lpc_chip_11cxx_lib/inc/clock_11xx.h **** 	SYSCTL_MAINCLKSRC_LFOSC,		/*!< LF oscillator rate (11Axx only) */
 191:../lpc11cx4-library/lpc_chip_11cxx_lib/inc/clock_11xx.h **** 	SYSCTL_MAINCLKSRC_WDTOSC = SYSCTL_MAINCLKSRC_LFOSC,	/*!< Watchdog oscillator rate */
 192:../lpc11cx4-library/lpc_chip_11cxx_lib/inc/clock_11xx.h **** 	SYSCTL_MAINCLKSRC_PLLOUT,		/*!< System PLL output */
 193:../lpc11cx4-library/lpc_chip_11cxx_lib/inc/clock_11xx.h **** } CHIP_SYSCTL_MAINCLKSRC_T;
 194:../lpc11cx4-library/lpc_chip_11cxx_lib/inc/clock_11xx.h **** 
 195:../lpc11cx4-library/lpc_chip_11cxx_lib/inc/clock_11xx.h **** /**
 196:../lpc11cx4-library/lpc_chip_11cxx_lib/inc/clock_11xx.h ****  * @brief	Set main system clock source
 197:../lpc11cx4-library/lpc_chip_11cxx_lib/inc/clock_11xx.h ****  * @param	src	: Clock source for main system
 198:../lpc11cx4-library/lpc_chip_11cxx_lib/inc/clock_11xx.h ****  * @return	Nothing
 199:../lpc11cx4-library/lpc_chip_11cxx_lib/inc/clock_11xx.h ****  * @note	This function will also toggle the clock source update register
 200:../lpc11cx4-library/lpc_chip_11cxx_lib/inc/clock_11xx.h ****  * to update the clock source.
 201:../lpc11cx4-library/lpc_chip_11cxx_lib/inc/clock_11xx.h ****  */
 202:../lpc11cx4-library/lpc_chip_11cxx_lib/inc/clock_11xx.h **** void Chip_Clock_SetMainClockSource(CHIP_SYSCTL_MAINCLKSRC_T src);
 203:../lpc11cx4-library/lpc_chip_11cxx_lib/inc/clock_11xx.h **** 
 204:../lpc11cx4-library/lpc_chip_11cxx_lib/inc/clock_11xx.h **** /**
 205:../lpc11cx4-library/lpc_chip_11cxx_lib/inc/clock_11xx.h ****  * @brief   Returns the main clock source
 206:../lpc11cx4-library/lpc_chip_11cxx_lib/inc/clock_11xx.h ****  * @return	Which clock is used for the core clock source?
 207:../lpc11cx4-library/lpc_chip_11cxx_lib/inc/clock_11xx.h ****  */
 208:../lpc11cx4-library/lpc_chip_11cxx_lib/inc/clock_11xx.h **** STATIC INLINE CHIP_SYSCTL_MAINCLKSRC_T Chip_Clock_GetMainClockSource(void)
 209:../lpc11cx4-library/lpc_chip_11cxx_lib/inc/clock_11xx.h **** {
 210:../lpc11cx4-library/lpc_chip_11cxx_lib/inc/clock_11xx.h **** 	return (CHIP_SYSCTL_MAINCLKSRC_T) (LPC_SYSCTL->MAINCLKSEL);
 211:../lpc11cx4-library/lpc_chip_11cxx_lib/inc/clock_11xx.h **** }
 212:../lpc11cx4-library/lpc_chip_11cxx_lib/inc/clock_11xx.h **** 
 213:../lpc11cx4-library/lpc_chip_11cxx_lib/inc/clock_11xx.h **** /**
 214:../lpc11cx4-library/lpc_chip_11cxx_lib/inc/clock_11xx.h ****  * @brief	Set system clock divider
 215:../lpc11cx4-library/lpc_chip_11cxx_lib/inc/clock_11xx.h ****  * @param	div	: divider for system clock
 216:../lpc11cx4-library/lpc_chip_11cxx_lib/inc/clock_11xx.h ****  * @return	Nothing
 217:../lpc11cx4-library/lpc_chip_11cxx_lib/inc/clock_11xx.h ****  * @note	Use 0 to disable, or a divider value of 1 to 255. The system clock
 218:../lpc11cx4-library/lpc_chip_11cxx_lib/inc/clock_11xx.h ****  * rate is the main system clock divided by this value.
 219:../lpc11cx4-library/lpc_chip_11cxx_lib/inc/clock_11xx.h ****  */
 220:../lpc11cx4-library/lpc_chip_11cxx_lib/inc/clock_11xx.h **** STATIC INLINE void Chip_Clock_SetSysClockDiv(uint32_t div)
 221:../lpc11cx4-library/lpc_chip_11cxx_lib/inc/clock_11xx.h **** {
 222:../lpc11cx4-library/lpc_chip_11cxx_lib/inc/clock_11xx.h **** 	LPC_SYSCTL->SYSAHBCLKDIV  = div;
 223:../lpc11cx4-library/lpc_chip_11cxx_lib/inc/clock_11xx.h **** }
 224:../lpc11cx4-library/lpc_chip_11cxx_lib/inc/clock_11xx.h **** 
 225:../lpc11cx4-library/lpc_chip_11cxx_lib/inc/clock_11xx.h **** /**
 226:../lpc11cx4-library/lpc_chip_11cxx_lib/inc/clock_11xx.h ****  * System and peripheral clocks
 227:../lpc11cx4-library/lpc_chip_11cxx_lib/inc/clock_11xx.h ****  */
 228:../lpc11cx4-library/lpc_chip_11cxx_lib/inc/clock_11xx.h **** typedef enum CHIP_SYSCTL_CLOCK {
 229:../lpc11cx4-library/lpc_chip_11cxx_lib/inc/clock_11xx.h **** 	SYSCTL_CLOCK_SYS = 0,				/*!< 0: System clock */
 230:../lpc11cx4-library/lpc_chip_11cxx_lib/inc/clock_11xx.h **** 	SYSCTL_CLOCK_ROM,					/*!<1:  ROM clock */
 231:../lpc11cx4-library/lpc_chip_11cxx_lib/inc/clock_11xx.h **** 	SYSCTL_CLOCK_RAM,					/*!< 2: RAM clock */
 232:../lpc11cx4-library/lpc_chip_11cxx_lib/inc/clock_11xx.h **** 	SYSCTL_CLOCK_FLASHREG,				/*!< 3: FLASH register interface clock */
 233:../lpc11cx4-library/lpc_chip_11cxx_lib/inc/clock_11xx.h **** 	SYSCTL_CLOCK_FLASHARRAY,			/*!< 4: FLASH array access clock */
 234:../lpc11cx4-library/lpc_chip_11cxx_lib/inc/clock_11xx.h **** #if defined(CHIP_LPC110X)
 235:../lpc11cx4-library/lpc_chip_11cxx_lib/inc/clock_11xx.h **** 	SYSCTL_CLOCK_RESERVED5,				/*!< 5: Reserved */
 236:../lpc11cx4-library/lpc_chip_11cxx_lib/inc/clock_11xx.h **** #else
 237:../lpc11cx4-library/lpc_chip_11cxx_lib/inc/clock_11xx.h **** 	SYSCTL_CLOCK_I2C,					/*!< 5: I2C clock, not on LPC110x */
 238:../lpc11cx4-library/lpc_chip_11cxx_lib/inc/clock_11xx.h **** #endif
ARM GAS  /tmp/ccXTVNcx.s 			page 30


 239:../lpc11cx4-library/lpc_chip_11cxx_lib/inc/clock_11xx.h **** 	SYSCTL_CLOCK_GPIO,					/*!< 6: GPIO clock */
 240:../lpc11cx4-library/lpc_chip_11cxx_lib/inc/clock_11xx.h **** 	SYSCTL_CLOCK_CT16B0,				/*!< 7: 16-bit Counter/timer 0 clock */
 241:../lpc11cx4-library/lpc_chip_11cxx_lib/inc/clock_11xx.h **** 	SYSCTL_CLOCK_CT16B1,				/*!< 8: 16-bit Counter/timer 1 clock */
 242:../lpc11cx4-library/lpc_chip_11cxx_lib/inc/clock_11xx.h **** 	SYSCTL_CLOCK_CT32B0,				/*!< 9: 32-bit Counter/timer 0 clock */
 243:../lpc11cx4-library/lpc_chip_11cxx_lib/inc/clock_11xx.h **** 	SYSCTL_CLOCK_CT32B1,				/*!< 10: 32-bit Counter/timer 1 clock */
 244:../lpc11cx4-library/lpc_chip_11cxx_lib/inc/clock_11xx.h **** 	SYSCTL_CLOCK_SSP0,					/*!< 11: SSP0 clock */
 245:../lpc11cx4-library/lpc_chip_11cxx_lib/inc/clock_11xx.h **** 	SYSCTL_CLOCK_UART0,					/*!< 12: UART0 clock */
 246:../lpc11cx4-library/lpc_chip_11cxx_lib/inc/clock_11xx.h **** 	SYSCTL_CLOCK_ADC,					/*!< 13: ADC clock */
 247:../lpc11cx4-library/lpc_chip_11cxx_lib/inc/clock_11xx.h **** #if defined(CHIP_LPC11UXX)
 248:../lpc11cx4-library/lpc_chip_11cxx_lib/inc/clock_11xx.h **** 	SYSCTL_CLOCK_USB,					/*!< 14: USB clock, LPC11Uxx only */
 249:../lpc11cx4-library/lpc_chip_11cxx_lib/inc/clock_11xx.h **** #else
 250:../lpc11cx4-library/lpc_chip_11cxx_lib/inc/clock_11xx.h **** 	SYSCTL_CLOCK_RESERVED14,			/*!< 14: Reserved */
 251:../lpc11cx4-library/lpc_chip_11cxx_lib/inc/clock_11xx.h **** #endif
 252:../lpc11cx4-library/lpc_chip_11cxx_lib/inc/clock_11xx.h **** 	SYSCTL_CLOCK_WDT,					/*!< 15: Watchdog timer clock */
 253:../lpc11cx4-library/lpc_chip_11cxx_lib/inc/clock_11xx.h **** 	SYSCTL_CLOCK_IOCON,					/*!< 16: IOCON block clock */
 254:../lpc11cx4-library/lpc_chip_11cxx_lib/inc/clock_11xx.h **** #if defined(CHIP_LPC11CXX)
 255:../lpc11cx4-library/lpc_chip_11cxx_lib/inc/clock_11xx.h **** 	SYSCTL_CLOCK_CAN,					/*!< 17: CAN clock, LPC11Cxx only */
 256:../lpc11cx4-library/lpc_chip_11cxx_lib/inc/clock_11xx.h **** #else
 257:../lpc11cx4-library/lpc_chip_11cxx_lib/inc/clock_11xx.h **** 	SYSCTL_CLOCK_RESERVED17,			/*!< 17: Reserved */
 258:../lpc11cx4-library/lpc_chip_11cxx_lib/inc/clock_11xx.h **** #endif
 259:../lpc11cx4-library/lpc_chip_11cxx_lib/inc/clock_11xx.h **** #if !(defined(CHIP_LPC110X) || defined(CHIP_LPC11XXLV))  
 260:../lpc11cx4-library/lpc_chip_11cxx_lib/inc/clock_11xx.h **** 	SYSCTL_CLOCK_SSP1,					/*!< 18: SSP1 clock, LPC11A/C/E/Uxx//1125 only */
 261:../lpc11cx4-library/lpc_chip_11cxx_lib/inc/clock_11xx.h **** #if !defined(CHIP_LPC11CXX)
 262:../lpc11cx4-library/lpc_chip_11cxx_lib/inc/clock_11xx.h **** 	SYSCTL_CLOCK_PINT,					/*!< 19: GPIO Pin int register interface clock, LPC11A/E/Uxx only */
 263:../lpc11cx4-library/lpc_chip_11cxx_lib/inc/clock_11xx.h **** #if defined(CHIP_LPC11AXX)
 264:../lpc11cx4-library/lpc_chip_11cxx_lib/inc/clock_11xx.h **** 	SYSCTL_CLOCK_ACOMP,					/*!< 20: Analog comparator clock, LPC11Axx only */
 265:../lpc11cx4-library/lpc_chip_11cxx_lib/inc/clock_11xx.h **** 	SYSCTL_CLOCK_DAC,					/*!< 21: DAC clock, LPC11Axx only */
 266:../lpc11cx4-library/lpc_chip_11cxx_lib/inc/clock_11xx.h **** #else
 267:../lpc11cx4-library/lpc_chip_11cxx_lib/inc/clock_11xx.h **** 	SYSCTL_CLOCK_RESERVED20,			/*!< 20: Reserved */
 268:../lpc11cx4-library/lpc_chip_11cxx_lib/inc/clock_11xx.h **** 	SYSCTL_CLOCK_RESERVED21,			/*!< 21: Reserved */
 269:../lpc11cx4-library/lpc_chip_11cxx_lib/inc/clock_11xx.h **** #endif
 270:../lpc11cx4-library/lpc_chip_11cxx_lib/inc/clock_11xx.h **** 	SYSCTL_CLOCK_RESERVED22,			/*!< 22: Reserved */
 271:../lpc11cx4-library/lpc_chip_11cxx_lib/inc/clock_11xx.h **** 	SYSCTL_CLOCK_P0INT,					/*!< 23: GPIO GROUP1 interrupt register clock, LPC11Axx only */
 272:../lpc11cx4-library/lpc_chip_11cxx_lib/inc/clock_11xx.h **** 	SYSCTL_CLOCK_GROUP0INT = SYSCTL_CLOCK_P0INT,/*!< 23: GPIO GROUP0 interrupt register interface cloc
 273:../lpc11cx4-library/lpc_chip_11cxx_lib/inc/clock_11xx.h **** 	SYSCTL_CLOCK_P1INT,					/*!< 24: GPIO GROUP1 interrupt register clock, LPC11Axx only */
 274:../lpc11cx4-library/lpc_chip_11cxx_lib/inc/clock_11xx.h **** 	SYSCTL_CLOCK_GROUP1INT = SYSCTL_CLOCK_P1INT,/*!< 24: GPIO GROUP1 interrupt register interface cloc
 275:../lpc11cx4-library/lpc_chip_11cxx_lib/inc/clock_11xx.h **** 	SYSCTL_CLOCK_RESERVED25,			/*!< 25: Reserved */
 276:../lpc11cx4-library/lpc_chip_11cxx_lib/inc/clock_11xx.h **** #if defined(CHIP_LPC11EXX)  || defined(CHIP_LPC11UXX)
 277:../lpc11cx4-library/lpc_chip_11cxx_lib/inc/clock_11xx.h **** 	SYSCTL_CLOCK_RAM1,					/*!< 26: SRAM block (0x20000000) clock, LPC11E/Uxx only */
 278:../lpc11cx4-library/lpc_chip_11cxx_lib/inc/clock_11xx.h **** #else
 279:../lpc11cx4-library/lpc_chip_11cxx_lib/inc/clock_11xx.h **** 	SYSCTL_CLOCK_RESERVED26,			/*!< 26: Reserved */
 280:../lpc11cx4-library/lpc_chip_11cxx_lib/inc/clock_11xx.h **** #endif
 281:../lpc11cx4-library/lpc_chip_11cxx_lib/inc/clock_11xx.h **** #if defined(CHIP_LPC11UXX)
 282:../lpc11cx4-library/lpc_chip_11cxx_lib/inc/clock_11xx.h **** 	SYSCTL_CLOCK_USBRAM,				/*!< 27: USB SRAM block clock, LPC11Uxx only */
 283:../lpc11cx4-library/lpc_chip_11cxx_lib/inc/clock_11xx.h **** #else
 284:../lpc11cx4-library/lpc_chip_11cxx_lib/inc/clock_11xx.h **** 	SYSCTL_CLOCK_RESERVED27,			/*!< 27: Reserved */
 285:../lpc11cx4-library/lpc_chip_11cxx_lib/inc/clock_11xx.h **** #endif
 286:../lpc11cx4-library/lpc_chip_11cxx_lib/inc/clock_11xx.h **** #endif /* !defined(CHIP_LPC11CXX) */
 287:../lpc11cx4-library/lpc_chip_11cxx_lib/inc/clock_11xx.h **** #endif /* !(defined(CHIP_LPC110X) || defined(CHIP_LPC11XXLV)) */
 288:../lpc11cx4-library/lpc_chip_11cxx_lib/inc/clock_11xx.h **** } CHIP_SYSCTL_CLOCK_T;
 289:../lpc11cx4-library/lpc_chip_11cxx_lib/inc/clock_11xx.h **** 
 290:../lpc11cx4-library/lpc_chip_11cxx_lib/inc/clock_11xx.h **** /**
 291:../lpc11cx4-library/lpc_chip_11cxx_lib/inc/clock_11xx.h ****  * @brief	Enable a system or peripheral clock
 292:../lpc11cx4-library/lpc_chip_11cxx_lib/inc/clock_11xx.h ****  * @param	clk	: Clock to enable
 293:../lpc11cx4-library/lpc_chip_11cxx_lib/inc/clock_11xx.h ****  * @return	Nothing
 294:../lpc11cx4-library/lpc_chip_11cxx_lib/inc/clock_11xx.h ****  */
 295:../lpc11cx4-library/lpc_chip_11cxx_lib/inc/clock_11xx.h **** STATIC INLINE void Chip_Clock_EnablePeriphClock(CHIP_SYSCTL_CLOCK_T clk)
ARM GAS  /tmp/ccXTVNcx.s 			page 31


 296:../lpc11cx4-library/lpc_chip_11cxx_lib/inc/clock_11xx.h **** {
 297:../lpc11cx4-library/lpc_chip_11cxx_lib/inc/clock_11xx.h **** 	LPC_SYSCTL->SYSAHBCLKCTRL |= (1 << clk);
 932              		.loc 2 297 0
 933 000c 1E79     		ldrb	r6, [r3, #4]	@ D.6712,
 934 000e 0123     		mov	r3, #1	@ tmp129,
 935 0010 8024     		mov	r4, #128	@ tmp120,
 936 0012 B340     		lsl	r3, r3, r6	@ D.6712, tmp129, D.6712
 937 0014 044D     		ldr	r5, .L94+4	@ tmp119,
 938              	.LBE98:
 939              	.LBE97:
 940              	.LBE96:
 941              	.LBE95:
 366:../lpc11cx4-library/lpc_chip_11cxx_lib/src/i2c_11xx.c **** 	enableClk(id);
 367:../lpc11cx4-library/lpc_chip_11cxx_lib/src/i2c_11xx.c **** 
 368:../lpc11cx4-library/lpc_chip_11cxx_lib/src/i2c_11xx.c **** 	/* Set I2C operation to default */
 369:../lpc11cx4-library/lpc_chip_11cxx_lib/src/i2c_11xx.c **** 	LPC_I2Cx(id)->CONCLR = (I2C_CON_AA | I2C_CON_SI | I2C_CON_STA | I2C_CON_I2EN);
 370:../lpc11cx4-library/lpc_chip_11cxx_lib/src/i2c_11xx.c **** }
 942              		.loc 1 370 0
 943              		@ sp needed	@
 944              	.LBB105:
 945              	.LBB103:
 946              	.LBB101:
 947              	.LBB99:
 948              		.loc 2 297 0
 949 0016 2A59     		ldr	r2, [r5, r4]	@ D.6714, MEM[(struct LPC_SYSCTL_T *)1074036736B].SYSAHBCLKCTRL
 950 0018 1343     		orr	r3, r2	@ D.6714, D.6714
 951              	.LBE99:
 952              	.LBE101:
 953              	.LBE103:
 954              	.LBE105:
 369:../lpc11cx4-library/lpc_chip_11cxx_lib/src/i2c_11xx.c **** }
 955              		.loc 1 369 0
 956 001a 6C22     		mov	r2, #108	@ tmp137,
 957              	.LBB106:
 958              	.LBB104:
 959              	.LBB102:
 960              	.LBB100:
 961              		.loc 2 297 0
 962 001c 2B51     		str	r3, [r5, r4]	@ D.6714, MEM[(struct LPC_SYSCTL_T *)1074036736B].SYSAHBCLKCTRL
 963              	.LBE100:
 964              	.LBE102:
 965              	.LBE104:
 966              	.LBE106:
 369:../lpc11cx4-library/lpc_chip_11cxx_lib/src/i2c_11xx.c **** }
 967              		.loc 1 369 0
 968 001e 4358     		ldr	r3, [r0, r1]	@ D.6711, i2c[_6].ip
 969 0020 9A61     		str	r2, [r3, #24]	@ tmp137, _4->CONCLR
 970              		.loc 1 370 0
 971 0022 70BD     		pop	{r4, r5, r6, pc}
 972              	.L95:
 973              		.align	2
 974              	.L94:
 975 0024 00000000 		.word	.LANCHOR0
 976 0028 00800440 		.word	1074036736
 977              		.cfi_endproc
 978              	.LFE214:
 979              		.size	Chip_I2C_Init, .-Chip_I2C_Init
ARM GAS  /tmp/ccXTVNcx.s 			page 32


 980              		.section	.text.Chip_I2C_DeInit,"ax",%progbits
 981              		.align	2
 982              		.global	Chip_I2C_DeInit
 983              		.code	16
 984              		.thumb_func
 985              		.type	Chip_I2C_DeInit, %function
 986              	Chip_I2C_DeInit:
 987              	.LFB215:
 371:../lpc11cx4-library/lpc_chip_11cxx_lib/src/i2c_11xx.c **** 
 372:../lpc11cx4-library/lpc_chip_11cxx_lib/src/i2c_11xx.c **** /* De-initializes the I2C peripheral registers to their default reset values */
 373:../lpc11cx4-library/lpc_chip_11cxx_lib/src/i2c_11xx.c **** void Chip_I2C_DeInit(I2C_ID_T id)
 374:../lpc11cx4-library/lpc_chip_11cxx_lib/src/i2c_11xx.c **** {
 988              		.loc 1 374 0
 989              		.cfi_startproc
 990              	.LVL66:
 375:../lpc11cx4-library/lpc_chip_11cxx_lib/src/i2c_11xx.c **** 	/* Disable I2C control */
 376:../lpc11cx4-library/lpc_chip_11cxx_lib/src/i2c_11xx.c **** 	LPC_I2Cx(id)->CONCLR = I2C_CON_I2EN | I2C_CON_SI | I2C_CON_STO | I2C_CON_STA | I2C_CON_AA;
 991              		.loc 1 376 0
 992 0000 C300     		lsl	r3, r0, #3	@ tmp122, id,
 993 0002 7C21     		mov	r1, #124	@ tmp125,
 994 0004 074A     		ldr	r2, .L97	@ tmp120,
 995 0006 181A     		sub	r0, r3, r0	@ tmp123, tmp122, id
 996              	.LVL67:
 997 0008 8000     		lsl	r0, r0, #2	@ tmp124, tmp123,
 998 000a 8358     		ldr	r3, [r0, r2]	@ D.6719, i2c[_2].ip
 999              	.LBB107:
 1000              	.LBB108:
  84:../lpc11cx4-library/lpc_chip_11cxx_lib/src/i2c_11xx.c **** }
 1001              		.loc 1 84 0
 1002 000c 1018     		add	r0, r2, r0	@ tmp133, tmp120, tmp124
 1003              	.LBB109:
 1004              	.LBB110:
 298:../lpc11cx4-library/lpc_chip_11cxx_lib/inc/clock_11xx.h **** }
 299:../lpc11cx4-library/lpc_chip_11cxx_lib/inc/clock_11xx.h **** 
 300:../lpc11cx4-library/lpc_chip_11cxx_lib/inc/clock_11xx.h **** /**
 301:../lpc11cx4-library/lpc_chip_11cxx_lib/inc/clock_11xx.h ****  * @brief	Disable a system or peripheral clock
 302:../lpc11cx4-library/lpc_chip_11cxx_lib/inc/clock_11xx.h ****  * @param	clk	: Clock to disable
 303:../lpc11cx4-library/lpc_chip_11cxx_lib/inc/clock_11xx.h ****  * @return	Nothing
 304:../lpc11cx4-library/lpc_chip_11cxx_lib/inc/clock_11xx.h ****  */
 305:../lpc11cx4-library/lpc_chip_11cxx_lib/inc/clock_11xx.h **** STATIC INLINE void Chip_Clock_DisablePeriphClock(CHIP_SYSCTL_CLOCK_T clk)
 306:../lpc11cx4-library/lpc_chip_11cxx_lib/inc/clock_11xx.h **** {
 307:../lpc11cx4-library/lpc_chip_11cxx_lib/inc/clock_11xx.h **** 	LPC_SYSCTL->SYSAHBCLKCTRL &= ~(1 << clk);
 1005              		.loc 2 307 0
 1006 000e 0122     		mov	r2, #1	@ tmp136,
 1007              	.LBE110:
 1008              	.LBE109:
 1009              	.LBE108:
 1010              	.LBE107:
 374:../lpc11cx4-library/lpc_chip_11cxx_lib/src/i2c_11xx.c **** 	/* Disable I2C control */
 1011              		.loc 1 374 0
 1012 0010 10B5     		push	{r4, lr}	@
 1013              		.cfi_def_cfa_offset 8
 1014              		.cfi_offset 4, -8
 1015              		.cfi_offset 14, -4
 1016              		.loc 1 376 0
 1017 0012 9961     		str	r1, [r3, #24]	@ tmp125, _4->CONCLR
 1018              	.LVL68:
ARM GAS  /tmp/ccXTVNcx.s 			page 33


 1019              	.LBB117:
 1020              	.LBB115:
 1021              	.LBB113:
 1022              	.LBB111:
 1023              		.loc 2 307 0
 1024 0014 0079     		ldrb	r0, [r0, #4]	@ D.6718,
 1025 0016 044C     		ldr	r4, .L97+4	@ tmp126,
 1026 0018 8240     		lsl	r2, r2, r0	@ D.6718, tmp136, D.6718
 1027 001a 0431     		add	r1, r1, #4	@ tmp127,
 1028 001c 6358     		ldr	r3, [r4, r1]	@ D.6721, MEM[(struct LPC_SYSCTL_T *)1074036736B].SYSAHBCLKCTRL
 1029              	.LBE111:
 1030              	.LBE113:
 1031              	.LBE115:
 1032              	.LBE117:
 377:../lpc11cx4-library/lpc_chip_11cxx_lib/src/i2c_11xx.c **** 
 378:../lpc11cx4-library/lpc_chip_11cxx_lib/src/i2c_11xx.c **** 	disableClk(id);
 379:../lpc11cx4-library/lpc_chip_11cxx_lib/src/i2c_11xx.c **** }
 1033              		.loc 1 379 0
 1034              		@ sp needed	@
 1035              	.LBB118:
 1036              	.LBB116:
 1037              	.LBB114:
 1038              	.LBB112:
 1039              		.loc 2 307 0
 1040 001e 9343     		bic	r3, r2	@ D.6721, D.6718
 1041 0020 6350     		str	r3, [r4, r1]	@ D.6721, MEM[(struct LPC_SYSCTL_T *)1074036736B].SYSAHBCLKCTRL
 1042              	.LBE112:
 1043              	.LBE114:
 1044              	.LBE116:
 1045              	.LBE118:
 1046              		.loc 1 379 0
 1047 0022 10BD     		pop	{r4, pc}
 1048              	.L98:
 1049              		.align	2
 1050              	.L97:
 1051 0024 00000000 		.word	.LANCHOR0
 1052 0028 00800440 		.word	1074036736
 1053              		.cfi_endproc
 1054              	.LFE215:
 1055              		.size	Chip_I2C_DeInit, .-Chip_I2C_DeInit
 1056              		.global	__aeabi_uidiv
 1057              		.section	.text.Chip_I2C_SetClockRate,"ax",%progbits
 1058              		.align	2
 1059              		.global	Chip_I2C_SetClockRate
 1060              		.code	16
 1061              		.thumb_func
 1062              		.type	Chip_I2C_SetClockRate, %function
 1063              	Chip_I2C_SetClockRate:
 1064              	.LFB216:
 380:../lpc11cx4-library/lpc_chip_11cxx_lib/src/i2c_11xx.c **** 
 381:../lpc11cx4-library/lpc_chip_11cxx_lib/src/i2c_11xx.c **** /* Set up clock rate for LPC_I2C peripheral */
 382:../lpc11cx4-library/lpc_chip_11cxx_lib/src/i2c_11xx.c **** void Chip_I2C_SetClockRate(I2C_ID_T id, uint32_t clockrate)
 383:../lpc11cx4-library/lpc_chip_11cxx_lib/src/i2c_11xx.c **** {
 1065              		.loc 1 383 0
 1066              		.cfi_startproc
 1067              	.LVL69:
 1068 0000 38B5     		push	{r3, r4, r5, lr}	@
ARM GAS  /tmp/ccXTVNcx.s 			page 34


 1069              		.cfi_def_cfa_offset 16
 1070              		.cfi_offset 3, -16
 1071              		.cfi_offset 4, -12
 1072              		.cfi_offset 5, -8
 1073              		.cfi_offset 14, -4
 1074              		.loc 1 383 0
 1075 0002 0D1C     		mov	r5, r1	@ clockrate, clockrate
 1076 0004 041C     		mov	r4, r0	@ id, id
 1077              	.LBB119:
 1078              	.LBB120:
  90:../lpc11cx4-library/lpc_chip_11cxx_lib/src/i2c_11xx.c **** }
 1079              		.loc 1 90 0
 1080 0006 FFF7FEFF 		bl	Chip_Clock_GetMainClockRate	@
 1081              	.LVL70:
 1082              	.LBE120:
 1083              	.LBE119:
 384:../lpc11cx4-library/lpc_chip_11cxx_lib/src/i2c_11xx.c **** 	uint32_t SCLValue;
 385:../lpc11cx4-library/lpc_chip_11cxx_lib/src/i2c_11xx.c **** 
 386:../lpc11cx4-library/lpc_chip_11cxx_lib/src/i2c_11xx.c **** 	SCLValue = (getClkRate(id) / clockrate);
 1084              		.loc 1 386 0
 1085 000a 291C     		mov	r1, r5	@, clockrate
 1086 000c FFF7FEFF 		bl	__aeabi_uidiv	@
 1087              	.LVL71:
 387:../lpc11cx4-library/lpc_chip_11cxx_lib/src/i2c_11xx.c **** 	LPC_I2Cx(id)->SCLH = (uint32_t) (SCLValue >> 1);
 1088              		.loc 1 387 0
 1089 0010 E300     		lsl	r3, r4, #3	@ tmp124, id,
 1090 0012 054A     		ldr	r2, .L100	@ tmp122,
 1091 0014 1B1B     		sub	r3, r3, r4	@ tmp125, tmp124, id
 1092 0016 9B00     		lsl	r3, r3, #2	@ tmp126, tmp125,
 1093 0018 9B58     		ldr	r3, [r3, r2]	@ D.6726, i2c[_6].ip
 1094 001a 4208     		lsr	r2, r0, #1	@ D.6727, tmp121,
 1095 001c 1A61     		str	r2, [r3, #16]	@ D.6727, _7->SCLH
 388:../lpc11cx4-library/lpc_chip_11cxx_lib/src/i2c_11xx.c **** 	LPC_I2Cx(id)->SCLL = (uint32_t) (SCLValue - LPC_I2Cx(id)->SCLH);
 1096              		.loc 1 388 0
 1097 001e 1A69     		ldr	r2, [r3, #16]	@ D.6727, _7->SCLH
 389:../lpc11cx4-library/lpc_chip_11cxx_lib/src/i2c_11xx.c **** }
 1098              		.loc 1 389 0
 1099              		@ sp needed	@
 388:../lpc11cx4-library/lpc_chip_11cxx_lib/src/i2c_11xx.c **** 	LPC_I2Cx(id)->SCLL = (uint32_t) (SCLValue - LPC_I2Cx(id)->SCLH);
 1100              		.loc 1 388 0
 1101 0020 801A     		sub	r0, r0, r2	@ D.6727, tmp121, D.6727
 1102              	.LVL72:
 1103 0022 5861     		str	r0, [r3, #20]	@ D.6727, _7->SCLL
 1104              	.LVL73:
 1105              		.loc 1 389 0
 1106 0024 38BD     		pop	{r3, r4, r5, pc}
 1107              	.L101:
 1108 0026 C046     		.align	2
 1109              	.L100:
 1110 0028 00000000 		.word	.LANCHOR0
 1111              		.cfi_endproc
 1112              	.LFE216:
 1113              		.size	Chip_I2C_SetClockRate, .-Chip_I2C_SetClockRate
 1114              		.section	.text.Chip_I2C_GetClockRate,"ax",%progbits
 1115              		.align	2
 1116              		.global	Chip_I2C_GetClockRate
 1117              		.code	16
ARM GAS  /tmp/ccXTVNcx.s 			page 35


 1118              		.thumb_func
 1119              		.type	Chip_I2C_GetClockRate, %function
 1120              	Chip_I2C_GetClockRate:
 1121              	.LFB217:
 390:../lpc11cx4-library/lpc_chip_11cxx_lib/src/i2c_11xx.c **** 
 391:../lpc11cx4-library/lpc_chip_11cxx_lib/src/i2c_11xx.c **** /* Get current clock rate for LPC_I2C peripheral */
 392:../lpc11cx4-library/lpc_chip_11cxx_lib/src/i2c_11xx.c **** uint32_t Chip_I2C_GetClockRate(I2C_ID_T id)
 393:../lpc11cx4-library/lpc_chip_11cxx_lib/src/i2c_11xx.c **** {
 1122              		.loc 1 393 0
 1123              		.cfi_startproc
 1124              	.LVL74:
 1125 0000 10B5     		push	{r4, lr}	@
 1126              		.cfi_def_cfa_offset 8
 1127              		.cfi_offset 4, -8
 1128              		.cfi_offset 14, -4
 1129              		.loc 1 393 0
 1130 0002 041C     		mov	r4, r0	@ id, id
 1131              	.LBB121:
 1132              	.LBB122:
  90:../lpc11cx4-library/lpc_chip_11cxx_lib/src/i2c_11xx.c **** }
 1133              		.loc 1 90 0
 1134 0004 FFF7FEFF 		bl	Chip_Clock_GetMainClockRate	@
 1135              	.LVL75:
 1136              	.LBE122:
 1137              	.LBE121:
 394:../lpc11cx4-library/lpc_chip_11cxx_lib/src/i2c_11xx.c **** 	return getClkRate(id) / (LPC_I2Cx(id)->SCLH + LPC_I2Cx(id)->SCLL);
 1138              		.loc 1 394 0
 1139 0008 E300     		lsl	r3, r4, #3	@ tmp121, id,
 1140 000a 1B1B     		sub	r3, r3, r4	@ tmp122, tmp121, id
 1141 000c 044A     		ldr	r2, .L103	@ tmp119,
 1142 000e 9B00     		lsl	r3, r3, #2	@ tmp123, tmp122,
 1143 0010 9A58     		ldr	r2, [r3, r2]	@ D.6733, i2c[_4].ip
 395:../lpc11cx4-library/lpc_chip_11cxx_lib/src/i2c_11xx.c **** }
 1144              		.loc 1 395 0
 1145              		@ sp needed	@
 394:../lpc11cx4-library/lpc_chip_11cxx_lib/src/i2c_11xx.c **** 	return getClkRate(id) / (LPC_I2Cx(id)->SCLH + LPC_I2Cx(id)->SCLL);
 1146              		.loc 1 394 0
 1147 0012 1369     		ldr	r3, [r2, #16]	@ D.6734, _5->SCLH
 1148 0014 5169     		ldr	r1, [r2, #20]	@ D.6734, _5->SCLL
 1149 0016 C918     		add	r1, r1, r3	@ D.6734, D.6734, D.6734
 1150 0018 FFF7FEFF 		bl	__aeabi_uidiv	@
 1151              	.LVL76:
 1152              		.loc 1 395 0
 1153 001c 10BD     		pop	{r4, pc}
 1154              	.L104:
 1155 001e C046     		.align	2
 1156              	.L103:
 1157 0020 00000000 		.word	.LANCHOR0
 1158              		.cfi_endproc
 1159              	.LFE217:
 1160              		.size	Chip_I2C_GetClockRate, .-Chip_I2C_GetClockRate
 1161              		.section	.text.Chip_I2C_SetMasterEventHandler,"ax",%progbits
 1162              		.align	2
 1163              		.global	Chip_I2C_SetMasterEventHandler
 1164              		.code	16
 1165              		.thumb_func
 1166              		.type	Chip_I2C_SetMasterEventHandler, %function
ARM GAS  /tmp/ccXTVNcx.s 			page 36


 1167              	Chip_I2C_SetMasterEventHandler:
 1168              	.LFB218:
 396:../lpc11cx4-library/lpc_chip_11cxx_lib/src/i2c_11xx.c **** 
 397:../lpc11cx4-library/lpc_chip_11cxx_lib/src/i2c_11xx.c **** /* Set the master event handler */
 398:../lpc11cx4-library/lpc_chip_11cxx_lib/src/i2c_11xx.c **** int Chip_I2C_SetMasterEventHandler(I2C_ID_T id, I2C_EVENTHANDLER_T event)
 399:../lpc11cx4-library/lpc_chip_11cxx_lib/src/i2c_11xx.c **** {
 1169              		.loc 1 399 0
 1170              		.cfi_startproc
 1171              	.LVL77:
 400:../lpc11cx4-library/lpc_chip_11cxx_lib/src/i2c_11xx.c **** 	struct i2c_interface *iic = &i2c[id];
 401:../lpc11cx4-library/lpc_chip_11cxx_lib/src/i2c_11xx.c **** 	if (!iic->mXfer) {
 1172              		.loc 1 401 0
 1173 0000 C300     		lsl	r3, r0, #3	@ tmp120, id,
 1174 0002 1B1A     		sub	r3, r3, r0	@ tmp146, tmp120, id
 1175 0004 9800     		lsl	r0, r3, #2	@ tmp122, tmp146,
 1176              	.LVL78:
 1177 0006 074B     		ldr	r3, .L108	@ tmp118,
 1178 0008 1B18     		add	r3, r3, r0	@ tmp123, tmp118, tmp122
 1179 000a 1A69     		ldr	r2, [r3, #16]	@ tmp147, MEM[(struct i2c_interface *)&i2c][_3].mXfer
 1180 000c 002A     		cmp	r2, #0	@ tmp147,
 1181 000e 05D0     		beq	.L106	@,
 1182 0010 9868     		ldr	r0, [r3, #8]	@ MEM[(struct i2c_interface *)&i2c][_3].mEvent, MEM[(struct i2c_interface *)&i2c]
 1183 0012 081A     		sub	r0, r1, r0	@ tmp136, event, MEM[(struct i2c_interface *)&i2c][_3].mEvent
 1184 0014 4342     		neg	r3, r0	@ D.6739, tmp136
 1185 0016 4341     		adc	r3, r3, r0	@ D.6739, tmp136
 1186              	.LVL79:
 1187              	.L107:
 402:../lpc11cx4-library/lpc_chip_11cxx_lib/src/i2c_11xx.c **** 		iic->mEvent = event;
 403:../lpc11cx4-library/lpc_chip_11cxx_lib/src/i2c_11xx.c **** 	}
 404:../lpc11cx4-library/lpc_chip_11cxx_lib/src/i2c_11xx.c **** 	return iic->mEvent == event;
 405:../lpc11cx4-library/lpc_chip_11cxx_lib/src/i2c_11xx.c **** }
 1188              		.loc 1 405 0
 1189 0018 181C     		mov	r0, r3	@, D.6739
 1190              		@ sp needed	@
 1191 001a 7047     		bx	lr
 1192              	.LVL80:
 1193              	.L106:
 402:../lpc11cx4-library/lpc_chip_11cxx_lib/src/i2c_11xx.c **** 		iic->mEvent = event;
 1194              		.loc 1 402 0
 1195 001c 9960     		str	r1, [r3, #8]	@ event, MEM[(struct i2c_interface *)&i2c][_3].mEvent
 1196 001e 0123     		mov	r3, #1	@ D.6739,
 1197 0020 FAE7     		b	.L107	@
 1198              	.L109:
 1199 0022 C046     		.align	2
 1200              	.L108:
 1201 0024 00000000 		.word	.LANCHOR0
 1202              		.cfi_endproc
 1203              	.LFE218:
 1204              		.size	Chip_I2C_SetMasterEventHandler, .-Chip_I2C_SetMasterEventHandler
 1205              		.section	.text.Chip_I2C_GetMasterEventHandler,"ax",%progbits
 1206              		.align	2
 1207              		.global	Chip_I2C_GetMasterEventHandler
 1208              		.code	16
 1209              		.thumb_func
 1210              		.type	Chip_I2C_GetMasterEventHandler, %function
 1211              	Chip_I2C_GetMasterEventHandler:
 1212              	.LFB219:
ARM GAS  /tmp/ccXTVNcx.s 			page 37


 406:../lpc11cx4-library/lpc_chip_11cxx_lib/src/i2c_11xx.c **** 
 407:../lpc11cx4-library/lpc_chip_11cxx_lib/src/i2c_11xx.c **** /* Get the master event handler */
 408:../lpc11cx4-library/lpc_chip_11cxx_lib/src/i2c_11xx.c **** I2C_EVENTHANDLER_T Chip_I2C_GetMasterEventHandler(I2C_ID_T id)
 409:../lpc11cx4-library/lpc_chip_11cxx_lib/src/i2c_11xx.c **** {
 1213              		.loc 1 409 0
 1214              		.cfi_startproc
 1215              	.LVL81:
 410:../lpc11cx4-library/lpc_chip_11cxx_lib/src/i2c_11xx.c **** 	return i2c[id].mEvent;
 1216              		.loc 1 410 0
 1217 0000 C300     		lsl	r3, r0, #3	@ tmp117, id,
 1218 0002 181A     		sub	r0, r3, r0	@ tmp118, tmp117, id
 1219              	.LVL82:
 1220 0004 024B     		ldr	r3, .L111	@ tmp115,
 1221 0006 8000     		lsl	r0, r0, #2	@ tmp119, tmp118,
 1222 0008 1818     		add	r0, r3, r0	@ tmp120, tmp115, tmp119
 1223 000a 8068     		ldr	r0, [r0, #8]	@ i2c[_2].mEvent, i2c[_2].mEvent
 411:../lpc11cx4-library/lpc_chip_11cxx_lib/src/i2c_11xx.c **** }
 1224              		.loc 1 411 0
 1225              		@ sp needed	@
 1226 000c 7047     		bx	lr
 1227              	.L112:
 1228 000e C046     		.align	2
 1229              	.L111:
 1230 0010 00000000 		.word	.LANCHOR0
 1231              		.cfi_endproc
 1232              	.LFE219:
 1233              		.size	Chip_I2C_GetMasterEventHandler, .-Chip_I2C_GetMasterEventHandler
 1234              		.section	.text.Chip_I2C_MasterTransfer,"ax",%progbits
 1235              		.align	2
 1236              		.global	Chip_I2C_MasterTransfer
 1237              		.code	16
 1238              		.thumb_func
 1239              		.type	Chip_I2C_MasterTransfer, %function
 1240              	Chip_I2C_MasterTransfer:
 1241              	.LFB220:
 412:../lpc11cx4-library/lpc_chip_11cxx_lib/src/i2c_11xx.c **** 
 413:../lpc11cx4-library/lpc_chip_11cxx_lib/src/i2c_11xx.c **** /* Transmit and Receive data in master mode */
 414:../lpc11cx4-library/lpc_chip_11cxx_lib/src/i2c_11xx.c **** int Chip_I2C_MasterTransfer(I2C_ID_T id, I2C_XFER_T *xfer)
 415:../lpc11cx4-library/lpc_chip_11cxx_lib/src/i2c_11xx.c **** {
 1242              		.loc 1 415 0
 1243              		.cfi_startproc
 1244              	.LVL83:
 1245 0000 F8B5     		push	{r3, r4, r5, r6, r7, lr}	@
 1246              		.cfi_def_cfa_offset 24
 1247              		.cfi_offset 3, -24
 1248              		.cfi_offset 4, -20
 1249              		.cfi_offset 5, -16
 1250              		.cfi_offset 6, -12
 1251              		.cfi_offset 7, -8
 1252              		.cfi_offset 14, -4
 1253 0002 4F46     		mov	r7, r9	@,
 1254 0004 4646     		mov	r6, r8	@,
 416:../lpc11cx4-library/lpc_chip_11cxx_lib/src/i2c_11xx.c **** 	struct i2c_interface *iic = &i2c[id];
 417:../lpc11cx4-library/lpc_chip_11cxx_lib/src/i2c_11xx.c **** 
 418:../lpc11cx4-library/lpc_chip_11cxx_lib/src/i2c_11xx.c **** 	iic->mEvent(id, I2C_EVENT_LOCK);
 1255              		.loc 1 418 0
 1256 0006 C400     		lsl	r4, r0, #3	@ tmp204, id,
ARM GAS  /tmp/ccXTVNcx.s 			page 38


 415:../lpc11cx4-library/lpc_chip_11cxx_lib/src/i2c_11xx.c **** 	struct i2c_interface *iic = &i2c[id];
 1257              		.loc 1 415 0
 1258 0008 C0B4     		push	{r6, r7}	@
 1259              		.cfi_def_cfa_offset 32
 1260              		.cfi_offset 8, -32
 1261              		.cfi_offset 9, -28
 1262              		.loc 1 418 0
 1263 000a 231A     		sub	r3, r4, r0	@ tmp203, tmp204, id
 1264 000c 214F     		ldr	r7, .L122	@ tmp202,
 1265 000e 9B00     		lsl	r3, r3, #2	@ tmp130, tmp203,
 1266 0010 9846     		mov	r8, r3	@ tmp130, tmp130
 1267 0012 B946     		mov	r9, r7	@ tmp131, tmp202
 1268 0014 C144     		add	r9, r9, r8	@ tmp131, tmp130
 1269 0016 4B46     		mov	r3, r9	@ tmp131, tmp131
 415:../lpc11cx4-library/lpc_chip_11cxx_lib/src/i2c_11xx.c **** 	struct i2c_interface *iic = &i2c[id];
 1270              		.loc 1 415 0
 1271 0018 0E1C     		mov	r6, r1	@ xfer, xfer
 1272              		.loc 1 418 0
 1273 001a 9B68     		ldr	r3, [r3, #8]	@ tmp210, MEM[(struct i2c_interface *)&i2c][_5].mEvent
 1274 001c 0321     		mov	r1, #3	@,
 1275              	.LVL84:
 415:../lpc11cx4-library/lpc_chip_11cxx_lib/src/i2c_11xx.c **** 	struct i2c_interface *iic = &i2c[id];
 1276              		.loc 1 415 0
 1277 001e 051C     		mov	r5, r0	@ id, id
 1278              		.loc 1 418 0
 1279 0020 9847     		blx	r3	@ tmp210
 1280              	.LVL85:
 419:../lpc11cx4-library/lpc_chip_11cxx_lib/src/i2c_11xx.c **** 	xfer->status = I2C_STATUS_BUSY;
 1281              		.loc 1 419 0
 1282 0022 0423     		mov	r3, #4	@ tmp134,
 1283 0024 3375     		strb	r3, [r6, #20]	@ tmp134, xfer_9(D)->status
 420:../lpc11cx4-library/lpc_chip_11cxx_lib/src/i2c_11xx.c **** 	iic->mXfer = xfer;
 1284              		.loc 1 420 0
 1285 0026 4B46     		mov	r3, r9	@ tmp131, tmp131
 1286 0028 1E61     		str	r6, [r3, #16]	@ xfer, MEM[(struct i2c_interface *)&i2c][_5].mXfer
 421:../lpc11cx4-library/lpc_chip_11cxx_lib/src/i2c_11xx.c **** 
 422:../lpc11cx4-library/lpc_chip_11cxx_lib/src/i2c_11xx.c **** 	/* If slave xfer not in progress */
 423:../lpc11cx4-library/lpc_chip_11cxx_lib/src/i2c_11xx.c **** 	if (!iic->sXfer) {
 1287              		.loc 1 423 0
 1288 002a 5B69     		ldr	r3, [r3, #20]	@ MEM[(struct i2c_interface *)&i2c][_5].sXfer, MEM[(struct i2c_interface *)&i2c]
 1289 002c 002B     		cmp	r3, #0	@ MEM[(struct i2c_interface *)&i2c][_5].sXfer,
 1290 002e 2AD0     		beq	.L121	@,
 1291              	.L114:
 424:../lpc11cx4-library/lpc_chip_11cxx_lib/src/i2c_11xx.c **** 		startMasterXfer(iic->ip);
 425:../lpc11cx4-library/lpc_chip_11cxx_lib/src/i2c_11xx.c **** 	}
 426:../lpc11cx4-library/lpc_chip_11cxx_lib/src/i2c_11xx.c **** 	iic->mEvent(id, I2C_EVENT_WAIT);
 1292              		.loc 1 426 0
 1293 0030 631B     		sub	r3, r4, r5	@ tmp161, tmp204, id
 1294 0032 9B00     		lsl	r3, r3, #2	@ tmp162, tmp161,
 1295 0034 9846     		mov	r8, r3	@ tmp162, tmp162
 1296 0036 B946     		mov	r9, r7	@ tmp163, tmp202
 1297 0038 C144     		add	r9, r9, r8	@ tmp163, tmp162
 1298 003a 4B46     		mov	r3, r9	@ tmp163, tmp163
 1299 003c 0121     		mov	r1, #1	@,
 1300 003e 9B68     		ldr	r3, [r3, #8]	@ tmp218, MEM[(struct i2c_interface *)&i2c][_5].mEvent
 1301 0040 281C     		mov	r0, r5	@, id
 1302 0042 9847     		blx	r3	@ tmp218
ARM GAS  /tmp/ccXTVNcx.s 			page 39


 1303              	.LVL86:
 427:../lpc11cx4-library/lpc_chip_11cxx_lib/src/i2c_11xx.c **** 	iic->mXfer = 0;
 1304              		.loc 1 427 0
 1305 0044 0023     		mov	r3, #0	@ tmp173,
 1306 0046 4A46     		mov	r2, r9	@ tmp163, tmp163
 1307 0048 1361     		str	r3, [r2, #16]	@ tmp173, MEM[(struct i2c_interface *)&i2c][_5].mXfer
 1308 004a 4346     		mov	r3, r8	@ tmp162, tmp162
 1309              	.LBB123:
 1310              	.LBB124:
 116:../lpc11cx4-library/lpc_chip_11cxx_lib/src/i2c_11xx.c **** }
 1311              		.loc 1 116 0
 1312 004c 1021     		mov	r1, #16	@ tmp205,
 1313 004e FA58     		ldr	r2, [r7, r3]	@ D.6754, MEM[(struct i2c_interface *)&i2c][_5].ip
 1314              	.L115:
 1315              	.LVL87:
 116:../lpc11cx4-library/lpc_chip_11cxx_lib/src/i2c_11xx.c **** }
 1316              		.loc 1 116 0 is_stmt 0 discriminator 1
 1317 0050 1368     		ldr	r3, [r2]	@ D.6755, _22->CONSET
 1318              	.LBE124:
 1319              	.LBE123:
 428:../lpc11cx4-library/lpc_chip_11cxx_lib/src/i2c_11xx.c **** 
 429:../lpc11cx4-library/lpc_chip_11cxx_lib/src/i2c_11xx.c **** 	/* Wait for stop condition to appear on bus */
 430:../lpc11cx4-library/lpc_chip_11cxx_lib/src/i2c_11xx.c **** 	while (!isI2CBusFree(iic->ip)) {}
 1320              		.loc 1 430 0 is_stmt 1 discriminator 1
 1321 0052 1942     		tst	r1, r3	@ tmp205, D.6755
 1322 0054 FCD1     		bne	.L115	@,
 431:../lpc11cx4-library/lpc_chip_11cxx_lib/src/i2c_11xx.c **** 
 432:../lpc11cx4-library/lpc_chip_11cxx_lib/src/i2c_11xx.c **** 	/* Start slave if one is active */
 433:../lpc11cx4-library/lpc_chip_11cxx_lib/src/i2c_11xx.c **** 	if (SLAVE_ACTIVE(iic)) {
 1323              		.loc 1 433 0
 1324 0056 631B     		sub	r3, r4, r5	@ tmp184, tmp204, id
 1325 0058 9B00     		lsl	r3, r3, #2	@ tmp185, tmp184,
 1326 005a FB18     		add	r3, r7, r3	@ tmp186, tmp202, tmp185
 1327 005c 9969     		ldr	r1, [r3, #24]	@ MEM[(struct i2c_interface *)&i2c][_5].flags, MEM[(struct i2c_interface *)&i2c]
 1328 005e FF23     		mov	r3, #255	@ tmp190,
 1329 0060 1B02     		lsl	r3, r3, #8	@ tmp190, tmp190,
 1330 0062 1942     		tst	r1, r3	@ MEM[(struct i2c_interface *)&i2c][_5].flags, tmp190
 1331 0064 03D0     		beq	.L116	@,
 1332              	.LVL88:
 1333              	.LBB125:
 1334              	.LBB126:
 107:../lpc11cx4-library/lpc_chip_11cxx_lib/src/i2c_11xx.c **** 
 1335              		.loc 1 107 0
 1336 0066 3823     		mov	r3, #56	@ tmp191,
 1337 0068 9361     		str	r3, [r2, #24]	@ tmp191, _22->CONCLR
 110:../lpc11cx4-library/lpc_chip_11cxx_lib/src/i2c_11xx.c **** }
 1338              		.loc 1 110 0
 1339 006a 0C33     		add	r3, r3, #12	@ tmp192,
 1340 006c 1360     		str	r3, [r2]	@ tmp192, _22->CONSET
 1341              	.LVL89:
 1342              	.L116:
 1343              	.LBE126:
 1344              	.LBE125:
 434:../lpc11cx4-library/lpc_chip_11cxx_lib/src/i2c_11xx.c **** 		startSlaverXfer(iic->ip);
 435:../lpc11cx4-library/lpc_chip_11cxx_lib/src/i2c_11xx.c **** 	}
 436:../lpc11cx4-library/lpc_chip_11cxx_lib/src/i2c_11xx.c **** 
 437:../lpc11cx4-library/lpc_chip_11cxx_lib/src/i2c_11xx.c **** 	iic->mEvent(id, I2C_EVENT_UNLOCK);
ARM GAS  /tmp/ccXTVNcx.s 			page 40


 1345              		.loc 1 437 0
 1346 006e 641B     		sub	r4, r4, r5	@ tmp196, tmp204, id
 1347 0070 A400     		lsl	r4, r4, #2	@ tmp197, tmp196,
 1348 0072 3C19     		add	r4, r7, r4	@ tmp198, tmp202, tmp197
 1349 0074 281C     		mov	r0, r5	@, id
 1350 0076 A368     		ldr	r3, [r4, #8]	@ MEM[(struct i2c_interface *)&i2c][_5].mEvent, MEM[(struct i2c_interface *)&i2c]
 1351 0078 0421     		mov	r1, #4	@,
 1352 007a 9847     		blx	r3	@ MEM[(struct i2c_interface *)&i2c][_5].mEvent
 1353              	.LVL90:
 438:../lpc11cx4-library/lpc_chip_11cxx_lib/src/i2c_11xx.c **** 	return (int) xfer->status;
 439:../lpc11cx4-library/lpc_chip_11cxx_lib/src/i2c_11xx.c **** }
 1354              		.loc 1 439 0
 1355              		@ sp needed	@
 438:../lpc11cx4-library/lpc_chip_11cxx_lib/src/i2c_11xx.c **** 	return (int) xfer->status;
 1356              		.loc 1 438 0
 1357 007c 307D     		ldrb	r0, [r6, #20]	@ D.6751,
 1358              	.LVL91:
 1359              	.LVL92:
 1360              		.loc 1 439 0
 1361 007e 0CBC     		pop	{r2, r3}
 1362 0080 9046     		mov	r8, r2
 1363 0082 9946     		mov	r9, r3
 1364 0084 F8BD     		pop	{r3, r4, r5, r6, r7, pc}
 1365              	.LVL93:
 1366              	.L121:
 424:../lpc11cx4-library/lpc_chip_11cxx_lib/src/i2c_11xx.c **** 	}
 1367              		.loc 1 424 0
 1368 0086 4346     		mov	r3, r8	@ tmp130, tmp130
 1369              	.LBB127:
 1370              	.LBB128:
  97:../lpc11cx4-library/lpc_chip_11cxx_lib/src/i2c_11xx.c **** 
 1371              		.loc 1 97 0
 1372 0088 3C22     		mov	r2, #60	@ tmp156,
 1373              	.LBE128:
 1374              	.LBE127:
 424:../lpc11cx4-library/lpc_chip_11cxx_lib/src/i2c_11xx.c **** 	}
 1375              		.loc 1 424 0
 1376 008a DB59     		ldr	r3, [r3, r7]	@ D.6754, MEM[(struct i2c_interface *)&i2c][_5].ip
 1377              	.LVL94:
 1378              	.LBB130:
 1379              	.LBB129:
  97:../lpc11cx4-library/lpc_chip_11cxx_lib/src/i2c_11xx.c **** 
 1380              		.loc 1 97 0
 1381 008c 9A61     		str	r2, [r3, #24]	@ tmp156, _13->CONCLR
 100:../lpc11cx4-library/lpc_chip_11cxx_lib/src/i2c_11xx.c **** }
 1382              		.loc 1 100 0
 1383 008e 2432     		add	r2, r2, #36	@ tmp157,
 1384 0090 1A60     		str	r2, [r3]	@ tmp157, _13->CONSET
 1385 0092 CDE7     		b	.L114	@
 1386              	.L123:
 1387              		.align	2
 1388              	.L122:
 1389 0094 00000000 		.word	.LANCHOR0
 1390              	.LBE129:
 1391              	.LBE130:
 1392              		.cfi_endproc
 1393              	.LFE220:
ARM GAS  /tmp/ccXTVNcx.s 			page 41


 1394              		.size	Chip_I2C_MasterTransfer, .-Chip_I2C_MasterTransfer
 1395              		.section	.text.Chip_I2C_MasterSend,"ax",%progbits
 1396              		.align	2
 1397              		.global	Chip_I2C_MasterSend
 1398              		.code	16
 1399              		.thumb_func
 1400              		.type	Chip_I2C_MasterSend, %function
 1401              	Chip_I2C_MasterSend:
 1402              	.LFB221:
 440:../lpc11cx4-library/lpc_chip_11cxx_lib/src/i2c_11xx.c **** 
 441:../lpc11cx4-library/lpc_chip_11cxx_lib/src/i2c_11xx.c **** /* Master tx only */
 442:../lpc11cx4-library/lpc_chip_11cxx_lib/src/i2c_11xx.c **** int Chip_I2C_MasterSend(I2C_ID_T id, uint8_t slaveAddr, const uint8_t *buff, uint8_t len)
 443:../lpc11cx4-library/lpc_chip_11cxx_lib/src/i2c_11xx.c **** {
 1403              		.loc 1 443 0
 1404              		.cfi_startproc
 1405              	.LVL95:
 1406 0000 30B5     		push	{r4, r5, lr}	@
 1407              		.cfi_def_cfa_offset 12
 1408              		.cfi_offset 4, -12
 1409              		.cfi_offset 5, -8
 1410              		.cfi_offset 14, -4
 1411 0002 1D1C     		mov	r5, r3	@ len, len
 444:../lpc11cx4-library/lpc_chip_11cxx_lib/src/i2c_11xx.c **** 	I2C_XFER_T xfer = {0};
 1412              		.loc 1 444 0
 1413 0004 0023     		mov	r3, #0	@ tmp120,
 1414              	.LVL96:
 443:../lpc11cx4-library/lpc_chip_11cxx_lib/src/i2c_11xx.c **** 	I2C_XFER_T xfer = {0};
 1415              		.loc 1 443 0
 1416 0006 87B0     		sub	sp, sp, #28	@,,
 1417              		.cfi_def_cfa_offset 40
 1418              		.loc 1 444 0
 1419 0008 0093     		str	r3, [sp]	@ tmp120, xfer
 1420 000a 0393     		str	r3, [sp, #12]	@ tmp120, xfer
 1421 000c 0493     		str	r3, [sp, #16]	@ tmp120, xfer
 1422 000e 0593     		str	r3, [sp, #20]	@ tmp120, xfer
 445:../lpc11cx4-library/lpc_chip_11cxx_lib/src/i2c_11xx.c **** 	xfer.slaveAddr = slaveAddr;
 1423              		.loc 1 445 0
 1424 0010 6B46     		mov	r3, sp	@ tmp135,
 443:../lpc11cx4-library/lpc_chip_11cxx_lib/src/i2c_11xx.c **** 	I2C_XFER_T xfer = {0};
 1425              		.loc 1 443 0
 1426 0012 041C     		mov	r4, r0	@ id, id
 1427              		.loc 1 445 0
 1428 0014 1970     		strb	r1, [r3]	@ slaveAddr, xfer.slaveAddr
 446:../lpc11cx4-library/lpc_chip_11cxx_lib/src/i2c_11xx.c **** 	xfer.txBuff = buff;
 1429              		.loc 1 446 0
 1430 0016 0192     		str	r2, [sp, #4]	@ buff, xfer.txBuff
 447:../lpc11cx4-library/lpc_chip_11cxx_lib/src/i2c_11xx.c **** 	xfer.txSz = len;
 1431              		.loc 1 447 0
 1432 0018 0295     		str	r5, [sp, #8]	@ len, xfer.txSz
 1433              	.LVL97:
 1434              	.L125:
 448:../lpc11cx4-library/lpc_chip_11cxx_lib/src/i2c_11xx.c **** 	while (Chip_I2C_MasterTransfer(id, &xfer) == I2C_STATUS_ARBLOST) {}
 1435              		.loc 1 448 0 discriminator 1
 1436 001a 201C     		mov	r0, r4	@, id
 1437 001c 6946     		mov	r1, sp	@,
 1438 001e FFF7FEFF 		bl	Chip_I2C_MasterTransfer	@
 1439              	.LVL98:
ARM GAS  /tmp/ccXTVNcx.s 			page 42


 1440 0022 0228     		cmp	r0, #2	@ D.6760,
 1441 0024 F9D0     		beq	.L125	@,
 449:../lpc11cx4-library/lpc_chip_11cxx_lib/src/i2c_11xx.c **** 	return len - xfer.txSz;
 1442              		.loc 1 449 0
 1443 0026 0298     		ldr	r0, [sp, #8]	@ xfer.txSz, xfer.txSz
 1444 0028 281A     		sub	r0, r5, r0	@ D.6760, len, xfer.txSz
 450:../lpc11cx4-library/lpc_chip_11cxx_lib/src/i2c_11xx.c **** }
 1445              		.loc 1 450 0
 1446 002a 07B0     		add	sp, sp, #28	@,,
 1447              		@ sp needed	@
 1448 002c 30BD     		pop	{r4, r5, pc}
 1449              		.cfi_endproc
 1450              	.LFE221:
 1451              		.size	Chip_I2C_MasterSend, .-Chip_I2C_MasterSend
 1452 002e C046     		.section	.text.Chip_I2C_MasterCmdRead,"ax",%progbits
 1453              		.align	2
 1454              		.global	Chip_I2C_MasterCmdRead
 1455              		.code	16
 1456              		.thumb_func
 1457              		.type	Chip_I2C_MasterCmdRead, %function
 1458              	Chip_I2C_MasterCmdRead:
 1459              	.LFB222:
 451:../lpc11cx4-library/lpc_chip_11cxx_lib/src/i2c_11xx.c **** 
 452:../lpc11cx4-library/lpc_chip_11cxx_lib/src/i2c_11xx.c **** /* Transmit one byte and receive an array of bytes after a repeated start condition is generated in
 453:../lpc11cx4-library/lpc_chip_11cxx_lib/src/i2c_11xx.c ****  * This function is useful for communicating with the I2C slave registers
 454:../lpc11cx4-library/lpc_chip_11cxx_lib/src/i2c_11xx.c ****  */
 455:../lpc11cx4-library/lpc_chip_11cxx_lib/src/i2c_11xx.c **** int Chip_I2C_MasterCmdRead(I2C_ID_T id, uint8_t slaveAddr, uint8_t cmd, uint8_t *buff, int len)
 456:../lpc11cx4-library/lpc_chip_11cxx_lib/src/i2c_11xx.c **** {
 1460              		.loc 1 456 0
 1461              		.cfi_startproc
 1462              	.LVL99:
 1463 0000 70B5     		push	{r4, r5, r6, lr}	@
 1464              		.cfi_def_cfa_offset 16
 1465              		.cfi_offset 4, -16
 1466              		.cfi_offset 5, -12
 1467              		.cfi_offset 6, -8
 1468              		.cfi_offset 14, -4
 1469 0002 88B0     		sub	sp, sp, #32	@,,
 1470              		.cfi_def_cfa_offset 48
 1471              		.loc 1 456 0
 1472 0004 051C     		mov	r5, r0	@ id, id
 1473 0006 6846     		mov	r0, sp	@ tmp141,
 1474              	.LVL100:
 1475 0008 C271     		strb	r2, [r0, #7]	@ cmd, cmd
 457:../lpc11cx4-library/lpc_chip_11cxx_lib/src/i2c_11xx.c **** 	I2C_XFER_T xfer = {0};
 1476              		.loc 1 457 0
 1477 000a 0022     		mov	r2, #0	@ tmp122,
 1478              	.LVL101:
 1479 000c 02AC     		add	r4, sp, #8	@ tmp140,,
 456:../lpc11cx4-library/lpc_chip_11cxx_lib/src/i2c_11xx.c **** 	I2C_XFER_T xfer = {0};
 1480              		.loc 1 456 0
 1481 000e 0C9E     		ldr	r6, [sp, #48]	@ len, len
 1482              		.loc 1 457 0
 1483 0010 0292     		str	r2, [sp, #8]	@ tmp122, xfer
 456:../lpc11cx4-library/lpc_chip_11cxx_lib/src/i2c_11xx.c **** 	I2C_XFER_T xfer = {0};
 1484              		.loc 1 456 0
 1485 0012 0730     		add	r0, r0, #7	@ tmp117,
ARM GAS  /tmp/ccXTVNcx.s 			page 43


 1486              	.LVL102:
 1487              		.loc 1 457 0
 1488 0014 6261     		str	r2, [r4, #20]	@ tmp122, xfer
 458:../lpc11cx4-library/lpc_chip_11cxx_lib/src/i2c_11xx.c **** 	xfer.slaveAddr = slaveAddr;
 459:../lpc11cx4-library/lpc_chip_11cxx_lib/src/i2c_11xx.c **** 	xfer.txBuff = &cmd;
 460:../lpc11cx4-library/lpc_chip_11cxx_lib/src/i2c_11xx.c **** 	xfer.txSz = 1;
 1489              		.loc 1 460 0
 1490 0016 0132     		add	r2, r2, #1	@ tmp133,
 458:../lpc11cx4-library/lpc_chip_11cxx_lib/src/i2c_11xx.c **** 	xfer.slaveAddr = slaveAddr;
 1491              		.loc 1 458 0
 1492 0018 2170     		strb	r1, [r4]	@ slaveAddr, xfer.slaveAddr
 459:../lpc11cx4-library/lpc_chip_11cxx_lib/src/i2c_11xx.c **** 	xfer.txSz = 1;
 1493              		.loc 1 459 0
 1494 001a 6060     		str	r0, [r4, #4]	@ tmp117, xfer.txBuff
 1495              		.loc 1 460 0
 1496 001c A260     		str	r2, [r4, #8]	@ tmp133, xfer.txSz
 461:../lpc11cx4-library/lpc_chip_11cxx_lib/src/i2c_11xx.c **** 	xfer.rxBuff = buff;
 1497              		.loc 1 461 0
 1498 001e E360     		str	r3, [r4, #12]	@ buff, xfer.rxBuff
 462:../lpc11cx4-library/lpc_chip_11cxx_lib/src/i2c_11xx.c **** 	xfer.rxSz = len;
 1499              		.loc 1 462 0
 1500 0020 2661     		str	r6, [r4, #16]	@ len, xfer.rxSz
 1501              	.LVL103:
 1502              	.L129:
 463:../lpc11cx4-library/lpc_chip_11cxx_lib/src/i2c_11xx.c **** 	while (Chip_I2C_MasterTransfer(id, &xfer) == I2C_STATUS_ARBLOST) {}
 1503              		.loc 1 463 0 discriminator 1
 1504 0022 281C     		mov	r0, r5	@, id
 1505 0024 211C     		mov	r1, r4	@, tmp140
 1506 0026 FFF7FEFF 		bl	Chip_I2C_MasterTransfer	@
 1507              	.LVL104:
 1508 002a 0228     		cmp	r0, #2	@ D.6763,
 1509 002c F9D0     		beq	.L129	@,
 464:../lpc11cx4-library/lpc_chip_11cxx_lib/src/i2c_11xx.c **** 	return len - xfer.rxSz;
 1510              		.loc 1 464 0
 1511 002e 2069     		ldr	r0, [r4, #16]	@ xfer.rxSz, xfer.rxSz
 1512 0030 301A     		sub	r0, r6, r0	@ D.6763, len, xfer.rxSz
 465:../lpc11cx4-library/lpc_chip_11cxx_lib/src/i2c_11xx.c **** }
 1513              		.loc 1 465 0
 1514 0032 08B0     		add	sp, sp, #32	@,,
 1515              	.LVL105:
 1516              		@ sp needed	@
 1517 0034 70BD     		pop	{r4, r5, r6, pc}
 1518              		.cfi_endproc
 1519              	.LFE222:
 1520              		.size	Chip_I2C_MasterCmdRead, .-Chip_I2C_MasterCmdRead
 1521 0036 C046     		.section	.text.Chip_I2C_MasterRead,"ax",%progbits
 1522              		.align	2
 1523              		.global	Chip_I2C_MasterRead
 1524              		.code	16
 1525              		.thumb_func
 1526              		.type	Chip_I2C_MasterRead, %function
 1527              	Chip_I2C_MasterRead:
 1528              	.LFB223:
 466:../lpc11cx4-library/lpc_chip_11cxx_lib/src/i2c_11xx.c **** 
 467:../lpc11cx4-library/lpc_chip_11cxx_lib/src/i2c_11xx.c **** /* Sequential master read */
 468:../lpc11cx4-library/lpc_chip_11cxx_lib/src/i2c_11xx.c **** int Chip_I2C_MasterRead(I2C_ID_T id, uint8_t slaveAddr, uint8_t *buff, int len)
 469:../lpc11cx4-library/lpc_chip_11cxx_lib/src/i2c_11xx.c **** {
ARM GAS  /tmp/ccXTVNcx.s 			page 44


 1529              		.loc 1 469 0
 1530              		.cfi_startproc
 1531              	.LVL106:
 1532 0000 30B5     		push	{r4, r5, lr}	@
 1533              		.cfi_def_cfa_offset 12
 1534              		.cfi_offset 4, -12
 1535              		.cfi_offset 5, -8
 1536              		.cfi_offset 14, -4
 1537 0002 1D1C     		mov	r5, r3	@ len, len
 470:../lpc11cx4-library/lpc_chip_11cxx_lib/src/i2c_11xx.c **** 	I2C_XFER_T xfer = {0};
 1538              		.loc 1 470 0
 1539 0004 0023     		mov	r3, #0	@ tmp119,
 1540              	.LVL107:
 469:../lpc11cx4-library/lpc_chip_11cxx_lib/src/i2c_11xx.c **** 	I2C_XFER_T xfer = {0};
 1541              		.loc 1 469 0
 1542 0006 87B0     		sub	sp, sp, #28	@,,
 1543              		.cfi_def_cfa_offset 40
 1544              		.loc 1 470 0
 1545 0008 0093     		str	r3, [sp]	@ tmp119, xfer
 1546 000a 0193     		str	r3, [sp, #4]	@ tmp119, xfer
 1547 000c 0293     		str	r3, [sp, #8]	@ tmp119, xfer
 1548 000e 0593     		str	r3, [sp, #20]	@ tmp119, xfer
 471:../lpc11cx4-library/lpc_chip_11cxx_lib/src/i2c_11xx.c **** 	xfer.slaveAddr = slaveAddr;
 1549              		.loc 1 471 0
 1550 0010 6B46     		mov	r3, sp	@ tmp134,
 469:../lpc11cx4-library/lpc_chip_11cxx_lib/src/i2c_11xx.c **** 	I2C_XFER_T xfer = {0};
 1551              		.loc 1 469 0
 1552 0012 041C     		mov	r4, r0	@ id, id
 1553              		.loc 1 471 0
 1554 0014 1970     		strb	r1, [r3]	@ slaveAddr, xfer.slaveAddr
 472:../lpc11cx4-library/lpc_chip_11cxx_lib/src/i2c_11xx.c **** 	xfer.rxBuff = buff;
 1555              		.loc 1 472 0
 1556 0016 0392     		str	r2, [sp, #12]	@ buff, xfer.rxBuff
 473:../lpc11cx4-library/lpc_chip_11cxx_lib/src/i2c_11xx.c **** 	xfer.rxSz = len;
 1557              		.loc 1 473 0
 1558 0018 0495     		str	r5, [sp, #16]	@ len, xfer.rxSz
 1559              	.LVL108:
 1560              	.L133:
 474:../lpc11cx4-library/lpc_chip_11cxx_lib/src/i2c_11xx.c **** 	while (Chip_I2C_MasterTransfer(id, &xfer) == I2C_STATUS_ARBLOST) {}
 1561              		.loc 1 474 0 discriminator 1
 1562 001a 201C     		mov	r0, r4	@, id
 1563 001c 6946     		mov	r1, sp	@,
 1564 001e FFF7FEFF 		bl	Chip_I2C_MasterTransfer	@
 1565              	.LVL109:
 1566 0022 0228     		cmp	r0, #2	@ D.6766,
 1567 0024 F9D0     		beq	.L133	@,
 475:../lpc11cx4-library/lpc_chip_11cxx_lib/src/i2c_11xx.c **** 	return len - xfer.rxSz;
 1568              		.loc 1 475 0
 1569 0026 0498     		ldr	r0, [sp, #16]	@ xfer.rxSz, xfer.rxSz
 1570 0028 281A     		sub	r0, r5, r0	@ D.6766, len, xfer.rxSz
 476:../lpc11cx4-library/lpc_chip_11cxx_lib/src/i2c_11xx.c **** }
 1571              		.loc 1 476 0
 1572 002a 07B0     		add	sp, sp, #28	@,,
 1573              		@ sp needed	@
 1574              	.LVL110:
 1575 002c 30BD     		pop	{r4, r5, pc}
 1576              		.cfi_endproc
ARM GAS  /tmp/ccXTVNcx.s 			page 45


 1577              	.LFE223:
 1578              		.size	Chip_I2C_MasterRead, .-Chip_I2C_MasterRead
 1579 002e C046     		.section	.text.Chip_I2C_IsMasterActive,"ax",%progbits
 1580              		.align	2
 1581              		.global	Chip_I2C_IsMasterActive
 1582              		.code	16
 1583              		.thumb_func
 1584              		.type	Chip_I2C_IsMasterActive, %function
 1585              	Chip_I2C_IsMasterActive:
 1586              	.LFB224:
 477:../lpc11cx4-library/lpc_chip_11cxx_lib/src/i2c_11xx.c **** 
 478:../lpc11cx4-library/lpc_chip_11cxx_lib/src/i2c_11xx.c **** /* Check if master state is active */
 479:../lpc11cx4-library/lpc_chip_11cxx_lib/src/i2c_11xx.c **** int Chip_I2C_IsMasterActive(I2C_ID_T id)
 480:../lpc11cx4-library/lpc_chip_11cxx_lib/src/i2c_11xx.c **** {
 1587              		.loc 1 480 0
 1588              		.cfi_startproc
 1589              	.LVL111:
 1590              	.LBB131:
 1591              	.LBB132:
 1592              	.LBB133:
 1593              	.LBB134:
 122:../lpc11cx4-library/lpc_chip_11cxx_lib/src/i2c_11xx.c **** }
 1594              		.loc 1 122 0
 1595 0000 F822     		mov	r2, #248	@ tmp125,
 1596              	.LBE134:
 1597              	.LBE133:
 1598              	.LBE132:
 1599              	.LBE131:
 481:../lpc11cx4-library/lpc_chip_11cxx_lib/src/i2c_11xx.c **** 	return isMasterState(i2c[id].ip);
 1600              		.loc 1 481 0
 1601 0002 C300     		lsl	r3, r0, #3	@ tmp121, id,
 1602 0004 181A     		sub	r0, r3, r0	@ tmp122, tmp121, id
 1603              	.LVL112:
 1604 0006 054B     		ldr	r3, .L137	@ tmp119,
 1605 0008 8000     		lsl	r0, r0, #2	@ tmp123, tmp122,
 1606 000a C358     		ldr	r3, [r0, r3]	@ D.6770, i2c[_2].ip
 1607              	.LVL113:
 1608              	.LBB141:
 1609              	.LBB139:
 128:../lpc11cx4-library/lpc_chip_11cxx_lib/src/i2c_11xx.c **** }
 1610              		.loc 1 128 0
 1611 000c 5F21     		mov	r1, #95	@ tmp129,
 1612              	.LBB137:
 1613              	.LBB135:
 122:../lpc11cx4-library/lpc_chip_11cxx_lib/src/i2c_11xx.c **** }
 1614              		.loc 1 122 0
 1615 000e 5B68     		ldr	r3, [r3, #4]	@ D.6771, _4->STAT
 1616              	.LVL114:
 1617              	.LBE135:
 1618              	.LBE137:
 1619              	.LBE139:
 1620              	.LBE141:
 482:../lpc11cx4-library/lpc_chip_11cxx_lib/src/i2c_11xx.c **** }
 1621              		.loc 1 482 0
 1622              		@ sp needed	@
 1623              	.LBB142:
 1624              	.LBB140:
ARM GAS  /tmp/ccXTVNcx.s 			page 46


 1625              	.LBB138:
 1626              	.LBB136:
 122:../lpc11cx4-library/lpc_chip_11cxx_lib/src/i2c_11xx.c **** }
 1627              		.loc 1 122 0
 1628 0010 1340     		and	r3, r2	@ D.6769, tmp125
 1629              	.LBE136:
 1630              	.LBE138:
 128:../lpc11cx4-library/lpc_chip_11cxx_lib/src/i2c_11xx.c **** }
 1631              		.loc 1 128 0
 1632 0012 0022     		mov	r2, #0	@ tmp131,
 1633 0014 D80F     		lsr	r0, r3, #31	@ tmp130, D.6769,
 1634              	.LVL115:
 1635 0016 9942     		cmp	r1, r3	@ tmp129, D.6769
 1636 0018 5041     		adc	r0, r0, r2	@ D.6772, tmp130, tmp131
 1637              	.LBE140:
 1638              	.LBE142:
 1639              		.loc 1 482 0
 1640 001a 7047     		bx	lr
 1641              	.L138:
 1642              		.align	2
 1643              	.L137:
 1644 001c 00000000 		.word	.LANCHOR0
 1645              		.cfi_endproc
 1646              	.LFE224:
 1647              		.size	Chip_I2C_IsMasterActive, .-Chip_I2C_IsMasterActive
 1648              		.section	.text.Chip_I2C_MasterStateHandler,"ax",%progbits
 1649              		.align	2
 1650              		.global	Chip_I2C_MasterStateHandler
 1651              		.code	16
 1652              		.thumb_func
 1653              		.type	Chip_I2C_MasterStateHandler, %function
 1654              	Chip_I2C_MasterStateHandler:
 1655              	.LFB225:
 483:../lpc11cx4-library/lpc_chip_11cxx_lib/src/i2c_11xx.c **** 
 484:../lpc11cx4-library/lpc_chip_11cxx_lib/src/i2c_11xx.c **** /* State change handler for master transfer */
 485:../lpc11cx4-library/lpc_chip_11cxx_lib/src/i2c_11xx.c **** void Chip_I2C_MasterStateHandler(I2C_ID_T id)
 486:../lpc11cx4-library/lpc_chip_11cxx_lib/src/i2c_11xx.c **** {
 1656              		.loc 1 486 0
 1657              		.cfi_startproc
 1658              	.LVL116:
 1659 0000 38B5     		push	{r3, r4, r5, lr}	@
 1660              		.cfi_def_cfa_offset 16
 1661              		.cfi_offset 3, -16
 1662              		.cfi_offset 4, -12
 1663              		.cfi_offset 5, -8
 1664              		.cfi_offset 14, -4
 487:../lpc11cx4-library/lpc_chip_11cxx_lib/src/i2c_11xx.c **** 	if (!handleMasterXferState(i2c[id].ip, i2c[id].mXfer)) {
 1665              		.loc 1 487 0
 1666 0002 C300     		lsl	r3, r0, #3	@ tmp118, id,
 1667 0004 074C     		ldr	r4, .L141	@ tmp116,
 1668 0006 1B1A     		sub	r3, r3, r0	@ tmp138, tmp118, id
 1669 0008 9B00     		lsl	r3, r3, #2	@ tmp120, tmp138,
 486:../lpc11cx4-library/lpc_chip_11cxx_lib/src/i2c_11xx.c **** 	if (!handleMasterXferState(i2c[id].ip, i2c[id].mXfer)) {
 1670              		.loc 1 486 0
 1671 000a 051C     		mov	r5, r0	@ id, id
 1672              		.loc 1 487 0
 1673 000c 1859     		ldr	r0, [r3, r4]	@ i2c[_3].ip, i2c[_3].ip
ARM GAS  /tmp/ccXTVNcx.s 			page 47


 1674              	.LVL117:
 1675 000e E418     		add	r4, r4, r3	@ tmp127, tmp116, tmp120
 1676 0010 2169     		ldr	r1, [r4, #16]	@, i2c[_3].mXfer
 1677 0012 FFF7FEFF 		bl	handleMasterXferState	@
 1678              	.LVL118:
 1679 0016 0028     		cmp	r0, #0	@ D.6776,
 1680 0018 03D1     		bne	.L139	@,
 488:../lpc11cx4-library/lpc_chip_11cxx_lib/src/i2c_11xx.c **** 		i2c[id].mEvent(id, I2C_EVENT_DONE);
 1681              		.loc 1 488 0
 1682 001a A368     		ldr	r3, [r4, #8]	@ i2c[_3].mEvent, i2c[_3].mEvent
 1683 001c 281C     		mov	r0, r5	@, id
 1684 001e 0221     		mov	r1, #2	@,
 1685 0020 9847     		blx	r3	@ i2c[_3].mEvent
 1686              	.LVL119:
 1687              	.L139:
 489:../lpc11cx4-library/lpc_chip_11cxx_lib/src/i2c_11xx.c **** 	}
 490:../lpc11cx4-library/lpc_chip_11cxx_lib/src/i2c_11xx.c **** }
 1688              		.loc 1 490 0
 1689              		@ sp needed	@
 1690 0022 38BD     		pop	{r3, r4, r5, pc}
 1691              	.L142:
 1692              		.align	2
 1693              	.L141:
 1694 0024 00000000 		.word	.LANCHOR0
 1695              		.cfi_endproc
 1696              	.LFE225:
 1697              		.size	Chip_I2C_MasterStateHandler, .-Chip_I2C_MasterStateHandler
 1698              		.section	.text.Chip_I2C_EventHandlerPolling,"ax",%progbits
 1699              		.align	2
 1700              		.global	Chip_I2C_EventHandlerPolling
 1701              		.code	16
 1702              		.thumb_func
 1703              		.type	Chip_I2C_EventHandlerPolling, %function
 1704              	Chip_I2C_EventHandlerPolling:
 1705              	.LFB213:
 345:../lpc11cx4-library/lpc_chip_11cxx_lib/src/i2c_11xx.c **** 	struct i2c_interface *iic = &i2c[id];
 1706              		.loc 1 345 0
 1707              		.cfi_startproc
 1708              	.LVL120:
 1709 0000 F0B5     		push	{r4, r5, r6, r7, lr}	@
 1710              		.cfi_def_cfa_offset 20
 1711              		.cfi_offset 4, -20
 1712              		.cfi_offset 5, -16
 1713              		.cfi_offset 6, -12
 1714              		.cfi_offset 7, -8
 1715              		.cfi_offset 14, -4
 1716 0002 4746     		mov	r7, r8	@,
 1717 0004 80B4     		push	{r7}	@
 1718              		.cfi_def_cfa_offset 24
 1719              		.cfi_offset 8, -24
 350:../lpc11cx4-library/lpc_chip_11cxx_lib/src/i2c_11xx.c **** 		return;
 1720              		.loc 1 350 0
 1721 0006 0129     		cmp	r1, #1	@ event,
 1722 0008 02D0     		beq	.L151	@,
 1723              	.LVL121:
 1724              	.L143:
 361:../lpc11cx4-library/lpc_chip_11cxx_lib/src/i2c_11xx.c **** 
ARM GAS  /tmp/ccXTVNcx.s 			page 48


 1725              		.loc 1 361 0
 1726              		@ sp needed	@
 1727 000a 04BC     		pop	{r2}
 1728 000c 9046     		mov	r8, r2
 1729 000e F0BD     		pop	{r4, r5, r6, r7, pc}
 1730              	.LVL122:
 1731              	.L151:
 1732 0010 8046     		mov	r8, r0	@ id, id
 1733              	.LBB143:
 1734              	.LBB144:
 491:../lpc11cx4-library/lpc_chip_11cxx_lib/src/i2c_11xx.c **** 
 492:../lpc11cx4-library/lpc_chip_11cxx_lib/src/i2c_11xx.c **** /* Setup slave function */
 493:../lpc11cx4-library/lpc_chip_11cxx_lib/src/i2c_11xx.c **** void Chip_I2C_SlaveSetup(I2C_ID_T id,
 494:../lpc11cx4-library/lpc_chip_11cxx_lib/src/i2c_11xx.c **** 						 I2C_SLAVE_ID sid,
 495:../lpc11cx4-library/lpc_chip_11cxx_lib/src/i2c_11xx.c **** 						 I2C_XFER_T *xfer,
 496:../lpc11cx4-library/lpc_chip_11cxx_lib/src/i2c_11xx.c **** 						 I2C_EVENTHANDLER_T event,
 497:../lpc11cx4-library/lpc_chip_11cxx_lib/src/i2c_11xx.c **** 						 uint8_t addrMask)
 498:../lpc11cx4-library/lpc_chip_11cxx_lib/src/i2c_11xx.c **** {
 499:../lpc11cx4-library/lpc_chip_11cxx_lib/src/i2c_11xx.c **** 	struct i2c_interface *iic = &i2c[id];
 500:../lpc11cx4-library/lpc_chip_11cxx_lib/src/i2c_11xx.c **** 	struct i2c_slave_interface *si2c = &i2c_slave[id][sid];
 501:../lpc11cx4-library/lpc_chip_11cxx_lib/src/i2c_11xx.c **** 	si2c->xfer = xfer;
 502:../lpc11cx4-library/lpc_chip_11cxx_lib/src/i2c_11xx.c **** 	si2c->event = event;
 503:../lpc11cx4-library/lpc_chip_11cxx_lib/src/i2c_11xx.c **** 
 504:../lpc11cx4-library/lpc_chip_11cxx_lib/src/i2c_11xx.c **** 	/* Set up the slave address */
 505:../lpc11cx4-library/lpc_chip_11cxx_lib/src/i2c_11xx.c **** 	if (sid != I2C_SLAVE_GENERAL) {
 506:../lpc11cx4-library/lpc_chip_11cxx_lib/src/i2c_11xx.c **** 		setSlaveAddr(iic->ip, sid, xfer->slaveAddr, addrMask);
 507:../lpc11cx4-library/lpc_chip_11cxx_lib/src/i2c_11xx.c **** 	}
 508:../lpc11cx4-library/lpc_chip_11cxx_lib/src/i2c_11xx.c **** 
 509:../lpc11cx4-library/lpc_chip_11cxx_lib/src/i2c_11xx.c **** 	if (!SLAVE_ACTIVE(iic) && !iic->mXfer) {
 510:../lpc11cx4-library/lpc_chip_11cxx_lib/src/i2c_11xx.c **** 		startSlaverXfer(iic->ip);
 511:../lpc11cx4-library/lpc_chip_11cxx_lib/src/i2c_11xx.c **** 	}
 512:../lpc11cx4-library/lpc_chip_11cxx_lib/src/i2c_11xx.c **** 	iic->flags |= 1 << (sid + 8);
 513:../lpc11cx4-library/lpc_chip_11cxx_lib/src/i2c_11xx.c **** }
 514:../lpc11cx4-library/lpc_chip_11cxx_lib/src/i2c_11xx.c **** 
 515:../lpc11cx4-library/lpc_chip_11cxx_lib/src/i2c_11xx.c **** /* I2C Slave event handler */
 516:../lpc11cx4-library/lpc_chip_11cxx_lib/src/i2c_11xx.c **** void Chip_I2C_SlaveStateHandler(I2C_ID_T id)
 517:../lpc11cx4-library/lpc_chip_11cxx_lib/src/i2c_11xx.c **** {
 518:../lpc11cx4-library/lpc_chip_11cxx_lib/src/i2c_11xx.c **** 	int ret;
 519:../lpc11cx4-library/lpc_chip_11cxx_lib/src/i2c_11xx.c **** 	struct i2c_interface *iic = &i2c[id];
 520:../lpc11cx4-library/lpc_chip_11cxx_lib/src/i2c_11xx.c **** 
 521:../lpc11cx4-library/lpc_chip_11cxx_lib/src/i2c_11xx.c **** 	/* Get the currently addressed slave */
 522:../lpc11cx4-library/lpc_chip_11cxx_lib/src/i2c_11xx.c **** 	if (!iic->sXfer) {
 523:../lpc11cx4-library/lpc_chip_11cxx_lib/src/i2c_11xx.c **** 		struct i2c_slave_interface *si2c;
 524:../lpc11cx4-library/lpc_chip_11cxx_lib/src/i2c_11xx.c **** 
 525:../lpc11cx4-library/lpc_chip_11cxx_lib/src/i2c_11xx.c **** 		I2C_SLAVE_ID sid = getSlaveIndex(iic->ip);
 526:../lpc11cx4-library/lpc_chip_11cxx_lib/src/i2c_11xx.c **** 		si2c = &i2c_slave[id][sid];
 527:../lpc11cx4-library/lpc_chip_11cxx_lib/src/i2c_11xx.c **** 		iic->sXfer = si2c->xfer;
 528:../lpc11cx4-library/lpc_chip_11cxx_lib/src/i2c_11xx.c **** 		iic->sEvent = si2c->event;
 529:../lpc11cx4-library/lpc_chip_11cxx_lib/src/i2c_11xx.c **** 	}
 530:../lpc11cx4-library/lpc_chip_11cxx_lib/src/i2c_11xx.c **** 
 531:../lpc11cx4-library/lpc_chip_11cxx_lib/src/i2c_11xx.c **** 	iic->sXfer->slaveAddr |= iic->mXfer != 0;
 532:../lpc11cx4-library/lpc_chip_11cxx_lib/src/i2c_11xx.c **** 	ret = handleSlaveXferState(iic->ip, iic->sXfer);
 533:../lpc11cx4-library/lpc_chip_11cxx_lib/src/i2c_11xx.c **** 	if (ret) {
 534:../lpc11cx4-library/lpc_chip_11cxx_lib/src/i2c_11xx.c **** 		if (iic->sXfer->status == I2C_STATUS_DONE) {
 535:../lpc11cx4-library/lpc_chip_11cxx_lib/src/i2c_11xx.c **** 			iic->sXfer = 0;
 536:../lpc11cx4-library/lpc_chip_11cxx_lib/src/i2c_11xx.c **** 		}
 537:../lpc11cx4-library/lpc_chip_11cxx_lib/src/i2c_11xx.c **** 		iic->sEvent(id, (I2C_EVENT_T) ret);
ARM GAS  /tmp/ccXTVNcx.s 			page 49


 538:../lpc11cx4-library/lpc_chip_11cxx_lib/src/i2c_11xx.c **** 	}
 539:../lpc11cx4-library/lpc_chip_11cxx_lib/src/i2c_11xx.c **** }
 540:../lpc11cx4-library/lpc_chip_11cxx_lib/src/i2c_11xx.c **** 
 541:../lpc11cx4-library/lpc_chip_11cxx_lib/src/i2c_11xx.c **** /* Disable I2C device */
 542:../lpc11cx4-library/lpc_chip_11cxx_lib/src/i2c_11xx.c **** void Chip_I2C_Disable(I2C_ID_T id)
 543:../lpc11cx4-library/lpc_chip_11cxx_lib/src/i2c_11xx.c **** {
 544:../lpc11cx4-library/lpc_chip_11cxx_lib/src/i2c_11xx.c **** 	LPC_I2Cx(id)->CONCLR = I2C_I2CONCLR_I2ENC;
 545:../lpc11cx4-library/lpc_chip_11cxx_lib/src/i2c_11xx.c **** }
 546:../lpc11cx4-library/lpc_chip_11cxx_lib/src/i2c_11xx.c **** 
 547:../lpc11cx4-library/lpc_chip_11cxx_lib/src/i2c_11xx.c **** /* State change checking */
 548:../lpc11cx4-library/lpc_chip_11cxx_lib/src/i2c_11xx.c **** int Chip_I2C_IsStateChanged(I2C_ID_T id)
 549:../lpc11cx4-library/lpc_chip_11cxx_lib/src/i2c_11xx.c **** {
 550:../lpc11cx4-library/lpc_chip_11cxx_lib/src/i2c_11xx.c **** 	return (LPC_I2Cx(id)->CONSET & I2C_CON_SI) != 0;
 1735              		.loc 1 550 0
 1736 0012 0826     		mov	r6, #8	@ tmp142,
 1737              	.LBE144:
 1738              	.LBE143:
 354:../lpc11cx4-library/lpc_chip_11cxx_lib/src/i2c_11xx.c **** 	/* Call the state change handler till xfer is done */
 1739              		.loc 1 354 0
 1740 0014 C400     		lsl	r4, r0, #3	@ tmp135, id,
 1741 0016 084D     		ldr	r5, .L152	@ tmp136,
 1742 0018 241A     		sub	r4, r4, r0	@ tmp121, tmp135, id
 1743 001a A400     		lsl	r4, r4, #2	@ tmp122, tmp121,
 1744 001c 2B19     		add	r3, r5, r4	@ tmp123, tmp136, tmp122
 1745 001e 1F69     		ldr	r7, [r3, #16]	@ D.6784, MEM[(struct i2c_interface *)&i2c][_4].mXfer
 1746              	.LVL123:
 1747              	.L146:
 356:../lpc11cx4-library/lpc_chip_11cxx_lib/src/i2c_11xx.c **** 		if (Chip_I2C_IsStateChanged(id)) {
 1748              		.loc 1 356 0
 1749 0020 3B7D     		ldrb	r3, [r7, #20]	@ MEM[(volatile I2C_STATUS_T *)_7 + 20B], MEM[(volatile I2C_STATUS_T *)_7 + 20B
 1750 0022 042B     		cmp	r3, #4	@ MEM[(volatile I2C_STATUS_T *)_7 + 20B],
 1751 0024 F1D1     		bne	.L143	@,
 1752              	.LVL124:
 1753              	.LBB146:
 1754              	.LBB145:
 1755              		.loc 1 550 0
 1756 0026 2B59     		ldr	r3, [r5, r4]	@ D.6786, i2c[_4].ip
 1757 0028 1B68     		ldr	r3, [r3]	@ D.6787, _11->CONSET
 1758              	.LBE145:
 1759              	.LBE146:
 357:../lpc11cx4-library/lpc_chip_11cxx_lib/src/i2c_11xx.c **** 			Chip_I2C_MasterStateHandler(id);
 1760              		.loc 1 357 0
 1761 002a 1E42     		tst	r6, r3	@ tmp142, D.6787
 1762 002c F8D0     		beq	.L146	@,
 358:../lpc11cx4-library/lpc_chip_11cxx_lib/src/i2c_11xx.c **** 		}
 1763              		.loc 1 358 0
 1764 002e 4046     		mov	r0, r8	@, id
 1765 0030 FFF7FEFF 		bl	Chip_I2C_MasterStateHandler	@
 1766              	.LVL125:
 1767 0034 F4E7     		b	.L146	@
 1768              	.L153:
 1769 0036 C046     		.align	2
 1770              	.L152:
 1771 0038 00000000 		.word	.LANCHOR0
 1772              		.cfi_endproc
 1773              	.LFE213:
 1774              		.size	Chip_I2C_EventHandlerPolling, .-Chip_I2C_EventHandlerPolling
ARM GAS  /tmp/ccXTVNcx.s 			page 50


 1775              		.section	.text.Chip_I2C_SlaveSetup,"ax",%progbits
 1776              		.align	2
 1777              		.global	Chip_I2C_SlaveSetup
 1778              		.code	16
 1779              		.thumb_func
 1780              		.type	Chip_I2C_SlaveSetup, %function
 1781              	Chip_I2C_SlaveSetup:
 1782              	.LFB226:
 498:../lpc11cx4-library/lpc_chip_11cxx_lib/src/i2c_11xx.c **** 	struct i2c_interface *iic = &i2c[id];
 1783              		.loc 1 498 0
 1784              		.cfi_startproc
 1785              	.LVL126:
 1786 0000 F0B5     		push	{r4, r5, r6, r7, lr}	@
 1787              		.cfi_def_cfa_offset 20
 1788              		.cfi_offset 4, -20
 1789              		.cfi_offset 5, -16
 1790              		.cfi_offset 6, -12
 1791              		.cfi_offset 7, -8
 1792              		.cfi_offset 14, -4
 498:../lpc11cx4-library/lpc_chip_11cxx_lib/src/i2c_11xx.c **** 	struct i2c_interface *iic = &i2c[id];
 1793              		.loc 1 498 0
 1794 0002 05AC     		add	r4, sp, #20	@ tmp136,,
 1795              	.LVL127:
 1796 0004 2678     		ldrb	r6, [r4]	@ addrMask, addrMask
 501:../lpc11cx4-library/lpc_chip_11cxx_lib/src/i2c_11xx.c **** 	si2c->event = event;
 1797              		.loc 1 501 0
 1798 0006 8400     		lsl	r4, r0, #2	@ tmp139, id,
 1799              	.LVL128:
 1800 0008 2418     		add	r4, r4, r0	@ tmp140, tmp139, id
 1801 000a 1B4D     		ldr	r5, .L163	@ tmp137,
 1802 000c 6418     		add	r4, r4, r1	@ tmp141, tmp140, sid
 1803 000e E400     		lsl	r4, r4, #3	@ tmp142, tmp141,
 1804 0010 6251     		str	r2, [r4, r5]	@ xfer, MEM[(struct i2c_slave_interface *)&i2c_slave][_4][_6].xfer
 502:../lpc11cx4-library/lpc_chip_11cxx_lib/src/i2c_11xx.c **** 
 1805              		.loc 1 502 0
 1806 0012 2C19     		add	r4, r5, r4	@ tmp149, tmp137, tmp142
 1807 0014 6360     		str	r3, [r4, #4]	@ event, MEM[(struct i2c_slave_interface *)&i2c_slave][_4][_6].event
 506:../lpc11cx4-library/lpc_chip_11cxx_lib/src/i2c_11xx.c **** 	}
 1808              		.loc 1 506 0
 1809 0016 194D     		ldr	r5, .L163+4	@ tmp196,
 1810 0018 C300     		lsl	r3, r0, #3	@ tmp195, id,
 1811              	.LVL129:
 505:../lpc11cx4-library/lpc_chip_11cxx_lib/src/i2c_11xx.c **** 		setSlaveAddr(iic->ip, sid, xfer->slaveAddr, addrMask);
 1812              		.loc 1 505 0
 1813 001a 0029     		cmp	r1, #0	@ sid,
 1814 001c 0FD0     		beq	.L155	@,
 506:../lpc11cx4-library/lpc_chip_11cxx_lib/src/i2c_11xx.c **** 	}
 1815              		.loc 1 506 0
 1816 001e 1778     		ldrb	r7, [r2]	@ D.6793, *xfer_8(D)
 1817              	.LBB147:
 1818              	.LBB148:
 135:../lpc11cx4-library/lpc_chip_11cxx_lib/src/i2c_11xx.c **** 	if (sid == I2C_SLAVE_0) {
 1819              		.loc 1 135 0
 1820 0020 0A1C     		mov	r2, r1	@ tmp155, sid
 1821              	.LVL130:
 1822              	.LBE148:
 1823              	.LBE147:
ARM GAS  /tmp/ccXTVNcx.s 			page 51


 506:../lpc11cx4-library/lpc_chip_11cxx_lib/src/i2c_11xx.c **** 	}
 1824              		.loc 1 506 0
 1825 0022 1C1A     		sub	r4, r3, r0	@ tmp153, tmp195, id
 1826              	.LVL131:
 1827 0024 A400     		lsl	r4, r4, #2	@ tmp154, tmp153,
 1828 0026 2C59     		ldr	r4, [r5, r4]	@ D.6792, MEM[(struct i2c_interface *)&i2c][_4].ip
 1829              	.LVL132:
 1830              	.LBB152:
 1831              	.LBB150:
 135:../lpc11cx4-library/lpc_chip_11cxx_lib/src/i2c_11xx.c **** 	if (sid == I2C_SLAVE_0) {
 1832              		.loc 1 135 0
 1833 0028 0B32     		add	r2, r2, #11	@ tmp155,
 1834 002a 9200     		lsl	r2, r2, #2	@ tmp156, tmp155,
 1835 002c 1651     		str	r6, [r2, r4]	@ addrMask, _12->MASK
 136:../lpc11cx4-library/lpc_chip_11cxx_lib/src/i2c_11xx.c **** 		pI2C->ADR0 = addr;
 1836              		.loc 1 136 0
 1837 002e 0129     		cmp	r1, #1	@ sid,
 1838 0030 19D0     		beq	.L161	@,
 1839              	.LVL133:
 1840              	.LBB149:
 141:../lpc11cx4-library/lpc_chip_11cxx_lib/src/i2c_11xx.c **** 	}
 1841              		.loc 1 141 0
 1842 0032 134A     		ldr	r2, .L163+8	@ tmp200,
 140:../lpc11cx4-library/lpc_chip_11cxx_lib/src/i2c_11xx.c **** 		abase[index - 1] = addr;
 1843              		.loc 1 140 0
 1844 0034 2034     		add	r4, r4, #32	@ abase,
 1845              	.LVL134:
 141:../lpc11cx4-library/lpc_chip_11cxx_lib/src/i2c_11xx.c **** 	}
 1846              		.loc 1 141 0
 1847 0036 8A18     		add	r2, r1, r2	@ D.6796, sid, tmp200
 1848 0038 9200     		lsl	r2, r2, #2	@ D.6796, D.6796,
 1849 003a A418     		add	r4, r4, r2	@ D.6797, abase, D.6796
 1850              	.LVL135:
 1851 003c 2760     		str	r7, [r4]	@ D.6793, *_33
 1852              	.LVL136:
 1853              	.L155:
 1854              	.LBE149:
 1855              	.LBE150:
 1856              	.LBE152:
 509:../lpc11cx4-library/lpc_chip_11cxx_lib/src/i2c_11xx.c **** 		startSlaverXfer(iic->ip);
 1857              		.loc 1 509 0
 1858 003e FF27     		mov	r7, #255	@ tmp168,
 1859 0040 1C1A     		sub	r4, r3, r0	@ tmp197, tmp195, id
 1860 0042 A400     		lsl	r4, r4, #2	@ tmp164, tmp197,
 1861 0044 2E19     		add	r6, r5, r4	@ tmp165, tmp196, tmp164
 1862 0046 B269     		ldr	r2, [r6, #24]	@ D.6794, MEM[(struct i2c_interface *)&i2c][_4].flags
 1863 0048 3F02     		lsl	r7, r7, #8	@ tmp168, tmp168,
 1864 004a 3A42     		tst	r2, r7	@ D.6794, tmp168
 1865 004c 02D1     		bne	.L157	@,
 509:../lpc11cx4-library/lpc_chip_11cxx_lib/src/i2c_11xx.c **** 		startSlaverXfer(iic->ip);
 1866              		.loc 1 509 0 is_stmt 0 discriminator 1
 1867 004e 3669     		ldr	r6, [r6, #16]	@ MEM[(struct i2c_interface *)&i2c][_4].mXfer, MEM[(struct i2c_interface *)&i2c]
 1868 0050 002E     		cmp	r6, #0	@ MEM[(struct i2c_interface *)&i2c][_4].mXfer,
 1869 0052 0AD0     		beq	.L162	@,
 1870              	.L157:
 512:../lpc11cx4-library/lpc_chip_11cxx_lib/src/i2c_11xx.c **** }
 1871              		.loc 1 512 0 is_stmt 1
ARM GAS  /tmp/ccXTVNcx.s 			page 52


 1872 0054 1B1A     		sub	r3, r3, r0	@ tmp187, tmp195, id
 1873 0056 0120     		mov	r0, #1	@ tmp193,
 1874              	.LVL137:
 1875 0058 0831     		add	r1, r1, #8	@ D.6791,
 1876              	.LVL138:
 1877 005a 8840     		lsl	r0, r0, r1	@ D.6791, D.6791, D.6791
 1878 005c 9B00     		lsl	r3, r3, #2	@ tmp188, tmp187,
 1879 005e EB18     		add	r3, r5, r3	@ tmp189, tmp196, tmp188
 1880 0060 0243     		orr	r2, r0	@ D.6794, D.6791
 1881 0062 9A61     		str	r2, [r3, #24]	@ D.6794, MEM[(struct i2c_interface *)&i2c][_4].flags
 513:../lpc11cx4-library/lpc_chip_11cxx_lib/src/i2c_11xx.c **** 
 1882              		.loc 1 513 0
 1883              		@ sp needed	@
 1884 0064 F0BD     		pop	{r4, r5, r6, r7, pc}
 1885              	.LVL139:
 1886              	.L161:
 1887              	.LBB153:
 1888              	.LBB151:
 137:../lpc11cx4-library/lpc_chip_11cxx_lib/src/i2c_11xx.c **** 	}
 1889              		.loc 1 137 0
 1890 0066 E760     		str	r7, [r4, #12]	@ D.6793, _12->ADR0
 1891 0068 E9E7     		b	.L155	@
 1892              	.LVL140:
 1893              	.L162:
 1894              	.LBE151:
 1895              	.LBE153:
 510:../lpc11cx4-library/lpc_chip_11cxx_lib/src/i2c_11xx.c **** 	}
 1896              		.loc 1 510 0
 1897 006a 2C59     		ldr	r4, [r5, r4]	@ D.6792, MEM[(struct i2c_interface *)&i2c][_4].ip
 1898              	.LVL141:
 1899              	.LBB154:
 1900              	.LBB155:
 107:../lpc11cx4-library/lpc_chip_11cxx_lib/src/i2c_11xx.c **** 
 1901              		.loc 1 107 0
 1902 006c 3836     		add	r6, r6, #56	@ tmp182,
 1903 006e A661     		str	r6, [r4, #24]	@ tmp182, _19->CONCLR
 110:../lpc11cx4-library/lpc_chip_11cxx_lib/src/i2c_11xx.c **** }
 1904              		.loc 1 110 0
 1905 0070 0C36     		add	r6, r6, #12	@ tmp183,
 1906 0072 2660     		str	r6, [r4]	@ tmp183, _19->CONSET
 1907 0074 EEE7     		b	.L157	@
 1908              	.L164:
 1909 0076 C046     		.align	2
 1910              	.L163:
 1911 0078 00000000 		.word	.LANCHOR1
 1912 007c 00000000 		.word	.LANCHOR0
 1913 0080 FEFFFF3F 		.word	1073741822
 1914              	.LBE155:
 1915              	.LBE154:
 1916              		.cfi_endproc
 1917              	.LFE226:
 1918              		.size	Chip_I2C_SlaveSetup, .-Chip_I2C_SlaveSetup
 1919              		.section	.text.Chip_I2C_SlaveStateHandler,"ax",%progbits
 1920              		.align	2
 1921              		.global	Chip_I2C_SlaveStateHandler
 1922              		.code	16
 1923              		.thumb_func
ARM GAS  /tmp/ccXTVNcx.s 			page 53


 1924              		.type	Chip_I2C_SlaveStateHandler, %function
 1925              	Chip_I2C_SlaveStateHandler:
 1926              	.LFB227:
 517:../lpc11cx4-library/lpc_chip_11cxx_lib/src/i2c_11xx.c **** 	int ret;
 1927              		.loc 1 517 0
 1928              		.cfi_startproc
 1929              	.LVL142:
 1930 0000 F0B5     		push	{r4, r5, r6, r7, lr}	@
 1931              		.cfi_def_cfa_offset 20
 1932              		.cfi_offset 4, -20
 1933              		.cfi_offset 5, -16
 1934              		.cfi_offset 6, -12
 1935              		.cfi_offset 7, -8
 1936              		.cfi_offset 14, -4
 1937 0002 5746     		mov	r7, r10	@,
 1938 0004 4E46     		mov	r6, r9	@,
 1939 0006 4546     		mov	r5, r8	@,
 522:../lpc11cx4-library/lpc_chip_11cxx_lib/src/i2c_11xx.c **** 		struct i2c_slave_interface *si2c;
 1940              		.loc 1 522 0
 1941 0008 C400     		lsl	r4, r0, #3	@ tmp219, id,
 517:../lpc11cx4-library/lpc_chip_11cxx_lib/src/i2c_11xx.c **** 	int ret;
 1942              		.loc 1 517 0
 1943 000a E0B4     		push	{r5, r6, r7}	@
 1944              		.cfi_def_cfa_offset 32
 1945              		.cfi_offset 8, -32
 1946              		.cfi_offset 9, -28
 1947              		.cfi_offset 10, -24
 522:../lpc11cx4-library/lpc_chip_11cxx_lib/src/i2c_11xx.c **** 		struct i2c_slave_interface *si2c;
 1948              		.loc 1 522 0
 1949 000c 231A     		sub	r3, r4, r0	@ tmp218, tmp219, id
 1950 000e 204E     		ldr	r6, .L175	@ tmp217,
 1951 0010 9B00     		lsl	r3, r3, #2	@ tmp133, tmp218,
 1952 0012 F218     		add	r2, r6, r3	@ tmp134, tmp217, tmp133
 1953 0014 9146     		mov	r9, r2	@ tmp134, tmp134
 1954 0016 1022     		mov	r2, #16	@ tmp135,
 1955 0018 4A44     		add	r2, r2, r9	@ tmp135, tmp134
 1956              	.LBB156:
 525:../lpc11cx4-library/lpc_chip_11cxx_lib/src/i2c_11xx.c **** 		si2c = &i2c_slave[id][sid];
 1957              		.loc 1 525 0
 1958 001a 9B59     		ldr	r3, [r3, r6]	@ D.6810, MEM[(struct i2c_interface *)&i2c][_5].ip
 1959              	.LBE156:
 522:../lpc11cx4-library/lpc_chip_11cxx_lib/src/i2c_11xx.c **** 		struct i2c_slave_interface *si2c;
 1960              		.loc 1 522 0
 1961 001c 5768     		ldr	r7, [r2, #4]	@ D.6803, MEM[(struct i2c_interface *)&i2c][_5].sXfer
 517:../lpc11cx4-library/lpc_chip_11cxx_lib/src/i2c_11xx.c **** 	int ret;
 1962              		.loc 1 517 0
 1963 001e 051C     		mov	r5, r0	@ id, id
 522:../lpc11cx4-library/lpc_chip_11cxx_lib/src/i2c_11xx.c **** 		struct i2c_slave_interface *si2c;
 1964              		.loc 1 522 0
 1965 0020 9246     		mov	r10, r2	@ tmp135, tmp135
 1966              	.LBB157:
 525:../lpc11cx4-library/lpc_chip_11cxx_lib/src/i2c_11xx.c **** 		si2c = &i2c_slave[id][sid];
 1967              		.loc 1 525 0
 1968 0022 9846     		mov	r8, r3	@ D.6810, D.6810
 1969              	.LBE157:
 522:../lpc11cx4-library/lpc_chip_11cxx_lib/src/i2c_11xx.c **** 		struct i2c_slave_interface *si2c;
 1970              		.loc 1 522 0
ARM GAS  /tmp/ccXTVNcx.s 			page 54


 1971 0024 002F     		cmp	r7, #0	@ D.6803,
 1972 0026 23D0     		beq	.L173	@,
 1973              	.LVL143:
 1974              	.L167:
 531:../lpc11cx4-library/lpc_chip_11cxx_lib/src/i2c_11xx.c **** 	ret = handleSlaveXferState(iic->ip, iic->sXfer);
 1975              		.loc 1 531 0
 1976 0028 1022     		mov	r2, #16	@ tmp190,
 1977 002a 9146     		mov	r9, r2	@ tmp190, tmp190
 1978 002c 631B     		sub	r3, r4, r5	@ tmp187, tmp219, id
 1979 002e 9B00     		lsl	r3, r3, #2	@ tmp188, tmp187,
 1980 0030 F318     		add	r3, r6, r3	@ tmp189, tmp217, tmp188
 1981 0032 9944     		add	r9, r9, r3	@ tmp190, tmp189
 1982 0034 1B69     		ldr	r3, [r3, #16]	@ MEM[(struct i2c_interface *)&i2c][_5].mXfer, MEM[(struct i2c_interface *)&i2c]
 532:../lpc11cx4-library/lpc_chip_11cxx_lib/src/i2c_11xx.c **** 	if (ret) {
 1983              		.loc 1 532 0
 1984 0036 4046     		mov	r0, r8	@, D.6810
 531:../lpc11cx4-library/lpc_chip_11cxx_lib/src/i2c_11xx.c **** 	ret = handleSlaveXferState(iic->ip, iic->sXfer);
 1985              		.loc 1 531 0
 1986 0038 5A1E     		sub	r2, r3, #1	@ tmp194, MEM[(struct i2c_interface *)&i2c][_5].mXfer
 1987 003a 9341     		sbc	r3, r3, r2	@ tmp193, MEM[(struct i2c_interface *)&i2c][_5].mXfer, tmp194
 1988 003c 3A78     		ldrb	r2, [r7]	@ *_43, *_43
 532:../lpc11cx4-library/lpc_chip_11cxx_lib/src/i2c_11xx.c **** 	if (ret) {
 1989              		.loc 1 532 0
 1990 003e 391C     		mov	r1, r7	@, D.6803
 531:../lpc11cx4-library/lpc_chip_11cxx_lib/src/i2c_11xx.c **** 	ret = handleSlaveXferState(iic->ip, iic->sXfer);
 1991              		.loc 1 531 0
 1992 0040 1343     		orr	r3, r2	@ tmp197, *_43
 1993 0042 3B70     		strb	r3, [r7]	@ tmp197, _43->slaveAddr
 532:../lpc11cx4-library/lpc_chip_11cxx_lib/src/i2c_11xx.c **** 	if (ret) {
 1994              		.loc 1 532 0
 1995 0044 FFF7FEFF 		bl	handleSlaveXferState	@
 1996              	.LVL144:
 533:../lpc11cx4-library/lpc_chip_11cxx_lib/src/i2c_11xx.c **** 		if (iic->sXfer->status == I2C_STATUS_DONE) {
 1997              		.loc 1 533 0
 1998 0048 0028     		cmp	r0, #0	@ ret,
 1999 004a 09D0     		beq	.L165	@,
 534:../lpc11cx4-library/lpc_chip_11cxx_lib/src/i2c_11xx.c **** 			iic->sXfer = 0;
 2000              		.loc 1 534 0
 2001 004c 3B7D     		ldrb	r3, [r7, #20]	@ tmp199,
 2002 004e 002B     		cmp	r3, #0	@ tmp199,
 2003 0050 0BD0     		beq	.L174	@,
 2004              	.L169:
 537:../lpc11cx4-library/lpc_chip_11cxx_lib/src/i2c_11xx.c **** 	}
 2005              		.loc 1 537 0
 2006 0052 641B     		sub	r4, r4, r5	@ tmp211, tmp219, id
 2007 0054 A400     		lsl	r4, r4, #2	@ tmp212, tmp211,
 2008 0056 3419     		add	r4, r6, r4	@ tmp213, tmp217, tmp212
 2009 0058 C1B2     		uxtb	r1, r0	@ ret, ret
 2010 005a E368     		ldr	r3, [r4, #12]	@ MEM[(struct i2c_interface *)&i2c][_5].sEvent, MEM[(struct i2c_interface *)&i2c
 2011 005c 281C     		mov	r0, r5	@, id
 2012              	.LVL145:
 2013 005e 9847     		blx	r3	@ MEM[(struct i2c_interface *)&i2c][_5].sEvent
 2014              	.LVL146:
 2015              	.L165:
 539:../lpc11cx4-library/lpc_chip_11cxx_lib/src/i2c_11xx.c **** 
 2016              		.loc 1 539 0
 2017              		@ sp needed	@
ARM GAS  /tmp/ccXTVNcx.s 			page 55


 2018              	.LVL147:
 2019 0060 1CBC     		pop	{r2, r3, r4}
 2020 0062 9046     		mov	r8, r2
 2021 0064 9946     		mov	r9, r3
 2022 0066 A246     		mov	r10, r4
 2023 0068 F0BD     		pop	{r4, r5, r6, r7, pc}
 2024              	.LVL148:
 2025              	.L174:
 535:../lpc11cx4-library/lpc_chip_11cxx_lib/src/i2c_11xx.c **** 		}
 2026              		.loc 1 535 0
 2027 006a 4A46     		mov	r2, r9	@ tmp190, tmp190
 2028 006c 5360     		str	r3, [r2, #4]	@ tmp199, MEM[(struct i2c_interface *)&i2c][_5].sXfer
 2029 006e F0E7     		b	.L169	@
 2030              	.LVL149:
 2031              	.L173:
 2032              	.LBB158:
 525:../lpc11cx4-library/lpc_chip_11cxx_lib/src/i2c_11xx.c **** 		si2c = &i2c_slave[id][sid];
 2033              		.loc 1 525 0
 2034 0070 181C     		mov	r0, r3	@, D.6810
 2035              	.LVL150:
 2036 0072 FFF7FEFF 		bl	getSlaveIndex	@
 2037              	.LVL151:
 527:../lpc11cx4-library/lpc_chip_11cxx_lib/src/i2c_11xx.c **** 		iic->sEvent = si2c->event;
 2038              		.loc 1 527 0
 2039 0076 AB00     		lsl	r3, r5, #2	@ tmp157, id,
 2040 0078 5B19     		add	r3, r3, r5	@ tmp158, tmp157, id
 2041 007a 1818     		add	r0, r3, r0	@ tmp159, tmp158, tmp146
 2042              	.LVL152:
 2043 007c 5346     		mov	r3, r10	@ tmp135, tmp135
 2044 007e 054A     		ldr	r2, .L175+4	@ tmp155,
 2045 0080 C000     		lsl	r0, r0, #3	@ tmp160, tmp159,
 2046 0082 8758     		ldr	r7, [r0, r2]	@ MEM[(struct i2c_slave_interface *)&i2c_slave][_5][_11].xfer, MEM[(struct i2c_sl
 528:../lpc11cx4-library/lpc_chip_11cxx_lib/src/i2c_11xx.c **** 	}
 2047              		.loc 1 528 0
 2048 0084 1018     		add	r0, r2, r0	@ tmp175, tmp155, tmp160
 527:../lpc11cx4-library/lpc_chip_11cxx_lib/src/i2c_11xx.c **** 		iic->sEvent = si2c->event;
 2049              		.loc 1 527 0
 2050 0086 5F60     		str	r7, [r3, #4]	@ MEM[(struct i2c_slave_interface *)&i2c_slave][_5][_11].xfer, MEM[(struct i2c_in
 528:../lpc11cx4-library/lpc_chip_11cxx_lib/src/i2c_11xx.c **** 	}
 2051              		.loc 1 528 0
 2052 0088 4B46     		mov	r3, r9	@ tmp134, tmp134
 2053 008a 4268     		ldr	r2, [r0, #4]	@ tmp229, MEM[(struct i2c_slave_interface *)&i2c_slave][_5][_11].event
 2054 008c DA60     		str	r2, [r3, #12]	@ tmp229, MEM[(struct i2c_interface *)&i2c][_5].sEvent
 2055 008e CBE7     		b	.L167	@
 2056              	.L176:
 2057              		.align	2
 2058              	.L175:
 2059 0090 00000000 		.word	.LANCHOR0
 2060 0094 00000000 		.word	.LANCHOR1
 2061              	.LBE158:
 2062              		.cfi_endproc
 2063              	.LFE227:
 2064              		.size	Chip_I2C_SlaveStateHandler, .-Chip_I2C_SlaveStateHandler
 2065              		.section	.text.Chip_I2C_Disable,"ax",%progbits
 2066              		.align	2
 2067              		.global	Chip_I2C_Disable
 2068              		.code	16
ARM GAS  /tmp/ccXTVNcx.s 			page 56


 2069              		.thumb_func
 2070              		.type	Chip_I2C_Disable, %function
 2071              	Chip_I2C_Disable:
 2072              	.LFB228:
 543:../lpc11cx4-library/lpc_chip_11cxx_lib/src/i2c_11xx.c **** 	LPC_I2Cx(id)->CONCLR = I2C_I2CONCLR_I2ENC;
 2073              		.loc 1 543 0
 2074              		.cfi_startproc
 2075              	.LVL153:
 544:../lpc11cx4-library/lpc_chip_11cxx_lib/src/i2c_11xx.c **** }
 2076              		.loc 1 544 0
 2077 0000 4022     		mov	r2, #64	@ tmp118,
 2078 0002 C300     		lsl	r3, r0, #3	@ tmp115, id,
 2079 0004 181A     		sub	r0, r3, r0	@ tmp116, tmp115, id
 2080              	.LVL154:
 2081 0006 024B     		ldr	r3, .L178	@ tmp113,
 2082 0008 8000     		lsl	r0, r0, #2	@ tmp117, tmp116,
 2083 000a C358     		ldr	r3, [r0, r3]	@ D.6816, i2c[_2].ip
 545:../lpc11cx4-library/lpc_chip_11cxx_lib/src/i2c_11xx.c **** 
 2084              		.loc 1 545 0
 2085              		@ sp needed	@
 544:../lpc11cx4-library/lpc_chip_11cxx_lib/src/i2c_11xx.c **** }
 2086              		.loc 1 544 0
 2087 000c 9A61     		str	r2, [r3, #24]	@ tmp118, _4->CONCLR
 545:../lpc11cx4-library/lpc_chip_11cxx_lib/src/i2c_11xx.c **** 
 2088              		.loc 1 545 0
 2089 000e 7047     		bx	lr
 2090              	.L179:
 2091              		.align	2
 2092              	.L178:
 2093 0010 00000000 		.word	.LANCHOR0
 2094              		.cfi_endproc
 2095              	.LFE228:
 2096              		.size	Chip_I2C_Disable, .-Chip_I2C_Disable
 2097              		.section	.text.Chip_I2C_IsStateChanged,"ax",%progbits
 2098              		.align	2
 2099              		.global	Chip_I2C_IsStateChanged
 2100              		.code	16
 2101              		.thumb_func
 2102              		.type	Chip_I2C_IsStateChanged, %function
 2103              	Chip_I2C_IsStateChanged:
 2104              	.LFB229:
 549:../lpc11cx4-library/lpc_chip_11cxx_lib/src/i2c_11xx.c **** 	return (LPC_I2Cx(id)->CONSET & I2C_CON_SI) != 0;
 2105              		.loc 1 549 0
 2106              		.cfi_startproc
 2107              	.LVL155:
 2108              		.loc 1 550 0
 2109 0000 C300     		lsl	r3, r0, #3	@ tmp120, id,
 2110 0002 181A     		sub	r0, r3, r0	@ tmp121, tmp120, id
 2111              	.LVL156:
 2112 0004 034B     		ldr	r3, .L181	@ tmp118,
 2113 0006 8000     		lsl	r0, r0, #2	@ tmp122, tmp121,
 2114 0008 C358     		ldr	r3, [r0, r3]	@ D.6821, i2c[_2].ip
 551:../lpc11cx4-library/lpc_chip_11cxx_lib/src/i2c_11xx.c **** }
 2115              		.loc 1 551 0
 2116              		@ sp needed	@
 550:../lpc11cx4-library/lpc_chip_11cxx_lib/src/i2c_11xx.c **** }
 2117              		.loc 1 550 0
ARM GAS  /tmp/ccXTVNcx.s 			page 57


 2118 000a 1868     		ldr	r0, [r3]	@ D.6822, _4->CONSET
 2119 000c 0007     		lsl	r0, r0, #28	@ tmp125, D.6822,
 2120 000e C00F     		lsr	r0, r0, #31	@ D.6823, tmp125,
 2121              		.loc 1 551 0
 2122 0010 7047     		bx	lr
 2123              	.L182:
 2124 0012 C046     		.align	2
 2125              	.L181:
 2126 0014 00000000 		.word	.LANCHOR0
 2127              		.cfi_endproc
 2128              	.LFE229:
 2129              		.size	Chip_I2C_IsStateChanged, .-Chip_I2C_IsStateChanged
 2130              		.section	.data.i2c,"aw",%progbits
 2131              		.align	2
 2132              		.set	.LANCHOR0,. + 0
 2133              		.type	i2c, %object
 2134              		.size	i2c, 28
 2135              	i2c:
 2136              	@ ip:
 2137 0000 00000040 		.word	1073741824
 2138              	@ clk:
 2139 0004 05       		.byte	5
 2140              	@ mEvent:
 2141 0005 000000   		.space	3
 2142 0008 00000000 		.word	Chip_I2C_EventHandler
 2143              	@ sEvent:
 2144 000c 00000000 		.word	0
 2145              	@ mXfer:
 2146 0010 00000000 		.word	0
 2147              	@ sXfer:
 2148 0014 00000000 		.word	0
 2149              	@ flags:
 2150 0018 00000000 		.word	0
 2151              		.section	.bss.i2c_slave,"aw",%nobits
 2152              		.align	2
 2153              		.set	.LANCHOR1,. + 0
 2154              		.type	i2c_slave, %object
 2155              		.size	i2c_slave, 40
 2156              	i2c_slave:
 2157 0000 00000000 		.space	40
 2157      00000000 
 2157      00000000 
 2157      00000000 
 2157      00000000 
 2158              		.text
 2159              	.Letext0:
 2160              		.file 3 "/usr/arm-none-eabi/include/machine/_default_types.h"
 2161              		.file 4 "/usr/arm-none-eabi/include/stdint.h"
 2162              		.file 5 "../lpc11cx4-library/lpc_chip_11cxx_lib/inc/sysctl_11xx.h"
 2163              		.file 6 "../lpc11cx4-library/lpc_chip_11cxx_lib/inc/i2c_11xx.h"
 2164              		.file 7 "../lpc11cx4-library/lpc_chip_11cxx_lib/inc/chip.h"