ARM GAS  /tmp/ccXTVNcx.s 			page 1


   1              		.cpu cortex-m0
   2              		.fpu softvfp
   3              		.eabi_attribute 20, 1	@ Tag_ABI_FP_denormal
   4              		.eabi_attribute 21, 1	@ Tag_ABI_FP_exceptions
   5              		.eabi_attribute 23, 3	@ Tag_ABI_FP_number_model
   6              		.eabi_attribute 24, 1	@ Tag_ABI_align8_needed
   7              		.eabi_attribute 25, 1	@ Tag_ABI_align8_preserved
   8              		.eabi_attribute 26, 1	@ Tag_ABI_enum_size
   9              		.eabi_attribute 30, 2	@ Tag_ABI_optimization_goals
  10              		.eabi_attribute 34, 0	@ Tag_CPU_unaligned_access
  11              		.eabi_attribute 18, 4	@ Tag_ABI_PCS_wchar_t
  12              		.file	"i2c_11xx.c"
  13              	@ GNU C (GNU Tools for ARM Embedded Processors) version 4.9.3 20150303 (release) [ARM/embedded-4_9-
  14              	@	compiled by GNU C version 4.8.2, GMP version 5.1.3, MPFR version 3.1.2-p3, MPC version 1.0.1
  15              	@ GGC heuristics: --param ggc-min-expand=100 --param ggc-min-heapsize=131072
  16              	@ options passed:  -I . -I ../lpc11cx4-library/lpc_chip_11cxx_lib/inc
  17              	@ -I ../lpc11cx4-library/evt_lib/inc -I inc -imultilib armv6-m
  18              	@ -iprefix /usr/bin/../lib/gcc/arm-none-eabi/4.9.3/
  19              	@ -isysroot /usr/bin/../arm-none-eabi -MD bin/i2c_11xx.d -MF bin/i2c_11xx.d
  20              	@ -MP -MQ bin/i2c_11xx.o -D__USES_INITFINI__ -D CORE_M0
  21              	@ ../lpc11cx4-library/lpc_chip_11cxx_lib/src/i2c_11xx.c -mcpu=cortex-m0
  22              	@ -mthumb -auxbase-strip bin/i2c_11xx.o -g -ggdb3 -O2 -Wall
  23              	@ -Wstrict-prototypes -Wextra -std=gnu90 -ffunction-sections
  24              	@ -fdata-sections -fverbose-asm
  25              	@ options enabled:  -faggressive-loop-optimizations -fauto-inc-dec
  26              	@ -fbranch-count-reg -fcaller-saves -fcombine-stack-adjustments -fcommon
  27              	@ -fcompare-elim -fcprop-registers -fcrossjumping -fcse-follow-jumps
  28              	@ -fdata-sections -fdefer-pop -fdelete-null-pointer-checks -fdevirtualize
  29              	@ -fdevirtualize-speculatively -fdwarf2-cfi-asm -fearly-inlining
  30              	@ -feliminate-unused-debug-types -fexpensive-optimizations
  31              	@ -fforward-propagate -ffunction-cse -ffunction-sections -fgcse -fgcse-lm
  32              	@ -fgnu-runtime -fgnu-unique -fguess-branch-probability
  33              	@ -fhoist-adjacent-loads -fident -fif-conversion -fif-conversion2
  34              	@ -findirect-inlining -finline -finline-atomics
  35              	@ -finline-functions-called-once -finline-small-functions -fipa-cp
  36              	@ -fipa-profile -fipa-pure-const -fipa-reference -fipa-sra
  37              	@ -fira-hoist-pressure -fira-share-save-slots -fira-share-spill-slots
  38              	@ -fisolate-erroneous-paths-dereference -fivopts -fkeep-static-consts
  39              	@ -fleading-underscore -flifetime-dse -fmath-errno -fmerge-constants
  40              	@ -fmerge-debug-strings -fmove-loop-invariants -fomit-frame-pointer
  41              	@ -foptimize-sibling-calls -foptimize-strlen -fpartial-inlining -fpeephole
  42              	@ -fpeephole2 -fprefetch-loop-arrays -freg-struct-return -freorder-blocks
  43              	@ -freorder-functions -frerun-cse-after-loop
  44              	@ -fsched-critical-path-heuristic -fsched-dep-count-heuristic
  45              	@ -fsched-group-heuristic -fsched-interblock -fsched-last-insn-heuristic
  46              	@ -fsched-pressure -fsched-rank-heuristic -fsched-spec
  47              	@ -fsched-spec-insn-heuristic -fsched-stalled-insns-dep -fschedule-insns2
  48              	@ -fsection-anchors -fshow-column -fshrink-wrap -fsigned-zeros
  49              	@ -fsplit-ivs-in-unroller -fsplit-wide-types -fstrict-aliasing
  50              	@ -fstrict-overflow -fstrict-volatile-bitfields -fsync-libcalls
  51              	@ -fthread-jumps -ftoplevel-reorder -ftrapping-math -ftree-bit-ccp
  52              	@ -ftree-builtin-call-dce -ftree-ccp -ftree-ch -ftree-coalesce-vars
  53              	@ -ftree-copy-prop -ftree-copyrename -ftree-cselim -ftree-dce
  54              	@ -ftree-dominator-opts -ftree-dse -ftree-forwprop -ftree-fre
  55              	@ -ftree-loop-if-convert -ftree-loop-im -ftree-loop-ivcanon
  56              	@ -ftree-loop-optimize -ftree-parallelize-loops= -ftree-phiprop -ftree-pre
  57              	@ -ftree-pta -ftree-reassoc -ftree-scev-cprop -ftree-sink -ftree-slsr
ARM GAS  /tmp/ccXTVNcx.s 			page 2


  58              	@ -ftree-sra -ftree-switch-conversion -ftree-tail-merge -ftree-ter
  59              	@ -ftree-vrp -funit-at-a-time -fvar-tracking -fvar-tracking-assignments
  60              	@ -fverbose-asm -fzero-initialized-in-bss -mlittle-endian -mlra
  61              	@ -mpic-data-is-text-relative -msched-prolog -mthumb
  62              	@ -mvectorize-with-neon-quad
  63              	
  64              		.text
  65              	.Ltext0:
  66              		.cfi_sections	.debug_frame
  67              		.section	.text.Chip_I2C_EventHandler,"ax",%progbits
  68              		.align	2
  69              		.global	Chip_I2C_EventHandler
  70              		.code	16
  71              		.thumb_func
  72              		.type	Chip_I2C_EventHandler, %function
  73              	Chip_I2C_EventHandler:
  74              	.LFB212:
  75              		.file 1 "../lpc11cx4-library/lpc_chip_11cxx_lib/src/i2c_11xx.c"
   1:../lpc11cx4-library/lpc_chip_11cxx_lib/src/i2c_11xx.c **** /*
   2:../lpc11cx4-library/lpc_chip_11cxx_lib/src/i2c_11xx.c ****  * @brief LPC11xx I2C driver
   3:../lpc11cx4-library/lpc_chip_11cxx_lib/src/i2c_11xx.c ****  *
   4:../lpc11cx4-library/lpc_chip_11cxx_lib/src/i2c_11xx.c ****  * @note
   5:../lpc11cx4-library/lpc_chip_11cxx_lib/src/i2c_11xx.c ****  * Copyright(C) NXP Semiconductors, 2012
   6:../lpc11cx4-library/lpc_chip_11cxx_lib/src/i2c_11xx.c ****  * All rights reserved.
   7:../lpc11cx4-library/lpc_chip_11cxx_lib/src/i2c_11xx.c ****  *
   8:../lpc11cx4-library/lpc_chip_11cxx_lib/src/i2c_11xx.c ****  * @par
   9:../lpc11cx4-library/lpc_chip_11cxx_lib/src/i2c_11xx.c ****  * Software that is described herein is for illustrative purposes only
  10:../lpc11cx4-library/lpc_chip_11cxx_lib/src/i2c_11xx.c ****  * which provides customers with programming information regarding the
  11:../lpc11cx4-library/lpc_chip_11cxx_lib/src/i2c_11xx.c ****  * LPC products.  This software is supplied "AS IS" without any warranties of
  12:../lpc11cx4-library/lpc_chip_11cxx_lib/src/i2c_11xx.c ****  * any kind, and NXP Semiconductors and its licensor disclaim any and
  13:../lpc11cx4-library/lpc_chip_11cxx_lib/src/i2c_11xx.c ****  * all warranties, express or implied, including all implied warranties of
  14:../lpc11cx4-library/lpc_chip_11cxx_lib/src/i2c_11xx.c ****  * merchantability, fitness for a particular purpose and non-infringement of
  15:../lpc11cx4-library/lpc_chip_11cxx_lib/src/i2c_11xx.c ****  * intellectual property rights.  NXP Semiconductors assumes no responsibility
  16:../lpc11cx4-library/lpc_chip_11cxx_lib/src/i2c_11xx.c ****  * or liability for the use of the software, conveys no license or rights under any
  17:../lpc11cx4-library/lpc_chip_11cxx_lib/src/i2c_11xx.c ****  * patent, copyright, mask work right, or any other intellectual property rights in
  18:../lpc11cx4-library/lpc_chip_11cxx_lib/src/i2c_11xx.c ****  * or to any products. NXP Semiconductors reserves the right to make changes
  19:../lpc11cx4-library/lpc_chip_11cxx_lib/src/i2c_11xx.c ****  * in the software without notification. NXP Semiconductors also makes no
  20:../lpc11cx4-library/lpc_chip_11cxx_lib/src/i2c_11xx.c ****  * representation or warranty that such application will be suitable for the
  21:../lpc11cx4-library/lpc_chip_11cxx_lib/src/i2c_11xx.c ****  * specified use without further testing or modification.
  22:../lpc11cx4-library/lpc_chip_11cxx_lib/src/i2c_11xx.c ****  *
  23:../lpc11cx4-library/lpc_chip_11cxx_lib/src/i2c_11xx.c ****  * @par
  24:../lpc11cx4-library/lpc_chip_11cxx_lib/src/i2c_11xx.c ****  * Permission to use, copy, modify, and distribute this software and its
  25:../lpc11cx4-library/lpc_chip_11cxx_lib/src/i2c_11xx.c ****  * documentation is hereby granted, under NXP Semiconductors' and its
  26:../lpc11cx4-library/lpc_chip_11cxx_lib/src/i2c_11xx.c ****  * licensor's relevant copyrights in the software, without fee, provided that it
  27:../lpc11cx4-library/lpc_chip_11cxx_lib/src/i2c_11xx.c ****  * is used in conjunction with NXP Semiconductors microcontrollers.  This
  28:../lpc11cx4-library/lpc_chip_11cxx_lib/src/i2c_11xx.c ****  * copyright, permission, and disclaimer notice must appear in all copies of
  29:../lpc11cx4-library/lpc_chip_11cxx_lib/src/i2c_11xx.c ****  * this code.
  30:../lpc11cx4-library/lpc_chip_11cxx_lib/src/i2c_11xx.c ****  */
  31:../lpc11cx4-library/lpc_chip_11cxx_lib/src/i2c_11xx.c **** 
  32:../lpc11cx4-library/lpc_chip_11cxx_lib/src/i2c_11xx.c **** #include "chip.h"
  33:../lpc11cx4-library/lpc_chip_11cxx_lib/src/i2c_11xx.c **** 
  34:../lpc11cx4-library/lpc_chip_11cxx_lib/src/i2c_11xx.c **** #if !defined(CHIP_LPC110X)
  35:../lpc11cx4-library/lpc_chip_11cxx_lib/src/i2c_11xx.c **** 
  36:../lpc11cx4-library/lpc_chip_11cxx_lib/src/i2c_11xx.c **** /*****************************************************************************
  37:../lpc11cx4-library/lpc_chip_11cxx_lib/src/i2c_11xx.c ****  * Private types/enumerations/variables
  38:../lpc11cx4-library/lpc_chip_11cxx_lib/src/i2c_11xx.c ****  ****************************************************************************/
  39:../lpc11cx4-library/lpc_chip_11cxx_lib/src/i2c_11xx.c **** 
ARM GAS  /tmp/ccXTVNcx.s 			page 3


  40:../lpc11cx4-library/lpc_chip_11cxx_lib/src/i2c_11xx.c **** /* Control flags */
  41:../lpc11cx4-library/lpc_chip_11cxx_lib/src/i2c_11xx.c **** #define I2C_CON_FLAGS (I2C_CON_AA | I2C_CON_SI | I2C_CON_STO | I2C_CON_STA)
  42:../lpc11cx4-library/lpc_chip_11cxx_lib/src/i2c_11xx.c **** #define LPC_I2Cx(id)      ((i2c[id].ip))
  43:../lpc11cx4-library/lpc_chip_11cxx_lib/src/i2c_11xx.c **** #define SLAVE_ACTIVE(iic) (((iic)->flags & 0xFF00) != 0)
  44:../lpc11cx4-library/lpc_chip_11cxx_lib/src/i2c_11xx.c **** 
  45:../lpc11cx4-library/lpc_chip_11cxx_lib/src/i2c_11xx.c **** /* I2C common interface structure */
  46:../lpc11cx4-library/lpc_chip_11cxx_lib/src/i2c_11xx.c **** struct i2c_interface {
  47:../lpc11cx4-library/lpc_chip_11cxx_lib/src/i2c_11xx.c **** 	LPC_I2C_T *ip;		/* IP base address of the I2C device */
  48:../lpc11cx4-library/lpc_chip_11cxx_lib/src/i2c_11xx.c **** 	CHIP_SYSCTL_CLOCK_T clk;	/* Clock used by I2C */
  49:../lpc11cx4-library/lpc_chip_11cxx_lib/src/i2c_11xx.c **** 	I2C_EVENTHANDLER_T mEvent;	/* Current active Master event handler */
  50:../lpc11cx4-library/lpc_chip_11cxx_lib/src/i2c_11xx.c **** 	I2C_EVENTHANDLER_T sEvent;	/* Slave transfer events */
  51:../lpc11cx4-library/lpc_chip_11cxx_lib/src/i2c_11xx.c **** 	I2C_XFER_T *mXfer;	/* Current active xfer pointer */
  52:../lpc11cx4-library/lpc_chip_11cxx_lib/src/i2c_11xx.c **** 	I2C_XFER_T *sXfer;	/* Pointer to store xfer when bus is busy */
  53:../lpc11cx4-library/lpc_chip_11cxx_lib/src/i2c_11xx.c **** 	uint32_t flags;		/* Flags used by I2C master and slave */
  54:../lpc11cx4-library/lpc_chip_11cxx_lib/src/i2c_11xx.c **** };
  55:../lpc11cx4-library/lpc_chip_11cxx_lib/src/i2c_11xx.c **** 
  56:../lpc11cx4-library/lpc_chip_11cxx_lib/src/i2c_11xx.c **** /* Slave interface structure */
  57:../lpc11cx4-library/lpc_chip_11cxx_lib/src/i2c_11xx.c **** struct i2c_slave_interface {
  58:../lpc11cx4-library/lpc_chip_11cxx_lib/src/i2c_11xx.c **** 	I2C_XFER_T *xfer;
  59:../lpc11cx4-library/lpc_chip_11cxx_lib/src/i2c_11xx.c **** 	I2C_EVENTHANDLER_T event;
  60:../lpc11cx4-library/lpc_chip_11cxx_lib/src/i2c_11xx.c **** };
  61:../lpc11cx4-library/lpc_chip_11cxx_lib/src/i2c_11xx.c **** 
  62:../lpc11cx4-library/lpc_chip_11cxx_lib/src/i2c_11xx.c **** /* I2C interfaces */
  63:../lpc11cx4-library/lpc_chip_11cxx_lib/src/i2c_11xx.c **** static struct i2c_interface i2c[I2C_NUM_INTERFACE] = {
  64:../lpc11cx4-library/lpc_chip_11cxx_lib/src/i2c_11xx.c **** 	{LPC_I2C, SYSCTL_CLOCK_I2C, Chip_I2C_EventHandler, NULL, NULL, NULL, 0}
  65:../lpc11cx4-library/lpc_chip_11cxx_lib/src/i2c_11xx.c **** };
  66:../lpc11cx4-library/lpc_chip_11cxx_lib/src/i2c_11xx.c **** 
  67:../lpc11cx4-library/lpc_chip_11cxx_lib/src/i2c_11xx.c **** static struct i2c_slave_interface i2c_slave[I2C_NUM_INTERFACE][I2C_SLAVE_NUM_INTERFACE];
  68:../lpc11cx4-library/lpc_chip_11cxx_lib/src/i2c_11xx.c **** 
  69:../lpc11cx4-library/lpc_chip_11cxx_lib/src/i2c_11xx.c **** /*****************************************************************************
  70:../lpc11cx4-library/lpc_chip_11cxx_lib/src/i2c_11xx.c ****  * Public types/enumerations/variables
  71:../lpc11cx4-library/lpc_chip_11cxx_lib/src/i2c_11xx.c ****  ****************************************************************************/
  72:../lpc11cx4-library/lpc_chip_11cxx_lib/src/i2c_11xx.c **** 
  73:../lpc11cx4-library/lpc_chip_11cxx_lib/src/i2c_11xx.c **** /*****************************************************************************
  74:../lpc11cx4-library/lpc_chip_11cxx_lib/src/i2c_11xx.c ****  * Private functions
  75:../lpc11cx4-library/lpc_chip_11cxx_lib/src/i2c_11xx.c ****  ****************************************************************************/
  76:../lpc11cx4-library/lpc_chip_11cxx_lib/src/i2c_11xx.c ****  
  77:../lpc11cx4-library/lpc_chip_11cxx_lib/src/i2c_11xx.c **** STATIC INLINE void enableClk(I2C_ID_T id)
  78:../lpc11cx4-library/lpc_chip_11cxx_lib/src/i2c_11xx.c **** {
  79:../lpc11cx4-library/lpc_chip_11cxx_lib/src/i2c_11xx.c **** 	Chip_Clock_EnablePeriphClock(i2c[id].clk);
  80:../lpc11cx4-library/lpc_chip_11cxx_lib/src/i2c_11xx.c **** }
  81:../lpc11cx4-library/lpc_chip_11cxx_lib/src/i2c_11xx.c **** 
  82:../lpc11cx4-library/lpc_chip_11cxx_lib/src/i2c_11xx.c **** STATIC INLINE void disableClk(I2C_ID_T id)
  83:../lpc11cx4-library/lpc_chip_11cxx_lib/src/i2c_11xx.c **** {
  84:../lpc11cx4-library/lpc_chip_11cxx_lib/src/i2c_11xx.c **** 	Chip_Clock_DisablePeriphClock(i2c[id].clk);
  85:../lpc11cx4-library/lpc_chip_11cxx_lib/src/i2c_11xx.c **** }
  86:../lpc11cx4-library/lpc_chip_11cxx_lib/src/i2c_11xx.c **** 
  87:../lpc11cx4-library/lpc_chip_11cxx_lib/src/i2c_11xx.c **** /* Get the ADC Clock Rate */
  88:../lpc11cx4-library/lpc_chip_11cxx_lib/src/i2c_11xx.c **** STATIC INLINE uint32_t getClkRate(I2C_ID_T id)
  89:../lpc11cx4-library/lpc_chip_11cxx_lib/src/i2c_11xx.c **** {
  90:../lpc11cx4-library/lpc_chip_11cxx_lib/src/i2c_11xx.c **** 	return Chip_Clock_GetMainClockRate();
  91:../lpc11cx4-library/lpc_chip_11cxx_lib/src/i2c_11xx.c **** }
  92:../lpc11cx4-library/lpc_chip_11cxx_lib/src/i2c_11xx.c **** 
  93:../lpc11cx4-library/lpc_chip_11cxx_lib/src/i2c_11xx.c **** /* Enable I2C and start master transfer */
  94:../lpc11cx4-library/lpc_chip_11cxx_lib/src/i2c_11xx.c **** STATIC INLINE void startMasterXfer(LPC_I2C_T *pI2C)
  95:../lpc11cx4-library/lpc_chip_11cxx_lib/src/i2c_11xx.c **** {
  96:../lpc11cx4-library/lpc_chip_11cxx_lib/src/i2c_11xx.c **** 	/* Reset STA, STO, SI */
ARM GAS  /tmp/ccXTVNcx.s 			page 4


  97:../lpc11cx4-library/lpc_chip_11cxx_lib/src/i2c_11xx.c **** 	pI2C->CONCLR = I2C_CON_SI | I2C_CON_STO | I2C_CON_STA | I2C_CON_AA;
  98:../lpc11cx4-library/lpc_chip_11cxx_lib/src/i2c_11xx.c **** 
  99:../lpc11cx4-library/lpc_chip_11cxx_lib/src/i2c_11xx.c **** 	/* Enter to Master Transmitter mode */
 100:../lpc11cx4-library/lpc_chip_11cxx_lib/src/i2c_11xx.c **** 	pI2C->CONSET = I2C_CON_I2EN | I2C_CON_STA;
 101:../lpc11cx4-library/lpc_chip_11cxx_lib/src/i2c_11xx.c **** }
 102:../lpc11cx4-library/lpc_chip_11cxx_lib/src/i2c_11xx.c **** 
 103:../lpc11cx4-library/lpc_chip_11cxx_lib/src/i2c_11xx.c **** /* Enable I2C and enable slave transfers */
 104:../lpc11cx4-library/lpc_chip_11cxx_lib/src/i2c_11xx.c **** STATIC INLINE void startSlaverXfer(LPC_I2C_T *pI2C)
 105:../lpc11cx4-library/lpc_chip_11cxx_lib/src/i2c_11xx.c **** {
 106:../lpc11cx4-library/lpc_chip_11cxx_lib/src/i2c_11xx.c **** 	/* Reset STA, STO, SI */
 107:../lpc11cx4-library/lpc_chip_11cxx_lib/src/i2c_11xx.c **** 	pI2C->CONCLR = I2C_CON_SI | I2C_CON_STO | I2C_CON_STA;
 108:../lpc11cx4-library/lpc_chip_11cxx_lib/src/i2c_11xx.c **** 
 109:../lpc11cx4-library/lpc_chip_11cxx_lib/src/i2c_11xx.c **** 	/* Enter to Master Transmitter mode */
 110:../lpc11cx4-library/lpc_chip_11cxx_lib/src/i2c_11xx.c **** 	pI2C->CONSET = I2C_CON_I2EN | I2C_CON_AA;
 111:../lpc11cx4-library/lpc_chip_11cxx_lib/src/i2c_11xx.c **** }
 112:../lpc11cx4-library/lpc_chip_11cxx_lib/src/i2c_11xx.c **** 
 113:../lpc11cx4-library/lpc_chip_11cxx_lib/src/i2c_11xx.c **** /* Check if I2C bus is free */
 114:../lpc11cx4-library/lpc_chip_11cxx_lib/src/i2c_11xx.c **** STATIC INLINE int isI2CBusFree(LPC_I2C_T *pI2C)
 115:../lpc11cx4-library/lpc_chip_11cxx_lib/src/i2c_11xx.c **** {
 116:../lpc11cx4-library/lpc_chip_11cxx_lib/src/i2c_11xx.c **** 	return !(pI2C->CONSET & I2C_CON_STO);
 117:../lpc11cx4-library/lpc_chip_11cxx_lib/src/i2c_11xx.c **** }
 118:../lpc11cx4-library/lpc_chip_11cxx_lib/src/i2c_11xx.c **** 
 119:../lpc11cx4-library/lpc_chip_11cxx_lib/src/i2c_11xx.c **** /* Get current state of the I2C peripheral */
 120:../lpc11cx4-library/lpc_chip_11cxx_lib/src/i2c_11xx.c **** STATIC INLINE int getCurState(LPC_I2C_T *pI2C)
 121:../lpc11cx4-library/lpc_chip_11cxx_lib/src/i2c_11xx.c **** {
 122:../lpc11cx4-library/lpc_chip_11cxx_lib/src/i2c_11xx.c **** 	return (int) (pI2C->STAT & I2C_STAT_CODE_BITMASK);
 123:../lpc11cx4-library/lpc_chip_11cxx_lib/src/i2c_11xx.c **** }
 124:../lpc11cx4-library/lpc_chip_11cxx_lib/src/i2c_11xx.c **** 
 125:../lpc11cx4-library/lpc_chip_11cxx_lib/src/i2c_11xx.c **** /* Check if the active state belongs to master mode*/
 126:../lpc11cx4-library/lpc_chip_11cxx_lib/src/i2c_11xx.c **** STATIC INLINE int isMasterState(LPC_I2C_T *pI2C)
 127:../lpc11cx4-library/lpc_chip_11cxx_lib/src/i2c_11xx.c **** {
 128:../lpc11cx4-library/lpc_chip_11cxx_lib/src/i2c_11xx.c **** 	return getCurState(pI2C) < 0x60;
 129:../lpc11cx4-library/lpc_chip_11cxx_lib/src/i2c_11xx.c **** }
 130:../lpc11cx4-library/lpc_chip_11cxx_lib/src/i2c_11xx.c **** 
 131:../lpc11cx4-library/lpc_chip_11cxx_lib/src/i2c_11xx.c **** /* Set OWN slave address for specific slave ID */
 132:../lpc11cx4-library/lpc_chip_11cxx_lib/src/i2c_11xx.c **** STATIC void setSlaveAddr(LPC_I2C_T *pI2C, I2C_SLAVE_ID sid, uint8_t addr, uint8_t mask)
 133:../lpc11cx4-library/lpc_chip_11cxx_lib/src/i2c_11xx.c **** {
 134:../lpc11cx4-library/lpc_chip_11cxx_lib/src/i2c_11xx.c **** 	uint32_t index = (uint32_t) sid - 1;
 135:../lpc11cx4-library/lpc_chip_11cxx_lib/src/i2c_11xx.c **** 	pI2C->MASK[index] = mask;
 136:../lpc11cx4-library/lpc_chip_11cxx_lib/src/i2c_11xx.c **** 	if (sid == I2C_SLAVE_0) {
 137:../lpc11cx4-library/lpc_chip_11cxx_lib/src/i2c_11xx.c **** 		pI2C->ADR0 = addr;
 138:../lpc11cx4-library/lpc_chip_11cxx_lib/src/i2c_11xx.c **** 	}
 139:../lpc11cx4-library/lpc_chip_11cxx_lib/src/i2c_11xx.c **** 	else {
 140:../lpc11cx4-library/lpc_chip_11cxx_lib/src/i2c_11xx.c **** 		volatile uint32_t *abase = &pI2C->ADR1;
 141:../lpc11cx4-library/lpc_chip_11cxx_lib/src/i2c_11xx.c **** 		abase[index - 1] = addr;
 142:../lpc11cx4-library/lpc_chip_11cxx_lib/src/i2c_11xx.c **** 	}
 143:../lpc11cx4-library/lpc_chip_11cxx_lib/src/i2c_11xx.c **** }
 144:../lpc11cx4-library/lpc_chip_11cxx_lib/src/i2c_11xx.c **** 
 145:../lpc11cx4-library/lpc_chip_11cxx_lib/src/i2c_11xx.c **** /* Match the slave address */
 146:../lpc11cx4-library/lpc_chip_11cxx_lib/src/i2c_11xx.c **** STATIC int isSlaveAddrMatching(uint8_t addr1, uint8_t addr2, uint8_t mask)
 147:../lpc11cx4-library/lpc_chip_11cxx_lib/src/i2c_11xx.c **** {
 148:../lpc11cx4-library/lpc_chip_11cxx_lib/src/i2c_11xx.c **** 	mask |= 1;
 149:../lpc11cx4-library/lpc_chip_11cxx_lib/src/i2c_11xx.c **** 	return (addr1 & ~mask) == (addr2 & ~mask);
 150:../lpc11cx4-library/lpc_chip_11cxx_lib/src/i2c_11xx.c **** }
 151:../lpc11cx4-library/lpc_chip_11cxx_lib/src/i2c_11xx.c **** 
 152:../lpc11cx4-library/lpc_chip_11cxx_lib/src/i2c_11xx.c **** /* Get the index of the active slave */
 153:../lpc11cx4-library/lpc_chip_11cxx_lib/src/i2c_11xx.c **** STATIC I2C_SLAVE_ID lookupSlaveIndex(LPC_I2C_T *pI2C, uint8_t slaveAddr)
ARM GAS  /tmp/ccXTVNcx.s 			page 5


 154:../lpc11cx4-library/lpc_chip_11cxx_lib/src/i2c_11xx.c **** {
 155:../lpc11cx4-library/lpc_chip_11cxx_lib/src/i2c_11xx.c **** 	if (!(slaveAddr >> 1)) {
 156:../lpc11cx4-library/lpc_chip_11cxx_lib/src/i2c_11xx.c **** 		return I2C_SLAVE_GENERAL;					/* General call address */
 157:../lpc11cx4-library/lpc_chip_11cxx_lib/src/i2c_11xx.c **** 	}
 158:../lpc11cx4-library/lpc_chip_11cxx_lib/src/i2c_11xx.c **** 	if (isSlaveAddrMatching(pI2C->ADR0, slaveAddr, pI2C->MASK[0])) {
 159:../lpc11cx4-library/lpc_chip_11cxx_lib/src/i2c_11xx.c **** 		return I2C_SLAVE_0;
 160:../lpc11cx4-library/lpc_chip_11cxx_lib/src/i2c_11xx.c **** 	}
 161:../lpc11cx4-library/lpc_chip_11cxx_lib/src/i2c_11xx.c **** 	if (isSlaveAddrMatching(pI2C->ADR1, slaveAddr, pI2C->MASK[1])) {
 162:../lpc11cx4-library/lpc_chip_11cxx_lib/src/i2c_11xx.c **** 		return I2C_SLAVE_1;
 163:../lpc11cx4-library/lpc_chip_11cxx_lib/src/i2c_11xx.c **** 	}
 164:../lpc11cx4-library/lpc_chip_11cxx_lib/src/i2c_11xx.c **** 	if (isSlaveAddrMatching(pI2C->ADR2, slaveAddr, pI2C->MASK[2])) {
 165:../lpc11cx4-library/lpc_chip_11cxx_lib/src/i2c_11xx.c **** 		return I2C_SLAVE_2;
 166:../lpc11cx4-library/lpc_chip_11cxx_lib/src/i2c_11xx.c **** 	}
 167:../lpc11cx4-library/lpc_chip_11cxx_lib/src/i2c_11xx.c **** 	if (isSlaveAddrMatching(pI2C->ADR3, slaveAddr, pI2C->MASK[3])) {
 168:../lpc11cx4-library/lpc_chip_11cxx_lib/src/i2c_11xx.c **** 		return I2C_SLAVE_3;
 169:../lpc11cx4-library/lpc_chip_11cxx_lib/src/i2c_11xx.c **** 	}
 170:../lpc11cx4-library/lpc_chip_11cxx_lib/src/i2c_11xx.c **** 
 171:../lpc11cx4-library/lpc_chip_11cxx_lib/src/i2c_11xx.c **** 	/* If everything is fine the code should never come here */
 172:../lpc11cx4-library/lpc_chip_11cxx_lib/src/i2c_11xx.c **** 	return I2C_SLAVE_GENERAL;
 173:../lpc11cx4-library/lpc_chip_11cxx_lib/src/i2c_11xx.c **** }
 174:../lpc11cx4-library/lpc_chip_11cxx_lib/src/i2c_11xx.c **** 
 175:../lpc11cx4-library/lpc_chip_11cxx_lib/src/i2c_11xx.c **** /* Master transfer state change handler handler */
 176:../lpc11cx4-library/lpc_chip_11cxx_lib/src/i2c_11xx.c **** int handleMasterXferState(LPC_I2C_T *pI2C, I2C_XFER_T  *xfer)
 177:../lpc11cx4-library/lpc_chip_11cxx_lib/src/i2c_11xx.c **** {
 178:../lpc11cx4-library/lpc_chip_11cxx_lib/src/i2c_11xx.c **** 	uint32_t cclr = I2C_CON_FLAGS;
 179:../lpc11cx4-library/lpc_chip_11cxx_lib/src/i2c_11xx.c **** 
 180:../lpc11cx4-library/lpc_chip_11cxx_lib/src/i2c_11xx.c **** 	switch (getCurState(pI2C)) {
 181:../lpc11cx4-library/lpc_chip_11cxx_lib/src/i2c_11xx.c **** 	case 0x08:		/* Start condition on bus */
 182:../lpc11cx4-library/lpc_chip_11cxx_lib/src/i2c_11xx.c **** 	case 0x10:		/* Repeated start condition */
 183:../lpc11cx4-library/lpc_chip_11cxx_lib/src/i2c_11xx.c **** 		pI2C->DAT = (xfer->slaveAddr << 1) | (xfer->txSz == 0);
 184:../lpc11cx4-library/lpc_chip_11cxx_lib/src/i2c_11xx.c **** 		break;
 185:../lpc11cx4-library/lpc_chip_11cxx_lib/src/i2c_11xx.c **** 
 186:../lpc11cx4-library/lpc_chip_11cxx_lib/src/i2c_11xx.c **** 	/* Tx handling */
 187:../lpc11cx4-library/lpc_chip_11cxx_lib/src/i2c_11xx.c **** 	case 0x18:		/* SLA+W sent and ACK received */
 188:../lpc11cx4-library/lpc_chip_11cxx_lib/src/i2c_11xx.c **** 	case 0x28:		/* DATA sent and ACK received */
 189:../lpc11cx4-library/lpc_chip_11cxx_lib/src/i2c_11xx.c **** 		if (!xfer->txSz) {
 190:../lpc11cx4-library/lpc_chip_11cxx_lib/src/i2c_11xx.c **** 			cclr &= ~(xfer->rxSz ? I2C_CON_STA : I2C_CON_STO);
 191:../lpc11cx4-library/lpc_chip_11cxx_lib/src/i2c_11xx.c **** 		}
 192:../lpc11cx4-library/lpc_chip_11cxx_lib/src/i2c_11xx.c **** 		else {
 193:../lpc11cx4-library/lpc_chip_11cxx_lib/src/i2c_11xx.c **** 			pI2C->DAT = *xfer->txBuff++;
 194:../lpc11cx4-library/lpc_chip_11cxx_lib/src/i2c_11xx.c **** 			xfer->txSz--;
 195:../lpc11cx4-library/lpc_chip_11cxx_lib/src/i2c_11xx.c **** 		}
 196:../lpc11cx4-library/lpc_chip_11cxx_lib/src/i2c_11xx.c **** 		break;
 197:../lpc11cx4-library/lpc_chip_11cxx_lib/src/i2c_11xx.c **** 
 198:../lpc11cx4-library/lpc_chip_11cxx_lib/src/i2c_11xx.c **** 	/* Rx handling */
 199:../lpc11cx4-library/lpc_chip_11cxx_lib/src/i2c_11xx.c **** 	case 0x58:		/* Data Received and NACK sent */
 200:../lpc11cx4-library/lpc_chip_11cxx_lib/src/i2c_11xx.c **** 		cclr &= ~I2C_CON_STO;
 201:../lpc11cx4-library/lpc_chip_11cxx_lib/src/i2c_11xx.c **** 
 202:../lpc11cx4-library/lpc_chip_11cxx_lib/src/i2c_11xx.c **** 	case 0x50:		/* Data Received and ACK sent */
 203:../lpc11cx4-library/lpc_chip_11cxx_lib/src/i2c_11xx.c **** 		*xfer->rxBuff++ = pI2C->DAT;
 204:../lpc11cx4-library/lpc_chip_11cxx_lib/src/i2c_11xx.c **** 		xfer->rxSz--;
 205:../lpc11cx4-library/lpc_chip_11cxx_lib/src/i2c_11xx.c **** 
 206:../lpc11cx4-library/lpc_chip_11cxx_lib/src/i2c_11xx.c **** 	case 0x40:		/* SLA+R sent and ACK received */
 207:../lpc11cx4-library/lpc_chip_11cxx_lib/src/i2c_11xx.c **** 		if (xfer->rxSz > 1) {
 208:../lpc11cx4-library/lpc_chip_11cxx_lib/src/i2c_11xx.c **** 			cclr &= ~I2C_CON_AA;
 209:../lpc11cx4-library/lpc_chip_11cxx_lib/src/i2c_11xx.c **** 		}
 210:../lpc11cx4-library/lpc_chip_11cxx_lib/src/i2c_11xx.c **** 		break;
ARM GAS  /tmp/ccXTVNcx.s 			page 6


 211:../lpc11cx4-library/lpc_chip_11cxx_lib/src/i2c_11xx.c **** 
 212:../lpc11cx4-library/lpc_chip_11cxx_lib/src/i2c_11xx.c **** 	/* NAK Handling */
 213:../lpc11cx4-library/lpc_chip_11cxx_lib/src/i2c_11xx.c **** 	case 0x20:		/* SLA+W sent NAK received */
 214:../lpc11cx4-library/lpc_chip_11cxx_lib/src/i2c_11xx.c **** 	case 0x30:		/* DATA sent NAK received */
 215:../lpc11cx4-library/lpc_chip_11cxx_lib/src/i2c_11xx.c **** 	case 0x48:		/* SLA+R sent NAK received */
 216:../lpc11cx4-library/lpc_chip_11cxx_lib/src/i2c_11xx.c **** 		xfer->status = I2C_STATUS_NAK;
 217:../lpc11cx4-library/lpc_chip_11cxx_lib/src/i2c_11xx.c **** 		cclr &= ~I2C_CON_STO;
 218:../lpc11cx4-library/lpc_chip_11cxx_lib/src/i2c_11xx.c **** 		break;
 219:../lpc11cx4-library/lpc_chip_11cxx_lib/src/i2c_11xx.c **** 
 220:../lpc11cx4-library/lpc_chip_11cxx_lib/src/i2c_11xx.c **** 	case 0x38:		/* Arbitration lost */
 221:../lpc11cx4-library/lpc_chip_11cxx_lib/src/i2c_11xx.c **** 		xfer->status = I2C_STATUS_ARBLOST;
 222:../lpc11cx4-library/lpc_chip_11cxx_lib/src/i2c_11xx.c **** 		break;
 223:../lpc11cx4-library/lpc_chip_11cxx_lib/src/i2c_11xx.c **** 
 224:../lpc11cx4-library/lpc_chip_11cxx_lib/src/i2c_11xx.c **** 	/* Bus Error */
 225:../lpc11cx4-library/lpc_chip_11cxx_lib/src/i2c_11xx.c **** 	case 0x00:
 226:../lpc11cx4-library/lpc_chip_11cxx_lib/src/i2c_11xx.c **** 		xfer->status = I2C_STATUS_BUSERR;
 227:../lpc11cx4-library/lpc_chip_11cxx_lib/src/i2c_11xx.c **** 		cclr &= ~I2C_CON_STO;
 228:../lpc11cx4-library/lpc_chip_11cxx_lib/src/i2c_11xx.c **** 	}
 229:../lpc11cx4-library/lpc_chip_11cxx_lib/src/i2c_11xx.c **** 
 230:../lpc11cx4-library/lpc_chip_11cxx_lib/src/i2c_11xx.c **** 	/* Set clear control flags */
 231:../lpc11cx4-library/lpc_chip_11cxx_lib/src/i2c_11xx.c **** 	pI2C->CONSET = cclr ^ I2C_CON_FLAGS;
 232:../lpc11cx4-library/lpc_chip_11cxx_lib/src/i2c_11xx.c **** 	pI2C->CONCLR = cclr;
 233:../lpc11cx4-library/lpc_chip_11cxx_lib/src/i2c_11xx.c **** 
 234:../lpc11cx4-library/lpc_chip_11cxx_lib/src/i2c_11xx.c **** 	/* If stopped return 0 */
 235:../lpc11cx4-library/lpc_chip_11cxx_lib/src/i2c_11xx.c **** 	if (!(cclr & I2C_CON_STO) || (xfer->status == I2C_STATUS_ARBLOST)) {
 236:../lpc11cx4-library/lpc_chip_11cxx_lib/src/i2c_11xx.c **** 		if (xfer->status == I2C_STATUS_BUSY) {
 237:../lpc11cx4-library/lpc_chip_11cxx_lib/src/i2c_11xx.c **** 			xfer->status = I2C_STATUS_DONE;
 238:../lpc11cx4-library/lpc_chip_11cxx_lib/src/i2c_11xx.c **** 		}
 239:../lpc11cx4-library/lpc_chip_11cxx_lib/src/i2c_11xx.c **** 		return 0;
 240:../lpc11cx4-library/lpc_chip_11cxx_lib/src/i2c_11xx.c **** 	}
 241:../lpc11cx4-library/lpc_chip_11cxx_lib/src/i2c_11xx.c **** 	return 1;
 242:../lpc11cx4-library/lpc_chip_11cxx_lib/src/i2c_11xx.c **** }
 243:../lpc11cx4-library/lpc_chip_11cxx_lib/src/i2c_11xx.c **** 
 244:../lpc11cx4-library/lpc_chip_11cxx_lib/src/i2c_11xx.c **** /* Find the slave address of SLA+W or SLA+R */
 245:../lpc11cx4-library/lpc_chip_11cxx_lib/src/i2c_11xx.c **** I2C_SLAVE_ID getSlaveIndex(LPC_I2C_T *pI2C)
 246:../lpc11cx4-library/lpc_chip_11cxx_lib/src/i2c_11xx.c **** {
 247:../lpc11cx4-library/lpc_chip_11cxx_lib/src/i2c_11xx.c **** 	switch (getCurState(pI2C)) {
 248:../lpc11cx4-library/lpc_chip_11cxx_lib/src/i2c_11xx.c **** 	case 0x60:
 249:../lpc11cx4-library/lpc_chip_11cxx_lib/src/i2c_11xx.c **** 	case 0x68:
 250:../lpc11cx4-library/lpc_chip_11cxx_lib/src/i2c_11xx.c **** 	case 0x70:
 251:../lpc11cx4-library/lpc_chip_11cxx_lib/src/i2c_11xx.c **** 	case 0x78:
 252:../lpc11cx4-library/lpc_chip_11cxx_lib/src/i2c_11xx.c **** 	case 0xA8:
 253:../lpc11cx4-library/lpc_chip_11cxx_lib/src/i2c_11xx.c **** 	case 0xB0:
 254:../lpc11cx4-library/lpc_chip_11cxx_lib/src/i2c_11xx.c **** 		return lookupSlaveIndex(pI2C, pI2C->DAT);
 255:../lpc11cx4-library/lpc_chip_11cxx_lib/src/i2c_11xx.c **** 	}
 256:../lpc11cx4-library/lpc_chip_11cxx_lib/src/i2c_11xx.c **** 
 257:../lpc11cx4-library/lpc_chip_11cxx_lib/src/i2c_11xx.c **** 	/* If everything is fine code should never come here */
 258:../lpc11cx4-library/lpc_chip_11cxx_lib/src/i2c_11xx.c **** 	return I2C_SLAVE_GENERAL;
 259:../lpc11cx4-library/lpc_chip_11cxx_lib/src/i2c_11xx.c **** }
 260:../lpc11cx4-library/lpc_chip_11cxx_lib/src/i2c_11xx.c **** 
 261:../lpc11cx4-library/lpc_chip_11cxx_lib/src/i2c_11xx.c **** /* Slave state machine handler */
 262:../lpc11cx4-library/lpc_chip_11cxx_lib/src/i2c_11xx.c **** int handleSlaveXferState(LPC_I2C_T *pI2C, I2C_XFER_T *xfer)
 263:../lpc11cx4-library/lpc_chip_11cxx_lib/src/i2c_11xx.c **** {
 264:../lpc11cx4-library/lpc_chip_11cxx_lib/src/i2c_11xx.c **** 	uint32_t cclr = I2C_CON_FLAGS;
 265:../lpc11cx4-library/lpc_chip_11cxx_lib/src/i2c_11xx.c **** 	int ret = RET_SLAVE_BUSY;
 266:../lpc11cx4-library/lpc_chip_11cxx_lib/src/i2c_11xx.c **** 
 267:../lpc11cx4-library/lpc_chip_11cxx_lib/src/i2c_11xx.c **** 	xfer->status = I2C_STATUS_BUSY;
ARM GAS  /tmp/ccXTVNcx.s 			page 7


 268:../lpc11cx4-library/lpc_chip_11cxx_lib/src/i2c_11xx.c **** 	switch (getCurState(pI2C)) {
 269:../lpc11cx4-library/lpc_chip_11cxx_lib/src/i2c_11xx.c **** 	case 0x80:		/* SLA: Data received + ACK sent */
 270:../lpc11cx4-library/lpc_chip_11cxx_lib/src/i2c_11xx.c **** 	case 0x90:		/* GC: Data received + ACK sent */
 271:../lpc11cx4-library/lpc_chip_11cxx_lib/src/i2c_11xx.c **** 		*xfer->rxBuff++ = pI2C->DAT;
 272:../lpc11cx4-library/lpc_chip_11cxx_lib/src/i2c_11xx.c **** 		xfer->rxSz--;
 273:../lpc11cx4-library/lpc_chip_11cxx_lib/src/i2c_11xx.c **** 		ret = RET_SLAVE_RX;
 274:../lpc11cx4-library/lpc_chip_11cxx_lib/src/i2c_11xx.c **** 		if (xfer->rxSz > 1) {
 275:../lpc11cx4-library/lpc_chip_11cxx_lib/src/i2c_11xx.c **** 			cclr &= ~I2C_CON_AA;
 276:../lpc11cx4-library/lpc_chip_11cxx_lib/src/i2c_11xx.c **** 		}
 277:../lpc11cx4-library/lpc_chip_11cxx_lib/src/i2c_11xx.c **** 		break;
 278:../lpc11cx4-library/lpc_chip_11cxx_lib/src/i2c_11xx.c **** 
 279:../lpc11cx4-library/lpc_chip_11cxx_lib/src/i2c_11xx.c **** 	case 0x60:		/* Own SLA+W received */
 280:../lpc11cx4-library/lpc_chip_11cxx_lib/src/i2c_11xx.c **** 	case 0x68:		/* Own SLA+W received after losing arbitration */
 281:../lpc11cx4-library/lpc_chip_11cxx_lib/src/i2c_11xx.c **** 	case 0x70:		/* GC+W received */
 282:../lpc11cx4-library/lpc_chip_11cxx_lib/src/i2c_11xx.c **** 	case 0x78:		/* GC+W received after losing arbitration */
 283:../lpc11cx4-library/lpc_chip_11cxx_lib/src/i2c_11xx.c **** 		xfer->slaveAddr = pI2C->DAT & ~1;
 284:../lpc11cx4-library/lpc_chip_11cxx_lib/src/i2c_11xx.c **** 		if (xfer->rxSz > 1) {
 285:../lpc11cx4-library/lpc_chip_11cxx_lib/src/i2c_11xx.c **** 			cclr &= ~I2C_CON_AA;
 286:../lpc11cx4-library/lpc_chip_11cxx_lib/src/i2c_11xx.c **** 		}
 287:../lpc11cx4-library/lpc_chip_11cxx_lib/src/i2c_11xx.c **** 		break;
 288:../lpc11cx4-library/lpc_chip_11cxx_lib/src/i2c_11xx.c **** 
 289:../lpc11cx4-library/lpc_chip_11cxx_lib/src/i2c_11xx.c **** 	case 0xA8:		/* SLA+R received */
 290:../lpc11cx4-library/lpc_chip_11cxx_lib/src/i2c_11xx.c **** 	case 0xB0:		/* SLA+R received after losing arbitration */
 291:../lpc11cx4-library/lpc_chip_11cxx_lib/src/i2c_11xx.c **** 		xfer->slaveAddr = pI2C->DAT & ~1;
 292:../lpc11cx4-library/lpc_chip_11cxx_lib/src/i2c_11xx.c **** 
 293:../lpc11cx4-library/lpc_chip_11cxx_lib/src/i2c_11xx.c **** 	case 0xB8:		/* DATA sent and ACK received */
 294:../lpc11cx4-library/lpc_chip_11cxx_lib/src/i2c_11xx.c **** 		pI2C->DAT = *xfer->txBuff++;
 295:../lpc11cx4-library/lpc_chip_11cxx_lib/src/i2c_11xx.c **** 		xfer->txSz--;
 296:../lpc11cx4-library/lpc_chip_11cxx_lib/src/i2c_11xx.c **** 		if (xfer->txSz > 0) {
 297:../lpc11cx4-library/lpc_chip_11cxx_lib/src/i2c_11xx.c **** 			cclr &= ~I2C_CON_AA;
 298:../lpc11cx4-library/lpc_chip_11cxx_lib/src/i2c_11xx.c **** 		}
 299:../lpc11cx4-library/lpc_chip_11cxx_lib/src/i2c_11xx.c **** 		ret = RET_SLAVE_TX;
 300:../lpc11cx4-library/lpc_chip_11cxx_lib/src/i2c_11xx.c **** 		break;
 301:../lpc11cx4-library/lpc_chip_11cxx_lib/src/i2c_11xx.c **** 
 302:../lpc11cx4-library/lpc_chip_11cxx_lib/src/i2c_11xx.c **** 	case 0xC0:		/* Data transmitted and NAK received */
 303:../lpc11cx4-library/lpc_chip_11cxx_lib/src/i2c_11xx.c **** 	case 0xC8:		/* Last data transmitted and ACK received */
 304:../lpc11cx4-library/lpc_chip_11cxx_lib/src/i2c_11xx.c **** 	case 0x88:		/* SLA: Data received + NAK sent */
 305:../lpc11cx4-library/lpc_chip_11cxx_lib/src/i2c_11xx.c **** 	case 0x98:		/* GC: Data received + NAK sent */
 306:../lpc11cx4-library/lpc_chip_11cxx_lib/src/i2c_11xx.c **** 	case 0xA0:		/* STOP/Repeated START condition received */
 307:../lpc11cx4-library/lpc_chip_11cxx_lib/src/i2c_11xx.c **** 		ret = RET_SLAVE_IDLE;
 308:../lpc11cx4-library/lpc_chip_11cxx_lib/src/i2c_11xx.c **** 		cclr &= ~I2C_CON_AA;
 309:../lpc11cx4-library/lpc_chip_11cxx_lib/src/i2c_11xx.c **** 		xfer->status = I2C_STATUS_DONE;
 310:../lpc11cx4-library/lpc_chip_11cxx_lib/src/i2c_11xx.c **** 		if (xfer->slaveAddr & 1) {
 311:../lpc11cx4-library/lpc_chip_11cxx_lib/src/i2c_11xx.c **** 			cclr &= ~I2C_CON_STA;
 312:../lpc11cx4-library/lpc_chip_11cxx_lib/src/i2c_11xx.c **** 		}
 313:../lpc11cx4-library/lpc_chip_11cxx_lib/src/i2c_11xx.c **** 		break;
 314:../lpc11cx4-library/lpc_chip_11cxx_lib/src/i2c_11xx.c **** 	}
 315:../lpc11cx4-library/lpc_chip_11cxx_lib/src/i2c_11xx.c **** 
 316:../lpc11cx4-library/lpc_chip_11cxx_lib/src/i2c_11xx.c **** 	/* Set clear control flags */
 317:../lpc11cx4-library/lpc_chip_11cxx_lib/src/i2c_11xx.c **** 	pI2C->CONSET = cclr ^ I2C_CON_FLAGS;
 318:../lpc11cx4-library/lpc_chip_11cxx_lib/src/i2c_11xx.c **** 	pI2C->CONCLR = cclr;
 319:../lpc11cx4-library/lpc_chip_11cxx_lib/src/i2c_11xx.c **** 
 320:../lpc11cx4-library/lpc_chip_11cxx_lib/src/i2c_11xx.c **** 	return ret;
 321:../lpc11cx4-library/lpc_chip_11cxx_lib/src/i2c_11xx.c **** }
 322:../lpc11cx4-library/lpc_chip_11cxx_lib/src/i2c_11xx.c **** 
 323:../lpc11cx4-library/lpc_chip_11cxx_lib/src/i2c_11xx.c **** /*****************************************************************************
 324:../lpc11cx4-library/lpc_chip_11cxx_lib/src/i2c_11xx.c ****  * Public functions
ARM GAS  /tmp/ccXTVNcx.s 			page 8


 325:../lpc11cx4-library/lpc_chip_11cxx_lib/src/i2c_11xx.c ****  ****************************************************************************/
 326:../lpc11cx4-library/lpc_chip_11cxx_lib/src/i2c_11xx.c **** 
 327:../lpc11cx4-library/lpc_chip_11cxx_lib/src/i2c_11xx.c **** /* Chip event handler interrupt based */
 328:../lpc11cx4-library/lpc_chip_11cxx_lib/src/i2c_11xx.c **** void Chip_I2C_EventHandler(I2C_ID_T id, I2C_EVENT_T event)
 329:../lpc11cx4-library/lpc_chip_11cxx_lib/src/i2c_11xx.c **** {
  76              		.loc 1 329 0
  77              		.cfi_startproc
  78              	.LVL0:
 330:../lpc11cx4-library/lpc_chip_11cxx_lib/src/i2c_11xx.c **** 	struct i2c_interface *iic = &i2c[id];
 331:../lpc11cx4-library/lpc_chip_11cxx_lib/src/i2c_11xx.c **** 	volatile I2C_STATUS_T *stat;
 332:../lpc11cx4-library/lpc_chip_11cxx_lib/src/i2c_11xx.c **** 
 333:../lpc11cx4-library/lpc_chip_11cxx_lib/src/i2c_11xx.c **** 	/* Only WAIT event needs to be handled */
 334:../lpc11cx4-library/lpc_chip_11cxx_lib/src/i2c_11xx.c **** 	if (event != I2C_EVENT_WAIT) {
  79              		.loc 1 334 0
  80 0000 0129     		cmp	r1, #1	@ event,
  81 0002 00D0     		beq	.L7	@,
  82              	.LVL1:
  83              	.L1:
 335:../lpc11cx4-library/lpc_chip_11cxx_lib/src/i2c_11xx.c **** 		return;
 336:../lpc11cx4-library/lpc_chip_11cxx_lib/src/i2c_11xx.c **** 	}
 337:../lpc11cx4-library/lpc_chip_11cxx_lib/src/i2c_11xx.c **** 
 338:../lpc11cx4-library/lpc_chip_11cxx_lib/src/i2c_11xx.c **** 	stat = &iic->mXfer->status;
 339:../lpc11cx4-library/lpc_chip_11cxx_lib/src/i2c_11xx.c **** 	/* Wait for the status to change */
 340:../lpc11cx4-library/lpc_chip_11cxx_lib/src/i2c_11xx.c **** 	while (*stat == I2C_STATUS_BUSY) {}
 341:../lpc11cx4-library/lpc_chip_11cxx_lib/src/i2c_11xx.c **** }
  84              		.loc 1 341 0
  85              		@ sp needed	@
  86 0004 7047     		bx	lr
  87              	.LVL2:
  88              	.L7:
 338:../lpc11cx4-library/lpc_chip_11cxx_lib/src/i2c_11xx.c **** 	/* Wait for the status to change */
  89              		.loc 1 338 0
  90 0006 C300     		lsl	r3, r0, #3	@ tmp117, id,
  91 0008 1B1A     		sub	r3, r3, r0	@ tmp118, tmp117, id
  92 000a 9800     		lsl	r0, r3, #2	@ tmp119, tmp118,
  93              	.LVL3:
  94 000c 034B     		ldr	r3, .L8	@ tmp115,
  95 000e 1B18     		add	r3, r3, r0	@ tmp120, tmp115, tmp119
  96 0010 1A69     		ldr	r2, [r3, #16]	@ D.6646, MEM[(struct i2c_interface *)&i2c][_2].mXfer
  97              	.LVL4:
  98              	.L3:
 340:../lpc11cx4-library/lpc_chip_11cxx_lib/src/i2c_11xx.c **** }
  99              		.loc 1 340 0 discriminator 1
 100 0012 137D     		ldrb	r3, [r2, #20]	@ MEM[(volatile I2C_STATUS_T *)_5 + 20B], MEM[(volatile I2C_STATUS_T *)_5 + 20B
 101 0014 042B     		cmp	r3, #4	@ MEM[(volatile I2C_STATUS_T *)_5 + 20B],
 102 0016 FCD0     		beq	.L3	@,
 103 0018 F4E7     		b	.L1	@
 104              	.L9:
 105 001a C046     		.align	2
 106              	.L8:
 107 001c 00000000 		.word	.LANCHOR0
 108              		.cfi_endproc
 109              	.LFE212:
 110              		.size	Chip_I2C_EventHandler, .-Chip_I2C_EventHandler
 111              		.section	.text.handleMasterXferState,"ax",%progbits
 112              		.align	2
 113              		.global	handleMasterXferState
ARM GAS  /tmp/ccXTVNcx.s 			page 9


 114              		.code	16
 115              		.thumb_func
 116              		.type	handleMasterXferState, %function
 117              	handleMasterXferState:
 118              	.LFB209:
 177:../lpc11cx4-library/lpc_chip_11cxx_lib/src/i2c_11xx.c **** 	uint32_t cclr = I2C_CON_FLAGS;
 119              		.loc 1 177 0
 120              		.cfi_startproc
 121              	.LVL5:
 122              	.LBB53:
 123              	.LBB54:
 122:../lpc11cx4-library/lpc_chip_11cxx_lib/src/i2c_11xx.c **** }
 124              		.loc 1 122 0
 125 0000 4368     		ldr	r3, [r0, #4]	@ D.6660, pI2C_10(D)->STAT
 126              	.LBE54:
 127              	.LBE53:
 177:../lpc11cx4-library/lpc_chip_11cxx_lib/src/i2c_11xx.c **** 	uint32_t cclr = I2C_CON_FLAGS;
 128              		.loc 1 177 0
 129 0002 021C     		mov	r2, r0	@ pI2C, pI2C
 130              	.LBB57:
 131              	.LBB55:
 122:../lpc11cx4-library/lpc_chip_11cxx_lib/src/i2c_11xx.c **** }
 132              		.loc 1 122 0
 133 0004 F820     		mov	r0, #248	@ tmp154,
 134              	.LVL6:
 135              	.LBE55:
 136              	.LBE57:
 177:../lpc11cx4-library/lpc_chip_11cxx_lib/src/i2c_11xx.c **** 	uint32_t cclr = I2C_CON_FLAGS;
 137              		.loc 1 177 0
 138 0006 30B5     		push	{r4, r5, lr}	@
 139              		.cfi_def_cfa_offset 12
 140              		.cfi_offset 4, -12
 141              		.cfi_offset 5, -8
 142              		.cfi_offset 14, -4
 143              	.LBB58:
 144              	.LBB56:
 122:../lpc11cx4-library/lpc_chip_11cxx_lib/src/i2c_11xx.c **** }
 145              		.loc 1 122 0
 146 0008 0340     		and	r3, r0	@ D.6656, tmp154
 147              	.LBE56:
 148              	.LBE58:
 180:../lpc11cx4-library/lpc_chip_11cxx_lib/src/i2c_11xx.c **** 	case 0x08:		/* Start condition on bus */
 149              		.loc 1 180 0
 150 000a 582B     		cmp	r3, #88	@ D.6656,
 151 000c 52D8     		bhi	.L11	@,
 152 000e 3A48     		ldr	r0, .L43	@ tmp158,
 153 0010 9B00     		lsl	r3, r3, #2	@ tmp156, D.6656,
 154 0012 C358     		ldr	r3, [r0, r3]	@ tmp159,
 155 0014 9F46     		mov	pc, r3	@ tmp159
 156              		.section	.rodata.handleMasterXferState,"a",%progbits
 157              		.align	2
 158              	.L13:
 159 0000 54000000 		.word	.L12
 160 0004 B4000000 		.word	.L11
 161 0008 B4000000 		.word	.L11
 162 000c B4000000 		.word	.L11
 163 0010 B4000000 		.word	.L11
ARM GAS  /tmp/ccXTVNcx.s 			page 10


 164 0014 B4000000 		.word	.L11
 165 0018 B4000000 		.word	.L11
 166 001c B4000000 		.word	.L11
 167 0020 64000000 		.word	.L14
 168 0024 B4000000 		.word	.L11
 169 0028 B4000000 		.word	.L11
 170 002c B4000000 		.word	.L11
 171 0030 B4000000 		.word	.L11
 172 0034 B4000000 		.word	.L11
 173 0038 B4000000 		.word	.L11
 174 003c B4000000 		.word	.L11
 175 0040 64000000 		.word	.L14
 176 0044 B4000000 		.word	.L11
 177 0048 B4000000 		.word	.L11
 178 004c B4000000 		.word	.L11
 179 0050 B4000000 		.word	.L11
 180 0054 B4000000 		.word	.L11
 181 0058 B4000000 		.word	.L11
 182 005c B4000000 		.word	.L11
 183 0060 84000000 		.word	.L15
 184 0064 B4000000 		.word	.L11
 185 0068 B4000000 		.word	.L11
 186 006c B4000000 		.word	.L11
 187 0070 B4000000 		.word	.L11
 188 0074 B4000000 		.word	.L11
 189 0078 B4000000 		.word	.L11
 190 007c B4000000 		.word	.L11
 191 0080 98000000 		.word	.L16
 192 0084 B4000000 		.word	.L11
 193 0088 B4000000 		.word	.L11
 194 008c B4000000 		.word	.L11
 195 0090 B4000000 		.word	.L11
 196 0094 B4000000 		.word	.L11
 197 0098 B4000000 		.word	.L11
 198 009c B4000000 		.word	.L11
 199 00a0 84000000 		.word	.L15
 200 00a4 B4000000 		.word	.L11
 201 00a8 B4000000 		.word	.L11
 202 00ac B4000000 		.word	.L11
 203 00b0 B4000000 		.word	.L11
 204 00b4 B4000000 		.word	.L11
 205 00b8 B4000000 		.word	.L11
 206 00bc B4000000 		.word	.L11
 207 00c0 98000000 		.word	.L16
 208 00c4 B4000000 		.word	.L11
 209 00c8 B4000000 		.word	.L11
 210 00cc B4000000 		.word	.L11
 211 00d0 B4000000 		.word	.L11
 212 00d4 B4000000 		.word	.L11
 213 00d8 B4000000 		.word	.L11
 214 00dc B4000000 		.word	.L11
 215 00e0 9E000000 		.word	.L17
 216 00e4 B4000000 		.word	.L11
 217 00e8 B4000000 		.word	.L11
 218 00ec B4000000 		.word	.L11
 219 00f0 B4000000 		.word	.L11
 220 00f4 B4000000 		.word	.L11
ARM GAS  /tmp/ccXTVNcx.s 			page 11


 221 00f8 B4000000 		.word	.L11
 222 00fc B4000000 		.word	.L11
 223 0100 A6000000 		.word	.L18
 224 0104 B4000000 		.word	.L11
 225 0108 B4000000 		.word	.L11
 226 010c B4000000 		.word	.L11
 227 0110 B4000000 		.word	.L11
 228 0114 B4000000 		.word	.L11
 229 0118 B4000000 		.word	.L11
 230 011c B4000000 		.word	.L11
 231 0120 98000000 		.word	.L16
 232 0124 B4000000 		.word	.L11
 233 0128 B4000000 		.word	.L11
 234 012c B4000000 		.word	.L11
 235 0130 B4000000 		.word	.L11
 236 0134 B4000000 		.word	.L11
 237 0138 B4000000 		.word	.L11
 238 013c B4000000 		.word	.L11
 239 0140 16000000 		.word	.L32
 240 0144 B4000000 		.word	.L11
 241 0148 B4000000 		.word	.L11
 242 014c B4000000 		.word	.L11
 243 0150 B4000000 		.word	.L11
 244 0154 B4000000 		.word	.L11
 245 0158 B4000000 		.word	.L11
 246 015c B4000000 		.word	.L11
 247 0160 50000000 		.word	.L20
 248              		.section	.text.handleMasterXferState
 249              	.L32:
 178:../lpc11cx4-library/lpc_chip_11cxx_lib/src/i2c_11xx.c **** 
 250              		.loc 1 178 0
 251 0016 3C20     		mov	r0, #60	@ cclr,
 252              	.L19:
 253              	.LVL7:
 203:../lpc11cx4-library/lpc_chip_11cxx_lib/src/i2c_11xx.c **** 		xfer->rxSz--;
 254              		.loc 1 203 0
 255 0018 CB68     		ldr	r3, [r1, #12]	@ D.6662, xfer_11(D)->rxBuff
 256 001a 5C1C     		add	r4, r3, #1	@ D.6662, D.6662,
 257 001c CC60     		str	r4, [r1, #12]	@ D.6662, xfer_11(D)->rxBuff
 258 001e 9468     		ldr	r4, [r2, #8]	@ D.6660, pI2C_10(D)->DAT
 259 0020 1C70     		strb	r4, [r3]	@ D.6660, *_32
 204:../lpc11cx4-library/lpc_chip_11cxx_lib/src/i2c_11xx.c **** 
 260              		.loc 1 204 0
 261 0022 0B69     		ldr	r3, [r1, #16]	@ tmp221, xfer_11(D)->rxSz
 262 0024 013B     		sub	r3, r3, #1	@ D.6656,
 263 0026 0B61     		str	r3, [r1, #16]	@ D.6656, xfer_11(D)->rxSz
 207:../lpc11cx4-library/lpc_chip_11cxx_lib/src/i2c_11xx.c **** 			cclr &= ~I2C_CON_AA;
 264              		.loc 1 207 0
 265 0028 012B     		cmp	r3, #1	@ D.6656,
 266 002a 51DD     		ble	.L25	@,
 267 002c 0423     		mov	r3, #4	@ tmp182,
 268 002e 051C     		mov	r5, r0	@ D.6663, cclr
 269 0030 3C24     		mov	r4, #60	@ tmp183,
 270 0032 9D43     		bic	r5, r3	@ D.6663, tmp182
 271 0034 0C33     		add	r3, r3, #12	@ tmp184,
 272 0036 0340     		and	r3, r0	@ D.6660, cclr
 273 0038 281C     		mov	r0, r5	@ cclr, D.6663
ARM GAS  /tmp/ccXTVNcx.s 			page 12


 274              	.LVL8:
 275 003a 6C40     		eor	r4, r5	@ D.6660, D.6663
 276              	.L24:
 277              	.LVL9:
 231:../lpc11cx4-library/lpc_chip_11cxx_lib/src/i2c_11xx.c **** 	pI2C->CONCLR = cclr;
 278              		.loc 1 231 0
 279 003c 1460     		str	r4, [r2]	@ D.6660, pI2C_10(D)->CONSET
 232:../lpc11cx4-library/lpc_chip_11cxx_lib/src/i2c_11xx.c **** 
 280              		.loc 1 232 0
 281 003e 9061     		str	r0, [r2, #24]	@ cclr, pI2C_10(D)->CONCLR
 235:../lpc11cx4-library/lpc_chip_11cxx_lib/src/i2c_11xx.c **** 		if (xfer->status == I2C_STATUS_BUSY) {
 282              		.loc 1 235 0
 283 0040 002B     		cmp	r3, #0	@ D.6660,
 284 0042 40D1     		bne	.L38	@,
 236:../lpc11cx4-library/lpc_chip_11cxx_lib/src/i2c_11xx.c **** 			xfer->status = I2C_STATUS_DONE;
 285              		.loc 1 236 0
 286 0044 0A7D     		ldrb	r2, [r1, #20]	@ tmp198,
 287              	.LVL10:
 288 0046 042A     		cmp	r2, #4	@ tmp198,
 289 0048 0AD1     		bne	.L39	@,
 239:../lpc11cx4-library/lpc_chip_11cxx_lib/src/i2c_11xx.c **** 	}
 290              		.loc 1 239 0
 291 004a 0020     		mov	r0, #0	@ D.6656,
 292              	.LVL11:
 237:../lpc11cx4-library/lpc_chip_11cxx_lib/src/i2c_11xx.c **** 		}
 293              		.loc 1 237 0
 294 004c 0B75     		strb	r3, [r1, #20]	@ D.6660, xfer_11(D)->status
 295              	.LVL12:
 296              	.L36:
 242:../lpc11cx4-library/lpc_chip_11cxx_lib/src/i2c_11xx.c **** 
 297              		.loc 1 242 0
 298              		@ sp needed	@
 299 004e 30BD     		pop	{r4, r5, pc}
 300              	.LVL13:
 301              	.L20:
 200:../lpc11cx4-library/lpc_chip_11cxx_lib/src/i2c_11xx.c **** 
 302              		.loc 1 200 0
 303 0050 2C20     		mov	r0, #44	@ cclr,
 304 0052 E1E7     		b	.L19	@
 305              	.L12:
 226:../lpc11cx4-library/lpc_chip_11cxx_lib/src/i2c_11xx.c **** 		cclr &= ~I2C_CON_STO;
 306              		.loc 1 226 0
 307 0054 0323     		mov	r3, #3	@ tmp189,
 308 0056 0B75     		strb	r3, [r1, #20]	@ tmp189, xfer_11(D)->status
 309              	.LVL14:
 310              	.L26:
 231:../lpc11cx4-library/lpc_chip_11cxx_lib/src/i2c_11xx.c **** 	pI2C->CONCLR = cclr;
 311              		.loc 1 231 0
 312 0058 1023     		mov	r3, #16	@ tmp217,
 313 005a 1360     		str	r3, [r2]	@ tmp217, pI2C_10(D)->CONSET
 232:../lpc11cx4-library/lpc_chip_11cxx_lib/src/i2c_11xx.c **** 
 314              		.loc 1 232 0
 315 005c 1C33     		add	r3, r3, #28	@ tmp218,
 316 005e 9361     		str	r3, [r2, #24]	@ tmp218, pI2C_10(D)->CONCLR
 317              	.LVL15:
 318              	.L39:
 239:../lpc11cx4-library/lpc_chip_11cxx_lib/src/i2c_11xx.c **** 	}
ARM GAS  /tmp/ccXTVNcx.s 			page 13


 319              		.loc 1 239 0
 320 0060 0020     		mov	r0, #0	@ D.6656,
 321 0062 F4E7     		b	.L36	@
 322              	.LVL16:
 323              	.L14:
 183:../lpc11cx4-library/lpc_chip_11cxx_lib/src/i2c_11xx.c **** 		break;
 324              		.loc 1 183 0
 325 0064 8868     		ldr	r0, [r1, #8]	@ D.6659, xfer_11(D)->txSz
 326 0066 4342     		neg	r3, r0	@ tmp163, D.6659
 327 0068 5841     		adc	r0, r0, r3	@ D.6659, D.6659, tmp163
 328 006a 0B78     		ldrb	r3, [r1]	@ D.6656, *xfer_11(D)
 329 006c 5B00     		lsl	r3, r3, #1	@ D.6656, D.6656,
 330 006e 0343     		orr	r3, r0	@ D.6660, D.6659
 331 0070 9360     		str	r3, [r2, #8]	@ D.6660, pI2C_10(D)->DAT
 332 0072 087D     		ldrb	r0, [r1, #20]	@ tmp167,
 333 0074 0238     		sub	r0, r0, #2	@ tmp169,
 334 0076 431E     		sub	r3, r0, #1	@ tmp170, tmp169
 335 0078 9841     		sbc	r0, r0, r3	@ D.6656, tmp169, tmp170
 336              	.L21:
 231:../lpc11cx4-library/lpc_chip_11cxx_lib/src/i2c_11xx.c **** 	pI2C->CONCLR = cclr;
 337              		.loc 1 231 0
 338 007a 0023     		mov	r3, #0	@ tmp215,
 339 007c 1360     		str	r3, [r2]	@ tmp215, pI2C_10(D)->CONSET
 232:../lpc11cx4-library/lpc_chip_11cxx_lib/src/i2c_11xx.c **** 
 340              		.loc 1 232 0
 341 007e 3C33     		add	r3, r3, #60	@ tmp216,
 342 0080 9361     		str	r3, [r2, #24]	@ tmp216, pI2C_10(D)->CONCLR
 343 0082 E4E7     		b	.L36	@
 344              	.L15:
 189:../lpc11cx4-library/lpc_chip_11cxx_lib/src/i2c_11xx.c **** 			cclr &= ~(xfer->rxSz ? I2C_CON_STA : I2C_CON_STO);
 345              		.loc 1 189 0
 346 0084 8B68     		ldr	r3, [r1, #8]	@ D.6656, xfer_11(D)->txSz
 347 0086 002B     		cmp	r3, #0	@ D.6656,
 348 0088 27D1     		bne	.L22	@,
 190:../lpc11cx4-library/lpc_chip_11cxx_lib/src/i2c_11xx.c **** 		}
 349              		.loc 1 190 0
 350 008a 0B69     		ldr	r3, [r1, #16]	@ tmp220, xfer_11(D)->rxSz
 351 008c 002B     		cmp	r3, #0	@ tmp220,
 352 008e 30D0     		beq	.L41	@,
 353 0090 1023     		mov	r3, #16	@ D.6660,
 354 0092 2024     		mov	r4, #32	@ D.6660,
 355 0094 1C20     		mov	r0, #28	@ cclr,
 356              	.LVL17:
 357 0096 D1E7     		b	.L24	@
 358              	.LVL18:
 359              	.L16:
 216:../lpc11cx4-library/lpc_chip_11cxx_lib/src/i2c_11xx.c **** 		cclr &= ~I2C_CON_STO;
 360              		.loc 1 216 0
 361 0098 0123     		mov	r3, #1	@ tmp185,
 362 009a 0B75     		strb	r3, [r1, #20]	@ tmp185, xfer_11(D)->status
 363              	.LVL19:
 218:../lpc11cx4-library/lpc_chip_11cxx_lib/src/i2c_11xx.c **** 
 364              		.loc 1 218 0
 365 009c DCE7     		b	.L26	@
 366              	.LVL20:
 367              	.L17:
 221:../lpc11cx4-library/lpc_chip_11cxx_lib/src/i2c_11xx.c **** 		break;
ARM GAS  /tmp/ccXTVNcx.s 			page 14


 368              		.loc 1 221 0
 369 009e 0223     		mov	r3, #2	@ tmp187,
 222:../lpc11cx4-library/lpc_chip_11cxx_lib/src/i2c_11xx.c **** 
 370              		.loc 1 222 0
 371 00a0 0020     		mov	r0, #0	@ D.6656,
 221:../lpc11cx4-library/lpc_chip_11cxx_lib/src/i2c_11xx.c **** 		break;
 372              		.loc 1 221 0
 373 00a2 0B75     		strb	r3, [r1, #20]	@ tmp187, xfer_11(D)->status
 222:../lpc11cx4-library/lpc_chip_11cxx_lib/src/i2c_11xx.c **** 
 374              		.loc 1 222 0
 375 00a4 E9E7     		b	.L21	@
 376              	.L18:
 207:../lpc11cx4-library/lpc_chip_11cxx_lib/src/i2c_11xx.c **** 			cclr &= ~I2C_CON_AA;
 377              		.loc 1 207 0
 378 00a6 0B69     		ldr	r3, [r1, #16]	@ tmp223, xfer_11(D)->rxSz
 379 00a8 012B     		cmp	r3, #1	@ tmp223,
 380 00aa 08DD     		ble	.L42	@,
 381 00ac 1023     		mov	r3, #16	@ D.6660,
 382 00ae 0424     		mov	r4, #4	@ D.6660,
 383 00b0 3820     		mov	r0, #56	@ cclr,
 384              	.LVL21:
 385 00b2 C3E7     		b	.L24	@
 386              	.LVL22:
 387              	.L11:
 388 00b4 087D     		ldrb	r0, [r1, #20]	@ tmp211,
 389 00b6 0238     		sub	r0, r0, #2	@ tmp213,
 390 00b8 431E     		sub	r3, r0, #1	@ tmp214, tmp213
 391 00ba 9841     		sbc	r0, r0, r3	@ D.6656, tmp213, tmp214
 392 00bc DDE7     		b	.L21	@
 393              	.L42:
 231:../lpc11cx4-library/lpc_chip_11cxx_lib/src/i2c_11xx.c **** 	pI2C->CONCLR = cclr;
 394              		.loc 1 231 0
 395 00be 0023     		mov	r3, #0	@ tmp202,
 396 00c0 1360     		str	r3, [r2]	@ tmp202, pI2C_10(D)->CONSET
 232:../lpc11cx4-library/lpc_chip_11cxx_lib/src/i2c_11xx.c **** 
 397              		.loc 1 232 0
 398 00c2 3C33     		add	r3, r3, #60	@ tmp203,
 399 00c4 9361     		str	r3, [r2, #24]	@ tmp203, pI2C_10(D)->CONCLR
 400              	.LVL23:
 401              	.L38:
 402 00c6 087D     		ldrb	r0, [r1, #20]	@ tmp205,
 403 00c8 0238     		sub	r0, r0, #2	@ tmp207,
 404 00ca 431E     		sub	r3, r0, #1	@ tmp208, tmp207
 405 00cc 9841     		sbc	r0, r0, r3	@ D.6656, tmp207, tmp208
 406 00ce BEE7     		b	.L36	@
 407              	.LVL24:
 408              	.L25:
 409 00d0 3C24     		mov	r4, #60	@ tmp191,
 410 00d2 1023     		mov	r3, #16	@ tmp192,
 411 00d4 4440     		eor	r4, r0	@ D.6660, cclr
 412 00d6 0340     		and	r3, r0	@ D.6660, cclr
 413 00d8 B0E7     		b	.L24	@
 414              	.LVL25:
 415              	.L22:
 193:../lpc11cx4-library/lpc_chip_11cxx_lib/src/i2c_11xx.c **** 			xfer->txSz--;
 416              		.loc 1 193 0
 417 00da 4868     		ldr	r0, [r1, #4]	@ D.6661, xfer_11(D)->txBuff
ARM GAS  /tmp/ccXTVNcx.s 			page 15


 194:../lpc11cx4-library/lpc_chip_11cxx_lib/src/i2c_11xx.c **** 		}
 418              		.loc 1 194 0
 419 00dc 013B     		sub	r3, r3, #1	@ D.6656,
 193:../lpc11cx4-library/lpc_chip_11cxx_lib/src/i2c_11xx.c **** 			xfer->txSz--;
 420              		.loc 1 193 0
 421 00de 441C     		add	r4, r0, #1	@ D.6661, D.6661,
 422 00e0 4C60     		str	r4, [r1, #4]	@ D.6661, xfer_11(D)->txBuff
 423 00e2 0078     		ldrb	r0, [r0]	@ D.6660, *_22
 424 00e4 9060     		str	r0, [r2, #8]	@ D.6660, pI2C_10(D)->DAT
 425 00e6 087D     		ldrb	r0, [r1, #20]	@ tmp175,
 194:../lpc11cx4-library/lpc_chip_11cxx_lib/src/i2c_11xx.c **** 		}
 426              		.loc 1 194 0
 427 00e8 8B60     		str	r3, [r1, #8]	@ D.6656, xfer_11(D)->txSz
 428 00ea 0238     		sub	r0, r0, #2	@ tmp177,
 429 00ec 431E     		sub	r3, r0, #1	@ tmp178, tmp177
 430 00ee 9841     		sbc	r0, r0, r3	@ D.6656, tmp177, tmp178
 431 00f0 C3E7     		b	.L21	@
 432              	.L41:
 190:../lpc11cx4-library/lpc_chip_11cxx_lib/src/i2c_11xx.c **** 		}
 433              		.loc 1 190 0
 434 00f2 1024     		mov	r4, #16	@ D.6660,
 435 00f4 2C20     		mov	r0, #44	@ cclr,
 436 00f6 A1E7     		b	.L24	@
 437              	.L44:
 438              		.align	2
 439              	.L43:
 440 00f8 00000000 		.word	.L13
 441              		.cfi_endproc
 442              	.LFE209:
 443              		.size	handleMasterXferState, .-handleMasterXferState
 444              		.section	.text.getSlaveIndex,"ax",%progbits
 445              		.align	2
 446              		.global	getSlaveIndex
 447              		.code	16
 448              		.thumb_func
 449              		.type	getSlaveIndex, %function
 450              	getSlaveIndex:
 451              	.LFB210:
 246:../lpc11cx4-library/lpc_chip_11cxx_lib/src/i2c_11xx.c **** 	switch (getCurState(pI2C)) {
 452              		.loc 1 246 0
 453              		.cfi_startproc
 454              	.LVL26:
 455              	.LBB75:
 456              	.LBB76:
 122:../lpc11cx4-library/lpc_chip_11cxx_lib/src/i2c_11xx.c **** }
 457              		.loc 1 122 0
 458 0000 F821     		mov	r1, #248	@ tmp159,
 459 0002 4368     		ldr	r3, [r0, #4]	@ D.6693, pI2C_4(D)->STAT
 460              	.LBE76:
 461              	.LBE75:
 246:../lpc11cx4-library/lpc_chip_11cxx_lib/src/i2c_11xx.c **** 	switch (getCurState(pI2C)) {
 462              		.loc 1 246 0
 463 0004 10B5     		push	{r4, lr}	@
 464              		.cfi_def_cfa_offset 8
 465              		.cfi_offset 4, -8
 466              		.cfi_offset 14, -4
 246:../lpc11cx4-library/lpc_chip_11cxx_lib/src/i2c_11xx.c **** 	switch (getCurState(pI2C)) {
ARM GAS  /tmp/ccXTVNcx.s 			page 16


 467              		.loc 1 246 0
 468 0006 021C     		mov	r2, r0	@ pI2C, pI2C
 469              	.LBB78:
 470              	.LBB77:
 122:../lpc11cx4-library/lpc_chip_11cxx_lib/src/i2c_11xx.c **** }
 471              		.loc 1 122 0
 472 0008 0B40     		and	r3, r1	@ D.6694, tmp159
 473              	.LBE77:
 474              	.LBE78:
 247:../lpc11cx4-library/lpc_chip_11cxx_lib/src/i2c_11xx.c **** 	case 0x60:
 475              		.loc 1 247 0
 476 000a 702B     		cmp	r3, #112	@ D.6694,
 477 000c 0CD0     		beq	.L47	@,
 478 000e 07DD     		ble	.L77	@,
 479 0010 A82B     		cmp	r3, #168	@ D.6694,
 480 0012 09D0     		beq	.L47	@,
 481 0014 B02B     		cmp	r3, #176	@ D.6694,
 482 0016 07D0     		beq	.L47	@,
 483 0018 782B     		cmp	r3, #120	@ D.6694,
 484 001a 05D0     		beq	.L47	@,
 485              	.L49:
 258:../lpc11cx4-library/lpc_chip_11cxx_lib/src/i2c_11xx.c **** }
 486              		.loc 1 258 0
 487 001c 0020     		mov	r0, #0	@ D.6691,
 488              	.LVL27:
 489              	.L46:
 259:../lpc11cx4-library/lpc_chip_11cxx_lib/src/i2c_11xx.c **** 
 490              		.loc 1 259 0
 491              		@ sp needed	@
 492 001e 10BD     		pop	{r4, pc}
 493              	.LVL28:
 494              	.L77:
 247:../lpc11cx4-library/lpc_chip_11cxx_lib/src/i2c_11xx.c **** 	case 0x60:
 495              		.loc 1 247 0
 496 0020 602B     		cmp	r3, #96	@ D.6694,
 497 0022 01D0     		beq	.L47	@,
 498 0024 682B     		cmp	r3, #104	@ D.6694,
 499 0026 F9D1     		bne	.L49	@,
 500              	.L47:
 501              	.LVL29:
 502              	.LBB79:
 503              	.LBB80:
 254:../lpc11cx4-library/lpc_chip_11cxx_lib/src/i2c_11xx.c **** 	}
 504              		.loc 1 254 0
 505 0028 9068     		ldr	r0, [r2, #8]	@ D.6693, pI2C_4(D)->DAT
 506              	.LVL30:
 507 002a C1B2     		uxtb	r1, r0	@ D.6692, D.6693
 508              	.LVL31:
 509              	.LBB81:
 510              	.LBB82:
 155:../lpc11cx4-library/lpc_chip_11cxx_lib/src/i2c_11xx.c **** 		return I2C_SLAVE_GENERAL;					/* General call address */
 511              		.loc 1 155 0
 512 002c 4B08     		lsr	r3, r1, #1	@ tmp163, D.6692,
 156:../lpc11cx4-library/lpc_chip_11cxx_lib/src/i2c_11xx.c **** 	}
 513              		.loc 1 156 0
 514 002e 0020     		mov	r0, #0	@ D.6691,
 155:../lpc11cx4-library/lpc_chip_11cxx_lib/src/i2c_11xx.c **** 		return I2C_SLAVE_GENERAL;					/* General call address */
ARM GAS  /tmp/ccXTVNcx.s 			page 17


 515              		.loc 1 155 0
 516 0030 002B     		cmp	r3, #0	@ tmp163,
 517 0032 F4D0     		beq	.L46	@,
 518              	.LBB83:
 519              	.LBB84:
 148:../lpc11cx4-library/lpc_chip_11cxx_lib/src/i2c_11xx.c **** 	return (addr1 & ~mask) == (addr2 & ~mask);
 520              		.loc 1 148 0
 521 0034 0124     		mov	r4, #1	@ tmp164,
 522              	.LBE84:
 523              	.LBE83:
 158:../lpc11cx4-library/lpc_chip_11cxx_lib/src/i2c_11xx.c **** 		return I2C_SLAVE_0;
 524              		.loc 1 158 0
 525 0036 D368     		ldr	r3, [r2, #12]	@ D.6693, pI2C_4(D)->ADR0
 526 0038 106B     		ldr	r0, [r2, #48]	@ D.6693, pI2C_4(D)->MASK
 527              	.LVL32:
 528              	.LBB86:
 529              	.LBB85:
 149:../lpc11cx4-library/lpc_chip_11cxx_lib/src/i2c_11xx.c **** }
 530              		.loc 1 149 0
 531 003a 4B40     		eor	r3, r1	@ tmp171, D.6692
 532              	.LVL33:
 148:../lpc11cx4-library/lpc_chip_11cxx_lib/src/i2c_11xx.c **** 	return (addr1 & ~mask) == (addr2 & ~mask);
 533              		.loc 1 148 0
 534 003c 2043     		orr	r0, r4	@ tmp167, tmp164
 535              	.LVL34:
 149:../lpc11cx4-library/lpc_chip_11cxx_lib/src/i2c_11xx.c **** }
 536              		.loc 1 149 0
 537 003e C0B2     		uxtb	r0, r0	@ D.6694, tmp167
 538 0040 DBB2     		uxtb	r3, r3	@ D.6694, tmp171
 539 0042 8343     		bic	r3, r0	@ D.6694, D.6694
 540              	.LBE85:
 541              	.LBE86:
 159:../lpc11cx4-library/lpc_chip_11cxx_lib/src/i2c_11xx.c **** 	}
 542              		.loc 1 159 0
 543 0044 0120     		mov	r0, #1	@ D.6691,
 158:../lpc11cx4-library/lpc_chip_11cxx_lib/src/i2c_11xx.c **** 		return I2C_SLAVE_0;
 544              		.loc 1 158 0
 545 0046 002B     		cmp	r3, #0	@ D.6694,
 546 0048 E9D0     		beq	.L46	@,
 161:../lpc11cx4-library/lpc_chip_11cxx_lib/src/i2c_11xx.c **** 		return I2C_SLAVE_1;
 547              		.loc 1 161 0
 548 004a 136A     		ldr	r3, [r2, #32]	@ D.6693, pI2C_4(D)->ADR1
 549 004c 506B     		ldr	r0, [r2, #52]	@ D.6693, pI2C_4(D)->MASK
 550              	.LVL35:
 551              	.LBB87:
 552              	.LBB88:
 149:../lpc11cx4-library/lpc_chip_11cxx_lib/src/i2c_11xx.c **** }
 553              		.loc 1 149 0
 554 004e 4B40     		eor	r3, r1	@ tmp181, D.6692
 555              	.LVL36:
 148:../lpc11cx4-library/lpc_chip_11cxx_lib/src/i2c_11xx.c **** 	return (addr1 & ~mask) == (addr2 & ~mask);
 556              		.loc 1 148 0
 557 0050 2043     		orr	r0, r4	@ tmp177, tmp164
 558              	.LVL37:
 149:../lpc11cx4-library/lpc_chip_11cxx_lib/src/i2c_11xx.c **** }
 559              		.loc 1 149 0
 560 0052 C0B2     		uxtb	r0, r0	@ D.6694, tmp177
ARM GAS  /tmp/ccXTVNcx.s 			page 18


 561 0054 DBB2     		uxtb	r3, r3	@ D.6694, tmp181
 562 0056 8343     		bic	r3, r0	@ D.6694, D.6694
 563              	.LBE88:
 564              	.LBE87:
 162:../lpc11cx4-library/lpc_chip_11cxx_lib/src/i2c_11xx.c **** 	}
 565              		.loc 1 162 0
 566 0058 0220     		mov	r0, #2	@ D.6691,
 161:../lpc11cx4-library/lpc_chip_11cxx_lib/src/i2c_11xx.c **** 		return I2C_SLAVE_1;
 567              		.loc 1 161 0
 568 005a 002B     		cmp	r3, #0	@ D.6694,
 569 005c DFD0     		beq	.L46	@,
 164:../lpc11cx4-library/lpc_chip_11cxx_lib/src/i2c_11xx.c **** 		return I2C_SLAVE_2;
 570              		.loc 1 164 0
 571 005e 536A     		ldr	r3, [r2, #36]	@ D.6693, pI2C_4(D)->ADR2
 572 0060 906B     		ldr	r0, [r2, #56]	@ D.6693, pI2C_4(D)->MASK
 573              	.LVL38:
 574              	.LBB89:
 575              	.LBB90:
 149:../lpc11cx4-library/lpc_chip_11cxx_lib/src/i2c_11xx.c **** }
 576              		.loc 1 149 0
 577 0062 4B40     		eor	r3, r1	@ tmp191, D.6692
 578              	.LVL39:
 148:../lpc11cx4-library/lpc_chip_11cxx_lib/src/i2c_11xx.c **** 	return (addr1 & ~mask) == (addr2 & ~mask);
 579              		.loc 1 148 0
 580 0064 2043     		orr	r0, r4	@ tmp187, tmp164
 581              	.LVL40:
 149:../lpc11cx4-library/lpc_chip_11cxx_lib/src/i2c_11xx.c **** }
 582              		.loc 1 149 0
 583 0066 C0B2     		uxtb	r0, r0	@ D.6694, tmp187
 584 0068 DBB2     		uxtb	r3, r3	@ D.6694, tmp191
 585 006a 8343     		bic	r3, r0	@ D.6694, D.6694
 586              	.LBE90:
 587              	.LBE89:
 165:../lpc11cx4-library/lpc_chip_11cxx_lib/src/i2c_11xx.c **** 	}
 588              		.loc 1 165 0
 589 006c 0320     		mov	r0, #3	@ D.6691,
 164:../lpc11cx4-library/lpc_chip_11cxx_lib/src/i2c_11xx.c **** 		return I2C_SLAVE_2;
 590              		.loc 1 164 0
 591 006e 002B     		cmp	r3, #0	@ D.6694,
 592 0070 D5D0     		beq	.L46	@,
 167:../lpc11cx4-library/lpc_chip_11cxx_lib/src/i2c_11xx.c **** 		return I2C_SLAVE_3;
 593              		.loc 1 167 0
 594 0072 936A     		ldr	r3, [r2, #40]	@ D.6693, pI2C_4(D)->ADR3
 595 0074 D26B     		ldr	r2, [r2, #60]	@ D.6693, pI2C_4(D)->MASK
 596              	.LVL41:
 597              	.LBB91:
 598              	.LBB92:
 149:../lpc11cx4-library/lpc_chip_11cxx_lib/src/i2c_11xx.c **** }
 599              		.loc 1 149 0
 600 0076 5940     		eor	r1, r3	@ tmp201, D.6693
 601              	.LVL42:
 148:../lpc11cx4-library/lpc_chip_11cxx_lib/src/i2c_11xx.c **** 	return (addr1 & ~mask) == (addr2 & ~mask);
 602              		.loc 1 148 0
 603 0078 1443     		orr	r4, r2	@ tmp197, D.6693
 149:../lpc11cx4-library/lpc_chip_11cxx_lib/src/i2c_11xx.c **** }
 604              		.loc 1 149 0
 605 007a E4B2     		uxtb	r4, r4	@ D.6694, tmp197
ARM GAS  /tmp/ccXTVNcx.s 			page 19


 606 007c C8B2     		uxtb	r0, r1	@ D.6694, tmp201
 607 007e A043     		bic	r0, r4	@ D.6694, D.6694
 608              	.LBE92:
 609              	.LBE91:
 172:../lpc11cx4-library/lpc_chip_11cxx_lib/src/i2c_11xx.c **** }
 610              		.loc 1 172 0
 611 0080 4342     		neg	r3, r0	@ tmp206, D.6694
 612 0082 5841     		adc	r0, r0, r3	@ tmp205, D.6694, tmp206
 613              	.LVL43:
 614 0084 8000     		lsl	r0, r0, #2	@ D.6691, tmp205,
 615 0086 CAE7     		b	.L46	@
 616              	.LBE82:
 617              	.LBE81:
 618              	.LBE80:
 619              	.LBE79:
 620              		.cfi_endproc
 621              	.LFE210:
 622              		.size	getSlaveIndex, .-getSlaveIndex
 623              		.section	.text.handleSlaveXferState,"ax",%progbits
 624              		.align	2
 625              		.global	handleSlaveXferState
 626              		.code	16
 627              		.thumb_func
 628              		.type	handleSlaveXferState, %function
 629              	handleSlaveXferState:
 630              	.LFB211:
 263:../lpc11cx4-library/lpc_chip_11cxx_lib/src/i2c_11xx.c **** 	uint32_t cclr = I2C_CON_FLAGS;
 631              		.loc 1 263 0
 632              		.cfi_startproc
 633              	.LVL44:
 267:../lpc11cx4-library/lpc_chip_11cxx_lib/src/i2c_11xx.c **** 	switch (getCurState(pI2C)) {
 634              		.loc 1 267 0
 635 0000 0423     		mov	r3, #4	@ tmp140,
 263:../lpc11cx4-library/lpc_chip_11cxx_lib/src/i2c_11xx.c **** 	uint32_t cclr = I2C_CON_FLAGS;
 636              		.loc 1 263 0
 637 0002 021C     		mov	r2, r0	@ pI2C, pI2C
 267:../lpc11cx4-library/lpc_chip_11cxx_lib/src/i2c_11xx.c **** 	switch (getCurState(pI2C)) {
 638              		.loc 1 267 0
 639 0004 0B75     		strb	r3, [r1, #20]	@ tmp140, xfer_6(D)->status
 640              	.LVL45:
 641              	.LBB93:
 642              	.LBB94:
 122:../lpc11cx4-library/lpc_chip_11cxx_lib/src/i2c_11xx.c **** }
 643              		.loc 1 122 0
 644 0006 4368     		ldr	r3, [r0, #4]	@ D.6704, pI2C_8(D)->STAT
 645 0008 F820     		mov	r0, #248	@ tmp142,
 646              	.LVL46:
 647 000a 0340     		and	r3, r0	@ D.6706, tmp142
 648              	.LBE94:
 649              	.LBE93:
 268:../lpc11cx4-library/lpc_chip_11cxx_lib/src/i2c_11xx.c **** 	case 0x80:		/* SLA: Data received + ACK sent */
 650              		.loc 1 268 0
 651 000c 603B     		sub	r3, r3, #96	@ tmp144,
 652 000e 682B     		cmp	r3, #104	@ tmp144,
 653 0010 39D8     		bhi	.L88	@,
 654 0012 2548     		ldr	r0, .L91	@ tmp147,
 655 0014 9B00     		lsl	r3, r3, #2	@ tmp145, tmp144,
ARM GAS  /tmp/ccXTVNcx.s 			page 20


 656 0016 C358     		ldr	r3, [r0, r3]	@ tmp148,
 657 0018 9F46     		mov	pc, r3	@ tmp148
 658              		.section	.rodata.handleSlaveXferState,"a",%progbits
 659              		.align	2
 660              	.L81:
 661 0000 42000000 		.word	.L80
 662 0004 86000000 		.word	.L88
 663 0008 86000000 		.word	.L88
 664 000c 86000000 		.word	.L88
 665 0010 86000000 		.word	.L88
 666 0014 86000000 		.word	.L88
 667 0018 86000000 		.word	.L88
 668 001c 86000000 		.word	.L88
 669 0020 42000000 		.word	.L80
 670 0024 86000000 		.word	.L88
 671 0028 86000000 		.word	.L88
 672 002c 86000000 		.word	.L88
 673 0030 86000000 		.word	.L88
 674 0034 86000000 		.word	.L88
 675 0038 86000000 		.word	.L88
 676 003c 86000000 		.word	.L88
 677 0040 42000000 		.word	.L80
 678 0044 86000000 		.word	.L88
 679 0048 86000000 		.word	.L88
 680 004c 86000000 		.word	.L88
 681 0050 86000000 		.word	.L88
 682 0054 86000000 		.word	.L88
 683 0058 86000000 		.word	.L88
 684 005c 86000000 		.word	.L88
 685 0060 42000000 		.word	.L80
 686 0064 86000000 		.word	.L88
 687 0068 86000000 		.word	.L88
 688 006c 86000000 		.word	.L88
 689 0070 86000000 		.word	.L88
 690 0074 86000000 		.word	.L88
 691 0078 86000000 		.word	.L88
 692 007c 86000000 		.word	.L88
 693 0080 58000000 		.word	.L82
 694 0084 86000000 		.word	.L88
 695 0088 86000000 		.word	.L88
 696 008c 86000000 		.word	.L88
 697 0090 86000000 		.word	.L88
 698 0094 86000000 		.word	.L88
 699 0098 86000000 		.word	.L88
 700 009c 86000000 		.word	.L88
 701 00a0 74000000 		.word	.L83
 702 00a4 86000000 		.word	.L88
 703 00a8 86000000 		.word	.L88
 704 00ac 86000000 		.word	.L88
 705 00b0 86000000 		.word	.L88
 706 00b4 86000000 		.word	.L88
 707 00b8 86000000 		.word	.L88
 708 00bc 86000000 		.word	.L88
 709 00c0 58000000 		.word	.L82
 710 00c4 86000000 		.word	.L88
 711 00c8 86000000 		.word	.L88
 712 00cc 86000000 		.word	.L88
ARM GAS  /tmp/ccXTVNcx.s 			page 21


 713 00d0 86000000 		.word	.L88
 714 00d4 86000000 		.word	.L88
 715 00d8 86000000 		.word	.L88
 716 00dc 86000000 		.word	.L88
 717 00e0 74000000 		.word	.L83
 718 00e4 86000000 		.word	.L88
 719 00e8 86000000 		.word	.L88
 720 00ec 86000000 		.word	.L88
 721 00f0 86000000 		.word	.L88
 722 00f4 86000000 		.word	.L88
 723 00f8 86000000 		.word	.L88
 724 00fc 86000000 		.word	.L88
 725 0100 74000000 		.word	.L83
 726 0104 86000000 		.word	.L88
 727 0108 86000000 		.word	.L88
 728 010c 86000000 		.word	.L88
 729 0110 86000000 		.word	.L88
 730 0114 86000000 		.word	.L88
 731 0118 86000000 		.word	.L88
 732 011c 86000000 		.word	.L88
 733 0120 1A000000 		.word	.L84
 734 0124 86000000 		.word	.L88
 735 0128 86000000 		.word	.L88
 736 012c 86000000 		.word	.L88
 737 0130 86000000 		.word	.L88
 738 0134 86000000 		.word	.L88
 739 0138 86000000 		.word	.L88
 740 013c 86000000 		.word	.L88
 741 0140 1A000000 		.word	.L84
 742 0144 86000000 		.word	.L88
 743 0148 86000000 		.word	.L88
 744 014c 86000000 		.word	.L88
 745 0150 86000000 		.word	.L88
 746 0154 86000000 		.word	.L88
 747 0158 86000000 		.word	.L88
 748 015c 86000000 		.word	.L88
 749 0160 22000000 		.word	.L85
 750 0164 86000000 		.word	.L88
 751 0168 86000000 		.word	.L88
 752 016c 86000000 		.word	.L88
 753 0170 86000000 		.word	.L88
 754 0174 86000000 		.word	.L88
 755 0178 86000000 		.word	.L88
 756 017c 86000000 		.word	.L88
 757 0180 74000000 		.word	.L83
 758 0184 86000000 		.word	.L88
 759 0188 86000000 		.word	.L88
 760 018c 86000000 		.word	.L88
 761 0190 86000000 		.word	.L88
 762 0194 86000000 		.word	.L88
 763 0198 86000000 		.word	.L88
 764 019c 86000000 		.word	.L88
 765 01a0 74000000 		.word	.L83
 766              		.section	.text.handleSlaveXferState
 767              	.L84:
 291:../lpc11cx4-library/lpc_chip_11cxx_lib/src/i2c_11xx.c **** 
 768              		.loc 1 291 0
ARM GAS  /tmp/ccXTVNcx.s 			page 22


 769 001a 0120     		mov	r0, #1	@ tmp159,
 770 001c 9368     		ldr	r3, [r2, #8]	@ D.6704, pI2C_8(D)->DAT
 771 001e 8343     		bic	r3, r0	@ tmp158, tmp159
 772 0020 0B70     		strb	r3, [r1]	@ tmp158, xfer_6(D)->slaveAddr
 773              	.L85:
 294:../lpc11cx4-library/lpc_chip_11cxx_lib/src/i2c_11xx.c **** 		xfer->txSz--;
 774              		.loc 1 294 0
 775 0022 4B68     		ldr	r3, [r1, #4]	@ D.6707, xfer_6(D)->txBuff
 776 0024 581C     		add	r0, r3, #1	@ D.6707, D.6707,
 777 0026 4860     		str	r0, [r1, #4]	@ D.6707, xfer_6(D)->txBuff
 778 0028 1B78     		ldrb	r3, [r3]	@ D.6704, *_27
 779 002a 9360     		str	r3, [r2, #8]	@ D.6704, pI2C_8(D)->DAT
 295:../lpc11cx4-library/lpc_chip_11cxx_lib/src/i2c_11xx.c **** 		if (xfer->txSz > 0) {
 780              		.loc 1 295 0
 781 002c 8B68     		ldr	r3, [r1, #8]	@ tmp176, xfer_6(D)->txSz
 782 002e 013B     		sub	r3, r3, #1	@ D.6706,
 783 0030 8B60     		str	r3, [r1, #8]	@ D.6706, xfer_6(D)->txSz
 296:../lpc11cx4-library/lpc_chip_11cxx_lib/src/i2c_11xx.c **** 			cclr &= ~I2C_CON_AA;
 784              		.loc 1 296 0
 785 0032 002B     		cmp	r3, #0	@ D.6706,
 786 0034 2BDD     		ble	.L89	@,
 787 0036 0421     		mov	r1, #4	@ D.6704,
 788              	.LVL47:
 299:../lpc11cx4-library/lpc_chip_11cxx_lib/src/i2c_11xx.c **** 		break;
 789              		.loc 1 299 0
 790 0038 0620     		mov	r0, #6	@ ret,
 297:../lpc11cx4-library/lpc_chip_11cxx_lib/src/i2c_11xx.c **** 		}
 791              		.loc 1 297 0
 792 003a 3823     		mov	r3, #56	@ cclr,
 793              	.LVL48:
 794              	.L79:
 317:../lpc11cx4-library/lpc_chip_11cxx_lib/src/i2c_11xx.c **** 	pI2C->CONCLR = cclr;
 795              		.loc 1 317 0
 796 003c 1160     		str	r1, [r2]	@ D.6704, pI2C_8(D)->CONSET
 321:../lpc11cx4-library/lpc_chip_11cxx_lib/src/i2c_11xx.c **** 
 797              		.loc 1 321 0
 798              		@ sp needed	@
 318:../lpc11cx4-library/lpc_chip_11cxx_lib/src/i2c_11xx.c **** 
 799              		.loc 1 318 0
 800 003e 9361     		str	r3, [r2, #24]	@ cclr, pI2C_8(D)->CONCLR
 321:../lpc11cx4-library/lpc_chip_11cxx_lib/src/i2c_11xx.c **** 
 801              		.loc 1 321 0
 802 0040 7047     		bx	lr
 803              	.LVL49:
 804              	.L80:
 283:../lpc11cx4-library/lpc_chip_11cxx_lib/src/i2c_11xx.c **** 		if (xfer->rxSz > 1) {
 805              		.loc 1 283 0
 806 0042 0120     		mov	r0, #1	@ tmp154,
 807 0044 9368     		ldr	r3, [r2, #8]	@ D.6704, pI2C_8(D)->DAT
 808 0046 8343     		bic	r3, r0	@ tmp153, tmp154
 809 0048 0B70     		strb	r3, [r1]	@ tmp153, xfer_6(D)->slaveAddr
 284:../lpc11cx4-library/lpc_chip_11cxx_lib/src/i2c_11xx.c **** 			cclr &= ~I2C_CON_AA;
 810              		.loc 1 284 0
 811 004a 0B69     		ldr	r3, [r1, #16]	@ xfer_6(D)->rxSz, xfer_6(D)->rxSz
 812 004c 012B     		cmp	r3, #1	@ xfer_6(D)->rxSz,
 813 004e 1ADD     		ble	.L88	@,
 814 0050 0421     		mov	r1, #4	@ D.6704,
ARM GAS  /tmp/ccXTVNcx.s 			page 23


 815              	.LVL50:
 265:../lpc11cx4-library/lpc_chip_11cxx_lib/src/i2c_11xx.c **** 
 816              		.loc 1 265 0
 817 0052 0020     		mov	r0, #0	@ ret,
 285:../lpc11cx4-library/lpc_chip_11cxx_lib/src/i2c_11xx.c **** 		}
 818              		.loc 1 285 0
 819 0054 3823     		mov	r3, #56	@ cclr,
 820 0056 F1E7     		b	.L79	@
 821              	.LVL51:
 822              	.L82:
 271:../lpc11cx4-library/lpc_chip_11cxx_lib/src/i2c_11xx.c **** 		xfer->rxSz--;
 823              		.loc 1 271 0
 824 0058 CB68     		ldr	r3, [r1, #12]	@ D.6703, xfer_6(D)->rxBuff
 825 005a 581C     		add	r0, r3, #1	@ D.6703, D.6703,
 826 005c C860     		str	r0, [r1, #12]	@ D.6703, xfer_6(D)->rxBuff
 827 005e 9068     		ldr	r0, [r2, #8]	@ D.6704, pI2C_8(D)->DAT
 828 0060 1870     		strb	r0, [r3]	@ D.6704, *_9
 272:../lpc11cx4-library/lpc_chip_11cxx_lib/src/i2c_11xx.c **** 		ret = RET_SLAVE_RX;
 829              		.loc 1 272 0
 830 0062 0B69     		ldr	r3, [r1, #16]	@ tmp175, xfer_6(D)->rxSz
 831 0064 013B     		sub	r3, r3, #1	@ D.6706,
 832 0066 0B61     		str	r3, [r1, #16]	@ D.6706, xfer_6(D)->rxSz
 833              	.LVL52:
 274:../lpc11cx4-library/lpc_chip_11cxx_lib/src/i2c_11xx.c **** 			cclr &= ~I2C_CON_AA;
 834              		.loc 1 274 0
 835 0068 012B     		cmp	r3, #1	@ D.6706,
 836 006a 18DD     		ble	.L87	@,
 837 006c 0421     		mov	r1, #4	@ D.6704,
 838              	.LVL53:
 273:../lpc11cx4-library/lpc_chip_11cxx_lib/src/i2c_11xx.c **** 		if (xfer->rxSz > 1) {
 839              		.loc 1 273 0
 840 006e 0520     		mov	r0, #5	@ ret,
 275:../lpc11cx4-library/lpc_chip_11cxx_lib/src/i2c_11xx.c **** 		}
 841              		.loc 1 275 0
 842 0070 3823     		mov	r3, #56	@ cclr,
 843 0072 E3E7     		b	.L79	@
 844              	.LVL54:
 845              	.L83:
 309:../lpc11cx4-library/lpc_chip_11cxx_lib/src/i2c_11xx.c **** 		if (xfer->slaveAddr & 1) {
 846              		.loc 1 309 0
 847 0074 0023     		mov	r3, #0	@ tmp163,
 848 0076 0B75     		strb	r3, [r1, #20]	@ tmp163, xfer_6(D)->status
 310:../lpc11cx4-library/lpc_chip_11cxx_lib/src/i2c_11xx.c **** 			cclr &= ~I2C_CON_STA;
 849              		.loc 1 310 0
 850 0078 0B78     		ldrb	r3, [r1]	@ *xfer_6(D), *xfer_6(D)
 851 007a DB07     		lsl	r3, r3, #31	@ tmp174, *xfer_6(D),
 852 007c 0BD5     		bpl	.L90	@,
 853 007e 2421     		mov	r1, #36	@ D.6704,
 854              	.LVL55:
 307:../lpc11cx4-library/lpc_chip_11cxx_lib/src/i2c_11xx.c **** 		cclr &= ~I2C_CON_AA;
 855              		.loc 1 307 0
 856 0080 0220     		mov	r0, #2	@ ret,
 311:../lpc11cx4-library/lpc_chip_11cxx_lib/src/i2c_11xx.c **** 		}
 857              		.loc 1 311 0
 858 0082 1823     		mov	r3, #24	@ cclr,
 859 0084 DAE7     		b	.L79	@
 860              	.LVL56:
ARM GAS  /tmp/ccXTVNcx.s 			page 24


 861              	.L88:
 862 0086 0021     		mov	r1, #0	@ D.6704,
 863              	.LVL57:
 265:../lpc11cx4-library/lpc_chip_11cxx_lib/src/i2c_11xx.c **** 
 864              		.loc 1 265 0
 865 0088 0020     		mov	r0, #0	@ ret,
 264:../lpc11cx4-library/lpc_chip_11cxx_lib/src/i2c_11xx.c **** 	int ret = RET_SLAVE_BUSY;
 866              		.loc 1 264 0
 867 008a 3C23     		mov	r3, #60	@ cclr,
 868 008c D6E7     		b	.L79	@
 869              	.LVL58:
 870              	.L89:
 871 008e 0021     		mov	r1, #0	@ D.6704,
 872              	.LVL59:
 299:../lpc11cx4-library/lpc_chip_11cxx_lib/src/i2c_11xx.c **** 		break;
 873              		.loc 1 299 0
 874 0090 0620     		mov	r0, #6	@ ret,
 264:../lpc11cx4-library/lpc_chip_11cxx_lib/src/i2c_11xx.c **** 	int ret = RET_SLAVE_BUSY;
 875              		.loc 1 264 0
 876 0092 3C23     		mov	r3, #60	@ cclr,
 877 0094 D2E7     		b	.L79	@
 878              	.LVL60:
 879              	.L90:
 880 0096 0421     		mov	r1, #4	@ D.6704,
 881              	.LVL61:
 307:../lpc11cx4-library/lpc_chip_11cxx_lib/src/i2c_11xx.c **** 		cclr &= ~I2C_CON_AA;
 882              		.loc 1 307 0
 883 0098 0220     		mov	r0, #2	@ ret,
 308:../lpc11cx4-library/lpc_chip_11cxx_lib/src/i2c_11xx.c **** 		xfer->status = I2C_STATUS_DONE;
 884              		.loc 1 308 0
 885 009a 3823     		mov	r3, #56	@ cclr,
 886 009c CEE7     		b	.L79	@
 887              	.LVL62:
 888              	.L87:
 889 009e 0021     		mov	r1, #0	@ D.6704,
 890              	.LVL63:
 273:../lpc11cx4-library/lpc_chip_11cxx_lib/src/i2c_11xx.c **** 		if (xfer->rxSz > 1) {
 891              		.loc 1 273 0
 892 00a0 0520     		mov	r0, #5	@ ret,
 264:../lpc11cx4-library/lpc_chip_11cxx_lib/src/i2c_11xx.c **** 	int ret = RET_SLAVE_BUSY;
 893              		.loc 1 264 0
 894 00a2 3C23     		mov	r3, #60	@ cclr,
 895 00a4 CAE7     		b	.L79	@
 896              	.L92:
 897 00a6 C046     		.align	2
 898              	.L91:
 899 00a8 00000000 		.word	.L81
 900              		.cfi_endproc
 901              	.LFE211:
 902              		.size	handleSlaveXferState, .-handleSlaveXferState
 903              		.section	.text.Chip_I2C_Init,"ax",%progbits
 904              		.align	2
 905              		.global	Chip_I2C_Init
 906              		.code	16
 907              		.thumb_func
 908              		.type	Chip_I2C_Init, %function
 909              	Chip_I2C_Init:
ARM GAS  /tmp/ccXTVNcx.s 			page 25


 910              	.LFB214:
 342:../lpc11cx4-library/lpc_chip_11cxx_lib/src/i2c_11xx.c **** 
 343:../lpc11cx4-library/lpc_chip_11cxx_lib/src/i2c_11xx.c **** /* Chip polling event handler */
 344:../lpc11cx4-library/lpc_chip_11cxx_lib/src/i2c_11xx.c **** void Chip_I2C_EventHandlerPolling(I2C_ID_T id, I2C_EVENT_T event)
 345:../lpc11cx4-library/lpc_chip_11cxx_lib/src/i2c_11xx.c **** {
 346:../lpc11cx4-library/lpc_chip_11cxx_lib/src/i2c_11xx.c **** 	struct i2c_interface *iic = &i2c[id];
 347:../lpc11cx4-library/lpc_chip_11cxx_lib/src/i2c_11xx.c **** 	volatile I2C_STATUS_T *stat;
 348:../lpc11cx4-library/lpc_chip_11cxx_lib/src/i2c_11xx.c **** 
 349:../lpc11cx4-library/lpc_chip_11cxx_lib/src/i2c_11xx.c **** 	/* Only WAIT event needs to be handled */
 350:../lpc11cx4-library/lpc_chip_11cxx_lib/src/i2c_11xx.c **** 	if (event != I2C_EVENT_WAIT) {
 351:../lpc11cx4-library/lpc_chip_11cxx_lib/src/i2c_11xx.c **** 		return;
 352:../lpc11cx4-library/lpc_chip_11cxx_lib/src/i2c_11xx.c **** 	}
 353:../lpc11cx4-library/lpc_chip_11cxx_lib/src/i2c_11xx.c **** 
 354:../lpc11cx4-library/lpc_chip_11cxx_lib/src/i2c_11xx.c **** 	stat = &iic->mXfer->status;
 355:../lpc11cx4-library/lpc_chip_11cxx_lib/src/i2c_11xx.c **** 	/* Call the state change handler till xfer is done */
 356:../lpc11cx4-library/lpc_chip_11cxx_lib/src/i2c_11xx.c **** 	while (*stat == I2C_STATUS_BUSY) {
 357:../lpc11cx4-library/lpc_chip_11cxx_lib/src/i2c_11xx.c **** 		if (Chip_I2C_IsStateChanged(id)) {
 358:../lpc11cx4-library/lpc_chip_11cxx_lib/src/i2c_11xx.c **** 			Chip_I2C_MasterStateHandler(id);
 359:../lpc11cx4-library/lpc_chip_11cxx_lib/src/i2c_11xx.c **** 		}
 360:../lpc11cx4-library/lpc_chip_11cxx_lib/src/i2c_11xx.c **** 	}
 361:../lpc11cx4-library/lpc_chip_11cxx_lib/src/i2c_11xx.c **** }
 362:../lpc11cx4-library/lpc_chip_11cxx_lib/src/i2c_11xx.c **** 
 363:../lpc11cx4-library/lpc_chip_11cxx_lib/src/i2c_11xx.c **** /* Initializes the LPC_I2C peripheral with specified parameter */
 364:../lpc11cx4-library/lpc_chip_11cxx_lib/src/i2c_11xx.c **** void Chip_I2C_Init(I2C_ID_T id)
 365:../lpc11cx4-library/lpc_chip_11cxx_lib/src/i2c_11xx.c **** {
 911              		.loc 1 365 0
 912              		.cfi_startproc
 913              	.LVL64:
 914 0000 70B5     		push	{r4, r5, r6, lr}	@
 915              		.cfi_def_cfa_offset 16
 916              		.cfi_offset 4, -16
 917              		.cfi_offset 5, -12
 918              		.cfi_offset 6, -8
 919              		.cfi_offset 14, -4
 920              	.LBB95:
 921              	.LBB96:
  79:../lpc11cx4-library/lpc_chip_11cxx_lib/src/i2c_11xx.c **** }
 922              		.loc 1 79 0
 923 0002 C300     		lsl	r3, r0, #3	@ tmp123, id,
 924 0004 0749     		ldr	r1, .L94	@ tmp121,
 925 0006 181A     		sub	r0, r3, r0	@ tmp124, tmp123, id
 926              	.LVL65:
 927 0008 8000     		lsl	r0, r0, #2	@ tmp125, tmp124,
 928 000a 0B18     		add	r3, r1, r0	@ tmp126, tmp121, tmp125
 929              	.LBB97:
 930              	.LBB98:
 931              		.file 2 "../lpc11cx4-library/lpc_chip_11cxx_lib/inc/clock_11xx.h"
   1:../lpc11cx4-library/lpc_chip_11cxx_lib/inc/clock_11xx.h **** /*
   2:../lpc11cx4-library/lpc_chip_11cxx_lib/inc/clock_11xx.h ****  * @brief LPC11XX Clock control functions
   3:../lpc11cx4-library/lpc_chip_11cxx_lib/inc/clock_11xx.h ****  *
   4:../lpc11cx4-library/lpc_chip_11cxx_lib/inc/clock_11xx.h ****  * @note
   5:../lpc11cx4-library/lpc_chip_11cxx_lib/inc/clock_11xx.h ****  * Copyright(C) NXP Semiconductors, 2012
   6:../lpc11cx4-library/lpc_chip_11cxx_lib/inc/clock_11xx.h ****  * All rights reserved.
   7:../lpc11cx4-library/lpc_chip_11cxx_lib/inc/clock_11xx.h ****  *
   8:../lpc11cx4-library/lpc_chip_11cxx_lib/inc/clock_11xx.h ****  * @par
   9:../lpc11cx4-library/lpc_chip_11cxx_lib/inc/clock_11xx.h ****  * Software that is described herein is for illustrative purposes only
  10:../lpc11cx4-library/lpc_chip_11cxx_lib/inc/clock_11xx.h ****  * which provides customers with programming information regarding the
ARM GAS  /tmp/ccXTVNcx.s 			page 26


  11:../lpc11cx4-library/lpc_chip_11cxx_lib/inc/clock_11xx.h ****  * LPC products.  This software is supplied "AS IS" without any warranties of
  12:../lpc11cx4-library/lpc_chip_11cxx_lib/inc/clock_11xx.h ****  * any kind, and NXP Semiconductors and its licensor disclaim any and
  13:../lpc11cx4-library/lpc_chip_11cxx_lib/inc/clock_11xx.h ****  * all warranties, express or implied, including all implied warranties of
  14:../lpc11cx4-library/lpc_chip_11cxx_lib/inc/clock_11xx.h ****  * merchantability, fitness for a particular purpose and non-infringement of
  15:../lpc11cx4-library/lpc_chip_11cxx_lib/inc/clock_11xx.h ****  * intellectual property rights.  NXP Semiconductors assumes no responsibility
  16:../lpc11cx4-library/lpc_chip_11cxx_lib/inc/clock_11xx.h ****  * or liability for the use of the software, conveys no license or rights under any
  17:../lpc11cx4-library/lpc_chip_11cxx_lib/inc/clock_11xx.h ****  * patent, copyright, mask work right, or any other intellectual property rights in
  18:../lpc11cx4-library/lpc_chip_11cxx_lib/inc/clock_11xx.h ****  * or to any products. NXP Semiconductors reserves the right to make changes
  19:../lpc11cx4-library/lpc_chip_11cxx_lib/inc/clock_11xx.h ****  * in the software without notification. NXP Semiconductors also makes no
  20:../lpc11cx4-library/lpc_chip_11cxx_lib/inc/clock_11xx.h ****  * representation or warranty that such application will be suitable for the
  21:../lpc11cx4-library/lpc_chip_11cxx_lib/inc/clock_11xx.h ****  * specified use without further testing or modification.
  22:../lpc11cx4-library/lpc_chip_11cxx_lib/inc/clock_11xx.h ****  *
  23:../lpc11cx4-library/lpc_chip_11cxx_lib/inc/clock_11xx.h ****  * @par
  24:../lpc11cx4-library/lpc_chip_11cxx_lib/inc/clock_11xx.h ****  * Permission to use, copy, modify, and distribute this software and its
  25:../lpc11cx4-library/lpc_chip_11cxx_lib/inc/clock_11xx.h ****  * documentation is hereby granted, under NXP Semiconductors' and its
  26:../lpc11cx4-library/lpc_chip_11cxx_lib/inc/clock_11xx.h ****  * licensor's relevant copyrights in the software, without fee, provided that it
  27:../lpc11cx4-library/lpc_chip_11cxx_lib/inc/clock_11xx.h ****  * is used in conjunction with NXP Semiconductors microcontrollers.  This
  28:../lpc11cx4-library/lpc_chip_11cxx_lib/inc/clock_11xx.h ****  * copyright, permission, and disclaimer notice must appear in all copies of
  29:../lpc11cx4-library/lpc_chip_11cxx_lib/inc/clock_11xx.h ****  * this code.
  30:../lpc11cx4-library/lpc_chip_11cxx_lib/inc/clock_11xx.h ****  */
  31:../lpc11cx4-library/lpc_chip_11cxx_lib/inc/clock_11xx.h **** 
  32:../lpc11cx4-library/lpc_chip_11cxx_lib/inc/clock_11xx.h **** #ifndef __CLOCK_11XX_H_
  33:../lpc11cx4-library/lpc_chip_11cxx_lib/inc/clock_11xx.h **** #define __CLOCK_11XX_H_
  34:../lpc11cx4-library/lpc_chip_11cxx_lib/inc/clock_11xx.h **** 
  35:../lpc11cx4-library/lpc_chip_11cxx_lib/inc/clock_11xx.h **** #ifdef __cplusplus
  36:../lpc11cx4-library/lpc_chip_11cxx_lib/inc/clock_11xx.h **** extern "C" {
  37:../lpc11cx4-library/lpc_chip_11cxx_lib/inc/clock_11xx.h **** #endif
  38:../lpc11cx4-library/lpc_chip_11cxx_lib/inc/clock_11xx.h **** 
  39:../lpc11cx4-library/lpc_chip_11cxx_lib/inc/clock_11xx.h **** /** @defgroup CLOCK_11XX CHIP: LPC11xx Clock Control block driver
  40:../lpc11cx4-library/lpc_chip_11cxx_lib/inc/clock_11xx.h ****  * @ingroup CHIP_11XX_Drivers
  41:../lpc11cx4-library/lpc_chip_11cxx_lib/inc/clock_11xx.h ****  * @{
  42:../lpc11cx4-library/lpc_chip_11cxx_lib/inc/clock_11xx.h ****  */
  43:../lpc11cx4-library/lpc_chip_11cxx_lib/inc/clock_11xx.h **** 
  44:../lpc11cx4-library/lpc_chip_11cxx_lib/inc/clock_11xx.h **** /** Internal oscillator frequency */
  45:../lpc11cx4-library/lpc_chip_11cxx_lib/inc/clock_11xx.h **** #define SYSCTL_IRC_FREQ (12000000)
  46:../lpc11cx4-library/lpc_chip_11cxx_lib/inc/clock_11xx.h **** 
  47:../lpc11cx4-library/lpc_chip_11cxx_lib/inc/clock_11xx.h **** /**
  48:../lpc11cx4-library/lpc_chip_11cxx_lib/inc/clock_11xx.h ****  * @brief	Set System PLL divider values
  49:../lpc11cx4-library/lpc_chip_11cxx_lib/inc/clock_11xx.h ****  * @param	msel    : PLL feedback divider value. M = msel + 1.
  50:../lpc11cx4-library/lpc_chip_11cxx_lib/inc/clock_11xx.h ****  * @param	psel    : PLL post divider value. P =  (1<<psel).
  51:../lpc11cx4-library/lpc_chip_11cxx_lib/inc/clock_11xx.h ****  * @return	Nothing
  52:../lpc11cx4-library/lpc_chip_11cxx_lib/inc/clock_11xx.h ****  * @note	See the user manual for how to setup the PLL.
  53:../lpc11cx4-library/lpc_chip_11cxx_lib/inc/clock_11xx.h ****  */
  54:../lpc11cx4-library/lpc_chip_11cxx_lib/inc/clock_11xx.h **** STATIC INLINE void Chip_Clock_SetupSystemPLL(uint8_t msel, uint8_t psel)
  55:../lpc11cx4-library/lpc_chip_11cxx_lib/inc/clock_11xx.h **** {
  56:../lpc11cx4-library/lpc_chip_11cxx_lib/inc/clock_11xx.h **** 	LPC_SYSCTL->SYSPLLCTRL = (msel & 0x1F) | ((psel & 0x3) << 5);
  57:../lpc11cx4-library/lpc_chip_11cxx_lib/inc/clock_11xx.h **** }
  58:../lpc11cx4-library/lpc_chip_11cxx_lib/inc/clock_11xx.h **** 
  59:../lpc11cx4-library/lpc_chip_11cxx_lib/inc/clock_11xx.h **** /**
  60:../lpc11cx4-library/lpc_chip_11cxx_lib/inc/clock_11xx.h ****  * @brief	Read System PLL lock status
  61:../lpc11cx4-library/lpc_chip_11cxx_lib/inc/clock_11xx.h ****  * @return	true of the PLL is locked. false if not locked
  62:../lpc11cx4-library/lpc_chip_11cxx_lib/inc/clock_11xx.h ****  */
  63:../lpc11cx4-library/lpc_chip_11cxx_lib/inc/clock_11xx.h **** STATIC INLINE bool Chip_Clock_IsSystemPLLLocked(void)
  64:../lpc11cx4-library/lpc_chip_11cxx_lib/inc/clock_11xx.h **** {
  65:../lpc11cx4-library/lpc_chip_11cxx_lib/inc/clock_11xx.h **** 	return (bool) ((LPC_SYSCTL->SYSPLLSTAT & 1) != 0);
  66:../lpc11cx4-library/lpc_chip_11cxx_lib/inc/clock_11xx.h **** }
  67:../lpc11cx4-library/lpc_chip_11cxx_lib/inc/clock_11xx.h **** 
ARM GAS  /tmp/ccXTVNcx.s 			page 27


  68:../lpc11cx4-library/lpc_chip_11cxx_lib/inc/clock_11xx.h **** /**
  69:../lpc11cx4-library/lpc_chip_11cxx_lib/inc/clock_11xx.h ****  * Clock sources for system and USB PLLs
  70:../lpc11cx4-library/lpc_chip_11cxx_lib/inc/clock_11xx.h ****  */
  71:../lpc11cx4-library/lpc_chip_11cxx_lib/inc/clock_11xx.h **** typedef enum CHIP_SYSCTL_PLLCLKSRC {
  72:../lpc11cx4-library/lpc_chip_11cxx_lib/inc/clock_11xx.h **** 	SYSCTL_PLLCLKSRC_IRC = 0,		/*!< Internal oscillator in */
  73:../lpc11cx4-library/lpc_chip_11cxx_lib/inc/clock_11xx.h **** 	SYSCTL_PLLCLKSRC_MAINOSC,		/*!< Crystal (main) oscillator in */
  74:../lpc11cx4-library/lpc_chip_11cxx_lib/inc/clock_11xx.h **** #if defined(CHIP_LPC11AXX)
  75:../lpc11cx4-library/lpc_chip_11cxx_lib/inc/clock_11xx.h **** 	SYSCTL_PLLCLKSRC_EXT_CLKIN,	/*!< External clock in (11Axx only) */
  76:../lpc11cx4-library/lpc_chip_11cxx_lib/inc/clock_11xx.h **** #else
  77:../lpc11cx4-library/lpc_chip_11cxx_lib/inc/clock_11xx.h **** 	SYSCTL_PLLCLKSRC_RESERVED1,	/*!< Reserved */
  78:../lpc11cx4-library/lpc_chip_11cxx_lib/inc/clock_11xx.h **** #endif
  79:../lpc11cx4-library/lpc_chip_11cxx_lib/inc/clock_11xx.h **** 	SYSCTL_PLLCLKSRC_RESERVED2,	/*!< Reserved */
  80:../lpc11cx4-library/lpc_chip_11cxx_lib/inc/clock_11xx.h **** } CHIP_SYSCTL_PLLCLKSRC_T;
  81:../lpc11cx4-library/lpc_chip_11cxx_lib/inc/clock_11xx.h **** 
  82:../lpc11cx4-library/lpc_chip_11cxx_lib/inc/clock_11xx.h **** /**
  83:../lpc11cx4-library/lpc_chip_11cxx_lib/inc/clock_11xx.h ****  * @brief	Set System PLL clock source
  84:../lpc11cx4-library/lpc_chip_11cxx_lib/inc/clock_11xx.h ****  * @param	src	: Clock source for system PLL
  85:../lpc11cx4-library/lpc_chip_11cxx_lib/inc/clock_11xx.h ****  * @return	Nothing
  86:../lpc11cx4-library/lpc_chip_11cxx_lib/inc/clock_11xx.h ****  * @note	This function will also toggle the clock source update register
  87:../lpc11cx4-library/lpc_chip_11cxx_lib/inc/clock_11xx.h ****  * to update the clock source.
  88:../lpc11cx4-library/lpc_chip_11cxx_lib/inc/clock_11xx.h ****  */
  89:../lpc11cx4-library/lpc_chip_11cxx_lib/inc/clock_11xx.h **** void Chip_Clock_SetSystemPLLSource(CHIP_SYSCTL_PLLCLKSRC_T src);
  90:../lpc11cx4-library/lpc_chip_11cxx_lib/inc/clock_11xx.h **** 
  91:../lpc11cx4-library/lpc_chip_11cxx_lib/inc/clock_11xx.h **** #if defined(CHIP_LPC11UXX)
  92:../lpc11cx4-library/lpc_chip_11cxx_lib/inc/clock_11xx.h **** /**
  93:../lpc11cx4-library/lpc_chip_11cxx_lib/inc/clock_11xx.h ****  * @brief	Set USB PLL divider values
  94:../lpc11cx4-library/lpc_chip_11cxx_lib/inc/clock_11xx.h ****  * @param	msel    : PLL feedback divider value. M = msel + 1.
  95:../lpc11cx4-library/lpc_chip_11cxx_lib/inc/clock_11xx.h ****  * @param	psel    : PLL post divider value. P = (1<<psel).
  96:../lpc11cx4-library/lpc_chip_11cxx_lib/inc/clock_11xx.h ****  * @return	Nothing
  97:../lpc11cx4-library/lpc_chip_11cxx_lib/inc/clock_11xx.h ****  * @note	See the user manual for how to setup the PLL.
  98:../lpc11cx4-library/lpc_chip_11cxx_lib/inc/clock_11xx.h ****  */
  99:../lpc11cx4-library/lpc_chip_11cxx_lib/inc/clock_11xx.h **** STATIC INLINE void Chip_Clock_SetupUSBPLL(uint8_t msel, uint8_t psel)
 100:../lpc11cx4-library/lpc_chip_11cxx_lib/inc/clock_11xx.h **** {
 101:../lpc11cx4-library/lpc_chip_11cxx_lib/inc/clock_11xx.h **** 	LPC_SYSCTL->USBPLLCTRL = (msel & 0x1F) | ((psel & 0x3) << 5);
 102:../lpc11cx4-library/lpc_chip_11cxx_lib/inc/clock_11xx.h **** }
 103:../lpc11cx4-library/lpc_chip_11cxx_lib/inc/clock_11xx.h **** 
 104:../lpc11cx4-library/lpc_chip_11cxx_lib/inc/clock_11xx.h **** /**
 105:../lpc11cx4-library/lpc_chip_11cxx_lib/inc/clock_11xx.h ****  * @brief	Read USB PLL lock status
 106:../lpc11cx4-library/lpc_chip_11cxx_lib/inc/clock_11xx.h ****  * @return	true of the PLL is locked. false if not locked
 107:../lpc11cx4-library/lpc_chip_11cxx_lib/inc/clock_11xx.h ****  */
 108:../lpc11cx4-library/lpc_chip_11cxx_lib/inc/clock_11xx.h **** STATIC INLINE bool Chip_Clock_IsUSBPLLLocked(void)
 109:../lpc11cx4-library/lpc_chip_11cxx_lib/inc/clock_11xx.h **** {
 110:../lpc11cx4-library/lpc_chip_11cxx_lib/inc/clock_11xx.h **** 	return (bool) ((LPC_SYSCTL->USBPLLSTAT & 1) != 0);
 111:../lpc11cx4-library/lpc_chip_11cxx_lib/inc/clock_11xx.h **** }
 112:../lpc11cx4-library/lpc_chip_11cxx_lib/inc/clock_11xx.h **** 
 113:../lpc11cx4-library/lpc_chip_11cxx_lib/inc/clock_11xx.h **** /**
 114:../lpc11cx4-library/lpc_chip_11cxx_lib/inc/clock_11xx.h ****  * @brief	Set USB PLL clock source
 115:../lpc11cx4-library/lpc_chip_11cxx_lib/inc/clock_11xx.h ****  * @param	src	: Clock source for USB PLL
 116:../lpc11cx4-library/lpc_chip_11cxx_lib/inc/clock_11xx.h ****  * @return	Nothing
 117:../lpc11cx4-library/lpc_chip_11cxx_lib/inc/clock_11xx.h ****  * @note	This function will also toggle the clock source update register
 118:../lpc11cx4-library/lpc_chip_11cxx_lib/inc/clock_11xx.h ****  * to update the clock source.
 119:../lpc11cx4-library/lpc_chip_11cxx_lib/inc/clock_11xx.h ****  */
 120:../lpc11cx4-library/lpc_chip_11cxx_lib/inc/clock_11xx.h **** void Chip_Clock_SetUSBPLLSource(CHIP_SYSCTL_PLLCLKSRC_T src);
 121:../lpc11cx4-library/lpc_chip_11cxx_lib/inc/clock_11xx.h **** 
 122:../lpc11cx4-library/lpc_chip_11cxx_lib/inc/clock_11xx.h **** #endif /*defined(CHIP_LPC11UXX)*/
 123:../lpc11cx4-library/lpc_chip_11cxx_lib/inc/clock_11xx.h **** 
 124:../lpc11cx4-library/lpc_chip_11cxx_lib/inc/clock_11xx.h **** /**
ARM GAS  /tmp/ccXTVNcx.s 			page 28


 125:../lpc11cx4-library/lpc_chip_11cxx_lib/inc/clock_11xx.h ****  * @brief	Bypass System Oscillator and set oscillator frequency range
 126:../lpc11cx4-library/lpc_chip_11cxx_lib/inc/clock_11xx.h ****  * @param	bypass	: Flag to bypass oscillator
 127:../lpc11cx4-library/lpc_chip_11cxx_lib/inc/clock_11xx.h ****  * @param	highfr	: Flag to set oscillator range from 15-25 MHz
 128:../lpc11cx4-library/lpc_chip_11cxx_lib/inc/clock_11xx.h ****  * @return	Nothing
 129:../lpc11cx4-library/lpc_chip_11cxx_lib/inc/clock_11xx.h ****  * @note	Sets the PLL input to bypass the oscillator. This would be
 130:../lpc11cx4-library/lpc_chip_11cxx_lib/inc/clock_11xx.h ****  * used if an external clock that is not an oscillator is attached
 131:../lpc11cx4-library/lpc_chip_11cxx_lib/inc/clock_11xx.h ****  * to the XTALIN pin.
 132:../lpc11cx4-library/lpc_chip_11cxx_lib/inc/clock_11xx.h ****  */
 133:../lpc11cx4-library/lpc_chip_11cxx_lib/inc/clock_11xx.h **** void Chip_Clock_SetPLLBypass(bool bypass, bool highfr);
 134:../lpc11cx4-library/lpc_chip_11cxx_lib/inc/clock_11xx.h **** 
 135:../lpc11cx4-library/lpc_chip_11cxx_lib/inc/clock_11xx.h **** /**
 136:../lpc11cx4-library/lpc_chip_11cxx_lib/inc/clock_11xx.h ****  * Watchdog and low frequency oscillator frequencies plus or minus 40%
 137:../lpc11cx4-library/lpc_chip_11cxx_lib/inc/clock_11xx.h ****  */
 138:../lpc11cx4-library/lpc_chip_11cxx_lib/inc/clock_11xx.h **** typedef enum CHIP_WDTLFO_OSC {
 139:../lpc11cx4-library/lpc_chip_11cxx_lib/inc/clock_11xx.h **** 	WDTLFO_OSC_ILLEGAL,
 140:../lpc11cx4-library/lpc_chip_11cxx_lib/inc/clock_11xx.h **** 	WDTLFO_OSC_0_60,	/*!< 0.6 MHz watchdog/LFO rate */
 141:../lpc11cx4-library/lpc_chip_11cxx_lib/inc/clock_11xx.h **** 	WDTLFO_OSC_1_05,	/*!< 1.05 MHz watchdog/LFO rate */
 142:../lpc11cx4-library/lpc_chip_11cxx_lib/inc/clock_11xx.h **** 	WDTLFO_OSC_1_40,	/*!< 1.4 MHz watchdog/LFO rate */
 143:../lpc11cx4-library/lpc_chip_11cxx_lib/inc/clock_11xx.h **** 	WDTLFO_OSC_1_75,	/*!< 1.75 MHz watchdog/LFO rate */
 144:../lpc11cx4-library/lpc_chip_11cxx_lib/inc/clock_11xx.h **** 	WDTLFO_OSC_2_10,	/*!< 2.1 MHz watchdog/LFO rate */
 145:../lpc11cx4-library/lpc_chip_11cxx_lib/inc/clock_11xx.h **** 	WDTLFO_OSC_2_40,	/*!< 2.4 MHz watchdog/LFO rate */
 146:../lpc11cx4-library/lpc_chip_11cxx_lib/inc/clock_11xx.h **** 	WDTLFO_OSC_2_70,	/*!< 2.7 MHz watchdog/LFO rate */
 147:../lpc11cx4-library/lpc_chip_11cxx_lib/inc/clock_11xx.h **** 	WDTLFO_OSC_3_00,	/*!< 3.0 MHz watchdog/LFO rate */
 148:../lpc11cx4-library/lpc_chip_11cxx_lib/inc/clock_11xx.h **** 	WDTLFO_OSC_3_25,	/*!< 3.25 MHz watchdog/LFO rate */
 149:../lpc11cx4-library/lpc_chip_11cxx_lib/inc/clock_11xx.h **** 	WDTLFO_OSC_3_50,	/*!< 3.5 MHz watchdog/LFO rate */
 150:../lpc11cx4-library/lpc_chip_11cxx_lib/inc/clock_11xx.h **** 	WDTLFO_OSC_3_75,	/*!< 3.75 MHz watchdog/LFO rate */
 151:../lpc11cx4-library/lpc_chip_11cxx_lib/inc/clock_11xx.h **** 	WDTLFO_OSC_4_00,	/*!< 4.0 MHz watchdog/LFO rate */
 152:../lpc11cx4-library/lpc_chip_11cxx_lib/inc/clock_11xx.h **** 	WDTLFO_OSC_4_20,	/*!< 4.2 MHz watchdog/LFO rate */
 153:../lpc11cx4-library/lpc_chip_11cxx_lib/inc/clock_11xx.h **** 	WDTLFO_OSC_4_40,	/*!< 4.4 MHz watchdog/LFO rate */
 154:../lpc11cx4-library/lpc_chip_11cxx_lib/inc/clock_11xx.h **** 	WDTLFO_OSC_4_60		/*!< 4.6 MHz watchdog/LFO rate */
 155:../lpc11cx4-library/lpc_chip_11cxx_lib/inc/clock_11xx.h **** } CHIP_WDTLFO_OSC_T;
 156:../lpc11cx4-library/lpc_chip_11cxx_lib/inc/clock_11xx.h **** 
 157:../lpc11cx4-library/lpc_chip_11cxx_lib/inc/clock_11xx.h **** /**
 158:../lpc11cx4-library/lpc_chip_11cxx_lib/inc/clock_11xx.h ****  * @brief	Setup Watchdog oscillator rate and divider
 159:../lpc11cx4-library/lpc_chip_11cxx_lib/inc/clock_11xx.h ****  * @param	wdtclk	: Selected watchdog clock rate
 160:../lpc11cx4-library/lpc_chip_11cxx_lib/inc/clock_11xx.h ****  * @param	div		: Watchdog divider value, even value between 2 and 64
 161:../lpc11cx4-library/lpc_chip_11cxx_lib/inc/clock_11xx.h ****  * @return	Nothing
 162:../lpc11cx4-library/lpc_chip_11cxx_lib/inc/clock_11xx.h ****  * @note	Watchdog rate = selected rate divided by divider rate
 163:../lpc11cx4-library/lpc_chip_11cxx_lib/inc/clock_11xx.h ****  */
 164:../lpc11cx4-library/lpc_chip_11cxx_lib/inc/clock_11xx.h **** STATIC INLINE void Chip_Clock_SetWDTOSC(CHIP_WDTLFO_OSC_T wdtclk, uint8_t div)
 165:../lpc11cx4-library/lpc_chip_11cxx_lib/inc/clock_11xx.h **** {
 166:../lpc11cx4-library/lpc_chip_11cxx_lib/inc/clock_11xx.h **** 	LPC_SYSCTL->WDTOSCCTRL  = (((uint32_t) wdtclk) << 5) | ((div >> 1) - 1);
 167:../lpc11cx4-library/lpc_chip_11cxx_lib/inc/clock_11xx.h **** }
 168:../lpc11cx4-library/lpc_chip_11cxx_lib/inc/clock_11xx.h **** 
 169:../lpc11cx4-library/lpc_chip_11cxx_lib/inc/clock_11xx.h **** #if defined(CHIP_LPC11AXX)
 170:../lpc11cx4-library/lpc_chip_11cxx_lib/inc/clock_11xx.h **** /**
 171:../lpc11cx4-library/lpc_chip_11cxx_lib/inc/clock_11xx.h ****  * @brief	Setup low frequency oscillator rate and divider
 172:../lpc11cx4-library/lpc_chip_11cxx_lib/inc/clock_11xx.h ****  * @param	lfoclk	: Selected low frequency clock rate
 173:../lpc11cx4-library/lpc_chip_11cxx_lib/inc/clock_11xx.h ****  * @param	div		: Low frequency divider value, even value between 2 and 64
 174:../lpc11cx4-library/lpc_chip_11cxx_lib/inc/clock_11xx.h ****  * @return	Nothing
 175:../lpc11cx4-library/lpc_chip_11cxx_lib/inc/clock_11xx.h ****  * @note	Low frequency oscillator rate = selected rate divided by divider rate
 176:../lpc11cx4-library/lpc_chip_11cxx_lib/inc/clock_11xx.h ****  */
 177:../lpc11cx4-library/lpc_chip_11cxx_lib/inc/clock_11xx.h **** STATIC INLINE void Chip_Clock_SetLFOSC(CHIP_WDTLFO_OSC_T lfoclk, uint8_t div)
 178:../lpc11cx4-library/lpc_chip_11cxx_lib/inc/clock_11xx.h **** {
 179:../lpc11cx4-library/lpc_chip_11cxx_lib/inc/clock_11xx.h **** 	LPC_SYSCTL->LFOSCCTRL  = (((uint32_t) lfoclk) << 5) | ((div >> 1) - 1);
 180:../lpc11cx4-library/lpc_chip_11cxx_lib/inc/clock_11xx.h **** }
 181:../lpc11cx4-library/lpc_chip_11cxx_lib/inc/clock_11xx.h **** 
ARM GAS  /tmp/ccXTVNcx.s 			page 29


 182:../lpc11cx4-library/lpc_chip_11cxx_lib/inc/clock_11xx.h **** #endif /*CHIP_LPC11AXX*/
 183:../lpc11cx4-library/lpc_chip_11cxx_lib/inc/clock_11xx.h **** 
 184:../lpc11cx4-library/lpc_chip_11cxx_lib/inc/clock_11xx.h **** /**
 185:../lpc11cx4-library/lpc_chip_11cxx_lib/inc/clock_11xx.h ****  * Clock sources for main system clock
 186:../lpc11cx4-library/lpc_chip_11cxx_lib/inc/clock_11xx.h ****  */
 187:../lpc11cx4-library/lpc_chip_11cxx_lib/inc/clock_11xx.h **** typedef enum CHIP_SYSCTL_MAINCLKSRC {
 188:../lpc11cx4-library/lpc_chip_11cxx_lib/inc/clock_11xx.h **** 	SYSCTL_MAINCLKSRC_IRC = 0,		/*!< Internal oscillator */
 189:../lpc11cx4-library/lpc_chip_11cxx_lib/inc/clock_11xx.h **** 	SYSCTL_MAINCLKSRC_PLLIN,		/*!< System PLL input */
 190:../lpc11cx4-library/lpc_chip_11cxx_lib/inc/clock_11xx.h **** 	SYSCTL_MAINCLKSRC_LFOSC,		/*!< LF oscillator rate (11Axx only) */
 191:../lpc11cx4-library/lpc_chip_11cxx_lib/inc/clock_11xx.h **** 	SYSCTL_MAINCLKSRC_WDTOSC = SYSCTL_MAINCLKSRC_LFOSC,	/*!< Watchdog oscillator rate */
 192:../lpc11cx4-library/lpc_chip_11cxx_lib/inc/clock_11xx.h **** 	SYSCTL_MAINCLKSRC_PLLOUT,		/*!< System PLL output */
 193:../lpc11cx4-library/lpc_chip_11cxx_lib/inc/clock_11xx.h **** } CHIP_SYSCTL_MAINCLKSRC_T;
 194:../lpc11cx4-library/lpc_chip_11cxx_lib/inc/clock_11xx.h **** 
 195:../lpc11cx4-library/lpc_chip_11cxx_lib/inc/clock_11xx.h **** /**
 196:../lpc11cx4-library/lpc_chip_11cxx_lib/inc/clock_11xx.h ****  * @brief	Set main system clock source
 197:../lpc11cx4-library/lpc_chip_11cxx_lib/inc/clock_11xx.h ****  * @param	src	: Clock source for main system
 198:../lpc11cx4-library/lpc_chip_11cxx_lib/inc/clock_11xx.h ****  * @return	Nothing
 199:../lpc11cx4-library/lpc_chip_11cxx_lib/inc/clock_11xx.h ****  * @note	This function will also toggle the clock source update register
 200:../lpc11cx4-library/lpc_chip_11cxx_lib/inc/clock_11xx.h ****  * to update the clock source.
 201:../lpc11cx4-library/lpc_chip_11cxx_lib/inc/clock_11xx.h ****  */
 202:../lpc11cx4-library/lpc_chip_11cxx_lib/inc/clock_11xx.h **** void Chip_Clock_SetMainClockSource(CHIP_SYSCTL_MAINCLKSRC_T src);
 203:../lpc11cx4-library/lpc_chip_11cxx_lib/inc/clock_11xx.h **** 
 204:../lpc11cx4-library/lpc_chip_11cxx_lib/inc/clock_11xx.h **** /**
 205:../lpc11cx4-library/lpc_chip_11cxx_lib/inc/clock_11xx.h ****  * @brief   Returns the main clock source
 206:../lpc11cx4-library/lpc_chip_11cxx_lib/inc/clock_11xx.h ****  * @return	Which clock is used for the core clock source?
 207:../lpc11cx4-library/lpc_chip_11cxx_lib/inc/clock_11xx.h ****  */
 208:../lpc11cx4-library/lpc_chip_11cxx_lib/inc/clock_11xx.h **** STATIC INLINE CHIP_SYSCTL_MAINCLKSRC_T Chip_Clock_GetMainClockSource(void)
 209:../lpc11cx4-library/lpc_chip_11cxx_lib/inc/clock_11xx.h **** {
 210:../lpc11cx4-library/lpc_chip_11cxx_lib/inc/clock_11xx.h **** 	return (CHIP_SYSCTL_MAINCLKSRC_T) (LPC_SYSCTL->MAINCLKSEL);
 211:../lpc11cx4-library/lpc_chip_11cxx_lib/inc/clock_11xx.h **** }
 212:../lpc11cx4-library/lpc_chip_11cxx_lib/inc/clock_11xx.h **** 
 213:../lpc11cx4-library/lpc_chip_11cxx_lib/inc/clock_11xx.h **** /**
 214:../lpc11cx4-library/lpc_chip_11cxx_lib/inc/clock_11xx.h ****  * @brief	Set system clock divider
 215:../lpc11cx4-library/lpc_chip_11cxx_lib/inc/clock_11xx.h ****  * @param	div	: divider for system clock
 216:../lpc11cx4-library/lpc_chip_11cxx_lib/inc/clock_11xx.h ****  * @return	Nothing
 217:../lpc11cx4-library/lpc_chip_11cxx_lib/inc/clock_11xx.h ****  * @note	Use 0 to disable, or a divider value of 1 to 255. The system clock
 218:../lpc11cx4-library/lpc_chip_11cxx_lib/inc/clock_11xx.h ****  * rate is the main system clock divided by this value.
 219:../lpc11cx4-library/lpc_chip_11cxx_lib/inc/clock_11xx.h ****  */
 220:../lpc11cx4-library/lpc_chip_11cxx_lib/inc/clock_11xx.h **** STATIC INLINE void Chip_Clock_SetSysClockDiv(uint32_t div)
 221:../lpc11cx4-library/lpc_chip_11cxx_lib/inc/clock_11xx.h **** {
 222:../lpc11cx4-library/lpc_chip_11cxx_lib/inc/clock_11xx.h **** 	LPC_SYSCTL->SYSAHBCLKDIV  = div;
 223:../lpc11cx4-library/lpc_chip_11cxx_lib/inc/clock_11xx.h **** }
 224:../lpc11cx4-library/lpc_chip_11cxx_lib/inc/clock_11xx.h **** 
 225:../lpc11cx4-library/lpc_chip_11cxx_lib/inc/clock_11xx.h **** /**
 226:../lpc11cx4-library/lpc_chip_11cxx_lib/inc/clock_11xx.h ****  * System and peripheral clocks
 227:../lpc11cx4-library/lpc_chip_11cxx_lib/inc/clock_11xx.h ****  */
 228:../lpc11cx4-library/lpc_chip_11cxx_lib/inc/clock_11xx.h **** typedef enum CHIP_SYSCTL_CLOCK {
 229:../lpc11cx4-library/lpc_chip_11cxx_lib/inc/clock_11xx.h **** 	SYSCTL_CLOCK_SYS = 0,				/*!< 0: System clock */
 230:../lpc11cx4-library/lpc_chip_11cxx_lib/inc/clock_11xx.h **** 	SYSCTL_CLOCK_ROM,					/*!<1:  ROM clock */
 231:../lpc11cx4-library/lpc_chip_11cxx_lib/inc/clock_11xx.h **** 	SYSCTL_CLOCK_RAM,					/*!< 2: RAM clock */
 232:../lpc11cx4-library/lpc_chip_11cxx_lib/inc/clock_11xx.h **** 	SYSCTL_CLOCK_FLASHREG,				/*!< 3: FLASH register interface clock */
 233:../lpc11cx4-library/lpc_chip_11cxx_lib/inc/clock_11xx.h **** 	SYSCTL_CLOCK_FLASHARRAY,			/*!< 4: FLASH array access clock */
 234:../lpc11cx4-library/lpc_chip_11cxx_lib/inc/clock_11xx.h **** #if defined(CHIP_LPC110X)
 235:../lpc11cx4-library/lpc_chip_11cxx_lib/inc/clock_11xx.h **** 	SYSCTL_CLOCK_RESERVED5,				/*!< 5: Reserved */
 236:../lpc11cx4-library/lpc_chip_11cxx_lib/inc/clock_11xx.h **** #else
 237:../lpc11cx4-library/lpc_chip_11cxx_lib/inc/clock_11xx.h **** 	SYSCTL_CLOCK_I2C,					/*!< 5: I2C clock, not on LPC110x */
 238:../lpc11cx4-library/lpc_chip_11cxx_lib/inc/clock_11xx.h **** #endif
ARM GAS  /tmp/ccXTVNcx.s 			page 30


 239:../lpc11cx4-library/lpc_chip_11cxx_lib/inc/clock_11xx.h **** 	SYSCTL_CLOCK_GPIO,					/*!< 6: GPIO clock */
 240:../lpc11cx4-library/lpc_chip_11cxx_lib/inc/clock_11xx.h **** 	SYSCTL_CLOCK_CT16B0,				/*!< 7: 16-bit Counter/timer 0 clock */
 241:../lpc11cx4-library/lpc_chip_11cxx_lib/inc/clock_11xx.h **** 	SYSCTL_CLOCK_CT16B1,				/*!< 8: 16-bit Counter/timer 1 clock */
 242:../lpc11cx4-library/lpc_chip_11cxx_lib/inc/clock_11xx.h **** 	SYSCTL_CLOCK_CT32B0,				/*!< 9: 32-bit Counter/timer 0 clock */
 243:../lpc11cx4-library/lpc_chip_11cxx_lib/inc/clock_11xx.h **** 	SYSCTL_CLOCK_CT32B1,				/*!< 10: 32-bit Counter/timer 1 clock */
 244:../lpc11cx4-library/lpc_chip_11cxx_lib/inc/clock_11xx.h **** 	SYSCTL_CLOCK_SSP0,					/*!< 11: SSP0 clock */
 245:../lpc11cx4-library/lpc_chip_11cxx_lib/inc/clock_11xx.h **** 	SYSCTL_CLOCK_UART0,					/*!< 12: UART0 clock */
 246:../lpc11cx4-library/lpc_chip_11cxx_lib/inc/clock_11xx.h **** 	SYSCTL_CLOCK_ADC,					/*!< 13: ADC clock */
 247:../lpc11cx4-library/lpc_chip_11cxx_lib/inc/clock_11xx.h **** #if defined(CHIP_LPC11UXX)
 248:../lpc11cx4-library/lpc_chip_11cxx_lib/inc/clock_11xx.h **** 	SYSCTL_CLOCK_USB,					/*!< 14: USB clock, LPC11Uxx only */
 249:../lpc11cx4-library/lpc_chip_11cxx_lib/inc/clock_11xx.h **** #else
 250:../lpc11cx4-library/lpc_chip_11cxx_lib/inc/clock_11xx.h **** 	SYSCTL_CLOCK_RESERVED14,			/*!< 14: Reserved */
 251:../lpc11cx4-library/lpc_chip_11cxx_lib/inc/clock_11xx.h **** #endif
 252:../lpc11cx4-library/lpc_chip_11cxx_lib/inc/clock_11xx.h **** 	SYSCTL_CLOCK_WDT,					/*!< 15: Watchdog timer clock */
 253:../lpc11cx4-library/lpc_chip_11cxx_lib/inc/clock_11xx.h **** 	SYSCTL_CLOCK_IOCON,					/*!< 16: IOCON block clock */
 254:../lpc11cx4-library/lpc_chip_11cxx_lib/inc/clock_11xx.h **** #if defined(CHIP_LPC11CXX)
 255:../lpc11cx4-library/lpc_chip_11cxx_lib/inc/clock_11xx.h **** 	SYSCTL_CLOCK_CAN,					/*!< 17: CAN clock, LPC11Cxx only */
 256:../lpc11cx4-library/lpc_chip_11cxx_lib/inc/clock_11xx.h **** #else
 257:../lpc11cx4-library/lpc_chip_11cxx_lib/inc/clock_11xx.h **** 	SYSCTL_CLOCK_RESERVED17,			/*!< 17: Reserved */
 258:../lpc11cx4-library/lpc_chip_11cxx_lib/inc/clock_11xx.h **** #endif
 259:../lpc11cx4-library/lpc_chip_11cxx_lib/inc/clock_11xx.h **** #if !(defined(CHIP_LPC110X) || defined(CHIP_LPC11XXLV))  
 260:../lpc11cx4-library/lpc_chip_11cxx_lib/inc/clock_11xx.h **** 	SYSCTL_CLOCK_SSP1,					/*!< 18: SSP1 clock, LPC11A/C/E/Uxx//1125 only */
 261:../lpc11cx4-library/lpc_chip_11cxx_lib/inc/clock_11xx.h **** #if !defined(CHIP_LPC11CXX)
 262:../lpc11cx4-library/lpc_chip_11cxx_lib/inc/clock_11xx.h **** 	SYSCTL_CLOCK_PINT,					/*!< 19: GPIO Pin int register interface clock, LPC11A/E/Uxx only */
 263:../lpc11cx4-library/lpc_chip_11cxx_lib/inc/clock_11xx.h **** #if defined(CHIP_LPC11AXX)
 264:../lpc11cx4-library/lpc_chip_11cxx_lib/inc/clock_11xx.h **** 	SYSCTL_CLOCK_ACOMP,					/*!< 20: Analog comparator clock, LPC11Axx only */
 265:../lpc11cx4-library/lpc_chip_11cxx_lib/inc/clock_11xx.h **** 	SYSCTL_CLOCK_DAC,					/*!< 21: DAC clock, LPC11Axx only */
 266:../lpc11cx4-library/lpc_chip_11cxx_lib/inc/clock_11xx.h **** #else
 267:../lpc11cx4-library/lpc_chip_11cxx_lib/inc/clock_11xx.h **** 	SYSCTL_CLOCK_RESERVED20,			/*!< 20: Reserved */
 268:../lpc11cx4-library/lpc_chip_11cxx_lib/inc/clock_11xx.h **** 	SYSCTL_CLOCK_RESERVED21,			/*!< 21: Reserved */
 269:../lpc11cx4-library/lpc_chip_11cxx_lib/inc/clock_11xx.h **** #endif
 270:../lpc11cx4-library/lpc_chip_11cxx_lib/inc/clock_11xx.h **** 	SYSCTL_CLOCK_RESERVED22,			/*!< 22: Reserved */
 271:../lpc11cx4-library/lpc_chip_11cxx_lib/inc/clock_11xx.h **** 	SYSCTL_CLOCK_P0INT,					/*!< 23: GPIO GROUP1 interrupt register clock, LPC11Axx only */
 272:../lpc11cx4-library/lpc_chip_11cxx_lib/inc/clock_11xx.h **** 	SYSCTL_CLOCK_GROUP0INT = SYSCTL_CLOCK_P0INT,/*!< 23: GPIO GROUP0 interrupt register interface cloc
 273:../lpc11cx4-library/lpc_chip_11cxx_lib/inc/clock_11xx.h **** 	SYSCTL_CLOCK_P1INT,					/*!< 24: GPIO GROUP1 interrupt register clock, LPC11Axx only */
 274:../lpc11cx4-library/lpc_chip_11cxx_lib/inc/clock_11xx.h **** 	SYSCTL_CLOCK_GROUP1INT = SYSCTL_CLOCK_P1INT,/*!< 24: GPIO GROUP1 interrupt register interface cloc
 275:../lpc11cx4-library/lpc_chip_11cxx_lib/inc/clock_11xx.h **** 	SYSCTL_CLOCK_RESERVED25,			/*!< 25: Reserved */
 276:../lpc11cx4-library/lpc_chip_11cxx_lib/inc/clock_11xx.h **** #if defined(CHIP_LPC11EXX)  || defined(CHIP_LPC11UXX)
 277:../lpc11cx4-library/lpc_chip_11cxx_lib/inc/clock_11xx.h **** 	SYSCTL_CLOCK_RAM1,					/*!< 26: SRAM block (0x20000000) clock, LPC11E/Uxx only */
 278:../lpc11cx4-library/lpc_chip_11cxx_lib/inc/clock_11xx.h **** #else
 279:../lpc11cx4-library/lpc_chip_11cxx_lib/inc/clock_11xx.h **** 	SYSCTL_CLOCK_RESERVED26,			/*!< 26: Reserved */
 280:../lpc11cx4-library/lpc_chip_11cxx_lib/inc/clock_11xx.h **** #endif
 281:../lpc11cx4-library/lpc_chip_11cxx_lib/inc/clock_11xx.h **** #if defined(CHIP_LPC11UXX)
 282:../lpc11cx4-library/lpc_chip_11cxx_lib/inc/clock_11xx.h **** 	SYSCTL_CLOCK_USBRAM,				/*!< 27: USB SRAM block clock, LPC11Uxx only */
 283:../lpc11cx4-library/lpc_chip_11cxx_lib/inc/clock_11xx.h **** #else
 284:../lpc11cx4-library/lpc_chip_11cxx_lib/inc/clock_11xx.h **** 	SYSCTL_CLOCK_RESERVED27,			/*!< 27: Reserved */
 285:../lpc11cx4-library/lpc_chip_11cxx_lib/inc/clock_11xx.h **** #endif
 286:../lpc11cx4-library/lpc_chip_11cxx_lib/inc/clock_11xx.h **** #endif /* !defined(CHIP_LPC11CXX) */
 287:../lpc11cx4-library/lpc_chip_11cxx_lib/inc/clock_11xx.h **** #endif /* !(defined(CHIP_LPC110X) || defined(CHIP_LPC11XXLV)) */
 288:../lpc11cx4-library/lpc_chip_11cxx_lib/inc/clock_11xx.h **** } CHIP_SYSCTL_CLOCK_T;
 289:../lpc11cx4-library/lpc_chip_11cxx_lib/inc/clock_11xx.h **** 
 290:../lpc11cx4-library/lpc_chip_11cxx_lib/inc/clock_11xx.h **** /**
 291:../lpc11cx4-library/lpc_chip_11cxx_lib/inc/clock_11xx.h ****  * @brief	Enable a system or peripheral clock
 292:../lpc11cx4-library/lpc_chip_11cxx_lib/inc/clock_11xx.h ****  * @param	clk	: Clock to enable
 293:../lpc11cx4-library/lpc_chip_11cxx_lib/inc/clock_11xx.h ****  * @return	Nothing
 294:../lpc11cx4-library/lpc_chip_11cxx_lib/inc/clock_11xx.h ****  */
 295:../lpc11cx4-library/lpc_chip_11cxx_lib/inc/clock_11xx.h **** STATIC INLINE void Chip_Clock_EnablePeriphClock(CHIP_SYSCTL_CLOCK_T clk)
ARM GAS  /tmp/ccXTVNcx.s 			page 31


 296:../lpc11cx4-library/lpc_chip_11cxx_lib/inc/clock_11xx.h **** {
 297:../lpc11cx4-library/lpc_chip_11cxx_lib/inc/clock_11xx.h **** 	LPC_SYSCTL->SYSAHBCLKCTRL |= (1 << clk);
 932              		.loc 2 297 0
 933 000c 1E79     		ldrb	r6, [r3, #4]	@ D.6712,
 934 000e 0123     		mov	r3, #1	@ tmp129,
 935 0010 8024     		mov	r4, #128	@ tmp120,
 936 0012 B340     		lsl	r3, r3, r6	@ D.6712, tmp129, D.6712
 937 0014 044D     		ldr	r5, .L94+4	@ tmp119,
 938              	.LBE98:
 939              	.LBE97:
 940              	.LBE96:
 941              	.LBE95:
 366:../lpc11cx4-library/lpc_chip_11cxx_lib/src/i2c_11xx.c **** 	enableClk(id);
 367:../lpc11cx4-library/lpc_chip_11cxx_lib/src/i2c_11xx.c **** 
 368:../lpc11cx4-library/lpc_chip_11cxx_lib/src/i2c_11xx.c **** 	/* Set I2C operation to default */
 369:../lpc11cx4-library/lpc_chip_11cxx_lib/src/i2c_11xx.c **** 	LPC_I2Cx(id)->CONCLR = (I2C_CON_AA | I2C_CON_SI | I2C_CON_STA | I2C_CON_I2EN);
 370:../lpc11cx4-library/lpc_chip_11cxx_lib/src/i2c_11xx.c **** }
 942              		.loc 1 370 0
 943              		@ sp needed	@
 944              	.LBB105:
 945              	.LBB103:
 946              	.LBB101:
 947              	.LBB99:
 948              		.loc 2 297 0
 949 0016 2A59     		ldr	r2, [r5, r4]	@ D.6714, MEM[(struct LPC_SYSCTL_T *)1074036736B].SYSAHBCLKCTRL
 950 0018 1343     		orr	r3, r2	@ D.6714, D.6714
 951              	.LBE99:
 952              	.LBE101:
 953              	.LBE103:
 954              	.LBE105:
 369:../lpc11cx4-library/lpc_chip_11cxx_lib/src/i2c_11xx.c **** }
 955              		.loc 1 369 0
 956 001a 6C22     		mov	r2, #108	@ tmp137,
 957              	.LBB106:
 958              	.LBB104:
 959              	.LBB102:
 960              	.LBB100:
 961              		.loc 2 297 0
 962 001c 2B51     		str	r3, [r5, r4]	@ D.6714, MEM[(struct LPC_SYSCTL_T *)1074036736B].SYSAHBCLKCTRL
 963              	.LBE100:
 964              	.LBE102:
 965              	.LBE104:
 966              	.LBE106:
 369:../lpc11cx4-library/lpc_chip_11cxx_lib/src/i2c_11xx.c **** }
 967              		.loc 1 369 0
 968 001e 4358     		ldr	r3, [r0, r1]	@ D.6711, i2c[_6].ip
 969 0020 9A61     		str	r2, [r3, #24]	@ tmp137, _4->CONCLR
 970              		.loc 1 370 0
 971 0022 70BD     		pop	{r4, r5, r6, pc}
 972              	.L95:
 973              		.align	2
 974              	.L94:
 975 0024 00000000 		.word	.LANCHOR0
 976 0028 00800440 		.word	1074036736
 977              		.cfi_endproc
 978              	.LFE214:
 979              		.size	Chip_I2C_Init, .-Chip_I2C_Init
ARM GAS  /tmp/ccXTVNcx.s 			page 32


 980              		.section	.text.Chip_I2C_DeInit,"ax",%progbits
 981              		.align	2
 982              		.global	Chip_I2C_DeInit
 983              		.code	16
 984              		.thumb_func
 985              		.type	Chip_I2C_DeInit, %function
 986              	Chip_I2C_DeInit:
 987              	.LFB215:
 371:../lpc11cx4-library/lpc_chip_11cxx_lib/src/i2c_11xx.c **** 
 372:../lpc11cx4-library/lpc_chip_11cxx_lib/src/i2c_11xx.c **** /* De-initializes the I2C peripheral registers to their default reset values */
 373:../lpc11cx4-library/lpc_chip_11cxx_lib/src/i2c_11xx.c **** void Chip_I2C_DeInit(I2C_ID_T id)
 374:../lpc11cx4-library/lpc_chip_11cxx_lib/src/i2c_11xx.c **** {
 988              		.loc 1 374 0
 989              		.cfi_startproc
 990              	.LVL66:
 375:../lpc11cx4-library/lpc_chip_11cxx_lib/src/i2c_11xx.c **** 	/* Disable I2C control */
 376:../lpc11cx4-library/lpc_chip_11cxx_lib/src/i2c_11xx.c **** 	LPC_I2Cx(id)->CONCLR = I2C_CON_I2EN | I2C_CON_SI | I2C_CON_STO | I2C_CON_STA | I2C_CON_AA;
 991              		.loc 1 376 0
 992 0000 C300     		lsl	r3, r0, #3	@ tmp122, id,
 993 0002 7C21     		mov	r1, #124	@ tmp125,
 994 0004 074A     		ldr	r2, .L97	@ tmp120,
 995 0006 181A     		sub	r0, r3, r0	@ tmp123, tmp122, id
 996              	.LVL67:
 997 0008 8000     		lsl	r0, r0, #2	@ tmp124, tmp123,
 998 000a 8358     		ldr	r3, [r0, r2]	@ D.6719, i2c[_2].ip
 999              	.LBB107:
 1000              	.LBB108:
  84:../lpc11cx4-library/lpc_chip_11cxx_lib/src/i2c_11xx.c **** }
 1001              		.loc 1 84 0
 1002 000c 1018     		add	r0, r2, r0	@ tmp133, tmp120, tmp124
 1003              	.LBB109:
 1004              	.LBB110:
 298:../lpc11cx4-library/lpc_chip_11cxx_lib/inc/clock_11xx.h **** }
 299:../lpc11cx4-library/lpc_chip_11cxx_lib/inc/clock_11xx.h **** 
 300:../lpc11cx4-library/lpc_chip_11cxx_lib/inc/clock_11xx.h **** /**
 301:../lpc11cx4-library/lpc_chip_11cxx_lib/inc/clock_11xx.h ****  * @brief	Disable a system or peripheral clock
 302:../lpc11cx4-library/lpc_chip_11cxx_lib/inc/clock_11xx.h ****  * @param	clk	: Clock to disable
 303:../lpc11cx4-library/lpc_chip_11cxx_lib/inc/clock_11xx.h ****  * @return	Nothing
 304:../lpc11cx4-library/lpc_chip_11cxx_lib/inc/clock_11xx.h ****  */
 305:../lpc11cx4-library/lpc_chip_11cxx_lib/inc/clock_11xx.h **** STATIC INLINE void Chip_Clock_DisablePeriphClock(CHIP_SYSCTL_CLOCK_T clk)
 306:../lpc11cx4-library/lpc_chip_11cxx_lib/inc/clock_11xx.h **** {
 307:../lpc11cx4-library/lpc_chip_11cxx_lib/inc/clock_11xx.h **** 	LPC_SYSCTL->SYSAHBCLKCTRL &= ~(1 << clk);
 1005              		.loc 2 307 0
 1006 000e 0122     		mov	r2, #1	@ tmp136,
 1007              	.LBE110:
 1008              	.LBE109:
 1009              	.LBE108:
 1010              	.LBE107:
 374:../lpc11cx4-library/lpc_chip_11cxx_lib/src/i2c_11xx.c **** 	/* Disable I2C control */
 1011              		.loc 1 374 0
 1012 0010 10B5     		push	{r4, lr}	@
 1013              		.cfi_def_cfa_offset 8
 1014              		.cfi_offset 4, -8
 1015              		.cfi_offset 14, -4
 1016              		.loc 1 376 0
 1017 0012 9961     		str	r1, [r3, #24]	@ tmp125, _4->CONCLR
 1018              	.LVL68:
ARM GAS  /tmp/ccXTVNcx.s 			page 33


 1019              	.LBB117:
 1020              	.LBB115:
 1021              	.LBB113:
 1022              	.LBB111:
 1023              		.loc 2 307 0
 1024 0014 0079     		ldrb	r0, [r0, #4]	@ D.6718,
 1025 0016 044C     		ldr	r4, .L97+4	@ tmp126,
 1026 0018 8240     		lsl	r2, r2, r0	@ D.6718, tmp136, D.6718
 1027 001a 0431     		add	r1, r1, #4	@ tmp127,
 1028 001c 6358     		ldr	r3, [r4, r1]	@ D.6721, MEM[(struct LPC_SYSCTL_T *)1074036736B].SYSAHBCLKCTRL
 1029              	.LBE111:
 1030              	.LBE113:
 1031              	.LBE115:
 1032              	.LBE117:
 377:../lpc11cx4-library/lpc_chip_11cxx_lib/src/i2c_11xx.c **** 
 378:../lpc11cx4-library/lpc_chip_11cxx_lib/src/i2c_11xx.c **** 	disableClk(id);
 379:../lpc11cx4-library/lpc_chip_11cxx_lib/src/i2c_11xx.c **** }
 1033              		.loc 1 379 0
 1034              		@ sp needed	@
 1035              	.LBB118:
 1036              	.LBB116:
 1037              	.LBB114:
 1038              	.LBB112:
 1039              		.loc 2 307 0
 1040 001e 9343     		bic	r3, r2	@ D.6721, D.6718
 1041 0020 6350     		str	r3, [r4, r1]	@ D.6721, MEM[(struct LPC_SYSCTL_T *)1074036736B].SYSAHBCLKCTRL
 1042              	.LBE112:
 1043              	.LBE114:
 1044              	.LBE116:
 1045              	.LBE118:
 1046              		.loc 1 379 0
 1047 0022 10BD     		pop	{r4, pc}
 1048              	.L98:
 1049              		.align	2
 1050              	.L97:
 1051 0024 00000000 		.word	.LANCHOR0
 1052 0028 00800440 		.word	1074036736
 1053              		.cfi_endproc
 1054              	.LFE215:
 1055              		.size	Chip_I2C_DeInit, .-Chip_I2C_DeInit
 1056              		.global	__aeabi_uidiv
 1057              		.section	.text.Chip_I2C_SetClockRate,"ax",%progbits
 1058              		.align	2
 1059              		.global	Chip_I2C_SetClockRate
 1060              		.code	16
 1061              		.thumb_func
 1062              		.type	Chip_I2C_SetClockRate, %function
 1063              	Chip_I2C_SetClockRate:
 1064              	.LFB216:
 380:../lpc11cx4-library/lpc_chip_11cxx_lib/src/i2c_11xx.c **** 
 381:../lpc11cx4-library/lpc_chip_11cxx_lib/src/i2c_11xx.c **** /* Set up clock rate for LPC_I2C peripheral */
 382:../lpc11cx4-library/lpc_chip_11cxx_lib/src/i2c_11xx.c **** void Chip_I2C_SetClockRate(I2C_ID_T id, uint32_t clockrate)
 383:../lpc11cx4-library/lpc_chip_11cxx_lib/src/i2c_11xx.c **** {
 1065              		.loc 1 383 0
 1066              		.cfi_startproc
 1067              	.LVL69:
 1068 0000 38B5     		push	{r3, r4, r5, lr}	@
ARM GAS  /tmp/ccXTVNcx.s 			page 34


 1069              		.cfi_def_cfa_offset 16
 1070              		.cfi_offset 3, -16
 1071              		.cfi_offset 4, -12
 1072              		.cfi_offset 5, -8
 1073              		.cfi_offset 14, -4
 1074              		.loc 1 383 0
 1075 0002 0D1C     		mov	r5, r1	@ clockrate, clockrate
 1076 0004 041C     		mov	r4, r0	@ id, id
 1077              	.LBB119:
 1078              	.LBB120:
  90:../lpc11cx4-library/lpc_chip_11cxx_lib/src/i2c_11xx.c **** }
 1079              		.loc 1 90 0
 1080 0006 FFF7FEFF 		bl	Chip_Clock_GetMainClockRate	@
 1081              	.LVL70:
 1082              	.LBE120:
 1083              	.LBE119:
 384:../lpc11cx4-library/lpc_chip_11cxx_lib/src/i2c_11xx.c **** 	uint32_t SCLValue;
 385:../lpc11cx4-library/lpc_chip_11cxx_lib/src/i2c_11xx.c **** 
 386:../lpc11cx4-library/lpc_chip_11cxx_lib/src/i2c_11xx.c **** 	SCLValue = (getClkRate(id) / clockrate);
 1084              		.loc 1 386 0
 1085 000a 291C     		mov	r1, r5	@, clockrate
 1086 000c FFF7FEFF 		bl	__aeabi_uidiv	@
 1087              	.LVL71:
 387:../lpc11cx4-library/lpc_chip_11cxx_lib/src/i2c_11xx.c **** 	LPC_I2Cx(id)->SCLH = (uint32_t) (SCLValue >> 1);
 1088              		.loc 1 387 0
 1089 0010 E300     		lsl	r3, r4, #3	@ tmp124, id,
 1090 0012 054A     		ldr	r2, .L100	@ tmp122,
 1091 0014 1B1B     		sub	r3, r3, r4	@ tmp125, tmp124, id
 1092 0016 9B00     		lsl	r3, r3, #2	@ tmp126, tmp125,
 1093 0018 9B58     		ldr	r3, [r3, r2]	@ D.6726, i2c[_6].ip
 1094 001a 4208     		lsr	r2, r0, #1	@ D.6727, tmp121,
 1095 001c 1A61     		str	r2, [r3, #16]	@ D.6727, _7->SCLH
 388:../lpc11cx4-library/lpc_chip_11cxx_lib/src/i2c_11xx.c **** 	LPC_I2Cx(id)->SCLL = (uint32_t) (SCLValue - LPC_I2Cx(id)->SCLH);
 1096              		.loc 1 388 0
 1097 001e 1A69     		ldr	r2, [r3, #16]	@ D.6727, _7->SCLH
 389:../lpc11cx4-library/lpc_chip_11cxx_lib/src/i2c_11xx.c **** }
 1098              		.loc 1 389 0
 1099              		@ sp needed	@
 388:../lpc11cx4-library/lpc_chip_11cxx_lib/src/i2c_11xx.c **** 	LPC_I2Cx(id)->SCLL = (uint32_t) (SCLValue - LPC_I2Cx(id)->SCLH);
 1100              		.loc 1 388 0
 1101 0020 801A     		sub	r0, r0, r2	@ D.6727, tmp121, D.6727
 1102              	.LVL72:
 1103 0022 5861     		str	r0, [r3, #20]	@ D.6727, _7->SCLL
 1104              	.LVL73:
 1105              		.loc 1 389 0
 1106 0024 38BD     		pop	{r3, r4, r5, pc}
 1107              	.L101:
 1108 0026 C046     		.align	2
 1109              	.L100:
 1110 0028 00000000 		.word	.LANCHOR0
 1111              		.cfi_endproc
 1112              	.LFE216:
 1113              		.size	Chip_I2C_SetClockRate, .-Chip_I2C_SetClockRate
 1114              		.section	.text.Chip_I2C_GetClockRate,"ax",%progbits
 1115              		.align	2
 1116              		.global	Chip_I2C_GetClockRate
 1117              		.code	16
ARM GAS  /tmp/ccXTVNcx.s 			page 35


 1118              		.thumb_func
 1119              		.type	Chip_I2C_GetClockRate, %function
 1120              	Chip_I2C_GetClockRate:
 1121              	.LFB217:
 390:../lpc11cx4-library/lpc_chip_11cxx_lib/src/i2c_11xx.c **** 
 391:../lpc11cx4-library/lpc_chip_11cxx_lib/src/i2c_11xx.c **** /* Get current clock rate for LPC_I2C peripheral */
 392:../lpc11cx4-library/lpc_chip_11cxx_lib/src/i2c_11xx.c **** uint32_t Chip_I2C_GetClockRate(I2C_ID_T id)
 393:../lpc11cx4-library/lpc_chip_11cxx_lib/src/i2c_11xx.c **** {
 1122              		.loc 1 393 0
 1123              		.cfi_startproc
 1124              	.LVL74:
 1125 0000 10B5     		push	{r4, lr}	@
 1126              		.cfi_def_cfa_offset 8
 1127              		.cfi_offset 4, -8
 1128              		.cfi_offset 14, -4
 1129              		.loc 1 393 0
 1130 0002 041C     		mov	r4, r0	@ id, id
 1131              	.LBB121:
 1132              	.LBB122:
  90:../lpc11cx4-library/lpc_chip_11cxx_lib/src/i2c_11xx.c **** }
 1133              		.loc 1 90 0
 1134 0004 FFF7FEFF 		bl	Chip_Clock_GetMainClockRate	@
 1135              	.LVL75:
 1136              	.LBE122:
 1137              	.LBE121:
 394:../lpc11cx4-library/lpc_chip_11cxx_lib/src/i2c_11xx.c **** 	return getClkRate(id) / (LPC_I2Cx(id)->SCLH + LPC_I2Cx(id)->SCLL);
 1138              		.loc 1 394 0
 1139 0008 E300     		lsl	r3, r4, #3	@ tmp121, id,
 1140 000a 1B1B     		sub	r3, r3, r4	@ tmp122, tmp121, id
 1141 000c 044A     		ldr	r2, .L103	@ tmp119,
 1142 000e 9B00     		lsl	r3, r3, #2	@ tmp123, tmp122,
 1143 0010 9A58     		ldr	r2, [r3, r2]	@ D.6733, i2c[_4].ip
 395:../lpc11cx4-library/lpc_chip_11cxx_lib/src/i2c_11xx.c **** }
 1144              		.loc 1 395 0
 1145              		@ sp needed	@
 394:../lpc11cx4-library/lpc_chip_11cxx_lib/src/i2c_11xx.c **** 	return getClkRate(id) / (LPC_I2Cx(id)->SCLH + LPC_I2Cx(id)->SCLL);
 1146              		.loc 1 394 0
 1147 0012 1369     		ldr	r3, [r2, #16]	@ D.6734, _5->SCLH
 1148 0014 5169     		ldr	r1, [r2, #20]	@ D.6734, _5->SCLL
 1149 0016 C918     		add	r1, r1, r3	@ D.6734, D.6734, D.6734
 1150 0018 FFF7FEFF 		bl	__aeabi_uidiv	@
 1151              	.LVL76:
 1152              		.loc 1 395 0
 1153 001c 10BD     		pop	{r4, pc}
 1154              	.L104:
 1155 001e C046     		.align	2
 1156              	.L103:
 1157 0020 00000000 		.word	.LANCHOR0
 1158              		.cfi_endproc
 1159              	.LFE217:
 1160              		.size	Chip_I2C_GetClockRate, .-Chip_I2C_GetClockRate
 1161              		.section	.text.Chip_I2C_SetMasterEventHandler,"ax",%progbits
 1162              		.align	2
 1163              		.global	Chip_I2C_SetMasterEventHandler
 1164              		.code	16
 1165              		.thumb_func
 1166              		.type	Chip_I2C_SetMasterEventHandler, %function
ARM GAS  /tmp/ccXTVNcx.s 			page 36


 1167              	Chip_I2C_SetMasterEventHandler:
 1168              	.LFB218:
 396:../lpc11cx4-library/lpc_chip_11cxx_lib/src/i2c_11xx.c **** 
 397:../lpc11cx4-library/lpc_chip_11cxx_lib/src/i2c_11xx.c **** /* Set the master event handler */
 398:../lpc11cx4-library/lpc_chip_11cxx_lib/src/i2c_11xx.c **** int Chip_I2C_SetMasterEventHandler(I2C_ID_T id, I2C_EVENTHANDLER_T event)
 399:../lpc11cx4-library/lpc_chip_11cxx_lib/src/i2c_11xx.c **** {
 1169              		.loc 1 399 0
 1170              		.cfi_startproc
 1171              	.LVL77:
 400:../lpc11cx4-library/lpc_chip_11cxx_lib/src/i2c_11xx.c **** 	struct i2c_interface *iic = &i2c[id];
 401:../lpc11cx4-library/lpc_chip_11cxx_lib/src/i2c_11xx.c **** 	if (!iic->mXfer) {
 1172              		.loc 1 401 0
 1173 0000 C300     		lsl	r3, r0, #3	@ tmp120, id,
 1174 0002 1B1A     		sub	r3, r3, r0	@ tmp146, tmp120, id
 1175 0004 9800     		lsl	r0, r3, #2	@ tmp122, tmp146,
 1176              	.LVL78:
 1177 0006 074B     		ldr	r3, .L108	@ tmp118,
 1178 0008 1B18     		add	r3, r3, r0	@ tmp123, tmp118, tmp122
 1179 000a 1A69     		ldr	r2, [r3, #16]	@ tmp147, MEM[(struct i2c_interface *)&i2c][_3].mXfer
 1180 000c 002A     		cmp	r2, #0	@ tmp147,
 1181 000e 05D0     		beq	.L106	@,
 1182 0010 9868     		ldr	r0, [r3, #8]	@ MEM[(struct i2c_interface *)&i2c][_3].mEvent, MEM[(struct i2c_interface *)&i2c]
 1183 0012 081A     		sub	r0, r1, r0	@ tmp136, event, MEM[(struct i2c_interface *)&i2c][_3].mEvent
 1184 0014 4342     		neg	r3, r0	@ D.6739, tmp136
 1185 0016 4341     		adc	r3, r3, r0	@ D.6739, tmp136
 1186              	.LVL79:
 1187              	.L107:
 402:../lpc11cx4-library/lpc_chip_11cxx_lib/src/i2c_11xx.c **** 		iic->mEvent = event;
 403:../lpc11cx4-library/lpc_chip_11cxx_lib/src/i2c_11xx.c **** 	}
 404:../lpc11cx4-library/lpc_chip_11cxx_lib/src/i2c_11xx.c **** 	return iic->mEvent == event;
 405:../lpc11cx4-library/lpc_chip_11cxx_lib/src/i2c_11xx.c **** }
 1188              		.loc 1 405 0
 1189 0018 181C     		mov	r0, r3	@, D.6739
 1190              		@ sp needed	@
 1191 001a 7047     		bx	lr
 1192              	.LVL80:
 1193              	.L106:
 402:../lpc11cx4-library/lpc_chip_11cxx_lib/src/i2c_11xx.c **** 		iic->mEvent = event;
 1194              		.loc 1 402 0
 1195 001c 9960     		str	r1, [r3, #8]	@ event, MEM[(struct i2c_interface *)&i2c][_3].mEvent
 1196 001e 0123     		mov	r3, #1	@ D.6739,
 1197 0020 FAE7     		b	.L107	@
 1198              	.L109:
 1199 0022 C046     		.align	2
 1200              	.L108:
 1201 0024 00000000 		.word	.LANCHOR0
 1202              		.cfi_endproc
 1203              	.LFE218:
 1204              		.size	Chip_I2C_SetMasterEventHandler, .-Chip_I2C_SetMasterEventHandler
 1205              		.section	.text.Chip_I2C_GetMasterEventHandler,"ax",%progbits
 1206              		.align	2
 1207              		.global	Chip_I2C_GetMasterEventHandler
 1208              		.code	16
 1209              		.thumb_func
 1210              		.type	Chip_I2C_GetMasterEventHandler, %function
 1211              	Chip_I2C_GetMasterEventHandler:
 1212              	.LFB219:
ARM GAS  /tmp/ccXTVNcx.s 			page 37


 406:../lpc11cx4-library/lpc_chip_11cxx_lib/src/i2c_11xx.c **** 
 407:../lpc11cx4-library/lpc_chip_11cxx_lib/src/i2c_11xx.c **** /* Get the master event handler */
 408:../lpc11cx4-library/lpc_chip_11cxx_lib/src/i2c_11xx.c **** I2C_EVENTHANDLER_T Chip_I2C_GetMasterEventHandler(I2C_ID_T id)
 409:../lpc11cx4-library/lpc_chip_11cxx_lib/src/i2c_11xx.c **** {
 1213              		.loc 1 409 0
 1214              		.cfi_startproc
 1215              	.LVL81:
 410:../lpc11cx4-library/lpc_chip_11cxx_lib/src/i2c_11xx.c **** 	return i2c[id].mEvent;
 1216              		.loc 1 410 0
 1217 0000 C300     		lsl	r3, r0, #3	@ tmp117, id,
 1218 0002 181A     		sub	r0, r3, r0	@ tmp118, tmp117, id
 1219              	.LVL82:
 1220 0004 024B     		ldr	r3, .L111	@ tmp115,
 1221 0006 8000     		lsl	r0, r0, #2	@ tmp119, tmp118,
 1222 0008 1818     		add	r0, r3, r0	@ tmp120, tmp115, tmp119
 1223 000a 8068     		ldr	r0, [r0, #8]	@ i2c[_2].mEvent, i2c[_2].mEvent
 411:../lpc11cx4-library/lpc_chip_11cxx_lib/src/i2c_11xx.c **** }
 1224              		.loc 1 411 0
 1225              		@ sp needed	@
 1226 000c 7047     		bx	lr
 1227              	.L112:
 1228 000e C046     		.align	2
 1229              	.L111:
 1230 0010 00000000 		.word	.LANCHOR0
 1231              		.cfi_endproc
 1232              	.LFE219:
 1233              		.size	Chip_I2C_GetMasterEventHandler, .-Chip_I2C_GetMasterEventHandler
 1234              		.section	.text.Chip_I2C_MasterTransfer,"ax",%progbits
 1235              		.align	2
 1236              		.global	Chip_I2C_MasterTransfer
 1237              		.code	16
 1238              		.thumb_func
 1239              		.type	Chip_I2C_MasterTransfer, %function
 1240              	Chip_I2C_MasterTransfer:
 1241              	.LFB220:
 412:../lpc11cx4-library/lpc_chip_11cxx_lib/src/i2c_11xx.c **** 
 413:../lpc11cx4-library/lpc_chip_11cxx_lib/src/i2c_11xx.c **** /* Transmit and Receive data in master mode */
 414:../lpc11cx4-library/lpc_chip_11cxx_lib/src/i2c_11xx.c **** int Chip_I2C_MasterTransfer(I2C_ID_T id, I2C_XFER_T *xfer)
 415:../lpc11cx4-library/lpc_chip_11cxx_lib/src/i2c_11xx.c **** {
 1242              		.loc 1 415 0
 1243              		.cfi_startproc
 1244              	.LVL83:
 1245 0000 F8B5     		push	{r3, r4, r5, r6, r7, lr}	@
 1246              		.cfi_def_cfa_offset 24
 1247              		.cfi_offset 3, -24
 1248              		.cfi_offset 4, -20
 1249              		.cfi_offset 5, -16
 1250              		.cfi_offset 6, -12
 1251              		.cfi_offset 7, -8
 1252              		.cfi_offset 14, -4
 1253 0002 4F46     		mov	r7, r9	@,
 1254 0004 4646     		mov	r6, r8	@,
 416:../lpc11cx4-library/lpc_chip_11cxx_lib/src/i2c_11xx.c **** 	struct i2c_interface *iic = &i2c[id];
 417:../lpc11cx4-library/lpc_chip_11cxx_lib/src/i2c_11xx.c **** 
 418:../lpc11cx4-library/lpc_chip_11cxx_lib/src/i2c_11xx.c **** 	iic->mEvent(id, I2C_EVENT_LOCK);
 1255              		.loc 1 418 0
 1256 0006 C400     		lsl	r4, r0, #3	@ tmp204, id,
ARM GAS  /tmp/ccXTVNcx.s 			page 38


 415:../lpc11cx4-library/lpc_chip_11cxx_lib/src/i2c_11xx.c **** 	struct i2c_interface *iic = &i2c[id];
 1257              		.loc 1 415 0
 1258 0008 C0B4     		push	{r6, r7}	@
 1259              		.cfi_def_cfa_offset 32
 1260              		.cfi_offset 8, -32
 1261              		.cfi_offset 9, -28
 1262              		.loc 1 418 0
 1263 000a 231A     		sub	r3, r4, r0	@ tmp203, tmp204, id
 1264 000c 214F     		ldr	r7, .L122	@ tmp202,
 1265 000e 9B00     		lsl	r3, r3, #2	@ tmp130, tmp203,
 1266 0010 9846     		mov	r8, r3	@ tmp130, tmp130
 1267 0012 B946     		mov	r9, r7	@ tmp131, tmp202
 1268 0014 C144     		add	r9, r9, r8	@ tmp131, tmp130
 1269 0016 4B46     		mov	r3, r9	@ tmp131, tmp131
 415:../lpc11cx4-library/lpc_chip_11cxx_lib/src/i2c_11xx.c **** 	struct i2c_interface *iic = &i2c[id];
 1270              		.loc 1 415 0
 1271 0018 0E1C     		mov	r6, r1	@ xfer, xfer
 1272              		.loc 1 418 0
 1273 001a 9B68     		ldr	r3, [r3, #8]	@ tmp210, MEM[(struct i2c_interface *)&i2c][_5].mEvent
 1274 001c 0321     		mov	r1, #3	@,
 1275              	.LVL84:
 415:../lpc11cx4-library/lpc_chip_11cxx_lib/src/i2c_11xx.c **** 	struct i2c_interface *iic = &i2c[id];
 1276              		.loc 1 415 0
 1277 001e 051C     		mov	r5, r0	@ id, id
 1278              		.loc 1 418 0
 1279 0020 9847     		blx	r3	@ tmp210
 1280              	.LVL85:
 419:../lpc11cx4-library/lpc_chip_11cxx_lib/src/i2c_11xx.c **** 	xfer->status = I2C_STATUS_BUSY;
 1281              		.loc 1 419 0
 1282 0022 0423     		mov	r3, #4	@ tmp134,
 1283 0024 3375     		strb	r3, [r6, #20]	@ tmp134, xfer_9(D)->status
 420:../lpc11cx4-library/lpc_chip_11cxx_lib/src/i2c_11xx.c **** 	iic->mXfer = xfer;
 1284              		.loc 1 420 0
 1285 0026 4B46     		mov	r3, r9	@ tmp131, tmp131
 1286 0028 1E61     		str	r6, [r3, #16]	@ xfer, MEM[(struct i2c_interface *)&i2c][_5].mXfer
 421:../lpc11cx4-library/lpc_chip_11cxx_lib/src/i2c_11xx.c **** 
 422:../lpc11cx4-library/lpc_chip_11cxx_lib/src/i2c_11xx.c **** 	/* If slave xfer not in progress */
 423:../lpc11cx4-library/lpc_chip_11cxx_lib/src/i2c_11xx.c **** 	if (!iic->sXfer) {
 1287              		.loc 1 423 0
 1288 002a 5B69     		ldr	r3, [r3, #20]	@ MEM[(struct i2c_interface *)&i2c][_5].sXfer, MEM[(struct i2c_interface *)&i2c]
 1289 002c 002B     		cmp	r3, #0	@ MEM[(struct i2c_interface *)&i2c][_5].sXfer,
 1290 002e 2AD0     		beq	.L121	@,
 1291              	.L114:
 424:../lpc11cx4-library/lpc_chip_11cxx_lib/src/i2c_11xx.c **** 		startMasterXfer(iic->ip);
 425:../lpc11cx4-library/lpc_chip_11cxx_lib/src/i2c_11xx.c **** 	}
 426:../lpc11cx4-library/lpc_chip_11cxx_lib/src/i2c_11xx.c **** 	iic->mEvent(id, I2C_EVENT_WAIT);
 1292              		.loc 1 426 0
 1293 0030 631B     		sub	r3, r4, r5	@ tmp161, tmp204, id
 1294 0032 9B00     		lsl	r3, r3, #2	@ tmp162, tmp161,
 1295 0034 9846     		mov	r8, r3	@ tmp162, tmp162
 1296 0036 B946     		mov	r9, r7	@ tmp163, tmp202
 1297 0038 C144     		add	r9, r9, r8	@ tmp163, tmp162
 1298 003a 4B46     		mov	r3, r9	@ tmp163, tmp163
 1299 003c 0121     		mov	r1, #1	@,
 1300 003e 9B68     		ldr	r3, [r3, #8]	@ tmp218, MEM[(struct i2c_interface *)&i2c][_5].mEvent
 1301 0040 281C     		mov	r0, r5	@, id
 1302 0042 9847     		blx	r3	@ tmp218
ARM GAS  /tmp/ccXTVNcx.s 			page 39


 1303              	.LVL86:
 427:../lpc11cx4-library/lpc_chip_11cxx_lib/src/i2c_11xx.c **** 	iic->mXfer = 0;
 1304              		.loc 1 427 0
 1305 0044 0023     		mov	r3, #0	@ tmp173,
 1306 0046 4A46     		mov	r2, r9	@ tmp163, tmp163
 1307 0048 1361     		str	r3, [r2, #16]	@ tmp173, MEM[(struct i2c_interface *)&i2c][_5].mXfer
 1308 004a 4346     		mov	r3, r8	@ tmp162, tmp162
 1309              	.LBB123:
 1310              	.LBB124:
 116:../lpc11cx4-library/lpc_chip_11cxx_lib/src/i2c_11xx.c **** }
 1311              		.loc 1 116 0
 1312 004c 1021     		mov	r1, #16	@ tmp205,
 1313 004e FA58     		ldr	r2, [r7, r3]	@ D.6754, MEM[(struct i2c_interface *)&i2c][_5].ip
 1314              	.L115:
 1315              	.LVL87:
 116:../lpc11cx4-library/lpc_chip_11cxx_lib/src/i2c_11xx.c **** }
 1316              		.loc 1 116 0 is_stmt 0 discriminator 1
 1317 0050 1368     		ldr	r3, [r2]	@ D.6755, _22->CONSET
 1318              	.LBE124:
 1319              	.LBE123:
 428:../lpc11cx4-library/lpc_chip_11cxx_lib/src/i2c_11xx.c **** 
 429:../lpc11cx4-library/lpc_chip_11cxx_lib/src/i2c_11xx.c **** 	/* Wait for stop condition to appear on bus */
 430:../lpc11cx4-library/lpc_chip_11cxx_lib/src/i2c_11xx.c **** 	while (!isI2CBusFree(iic->ip)) {}
 1320              		.loc 1 430 0 is_stmt 1 discriminator 1
 1321 0052 1942     		tst	r1, r3	@ tmp205, D.6755
 1322 0054 FCD1     		bne	.L115	@,
 431:../lpc11cx4-library/lpc_chip_11cxx_lib/src/i2c_11xx.c **** 
 432:../lpc11cx4-library/lpc_chip_11cxx_lib/src/i2c_11xx.c **** 	/* Start slave if one is active */
 433:../lpc11cx4-library/lpc_chip_11cxx_lib/src/i2c_11xx.c **** 	if (SLAVE_ACTIVE(iic)) {
 1323              		.loc 1 433 0
 1324 0056 631B     		sub	r3, r4, r5	@ tmp184, tmp204, id
 1325 0058 9B00     		lsl	r3, r3, #2	@ tmp185, tmp184,
 1326 005a FB18     		add	r3, r7, r3	@ tmp186, tmp202, tmp185
 1327 005c 9969     		ldr	r1, [r3, #24]	@ MEM[(struct i2c_interface *)&i2c][_5].flags, MEM[(struct i2c_interface *)&i2c]
 1328 005e FF23     		mov	r3, #255	@ tmp190,
 1329 0060 1B02     		lsl	r3, r3, #8	@ tmp190, tmp190,
 1330 0062 1942     		tst	r1, r3	@ MEM[(struct i2c_interface *)&i2c][_5].flags, tmp190
 1331 0064 03D0     		beq	.L116	@,
 1332              	.LVL88:
 1333              	.LBB125:
 1334              	.LBB126:
 107:../lpc11cx4-library/lpc_chip_11cxx_lib/src/i2c_11xx.c **** 
 1335              		.loc 1 107 0
 1336 0066 3823     		mov	r3, #56	@ tmp191,
 1337 0068 9361     		str	r3, [r2, #24]	@ tmp191, _22->CONCLR
 110:../lpc11cx4-library/lpc_chip_11cxx_lib/src/i2c_11xx.c **** }
 1338              		.loc 1 110 0
 1339 006a 0C33     		add	r3, r3, #12	@ tmp192,
 1340 006c 1360     		str	r3, [r2]	@ tmp192, _22->CONSET
 1341              	.LVL89:
 1342              	.L116:
 1343              	.LBE126:
 1344              	.LBE125:
 434:../lpc11cx4-library/lpc_chip_11cxx_lib/src/i2c_11xx.c **** 		startSlaverXfer(iic->ip);
 435:../lpc11cx4-library/lpc_chip_11cxx_lib/src/i2c_11xx.c **** 	}
 436:../lpc11cx4-library/lpc_chip_11cxx_lib/src/i2c_11xx.c **** 
 437:../lpc11cx4-library/lpc_chip_11cxx_lib/src/i2c_11xx.c **** 	iic->mEvent(id, I2C_EVENT_UNLOCK);
ARM GAS  /tmp/ccXTVNcx.s 			page 40


 1345              		.loc 1 437 0
 1346 006e 641B     		sub	r4, r4, r5	@ tmp196, tmp204, id
 1347 0070 A400     		lsl	r4, r4, #2	@ tmp197, tmp196,
 1348 0072 3C19     		add	r4, r7, r4	@ tmp198, tmp202, tmp197
 1349 0074 281C     		mov	r0, r5	@, id
 1350 0076 A368     		ldr	r3, [r4, #8]	@ MEM[(struct i2c_interface *)&i2c][_5].mEvent, MEM[(struct i2c_interface *)&i2c]
 1351 0078 0421     		mov	r1, #4	@,
 1352 007a 9847     		blx	r3	@ MEM[(struct i2c_interface *)&i2c][_5].mEvent
 1353              	.LVL90:
 438:../lpc11cx4-library/lpc_chip_11cxx_lib/src/i2c_11xx.c **** 	return (int) xfer->status;
 439:../lpc11cx4-library/lpc_chip_11cxx_lib/src/i2c_11xx.c **** }
 1354              		.loc 1 439 0
 1355              		@ sp needed	@
 438:../lpc11cx4-library/lpc_chip_11cxx_lib/src/i2c_11xx.c **** 	return (int) xfer->status;
 1356              		.loc 1 438 0
 1357 007c 307D     		ldrb	r0, [r6, #20]	@ D.6751,
 1358              	.LVL91:
 1359              	.LVL92:
 1360              		.loc 1 439 0
 1361 007e 0CBC     		pop	{r2, r3}
 1362 0080 9046     		mov	r8, r2
 1363 0082 9946     		mov	r9, r3
 1364 0084 F8BD     		pop	{r3, r4, r5, r6, r7, pc}
 1365              	.LVL93:
 1366              	.L121:
 424:../lpc11cx4-library/lpc_chip_11cxx_lib/src/i2c_11xx.c **** 	}
 1367              		.loc 1 424 0
 1368 0086 4346     		mov	r3, r8	@ tmp130, tmp130
 1369              	.LBB127:
 1370              	.LBB128:
  97:../lpc11cx4-library/lpc_chip_11cxx_lib/src/i2c_11xx.c **** 
 1371              		.loc 1 97 0
 1372 0088 3C22     		mov	r2, #60	@ tmp156,
 1373              	.LBE128:
 1374              	.LBE127:
 424:../lpc11cx4-library/lpc_chip_11cxx_lib/src/i2c_11xx.c **** 	}
 1375              		.loc 1 424 0
 1376 008a DB59     		ldr	r3, [r3, r7]	@ D.6754, MEM[(struct i2c_interface *)&i2c][_5].ip
 1377              	.LVL94:
 1378              	.LBB130:
 1379              	.LBB129:
  97:../lpc11cx4-library/lpc_chip_11cxx_lib/src/i2c_11xx.c **** 
 1380              		.loc 1 97 0
 1381 008c 9A61     		str	r2, [r3, #24]	@ tmp156, _13->CONCLR
 100:../lpc11cx4-library/lpc_chip_11cxx_lib/src/i2c_11xx.c **** }
 1382              		.loc 1 100 0
 1383 008e 2432     		add	r2, r2, #36	@ tmp157,
 1384 0090 1A60     		str	r2, [r3]	@ tmp157, _13->CONSET
 1385 0092 CDE7     		b	.L114	@
 1386              	.L123:
 1387              		.align	2
 1388              	.L122:
 1389 0094 00000000 		.word	.LANCHOR0
 1390              	.LBE129:
 1391              	.LBE130:
 1392              		.cfi_endproc
 1393              	.LFE220:
ARM GAS  /tmp/ccXTVNcx.s 			page 41


 1394              		.size	Chip_I2C_MasterTransfer, .-Chip_I2C_MasterTransfer
 1395              		.section	.text.Chip_I2C_MasterSend,"ax",%progbits
 1396              		.align	2
 1397              		.global	Chip_I2C_MasterSend
 1398              		.code	16
 1399              		.thumb_func
 1400              		.type	Chip_I2C_MasterSend, %function
 1401              	Chip_I2C_MasterSend:
 1402              	.LFB221:
 440:../lpc11cx4-library/lpc_chip_11cxx_lib/src/i2c_11xx.c **** 
 441:../lpc11cx4-library/lpc_chip_11cxx_lib/src/i2c_11xx.c **** /* Master tx only */
 442:../lpc11cx4-library/lpc_chip_11cxx_lib/src/i2c_11xx.c **** int Chip_I2C_MasterSend(I2C_ID_T id, uint8_t slaveAddr, const uint8_t *buff, uint8_t len)
 443:../lpc11cx4-library/lpc_chip_11cxx_lib/src/i2c_11xx.c **** {
 1403              		.loc 1 443 0
 1404              		.cfi_startproc
 1405              	.LVL95:
 1406 0000 30B5     		push	{r4, r5, lr}	@
 1407              		.cfi_def_cfa_offset 12
 1408              		.cfi_offset 4, -12
 1409              		.cfi_offset 5, -8
 1410              		.cfi_offset 14, -4
 1411 0002 1D1C     		mov	r5, r3	@ len, len
 444:../lpc11cx4-library/lpc_chip_11cxx_lib/src/i2c_11xx.c **** 	I2C_XFER_T xfer = {0};
 1412              		.loc 1 444 0
 1413 0004 0023     		mov	r3, #0	@ tmp120,
 1414              	.LVL96:
 443:../lpc11cx4-library/lpc_chip_11cxx_lib/src/i2c_11xx.c **** 	I2C_XFER_T xfer = {0};
 1415              		.loc 1 443 0
 1416 0006 87B0     		sub	sp, sp, #28	@,,
 1417              		.cfi_def_cfa_offset 40
 1418              		.loc 1 444 0
 1419 0008 0093     		str	r3, [sp]	@ tmp120, xfer
 1420 000a 0393     		str	r3, [sp, #12]	@ tmp120, xfer
 1421 000c 0493     		str	r3, [sp, #16]	@ tmp120, xfer
 1422 000e 0593     		str	r3, [sp, #20]	@ tmp120, xfer
 445:../lpc11cx4-library/lpc_chip_11cxx_lib/src/i2c_11xx.c **** 	xfer.slaveAddr = slaveAddr;
 1423              		.loc 1 445 0
 1424 0010 6B46     		mov	r3, sp	@ tmp135,
 443:../lpc11cx4-library/lpc_chip_11cxx_lib/src/i2c_11xx.c **** 	I2C_XFER_T xfer = {0};
 1425              		.loc 1 443 0
 1426 0012 041C     		mov	r4, r0	@ id, id
 1427              		.loc 1 445 0
 1428 0014 1970     		strb	r1, [r3]	@ slaveAddr, xfer.slaveAddr
 446:../lpc11cx4-library/lpc_chip_11cxx_lib/src/i2c_11xx.c **** 	xfer.txBuff = buff;
 1429              		.loc 1 446 0
 1430 0016 0192     		str	r2, [sp, #4]	@ buff, xfer.txBuff
 447:../lpc11cx4-library/lpc_chip_11cxx_lib/src/i2c_11xx.c **** 	xfer.txSz = len;
 1431              		.loc 1 447 0
 1432 0018 0295     		str	r5, [sp, #8]	@ len, xfer.txSz
 1433              	.LVL97:
 1434              	.L125:
 448:../lpc11cx4-library/lpc_chip_11cxx_lib/src/i2c_11xx.c **** 	while (Chip_I2C_MasterTransfer(id, &xfer) == I2C_STATUS_ARBLOST) {}
 1435              		.loc 1 448 0 discriminator 1
 1436 001a 201C     		mov	r0, r4	@, id
 1437 001c 6946     		mov	r1, sp	@,
 1438 001e FFF7FEFF 		bl	Chip_I2C_MasterTransfer	@
 1439              	.LVL98:
ARM GAS  /tmp/ccXTVNcx.s 			page 42


 1440 0022 0228     		cmp	r0, #2	@ D.6760,
 1441 0024 F9D0     		beq	.L125	@,
 449:../lpc11cx4-library/lpc_chip_11cxx_lib/src/i2c_11xx.c **** 	return len - xfer.txSz;
 1442              		.loc 1 449 0
 1443 0026 0298     		ldr	r0, [sp, #8]	@ xfer.txSz, xfer.txSz
 1444 0028 281A     		sub	r0, r5, r0	@ D.6760, len, xfer.txSz
 450:../lpc11cx4-library/lpc_chip_11cxx_lib/src/i2c_11xx.c **** }
 1445              		.loc 1 450 0
 1446 002a 07B0     		add	sp, sp, #28	@,,
 1447              		@ sp needed	@
 1448 002c 30BD     		pop	{r4, r5, pc}
 1449              		.cfi_endproc
 1450              	.LFE221:
 1451              		.size	Chip_I2C_MasterSend, .-Chip_I2C_MasterSend
 1452 002e C046     		.section	.text.Chip_I2C_MasterCmdRead,"ax",%progbits
 1453              		.align	2
 1454              		.global	Chip_I2C_MasterCmdRead
 1455              		.code	16
 1456              		.thumb_func
 1457              		.type	Chip_I2C_MasterCmdRead, %function
 1458              	Chip_I2C_MasterCmdRead:
 1459              	.LFB222:
 451:../lpc11cx4-library/lpc_chip_11cxx_lib/src/i2c_11xx.c **** 
 452:../lpc11cx4-library/lpc_chip_11cxx_lib/src/i2c_11xx.c **** /* Transmit one byte and receive an array of bytes after a repeated start condition is generated in
 453:../lpc11cx4-library/lpc_chip_11cxx_lib/src/i2c_11xx.c ****  * This function is useful for communicating with the I2C slave registers
 454:../lpc11cx4-library/lpc_chip_11cxx_lib/src/i2c_11xx.c ****  */
 455:../lpc11cx4-library/lpc_chip_11cxx_lib/src/i2c_11xx.c **** int Chip_I2C_MasterCmdRead(I2C_ID_T id, uint8_t slaveAddr, uint8_t cmd, uint8_t *buff, int len)
 456:../lpc11cx4-library/lpc_chip_11cxx_lib/src/i2c_11xx.c **** {
 1460              		.loc 1 456 0
 1461              		.cfi_startproc
 1462              	.LVL99:
 1463 0000 70B5     		push	{r4, r5, r6, lr}	@
 1464              		.cfi_def_cfa_offset 16
 1465              		.cfi_offset 4, -16
 1466              		.cfi_offset 5, -12
 1467              		.cfi_offset 6, -8
 1468              		.cfi_offset 14, -4
 1469 0002 88B0     		sub	sp, sp, #32	@,,
 1470              		.cfi_def_cfa_offset 48
 1471              		.loc 1 456 0
 1472 0004 051C     		mov	r5, r0	@ id, id
 1473 0006 6846     		mov	r0, sp	@ tmp141,
 1474              	.LVL100:
 1475 0008 C271     		strb	r2, [r0, #7]	@ cmd, cmd
 457:../lpc11cx4-library/lpc_chip_11cxx_lib/src/i2c_11xx.c **** 	I2C_XFER_T xfer = {0};
 1476              		.loc 1 457 0
 1477 000a 0022     		mov	r2, #0	@ tmp122,
 1478              	.LVL101:
 1479 000c 02AC     		add	r4, sp, #8	@ tmp140,,
 456:../lpc11cx4-library/lpc_chip_11cxx_lib/src/i2c_11xx.c **** 	I2C_XFER_T xfer = {0};
 1480              		.loc 1 456 0
 1481 000e 0C9E     		ldr	r6, [sp, #48]	@ len, len
 1482              		.loc 1 457 0
 1483 0010 0292     		str	r2, [sp, #8]	@ tmp122, xfer
 456:../lpc11cx4-library/lpc_chip_11cxx_lib/src/i2c_11xx.c **** 	I2C_XFER_T xfer = {0};
 1484              		.loc 1 456 0
 1485 0012 0730     		add	r0, r0, #7	@ tmp117,
ARM GAS  /tmp/ccXTVNcx.s 			page 43


 1486              	.LVL102:
 1487              		.loc 1 457 0
 1488 0014 6261     		str	r2, [r4, #20]	@ tmp122, xfer
 458:../lpc11cx4-library/lpc_chip_11cxx_lib/src/i2c_11xx.c **** 	xfer.slaveAddr = slaveAddr;
 459:../lpc11cx4-library/lpc_chip_11cxx_lib/src/i2c_11xx.c **** 	xfer.txBuff = &cmd;
 460:../lpc11cx4-library/lpc_chip_11cxx_lib/src/i2c_11xx.c **** 	xfer.txSz = 1;
 1489              		.loc 1 460 0
 1490 0016 0132     		add	r2, r2, #1	@ tmp133,
 458:../lpc11cx4-library/lpc_chip_11cxx_lib/src/i2c_11xx.c **** 	xfer.slaveAddr = slaveAddr;
 1491              		.loc 1 458 0
 1492 0018 2170     		strb	r1, [r4]	@ slaveAddr, xfer.slaveAddr
 459:../lpc11cx4-library/lpc_chip_11cxx_lib/src/i2c_11xx.c **** 	xfer.txSz = 1;
 1493              		.loc 1 459 0
 1494 001a 6060     		str	r0, [r4, #4]	@ tmp117, xfer.txBuff
 1495              		.loc 1 460 0
 1496 001c A260     		str	r2, [r4, #8]	@ tmp133, xfer.txSz
 461:../lpc11cx4-library/lpc_chip_11cxx_lib/src/i2c_11xx.c **** 	xfer.rxBuff = buff;
 1497              		.loc 1 461 0
 1498 001e E360     		str	r3, [r4, #12]	@ buff, xfer.rxBuff
 462:../lpc11cx4-library/lpc_chip_11cxx_lib/src/i2c_11xx.c **** 	xfer.rxSz = len;
 1499              		.loc 1 462 0
 1500 0020 2661     		str	r6, [r4, #16]	@ len, xfer.rxSz
 1501              	.LVL103:
 1502              	.L129:
 463:../lpc11cx4-library/lpc_chip_11cxx_lib/src/i2c_11xx.c **** 	while (Chip_I2C_MasterTransfer(id, &xfer) == I2C_STATUS_ARBLOST) {}
 1503              		.loc 1 463 0 discriminator 1
 1504 0022 281C     		mov	r0, r5	@, id
 1505 0024 211C     		mov	r1, r4	@, tmp140
 1506 0026 FFF7FEFF 		bl	Chip_I2C_MasterTransfer	@
 1507              	.LVL104:
 1508 002a 0228     		cmp	r0, #2	@ D.6763,
 1509 002c F9D0     		beq	.L129	@,
 464:../lpc11cx4-library/lpc_chip_11cxx_lib/src/i2c_11xx.c **** 	return len - xfer.rxSz;
 1510              		.loc 1 464 0
 1511 002e 2069     		ldr	r0, [r4, #16]	@ xfer.rxSz, xfer.rxSz
 1512 0030 301A     		sub	r0, r6, r0	@ D.6763, len, xfer.rxSz
 465:../lpc11cx4-library/lpc_chip_11cxx_lib/src/i2c_11xx.c **** }
 1513              		.loc 1 465 0
 1514 0032 08B0     		add	sp, sp, #32	@,,
 1515              	.LVL105:
 1516              		@ sp needed	@
 1517 0034 70BD     		pop	{r4, r5, r6, pc}
 1518              		.cfi_endproc
 1519              	.LFE222:
 1520              		.size	Chip_I2C_MasterCmdRead, .-Chip_I2C_MasterCmdRead
 1521 0036 C046     		.section	.text.Chip_I2C_MasterRead,"ax",%progbits
 1522              		.align	2
 1523              		.global	Chip_I2C_MasterRead
 1524              		.code	16
 1525              		.thumb_func
 1526              		.type	Chip_I2C_MasterRead, %function
 1527              	Chip_I2C_MasterRead:
 1528              	.LFB223:
 466:../lpc11cx4-library/lpc_chip_11cxx_lib/src/i2c_11xx.c **** 
 467:../lpc11cx4-library/lpc_chip_11cxx_lib/src/i2c_11xx.c **** /* Sequential master read */
 468:../lpc11cx4-library/lpc_chip_11cxx_lib/src/i2c_11xx.c **** int Chip_I2C_MasterRead(I2C_ID_T id, uint8_t slaveAddr, uint8_t *buff, int len)
 469:../lpc11cx4-library/lpc_chip_11cxx_lib/src/i2c_11xx.c **** {
ARM GAS  /tmp/ccXTVNcx.s 			page 44


 1529              		.loc 1 469 0
 1530              		.cfi_startproc
 1531              	.LVL106:
 1532 0000 30B5     		push	{r4, r5, lr}	@
 1533              		.cfi_def_cfa_offset 12
 1534              		.cfi_offset 4, -12
 1535              		.cfi_offset 5, -8
 1536              		.cfi_offset 14, -4
 1537 0002 1D1C     		mov	r5, r3	@ len, len
 470:../lpc11cx4-library/lpc_chip_11cxx_lib/src/i2c_11xx.c **** 	I2C_XFER_T xfer = {0};
 1538              		.loc 1 470 0
 1539 0004 0023     		mov	r3, #0	@ tmp119,
 1540              	.LVL107:
 469:../lpc11cx4-library/lpc_chip_11cxx_lib/src/i2c_11xx.c **** 	I2C_XFER_T xfer = {0};
 1541              		.loc 1 469 0
 1542 0006 87B0     		sub	sp, sp, #28	@,,
 1543              		.cfi_def_cfa_offset 40
 1544              		.loc 1 470 0
 1545 0008 0093     		str	r3, [sp]	@ tmp119, xfer
 1546 000a 0193     		str	r3, [sp, #4]	@ tmp119, xfer
 1547 000c 0293     		str	r3, [sp, #8]	@ tmp119, xfer
 1548 000e 0593     		str	r3, [sp, #20]	@ tmp119, xfer
 471:../lpc11cx4-library/lpc_chip_11cxx_lib/src/i2c_11xx.c **** 	xfer.slaveAddr = slaveAddr;
 1549              		.loc 1 471 0
 1550 0010 6B46     		mov	r3, sp	@ tmp134,
 469:../lpc11cx4-library/lpc_chip_11cxx_lib/src/i2c_11xx.c **** 	I2C_XFER_T xfer = {0};
 1551              		.loc 1 469 0
 1552 0012 041C     		mov	r4, r0	@ id, id
 1553              		.loc 1 471 0
 1554 0014 1970     		strb	r1, [r3]	@ slaveAddr, xfer.slaveAddr
 472:../lpc11cx4-library/lpc_chip_11cxx_lib/src/i2c_11xx.c **** 	xfer.rxBuff = buff;
 1555              		.loc 1 472 0
 1556 0016 0392     		str	r2, [sp, #12]	@ buff, xfer.rxBuff
 473:../lpc11cx4-library/lpc_chip_11cxx_lib/src/i2c_11xx.c **** 	xfer.rxSz = len;
 1557              		.loc 1 473 0
 1558 0018 0495     		str	r5, [sp, #16]	@ len, xfer.rxSz
 1559              	.LVL108:
 1560              	.L133:
 474:../lpc11cx4-library/lpc_chip_11cxx_lib/src/i2c_11xx.c **** 	while (Chip_I2C_MasterTransfer(id, &xfer) == I2C_STATUS_ARBLOST) {}
 1561              		.loc 1 474 0 discriminator 1
 1562 001a 201C     		mov	r0, r4	@, id
 1563 001c 6946     		mov	r1, sp	@,
 1564 001e FFF7FEFF 		bl	Chip_I2C_MasterTransfer	@
 1565              	.LVL109:
 1566 0022 0228     		cmp	r0, #2	@ D.6766,
 1567 0024 F9D0     		beq	.L133	@,
 475:../lpc11cx4-library/lpc_chip_11cxx_lib/src/i2c_11xx.c **** 	return len - xfer.rxSz;
 1568              		.loc 1 475 0
 1569 0026 0498     		ldr	r0, [sp, #16]	@ xfer.rxSz, xfer.rxSz
 1570 0028 281A     		sub	r0, r5, r0	@ D.6766, len, xfer.rxSz
 476:../lpc11cx4-library/lpc_chip_11cxx_lib/src/i2c_11xx.c **** }
 1571              		.loc 1 476 0
 1572 002a 07B0     		add	sp, sp, #28	@,,
 1573              		@ sp needed	@
 1574              	.LVL110:
 1575 002c 30BD     		pop	{r4, r5, pc}
 1576              		.cfi_endproc
ARM GAS  /tmp/ccXTVNcx.s 			page 45


 1577              	.LFE223:
 1578              		.size	Chip_I2C_MasterRead, .-Chip_I2C_MasterRead
 1579 002e C046     		.section	.text.Chip_I2C_IsMasterActive,"ax",%progbits
 1580              		.align	2
 1581              		.global	Chip_I2C_IsMasterActive
 1582              		.code	16
 1583              		.thumb_func
 1584              		.type	Chip_I2C_IsMasterActive, %function
 1585              	Chip_I2C_IsMasterActive:
 1586              	.LFB224:
 477:../lpc11cx4-library/lpc_chip_11cxx_lib/src/i2c_11xx.c **** 
 478:../lpc11cx4-library/lpc_chip_11cxx_lib/src/i2c_11xx.c **** /* Check if master state is active */
 479:../lpc11cx4-library/lpc_chip_11cxx_lib/src/i2c_11xx.c **** int Chip_I2C_IsMasterActive(I2C_ID_T id)
 480:../lpc11cx4-library/lpc_chip_11cxx_lib/src/i2c_11xx.c **** {
 1587              		.loc 1 480 0
 1588              		.cfi_startproc
 1589              	.LVL111:
 1590              	.LBB131:
 1591              	.LBB132:
 1592              	.LBB133:
 1593              	.LBB134:
 122:../lpc11cx4-library/lpc_chip_11cxx_lib/src/i2c_11xx.c **** }
 1594              		.loc 1 122 0
 1595 0000 F822     		mov	r2, #248	@ tmp125,
 1596              	.LBE134:
 1597              	.LBE133:
 1598              	.LBE132:
 1599              	.LBE131:
 481:../lpc11cx4-library/lpc_chip_11cxx_lib/src/i2c_11xx.c **** 	return isMasterState(i2c[id].ip);
 1600              		.loc 1 481 0
 1601 0002 C300     		lsl	r3, r0, #3	@ tmp121, id,
 1602 0004 181A     		sub	r0, r3, r0	@ tmp122, tmp121, id
 1603              	.LVL112:
 1604 0006 054B     		ldr	r3, .L137	@ tmp119,
 1605 0008 8000     		lsl	r0, r0, #2	@ tmp123, tmp122,
 1606 000a C358     		ldr	r3, [r0, r3]	@ D.6770, i2c[_2].ip
 1607              	.LVL113:
 1608              	.LBB141:
 1609              	.LBB139:
 128:../lpc11cx4-library/lpc_chip_11cxx_lib/src/i2c_11xx.c **** }
 1610              		.loc 1 128 0
 1611 000c 5F21     		mov	r1, #95	@ tmp129,
 1612              	.LBB137:
 1613              	.LBB135:
 122:../lpc11cx4-library/lpc_chip_11cxx_lib/src/i2c_11xx.c **** }
 1614              		.loc 1 122 0
 1615 000e 5B68     		ldr	r3, [r3, #4]	@ D.6771, _4->STAT
 1616              	.LVL114:
 1617              	.LBE135:
 1618              	.LBE137:
 1619              	.LBE139:
 1620              	.LBE141:
 482:../lpc11cx4-library/lpc_chip_11cxx_lib/src/i2c_11xx.c **** }
 1621              		.loc 1 482 0
 1622              		@ sp needed	@
 1623              	.LBB142:
 1624              	.LBB140:
ARM GAS  /tmp/ccXTVNcx.s 			page 46


 1625              	.LBB138:
 1626              	.LBB136:
 122:../lpc11cx4-library/lpc_chip_11cxx_lib/src/i2c_11xx.c **** }
 1627              		.loc 1 122 0
 1628 0010 1340     		and	r3, r2	@ D.6769, tmp125
 1629              	.LBE136:
 1630              	.LBE138:
 128:../lpc11cx4-library/lpc_chip_11cxx_lib/src/i2c_11xx.c **** }
 1631              		.loc 1 128 0
 1632 0012 0022     		mov	r2, #0	@ tmp131,
 1633 0014 D80F     		lsr	r0, r3, #31	@ tmp130, D.6769,
 1634              	.LVL115:
 1635 0016 9942     		cmp	r1, r3	@ tmp129, D.6769
 1636 0018 5041     		adc	r0, r0, r2	@ D.6772, tmp130, tmp131
 1637              	.LBE140:
 1638              	.LBE142:
 1639              		.loc 1 482 0
 1640 001a 7047     		bx	lr
 1641              	.L138:
 1642              		.align	2
 1643              	.L137:
 1644 001c 00000000 		.word	.LANCHOR0
 1645              		.cfi_endproc
 1646              	.LFE224:
 1647              		.size	Chip_I2C_IsMasterActive, .-Chip_I2C_IsMasterActive
 1648              		.section	.text.Chip_I2C_MasterStateHandler,"ax",%progbits
 1649              		.align	2
 1650              		.global	Chip_I2C_MasterStateHandler
 1651              		.code	16
 1652              		.thumb_func
 1653              		.type	Chip_I2C_MasterStateHandler, %function
 1654              	Chip_I2C_MasterStateHandler:
 1655              	.LFB225:
 483:../lpc11cx4-library/lpc_chip_11cxx_lib/src/i2c_11xx.c **** 
 484:../lpc11cx4-library/lpc_chip_11cxx_lib/src/i2c_11xx.c **** /* State change handler for master transfer */
 485:../lpc11cx4-library/lpc_chip_11cxx_lib/src/i2c_11xx.c **** void Chip_I2C_MasterStateHandler(I2C_ID_T id)
 486:../lpc11cx4-library/lpc_chip_11cxx_lib/src/i2c_11xx.c **** {
 1656              		.loc 1 486 0
 1657              		.cfi_startproc
 1658              	.LVL116:
 1659 0000 38B5     		push	{r3, r4, r5, lr}	@
 1660              		.cfi_def_cfa_offset 16
 1661              		.cfi_offset 3, -16
 1662              		.cfi_offset 4, -12
 1663              		.cfi_offset 5, -8
 1664              		.cfi_offset 14, -4
 487:../lpc11cx4-library/lpc_chip_11cxx_lib/src/i2c_11xx.c **** 	if (!handleMasterXferState(i2c[id].ip, i2c[id].mXfer)) {
 1665              		.loc 1 487 0
 1666 0002 C300     		lsl	r3, r0, #3	@ tmp118, id,
 1667 0004 074C     		ldr	r4, .L141	@ tmp116,
 1668 0006 1B1A     		sub	r3, r3, r0	@ tmp138, tmp118, id
 1669 0008 9B00     		lsl	r3, r3, #2	@ tmp120, tmp138,
 486:../lpc11cx4-library/lpc_chip_11cxx_lib/src/i2c_11xx.c **** 	if (!handleMasterXferState(i2c[id].ip, i2c[id].mXfer)) {
 1670              		.loc 1 486 0
 1671 000a 051C     		mov	r5, r0	@ id, id
 1672              		.loc 1 487 0
 1673 000c 1859     		ldr	r0, [r3, r4]	@ i2c[_3].ip, i2c[_3].ip
ARM GAS  /tmp/ccXTVNcx.s 			page 47


 1674              	.LVL117:
 1675 000e E418     		add	r4, r4, r3	@ tmp127, tmp116, tmp120
 1676 0010 2169     		ldr	r1, [r4, #16]	@, i2c[_3].mXfer
 1677 0012 FFF7FEFF 		bl	handleMasterXferState	@
 1678              	.LVL118:
 1679 0016 0028     		cmp	r0, #0	@ D.6776,
 1680 0018 03D1     		bne	.L139	@,
 488:../lpc11cx4-library/lpc_chip_11cxx_lib/src/i2c_11xx.c **** 		i2c[id].mEvent(id, I2C_EVENT_DONE);
 1681              		.loc 1 488 0
 1682 001a A368     		ldr	r3, [r4, #8]	@ i2c[_3].mEvent, i2c[_3].mEvent
 1683 001c 281C     		mov	r0, r5	@, id
 1684 001e 0221     		mov	r1, #2	@,
 1685 0020 9847     		blx	r3	@ i2c[_3].mEvent
 1686              	.LVL119:
 1687              	.L139:
 489:../lpc11cx4-library/lpc_chip_11cxx_lib/src/i2c_11xx.c **** 	}
 490:../lpc11cx4-library/lpc_chip_11cxx_lib/src/i2c_11xx.c **** }
 1688              		.loc 1 490 0
 1689              		@ sp needed	@
 1690 0022 38BD     		pop	{r3, r4, r5, pc}
 1691              	.L142:
 1692              		.align	2
 1693              	.L141:
 1694 0024 00000000 		.word	.LANCHOR0
 1695              		.cfi_endproc
 1696              	.LFE225:
 1697              		.size	Chip_I2C_MasterStateHandler, .-Chip_I2C_MasterStateHandler
 1698              		.section	.text.Chip_I2C_EventHandlerPolling,"ax",%progbits
 1699              		.align	2
 1700              		.global	Chip_I2C_EventHandlerPolling
 1701              		.code	16
 1702              		.thumb_func
 1703              		.type	Chip_I2C_EventHandlerPolling, %function
 1704              	Chip_I2C_EventHandlerPolling:
 1705              	.LFB213:
 345:../lpc11cx4-library/lpc_chip_11cxx_lib/src/i2c_11xx.c **** 	struct i2c_interface *iic = &i2c[id];
 1706              		.loc 1 345 0
 1707              		.cfi_startproc
 1708              	.LVL120:
 1709 0000 F0B5     		push	{r4, r5, r6, r7, lr}	@
 1710              		.cfi_def_cfa_offset 20
 1711              		.cfi_offset 4, -20
 1712              		.cfi_offset 5, -16
 1713              		.cfi_offset 6, -12
 1714              		.cfi_offset 7, -8
 1715              		.cfi_offset 14, -4
 1716 0002 4746     		mov	r7, r8	@,
 1717 0004 80B4     		push	{r7}	@
 1718              		.cfi_def_cfa_offset 24
 1719              		.cfi_offset 8, -24
 350:../lpc11cx4-library/lpc_chip_11cxx_lib/src/i2c_11xx.c **** 		return;
 1720              		.loc 1 350 0
 1721 0006 0129     		cmp	r1, #1	@ event,
 1722 0008 02D0     		beq	.L151	@,
 1723              	.LVL121:
 1724              	.L143:
 361:../lpc11cx4-library/lpc_chip_11cxx_lib/src/i2c_11xx.c **** 
ARM GAS  /tmp/ccXTVNcx.s 			page 48


 1725              		.loc 1 361 0
 1726              		@ sp needed	@
 1727 000a 04BC     		pop	{r2}
 1728 000c 9046     		mov	r8, r2
 1729 000e F0BD     		pop	{r4, r5, r6, r7, pc}
 1730              	.LVL122:
 1731              	.L151:
 1732 0010 8046     		mov	r8, r0	@ id, id
 1733              	.LBB143:
 1734              	.LBB144:
 491:../lpc11cx4-library/lpc_chip_11cxx_lib/src/i2c_11xx.c **** 
 492:../lpc11cx4-library/lpc_chip_11cxx_lib/src/i2c_11xx.c **** /* Setup slave function */
 493:../lpc11cx4-library/lpc_chip_11cxx_lib/src/i2c_11xx.c **** void Chip_I2C_SlaveSetup(I2C_ID_T id,
 494:../lpc11cx4-library/lpc_chip_11cxx_lib/src/i2c_11xx.c **** 						 I2C_SLAVE_ID sid,
 495:../lpc11cx4-library/lpc_chip_11cxx_lib/src/i2c_11xx.c **** 						 I2C_XFER_T *xfer,
 496:../lpc11cx4-library/lpc_chip_11cxx_lib/src/i2c_11xx.c **** 						 I2C_EVENTHANDLER_T event,
 497:../lpc11cx4-library/lpc_chip_11cxx_lib/src/i2c_11xx.c **** 						 uint8_t addrMask)
 498:../lpc11cx4-library/lpc_chip_11cxx_lib/src/i2c_11xx.c **** {
 499:../lpc11cx4-library/lpc_chip_11cxx_lib/src/i2c_11xx.c **** 	struct i2c_interface *iic = &i2c[id];
 500:../lpc11cx4-library/lpc_chip_11cxx_lib/src/i2c_11xx.c **** 	struct i2c_slave_interface *si2c = &i2c_slave[id][sid];
 501:../lpc11cx4-library/lpc_chip_11cxx_lib/src/i2c_11xx.c **** 	si2c->xfer = xfer;
 502:../lpc11cx4-library/lpc_chip_11cxx_lib/src/i2c_11xx.c **** 	si2c->event = event;
 503:../lpc11cx4-library/lpc_chip_11cxx_lib/src/i2c_11xx.c **** 
 504:../lpc11cx4-library/lpc_chip_11cxx_lib/src/i2c_11xx.c **** 	/* Set up the slave address */
 505:../lpc11cx4-library/lpc_chip_11cxx_lib/src/i2c_11xx.c **** 	if (sid != I2C_SLAVE_GENERAL) {
 506:../lpc11cx4-library/lpc_chip_11cxx_lib/src/i2c_11xx.c **** 		setSlaveAddr(iic->ip, sid, xfer->slaveAddr, addrMask);
 507:../lpc11cx4-library/lpc_chip_11cxx_lib/src/i2c_11xx.c **** 	}
 508:../lpc11cx4-library/lpc_chip_11cxx_lib/src/i2c_11xx.c **** 
 509:../lpc11cx4-library/lpc_chip_11cxx_lib/src/i2c_11xx.c **** 	if (!SLAVE_ACTIVE(iic) && !iic->mXfer) {
 510:../lpc11cx4-library/lpc_chip_11cxx_lib/src/i2c_11xx.c **** 		startSlaverXfer(iic->ip);
 511:../lpc11cx4-library/lpc_chip_11cxx_lib/src/i2c_11xx.c **** 	}
 512:../lpc11cx4-library/lpc_chip_11cxx_lib/src/i2c_11xx.c **** 	iic->flags |= 1 << (sid + 8);
 513:../lpc11cx4-library/lpc_chip_11cxx_lib/src/i2c_11xx.c **** }
 514:../lpc11cx4-library/lpc_chip_11cxx_lib/src/i2c_11xx.c **** 
 515:../lpc11cx4-library/lpc_chip_11cxx_lib/src/i2c_11xx.c **** /* I2C Slave event handler */
 516:../lpc11cx4-library/lpc_chip_11cxx_lib/src/i2c_11xx.c **** void Chip_I2C_SlaveStateHandler(I2C_ID_T id)
 517:../lpc11cx4-library/lpc_chip_11cxx_lib/src/i2c_11xx.c **** {
 518:../lpc11cx4-library/lpc_chip_11cxx_lib/src/i2c_11xx.c **** 	int ret;
 519:../lpc11cx4-library/lpc_chip_11cxx_lib/src/i2c_11xx.c **** 	struct i2c_interface *iic = &i2c[id];
 520:../lpc11cx4-library/lpc_chip_11cxx_lib/src/i2c_11xx.c **** 
 521:../lpc11cx4-library/lpc_chip_11cxx_lib/src/i2c_11xx.c **** 	/* Get the currently addressed slave */
 522:../lpc11cx4-library/lpc_chip_11cxx_lib/src/i2c_11xx.c **** 	if (!iic->sXfer) {
 523:../lpc11cx4-library/lpc_chip_11cxx_lib/src/i2c_11xx.c **** 		struct i2c_slave_interface *si2c;
 524:../lpc11cx4-library/lpc_chip_11cxx_lib/src/i2c_11xx.c **** 
 525:../lpc11cx4-library/lpc_chip_11cxx_lib/src/i2c_11xx.c **** 		I2C_SLAVE_ID sid = getSlaveIndex(iic->ip);
 526:../lpc11cx4-library/lpc_chip_11cxx_lib/src/i2c_11xx.c **** 		si2c = &i2c_slave[id][sid];
 527:../lpc11cx4-library/lpc_chip_11cxx_lib/src/i2c_11xx.c **** 		iic->sXfer = si2c->xfer;
 528:../lpc11cx4-library/lpc_chip_11cxx_lib/src/i2c_11xx.c **** 		iic->sEvent = si2c->event;
 529:../lpc11cx4-library/lpc_chip_11cxx_lib/src/i2c_11xx.c **** 	}
 530:../lpc11cx4-library/lpc_chip_11cxx_lib/src/i2c_11xx.c **** 
 531:../lpc11cx4-library/lpc_chip_11cxx_lib/src/i2c_11xx.c **** 	iic->sXfer->slaveAddr |= iic->mXfer != 0;
 532:../lpc11cx4-library/lpc_chip_11cxx_lib/src/i2c_11xx.c **** 	ret = handleSlaveXferState(iic->ip, iic->sXfer);
 533:../lpc11cx4-library/lpc_chip_11cxx_lib/src/i2c_11xx.c **** 	if (ret) {
 534:../lpc11cx4-library/lpc_chip_11cxx_lib/src/i2c_11xx.c **** 		if (iic->sXfer->status == I2C_STATUS_DONE) {
 535:../lpc11cx4-library/lpc_chip_11cxx_lib/src/i2c_11xx.c **** 			iic->sXfer = 0;
 536:../lpc11cx4-library/lpc_chip_11cxx_lib/src/i2c_11xx.c **** 		}
 537:../lpc11cx4-library/lpc_chip_11cxx_lib/src/i2c_11xx.c **** 		iic->sEvent(id, (I2C_EVENT_T) ret);
ARM GAS  /tmp/ccXTVNcx.s 			page 49


 538:../lpc11cx4-library/lpc_chip_11cxx_lib/src/i2c_11xx.c **** 	}
 539:../lpc11cx4-library/lpc_chip_11cxx_lib/src/i2c_11xx.c **** }
 540:../lpc11cx4-library/lpc_chip_11cxx_lib/src/i2c_11xx.c **** 
 541:../lpc11cx4-library/lpc_chip_11cxx_lib/src/i2c_11xx.c **** /* Disable I2C device */
 542:../lpc11cx4-library/lpc_chip_11cxx_lib/src/i2c_11xx.c **** void Chip_I2C_Disable(I2C_ID_T id)
 543:../lpc11cx4-library/lpc_chip_11cxx_lib/src/i2c_11xx.c **** {
 544:../lpc11cx4-library/lpc_chip_11cxx_lib/src/i2c_11xx.c **** 	LPC_I2Cx(id)->CONCLR = I2C_I2CONCLR_I2ENC;
 545:../lpc11cx4-library/lpc_chip_11cxx_lib/src/i2c_11xx.c **** }
 546:../lpc11cx4-library/lpc_chip_11cxx_lib/src/i2c_11xx.c **** 
 547:../lpc11cx4-library/lpc_chip_11cxx_lib/src/i2c_11xx.c **** /* State change checking */
 548:../lpc11cx4-library/lpc_chip_11cxx_lib/src/i2c_11xx.c **** int Chip_I2C_IsStateChanged(I2C_ID_T id)
 549:../lpc11cx4-library/lpc_chip_11cxx_lib/src/i2c_11xx.c **** {
 550:../lpc11cx4-library/lpc_chip_11cxx_lib/src/i2c_11xx.c **** 	return (LPC_I2Cx(id)->CONSET & I2C_CON_SI) != 0;
 1735              		.loc 1 550 0
 1736 0012 0826     		mov	r6, #8	@ tmp142,
 1737              	.LBE144:
 1738              	.LBE143:
 354:../lpc11cx4-library/lpc_chip_11cxx_lib/src/i2c_11xx.c **** 	/* Call the state change handler till xfer is done */
 1739              		.loc 1 354 0
 1740 0014 C400     		lsl	r4, r0, #3	@ tmp135, id,
 1741 0016 084D     		ldr	r5, .L152	@ tmp136,
 1742 0018 241A     		sub	r4, r4, r0	@ tmp121, tmp135, id
 1743 001a A400     		lsl	r4, r4, #2	@ tmp122, tmp121,
 1744 001c 2B19     		add	r3, r5, r4	@ tmp123, tmp136, tmp122
 1745 001e 1F69     		ldr	r7, [r3, #16]	@ D.6784, MEM[(struct i2c_interface *)&i2c][_4].mXfer
 1746              	.LVL123:
 1747              	.L146:
 356:../lpc11cx4-library/lpc_chip_11cxx_lib/src/i2c_11xx.c **** 		if (Chip_I2C_IsStateChanged(id)) {
 1748              		.loc 1 356 0
 1749 0020 3B7D     		ldrb	r3, [r7, #20]	@ MEM[(volatile I2C_STATUS_T *)_7 + 20B], MEM[(volatile I2C_STATUS_T *)_7 + 20B
 1750 0022 042B     		cmp	r3, #4	@ MEM[(volatile I2C_STATUS_T *)_7 + 20B],
 1751 0024 F1D1     		bne	.L143	@,
 1752              	.LVL124:
 1753              	.LBB146:
 1754              	.LBB145:
 1755              		.loc 1 550 0
 1756 0026 2B59     		ldr	r3, [r5, r4]	@ D.6786, i2c[_4].ip
 1757 0028 1B68     		ldr	r3, [r3]	@ D.6787, _11->CONSET
 1758              	.LBE145:
 1759              	.LBE146:
 357:../lpc11cx4-library/lpc_chip_11cxx_lib/src/i2c_11xx.c **** 			Chip_I2C_MasterStateHandler(id);
 1760              		.loc 1 357 0
 1761 002a 1E42     		tst	r6, r3	@ tmp142, D.6787
 1762 002c F8D0     		beq	.L146	@,
 358:../lpc11cx4-library/lpc_chip_11cxx_lib/src/i2c_11xx.c **** 		}
 1763              		.loc 1 358 0
 1764 002e 4046     		mov	r0, r8	@, id
 1765 0030 FFF7FEFF 		bl	Chip_I2C_MasterStateHandler	@
 1766              	.LVL125:
 1767 0034 F4E7     		b	.L146	@
 1768              	.L153:
 1769 0036 C046     		.align	2
 1770              	.L152:
 1771 0038 00000000 		.word	.LANCHOR0
 1772              		.cfi_endproc
 1773              	.LFE213:
 1774              		.size	Chip_I2C_EventHandlerPolling, .-Chip_I2C_EventHandlerPolling
ARM GAS  /tmp/ccXTVNcx.s 			page 50


 1775              		.section	.text.Chip_I2C_SlaveSetup,"ax",%progbits
 1776              		.align	2
 1777              		.global	Chip_I2C_SlaveSetup
 1778              		.code	16
 1779              		.thumb_func
 1780              		.type	Chip_I2C_SlaveSetup, %function
 1781              	Chip_I2C_SlaveSetup:
 1782              	.LFB226:
 498:../lpc11cx4-library/lpc_chip_11cxx_lib/src/i2c_11xx.c **** 	struct i2c_interface *iic = &i2c[id];
 1783              		.loc 1 498 0
 1784              		.cfi_startproc
 1785              	.LVL126:
 1786 0000 F0B5     		push	{r4, r5, r6, r7, lr}	@
 1787              		.cfi_def_cfa_offset 20
 1788              		.cfi_offset 4, -20
 1789              		.cfi_offset 5, -16
 1790              		.cfi_offset 6, -12
 1791              		.cfi_offset 7, -8
 1792              		.cfi_offset 14, -4
 498:../lpc11cx4-library/lpc_chip_11cxx_lib/src/i2c_11xx.c **** 	struct i2c_interface *iic = &i2c[id];
 1793              		.loc 1 498 0
 1794 0002 05AC     		add	r4, sp, #20	@ tmp136,,
 1795              	.LVL127:
 1796 0004 2678     		ldrb	r6, [r4]	@ addrMask, addrMask
 501:../lpc11cx4-library/lpc_chip_11cxx_lib/src/i2c_11xx.c **** 	si2c->event = event;
 1797              		.loc 1 501 0
 1798 0006 8400     		lsl	r4, r0, #2	@ tmp139, id,
 1799              	.LVL128:
 1800 0008 2418     		add	r4, r4, r0	@ tmp140, tmp139, id
 1801 000a 1B4D     		ldr	r5, .L163	@ tmp137,
 1802 000c 6418     		add	r4, r4, r1	@ tmp141, tmp140, sid
 1803 000e E400     		lsl	r4, r4, #3	@ tmp142, tmp141,
 1804 0010 6251     		str	r2, [r4, r5]	@ xfer, MEM[(struct i2c_slave_interface *)&i2c_slave][_4][_6].xfer
 502:../lpc11cx4-library/lpc_chip_11cxx_lib/src/i2c_11xx.c **** 
 1805              		.loc 1 502 0
 1806 0012 2C19     		add	r4, r5, r4	@ tmp149, tmp137, tmp142
 1807 0014 6360     		str	r3, [r4, #4]	@ event, MEM[(struct i2c_slave_interface *)&i2c_slave][_4][_6].event
 506:../lpc11cx4-library/lpc_chip_11cxx_lib/src/i2c_11xx.c **** 	}
 1808              		.loc 1 506 0
 1809 0016 194D     		ldr	r5, .L163+4	@ tmp196,
 1810 0018 C300     		lsl	r3, r0, #3	@ tmp195, id,
 1811              	.LVL129:
 505:../lpc11cx4-library/lpc_chip_11cxx_lib/src/i2c_11xx.c **** 		setSlaveAddr(iic->ip, sid, xfer->slaveAddr, addrMask);
 1812              		.loc 1 505 0
 1813 001a 0029     		cmp	r1, #0	@ sid,
 1814 001c 0FD0     		beq	.L155	@,
 506:../lpc11cx4-library/lpc_chip_11cxx_lib/src/i2c_11xx.c **** 	}
 1815              		.loc 1 506 0
 1816 001e 1778     		ldrb	r7, [r2]	@ D.6793, *xfer_8(D)
 1817              	.LBB147:
 1818              	.LBB148:
 135:../lpc11cx4-library/lpc_chip_11cxx_lib/src/i2c_11xx.c **** 	if (sid == I2C_SLAVE_0) {
 1819              		.loc 1 135 0
 1820 0020 0A1C     		mov	r2, r1	@ tmp155, sid
 1821              	.LVL130:
 1822              	.LBE148:
 1823              	.LBE147:
ARM GAS  /tmp/ccXTVNcx.s 			page 51


 506:../lpc11cx4-library/lpc_chip_11cxx_lib/src/i2c_11xx.c **** 	}
 1824              		.loc 1 506 0
 1825 0022 1C1A     		sub	r4, r3, r0	@ tmp153, tmp195, id
 1826              	.LVL131:
 1827 0024 A400     		lsl	r4, r4, #2	@ tmp154, tmp153,
 1828 0026 2C59     		ldr	r4, [r5, r4]	@ D.6792, MEM[(struct i2c_interface *)&i2c][_4].ip
 1829              	.LVL132:
 1830              	.LBB152:
 1831              	.LBB150:
 135:../lpc11cx4-library/lpc_chip_11cxx_lib/src/i2c_11xx.c **** 	if (sid == I2C_SLAVE_0) {
 1832              		.loc 1 135 0
 1833 0028 0B32     		add	r2, r2, #11	@ tmp155,
 1834 002a 9200     		lsl	r2, r2, #2	@ tmp156, tmp155,
 1835 002c 1651     		str	r6, [r2, r4]	@ addrMask, _12->MASK
 136:../lpc11cx4-library/lpc_chip_11cxx_lib/src/i2c_11xx.c **** 		pI2C->ADR0 = addr;
 1836              		.loc 1 136 0
 1837 002e 0129     		cmp	r1, #1	@ sid,
 1838 0030 19D0     		beq	.L161	@,
 1839              	.LVL133:
 1840              	.LBB149:
 141:../lpc11cx4-library/lpc_chip_11cxx_lib/src/i2c_11xx.c **** 	}
 1841              		.loc 1 141 0
 1842 0032 134A     		ldr	r2, .L163+8	@ tmp200,
 140:../lpc11cx4-library/lpc_chip_11cxx_lib/src/i2c_11xx.c **** 		abase[index - 1] = addr;
 1843              		.loc 1 140 0
 1844 0034 2034     		add	r4, r4, #32	@ abase,
 1845              	.LVL134:
 141:../lpc11cx4-library/lpc_chip_11cxx_lib/src/i2c_11xx.c **** 	}
 1846              		.loc 1 141 0
 1847 0036 8A18     		add	r2, r1, r2	@ D.6796, sid, tmp200
 1848 0038 9200     		lsl	r2, r2, #2	@ D.6796, D.6796,
 1849 003a A418     		add	r4, r4, r2	@ D.6797, abase, D.6796
 1850              	.LVL135:
 1851 003c 2760     		str	r7, [r4]	@ D.6793, *_33
 1852              	.LVL136:
 1853              	.L155:
 1854              	.LBE149:
 1855              	.LBE150:
 1856              	.LBE152:
 509:../lpc11cx4-library/lpc_chip_11cxx_lib/src/i2c_11xx.c **** 		startSlaverXfer(iic->ip);
 1857              		.loc 1 509 0
 1858 003e FF27     		mov	r7, #255	@ tmp168,
 1859 0040 1C1A     		sub	r4, r3, r0	@ tmp197, tmp195, id
 1860 0042 A400     		lsl	r4, r4, #2	@ tmp164, tmp197,
 1861 0044 2E19     		add	r6, r5, r4	@ tmp165, tmp196, tmp164
 1862 0046 B269     		ldr	r2, [r6, #24]	@ D.6794, MEM[(struct i2c_interface *)&i2c][_4].flags
 1863 0048 3F02     		lsl	r7, r7, #8	@ tmp168, tmp168,
 1864 004a 3A42     		tst	r2, r7	@ D.6794, tmp168
 1865 004c 02D1     		bne	.L157	@,
 509:../lpc11cx4-library/lpc_chip_11cxx_lib/src/i2c_11xx.c **** 		startSlaverXfer(iic->ip);
 1866              		.loc 1 509 0 is_stmt 0 discriminator 1
 1867 004e 3669     		ldr	r6, [r6, #16]	@ MEM[(struct i2c_interface *)&i2c][_4].mXfer, MEM[(struct i2c_interface *)&i2c]
 1868 0050 002E     		cmp	r6, #0	@ MEM[(struct i2c_interface *)&i2c][_4].mXfer,
 1869 0052 0AD0     		beq	.L162	@,
 1870              	.L157:
 512:../lpc11cx4-library/lpc_chip_11cxx_lib/src/i2c_11xx.c **** }
 1871              		.loc 1 512 0 is_stmt 1
ARM GAS  /tmp/ccXTVNcx.s 			page 52


 1872 0054 1B1A     		sub	r3, r3, r0	@ tmp187, tmp195, id
 1873 0056 0120     		mov	r0, #1	@ tmp193,
 1874              	.LVL137:
 1875 0058 0831     		add	r1, r1, #8	@ D.6791,
 1876              	.LVL138:
 1877 005a 8840     		lsl	r0, r0, r1	@ D.6791, D.6791, D.6791
 1878 005c 9B00     		lsl	r3, r3, #2	@ tmp188, tmp187,
 1879 005e EB18     		add	r3, r5, r3	@ tmp189, tmp196, tmp188
 1880 0060 0243     		orr	r2, r0	@ D.6794, D.6791
 1881 0062 9A61     		str	r2, [r3, #24]	@ D.6794, MEM[(struct i2c_interface *)&i2c][_4].flags
 513:../lpc11cx4-library/lpc_chip_11cxx_lib/src/i2c_11xx.c **** 
 1882              		.loc 1 513 0
 1883              		@ sp needed	@
 1884 0064 F0BD     		pop	{r4, r5, r6, r7, pc}
 1885              	.LVL139:
 1886              	.L161:
 1887              	.LBB153:
 1888              	.LBB151:
 137:../lpc11cx4-library/lpc_chip_11cxx_lib/src/i2c_11xx.c **** 	}
 1889              		.loc 1 137 0
 1890 0066 E760     		str	r7, [r4, #12]	@ D.6793, _12->ADR0
 1891 0068 E9E7     		b	.L155	@
 1892              	.LVL140:
 1893              	.L162:
 1894              	.LBE151:
 1895              	.LBE153:
 510:../lpc11cx4-library/lpc_chip_11cxx_lib/src/i2c_11xx.c **** 	}
 1896              		.loc 1 510 0
 1897 006a 2C59     		ldr	r4, [r5, r4]	@ D.6792, MEM[(struct i2c_interface *)&i2c][_4].ip
 1898              	.LVL141:
 1899              	.LBB154:
 1900              	.LBB155:
 107:../lpc11cx4-library/lpc_chip_11cxx_lib/src/i2c_11xx.c **** 
 1901              		.loc 1 107 0
 1902 006c 3836     		add	r6, r6, #56	@ tmp182,
 1903 006e A661     		str	r6, [r4, #24]	@ tmp182, _19->CONCLR
 110:../lpc11cx4-library/lpc_chip_11cxx_lib/src/i2c_11xx.c **** }
 1904              		.loc 1 110 0
 1905 0070 0C36     		add	r6, r6, #12	@ tmp183,
 1906 0072 2660     		str	r6, [r4]	@ tmp183, _19->CONSET
 1907 0074 EEE7     		b	.L157	@
 1908              	.L164:
 1909 0076 C046     		.align	2
 1910              	.L163:
 1911 0078 00000000 		.word	.LANCHOR1
 1912 007c 00000000 		.word	.LANCHOR0
 1913 0080 FEFFFF3F 		.word	1073741822
 1914              	.LBE155:
 1915              	.LBE154:
 1916              		.cfi_endproc
 1917              	.LFE226:
 1918              		.size	Chip_I2C_SlaveSetup, .-Chip_I2C_SlaveSetup
 1919              		.section	.text.Chip_I2C_SlaveStateHandler,"ax",%progbits
 1920              		.align	2
 1921              		.global	Chip_I2C_SlaveStateHandler
 1922              		.code	16
 1923              		.thumb_func
ARM GAS  /tmp/ccXTVNcx.s 			page 53


 1924              		.type	Chip_I2C_SlaveStateHandler, %function
 1925              	Chip_I2C_SlaveStateHandler:
 1926              	.LFB227:
 517:../lpc11cx4-library/lpc_chip_11cxx_lib/src/i2c_11xx.c **** 	int ret;
 1927              		.loc 1 517 0
 1928              		.cfi_startproc
 1929              	.LVL142:
 1930 0000 F0B5     		push	{r4, r5, r6, r7, lr}	@
 1931              		.cfi_def_cfa_offset 20
 1932              		.cfi_offset 4, -20
 1933              		.cfi_offset 5, -16
 1934              		.cfi_offset 6, -12
 1935              		.cfi_offset 7, -8
 1936              		.cfi_offset 14, -4
 1937 0002 5746     		mov	r7, r10	@,
 1938 0004 4E46     		mov	r6, r9	@,
 1939 0006 4546     		mov	r5, r8	@,
 522:../lpc11cx4-library/lpc_chip_11cxx_lib/src/i2c_11xx.c **** 		struct i2c_slave_interface *si2c;
 1940              		.loc 1 522 0
 1941 0008 C400     		lsl	r4, r0, #3	@ tmp219, id,
 517:../lpc11cx4-library/lpc_chip_11cxx_lib/src/i2c_11xx.c **** 	int ret;
 1942              		.loc 1 517 0
 1943 000a E0B4     		push	{r5, r6, r7}	@
 1944              		.cfi_def_cfa_offset 32
 1945              		.cfi_offset 8, -32
 1946              		.cfi_offset 9, -28
 1947              		.cfi_offset 10, -24
 522:../lpc11cx4-library/lpc_chip_11cxx_lib/src/i2c_11xx.c **** 		struct i2c_slave_interface *si2c;
 1948              		.loc 1 522 0
 1949 000c 231A     		sub	r3, r4, r0	@ tmp218, tmp219, id
 1950 000e 204E     		ldr	r6, .L175	@ tmp217,
 1951 0010 9B00     		lsl	r3, r3, #2	@ tmp133, tmp218,
 1952 0012 F218     		add	r2, r6, r3	@ tmp134, tmp217, tmp133
 1953 0014 9146     		mov	r9, r2	@ tmp134, tmp134
 1954 0016 1022     		mov	r2, #16	@ tmp135,
 1955 0018 4A44     		add	r2, r2, r9	@ tmp135, tmp134
 1956              	.LBB156:
 525:../lpc11cx4-library/lpc_chip_11cxx_lib/src/i2c_11xx.c **** 		si2c = &i2c_slave[id][sid];
 1957              		.loc 1 525 0
 1958 001a 9B59     		ldr	r3, [r3, r6]	@ D.6810, MEM[(struct i2c_interface *)&i2c][_5].ip
 1959              	.LBE156:
 522:../lpc11cx4-library/lpc_chip_11cxx_lib/src/i2c_11xx.c **** 		struct i2c_slave_interface *si2c;
 1960              		.loc 1 522 0
 1961 001c 5768     		ldr	r7, [r2, #4]	@ D.6803, MEM[(struct i2c_interface *)&i2c][_5].sXfer
 517:../lpc11cx4-library/lpc_chip_11cxx_lib/src/i2c_11xx.c **** 	int ret;
 1962              		.loc 1 517 0
 1963 001e 051C     		mov	r5, r0	@ id, id
 522:../lpc11cx4-library/lpc_chip_11cxx_lib/src/i2c_11xx.c **** 		struct i2c_slave_interface *si2c;
 1964              		.loc 1 522 0
 1965 0020 9246     		mov	r10, r2	@ tmp135, tmp135
 1966              	.LBB157:
 525:../lpc11cx4-library/lpc_chip_11cxx_lib/src/i2c_11xx.c **** 		si2c = &i2c_slave[id][sid];
 1967              		.loc 1 525 0
 1968 0022 9846     		mov	r8, r3	@ D.6810, D.6810
 1969              	.LBE157:
 522:../lpc11cx4-library/lpc_chip_11cxx_lib/src/i2c_11xx.c **** 		struct i2c_slave_interface *si2c;
 1970              		.loc 1 522 0
ARM GAS  /tmp/ccXTVNcx.s 			page 54


 1971 0024 002F     		cmp	r7, #0	@ D.6803,
 1972 0026 23D0     		beq	.L173	@,
 1973              	.LVL143:
 1974              	.L167:
 531:../lpc11cx4-library/lpc_chip_11cxx_lib/src/i2c_11xx.c **** 	ret = handleSlaveXferState(iic->ip, iic->sXfer);
 1975              		.loc 1 531 0
 1976 0028 1022     		mov	r2, #16	@ tmp190,
 1977 002a 9146     		mov	r9, r2	@ tmp190, tmp190
 1978 002c 631B     		sub	r3, r4, r5	@ tmp187, tmp219, id
 1979 002e 9B00     		lsl	r3, r3, #2	@ tmp188, tmp187,
 1980 0030 F318     		add	r3, r6, r3	@ tmp189, tmp217, tmp188
 1981 0032 9944     		add	r9, r9, r3	@ tmp190, tmp189
 1982 0034 1B69     		ldr	r3, [r3, #16]	@ MEM[(struct i2c_interface *)&i2c][_5].mXfer, MEM[(struct i2c_interface *)&i2c]
 532:../lpc11cx4-library/lpc_chip_11cxx_lib/src/i2c_11xx.c **** 	if (ret) {
 1983              		.loc 1 532 0
 1984 0036 4046     		mov	r0, r8	@, D.6810
 531:../lpc11cx4-library/lpc_chip_11cxx_lib/src/i2c_11xx.c **** 	ret = handleSlaveXferState(iic->ip, iic->sXfer);
 1985              		.loc 1 531 0
 1986 0038 5A1E     		sub	r2, r3, #1	@ tmp194, MEM[(struct i2c_interface *)&i2c][_5].mXfer
 1987 003a 9341     		sbc	r3, r3, r2	@ tmp193, MEM[(struct i2c_interface *)&i2c][_5].mXfer, tmp194
 1988 003c 3A78     		ldrb	r2, [r7]	@ *_43, *_43
 532:../lpc11cx4-library/lpc_chip_11cxx_lib/src/i2c_11xx.c **** 	if (ret) {
 1989              		.loc 1 532 0
 1990 003e 391C     		mov	r1, r7	@, D.6803
 531:../lpc11cx4-library/lpc_chip_11cxx_lib/src/i2c_11xx.c **** 	ret = handleSlaveXferState(iic->ip, iic->sXfer);
 1991              		.loc 1 531 0
 1992 0040 1343     		orr	r3, r2	@ tmp197, *_43
 1993 0042 3B70     		strb	r3, [r7]	@ tmp197, _43->slaveAddr
 532:../lpc11cx4-library/lpc_chip_11cxx_lib/src/i2c_11xx.c **** 	if (ret) {
 1994              		.loc 1 532 0
 1995 0044 FFF7FEFF 		bl	handleSlaveXferState	@
 1996              	.LVL144:
 533:../lpc11cx4-library/lpc_chip_11cxx_lib/src/i2c_11xx.c **** 		if (iic->sXfer->status == I2C_STATUS_DONE) {
 1997              		.loc 1 533 0
 1998 0048 0028     		cmp	r0, #0	@ ret,
 1999 004a 09D0     		beq	.L165	@,
 534:../lpc11cx4-library/lpc_chip_11cxx_lib/src/i2c_11xx.c **** 			iic->sXfer = 0;
 2000              		.loc 1 534 0
 2001 004c 3B7D     		ldrb	r3, [r7, #20]	@ tmp199,
 2002 004e 002B     		cmp	r3, #0	@ tmp199,
 2003 0050 0BD0     		beq	.L174	@,
 2004              	.L169:
 537:../lpc11cx4-library/lpc_chip_11cxx_lib/src/i2c_11xx.c **** 	}
 2005              		.loc 1 537 0
 2006 0052 641B     		sub	r4, r4, r5	@ tmp211, tmp219, id
 2007 0054 A400     		lsl	r4, r4, #2	@ tmp212, tmp211,
 2008 0056 3419     		add	r4, r6, r4	@ tmp213, tmp217, tmp212
 2009 0058 C1B2     		uxtb	r1, r0	@ ret, ret
 2010 005a E368     		ldr	r3, [r4, #12]	@ MEM[(struct i2c_interface *)&i2c][_5].sEvent, MEM[(struct i2c_interface *)&i2c
 2011 005c 281C     		mov	r0, r5	@, id
 2012              	.LVL145:
 2013 005e 9847     		blx	r3	@ MEM[(struct i2c_interface *)&i2c][_5].sEvent
 2014              	.LVL146:
 2015              	.L165:
 539:../lpc11cx4-library/lpc_chip_11cxx_lib/src/i2c_11xx.c **** 
 2016              		.loc 1 539 0
 2017              		@ sp needed	@
ARM GAS  /tmp/ccXTVNcx.s 			page 55


 2018              	.LVL147:
 2019 0060 1CBC     		pop	{r2, r3, r4}
 2020 0062 9046     		mov	r8, r2
 2021 0064 9946     		mov	r9, r3
 2022 0066 A246     		mov	r10, r4
 2023 0068 F0BD     		pop	{r4, r5, r6, r7, pc}
 2024              	.LVL148:
 2025              	.L174:
 535:../lpc11cx4-library/lpc_chip_11cxx_lib/src/i2c_11xx.c **** 		}
 2026              		.loc 1 535 0
 2027 006a 4A46     		mov	r2, r9	@ tmp190, tmp190
 2028 006c 5360     		str	r3, [r2, #4]	@ tmp199, MEM[(struct i2c_interface *)&i2c][_5].sXfer
 2029 006e F0E7     		b	.L169	@
 2030              	.LVL149:
 2031              	.L173:
 2032              	.LBB158:
 525:../lpc11cx4-library/lpc_chip_11cxx_lib/src/i2c_11xx.c **** 		si2c = &i2c_slave[id][sid];
 2033              		.loc 1 525 0
 2034 0070 181C     		mov	r0, r3	@, D.6810
 2035              	.LVL150:
 2036 0072 FFF7FEFF 		bl	getSlaveIndex	@
 2037              	.LVL151:
 527:../lpc11cx4-library/lpc_chip_11cxx_lib/src/i2c_11xx.c **** 		iic->sEvent = si2c->event;
 2038              		.loc 1 527 0
 2039 0076 AB00     		lsl	r3, r5, #2	@ tmp157, id,
 2040 0078 5B19     		add	r3, r3, r5	@ tmp158, tmp157, id
 2041 007a 1818     		add	r0, r3, r0	@ tmp159, tmp158, tmp146
 2042              	.LVL152:
 2043 007c 5346     		mov	r3, r10	@ tmp135, tmp135
 2044 007e 054A     		ldr	r2, .L175+4	@ tmp155,
 2045 0080 C000     		lsl	r0, r0, #3	@ tmp160, tmp159,
 2046 0082 8758     		ldr	r7, [r0, r2]	@ MEM[(struct i2c_slave_interface *)&i2c_slave][_5][_11].xfer, MEM[(struct i2c_sl
 528:../lpc11cx4-library/lpc_chip_11cxx_lib/src/i2c_11xx.c **** 	}
 2047              		.loc 1 528 0
 2048 0084 1018     		add	r0, r2, r0	@ tmp175, tmp155, tmp160
 527:../lpc11cx4-library/lpc_chip_11cxx_lib/src/i2c_11xx.c **** 		iic->sEvent = si2c->event;
 2049              		.loc 1 527 0
 2050 0086 5F60     		str	r7, [r3, #4]	@ MEM[(struct i2c_slave_interface *)&i2c_slave][_5][_11].xfer, MEM[(struct i2c_in
 528:../lpc11cx4-library/lpc_chip_11cxx_lib/src/i2c_11xx.c **** 	}
 2051              		.loc 1 528 0
 2052 0088 4B46     		mov	r3, r9	@ tmp134, tmp134
 2053 008a 4268     		ldr	r2, [r0, #4]	@ tmp229, MEM[(struct i2c_slave_interface *)&i2c_slave][_5][_11].event
 2054 008c DA60     		str	r2, [r3, #12]	@ tmp229, MEM[(struct i2c_interface *)&i2c][_5].sEvent
 2055 008e CBE7     		b	.L167	@
 2056              	.L176:
 2057              		.align	2
 2058              	.L175:
 2059 0090 00000000 		.word	.LANCHOR0
 2060 0094 00000000 		.word	.LANCHOR1
 2061              	.LBE158:
 2062              		.cfi_endproc
 2063              	.LFE227:
 2064              		.size	Chip_I2C_SlaveStateHandler, .-Chip_I2C_SlaveStateHandler
 2065              		.section	.text.Chip_I2C_Disable,"ax",%progbits
 2066              		.align	2
 2067              		.global	Chip_I2C_Disable
 2068              		.code	16
ARM GAS  /tmp/ccXTVNcx.s 			page 56


 2069              		.thumb_func
 2070              		.type	Chip_I2C_Disable, %function
 2071              	Chip_I2C_Disable:
 2072              	.LFB228:
 543:../lpc11cx4-library/lpc_chip_11cxx_lib/src/i2c_11xx.c **** 	LPC_I2Cx(id)->CONCLR = I2C_I2CONCLR_I2ENC;
 2073              		.loc 1 543 0
 2074              		.cfi_startproc
 2075              	.LVL153:
 544:../lpc11cx4-library/lpc_chip_11cxx_lib/src/i2c_11xx.c **** }
 2076              		.loc 1 544 0
 2077 0000 4022     		mov	r2, #64	@ tmp118,
 2078 0002 C300     		lsl	r3, r0, #3	@ tmp115, id,
 2079 0004 181A     		sub	r0, r3, r0	@ tmp116, tmp115, id
 2080              	.LVL154:
 2081 0006 024B     		ldr	r3, .L178	@ tmp113,
 2082 0008 8000     		lsl	r0, r0, #2	@ tmp117, tmp116,
 2083 000a C358     		ldr	r3, [r0, r3]	@ D.6816, i2c[_2].ip
 545:../lpc11cx4-library/lpc_chip_11cxx_lib/src/i2c_11xx.c **** 
 2084              		.loc 1 545 0
 2085              		@ sp needed	@
 544:../lpc11cx4-library/lpc_chip_11cxx_lib/src/i2c_11xx.c **** }
 2086              		.loc 1 544 0
 2087 000c 9A61     		str	r2, [r3, #24]	@ tmp118, _4->CONCLR
 545:../lpc11cx4-library/lpc_chip_11cxx_lib/src/i2c_11xx.c **** 
 2088              		.loc 1 545 0
 2089 000e 7047     		bx	lr
 2090              	.L179:
 2091              		.align	2
 2092              	.L178:
 2093 0010 00000000 		.word	.LANCHOR0
 2094              		.cfi_endproc
 2095              	.LFE228:
 2096              		.size	Chip_I2C_Disable, .-Chip_I2C_Disable
 2097              		.section	.text.Chip_I2C_IsStateChanged,"ax",%progbits
 2098              		.align	2
 2099              		.global	Chip_I2C_IsStateChanged
 2100              		.code	16
 2101              		.thumb_func
 2102              		.type	Chip_I2C_IsStateChanged, %function
 2103              	Chip_I2C_IsStateChanged:
 2104              	.LFB229:
 549:../lpc11cx4-library/lpc_chip_11cxx_lib/src/i2c_11xx.c **** 	return (LPC_I2Cx(id)->CONSET & I2C_CON_SI) != 0;
 2105              		.loc 1 549 0
 2106              		.cfi_startproc
 2107              	.LVL155:
 2108              		.loc 1 550 0
 2109 0000 C300     		lsl	r3, r0, #3	@ tmp120, id,
 2110 0002 181A     		sub	r0, r3, r0	@ tmp121, tmp120, id
 2111              	.LVL156:
 2112 0004 034B     		ldr	r3, .L181	@ tmp118,
 2113 0006 8000     		lsl	r0, r0, #2	@ tmp122, tmp121,
 2114 0008 C358     		ldr	r3, [r0, r3]	@ D.6821, i2c[_2].ip
 551:../lpc11cx4-library/lpc_chip_11cxx_lib/src/i2c_11xx.c **** }
 2115              		.loc 1 551 0
 2116              		@ sp needed	@
 550:../lpc11cx4-library/lpc_chip_11cxx_lib/src/i2c_11xx.c **** }
 2117              		.loc 1 550 0
ARM GAS  /tmp/ccXTVNcx.s 			page 57


 2118 000a 1868     		ldr	r0, [r3]	@ D.6822, _4->CONSET
 2119 000c 0007     		lsl	r0, r0, #28	@ tmp125, D.6822,
 2120 000e C00F     		lsr	r0, r0, #31	@ D.6823, tmp125,
 2121              		.loc 1 551 0
 2122 0010 7047     		bx	lr
 2123              	.L182:
 2124 0012 C046     		.align	2
 2125              	.L181:
 2126 0014 00000000 		.word	.LANCHOR0
 2127              		.cfi_endproc
 2128              	.LFE229:
 2129              		.size	Chip_I2C_IsStateChanged, .-Chip_I2C_IsStateChanged
 2130              		.section	.data.i2c,"aw",%progbits
 2131              		.align	2
 2132              		.set	.LANCHOR0,. + 0
 2133              		.type	i2c, %object
 2134              		.size	i2c, 28
 2135              	i2c:
 2136              	@ ip:
 2137 0000 00000040 		.word	1073741824
 2138              	@ clk:
 2139 0004 05       		.byte	5
 2140              	@ mEvent:
 2141 0005 000000   		.space	3
 2142 0008 00000000 		.word	Chip_I2C_EventHandler
 2143              	@ sEvent:
 2144 000c 00000000 		.word	0
 2145              	@ mXfer:
 2146 0010 00000000 		.word	0
 2147              	@ sXfer:
 2148 0014 00000000 		.word	0
 2149              	@ flags:
 2150 0018 00000000 		.word	0
 2151              		.section	.bss.i2c_slave,"aw",%nobits
 2152              		.align	2
 2153              		.set	.LANCHOR1,. + 0
 2154              		.type	i2c_slave, %object
 2155              		.size	i2c_slave, 40
 2156              	i2c_slave:
 2157 0000 00000000 		.space	40
 2157      00000000 
 2157      00000000 
 2157      00000000 
 2157      00000000 
 2158              		.text
 2159              	.Letext0:
 2160              		.file 3 "/usr/arm-none-eabi/include/machine/_default_types.h"
 2161              		.file 4 "/usr/arm-none-eabi/include/stdint.h"
 2162              		.file 5 "../lpc11cx4-library/lpc_chip_11cxx_lib/inc/sysctl_11xx.h"
 2163              		.file 6 "../lpc11cx4-library/lpc_chip_11cxx_lib/inc/i2c_11xx.h"
 2164              		.file 7 "../lpc11cx4-library/lpc_chip_11cxx_lib/inc/chip.h"
 2165              		.section	.debug_info,"",%progbits
 2166              	.Ldebug_info0:
 2167 0000 0C140000 		.4byte	0x140c
 2168 0004 0400     		.2byte	0x4
 2169 0006 00000000 		.4byte	.Ldebug_abbrev0
 2170 000a 04       		.byte	0x4
ARM GAS  /tmp/ccXTVNcx.s 			page 58


 2171 000b 01       		.uleb128 0x1
 2172 000c 4C3E0000 		.4byte	.LASF1200
 2173 0010 01       		.byte	0x1
 2174 0011 77500000 		.4byte	.LASF1201
 2175 0015 84660000 		.4byte	.LASF1202
 2176 0019 80010000 		.4byte	.Ldebug_ranges0+0x180
 2177 001d 00000000 		.4byte	0
 2178 0021 00000000 		.4byte	.Ldebug_line0
 2179 0025 00000000 		.4byte	.Ldebug_macro0
 2180 0029 02       		.uleb128 0x2
 2181 002a 01       		.byte	0x1
 2182 002b 06       		.byte	0x6
 2183 002c 501A0000 		.4byte	.LASF996
 2184 0030 03       		.uleb128 0x3
 2185 0031 100F0000 		.4byte	.LASF1001
 2186 0035 03       		.byte	0x3
 2187 0036 1D       		.byte	0x1d
 2188 0037 3B000000 		.4byte	0x3b
 2189 003b 02       		.uleb128 0x2
 2190 003c 01       		.byte	0x1
 2191 003d 08       		.byte	0x8
 2192 003e 9C1D0000 		.4byte	.LASF997
 2193 0042 02       		.uleb128 0x2
 2194 0043 02       		.byte	0x2
 2195 0044 05       		.byte	0x5
 2196 0045 02650000 		.4byte	.LASF998
 2197 0049 02       		.uleb128 0x2
 2198 004a 02       		.byte	0x2
 2199 004b 07       		.byte	0x7
 2200 004c FC720000 		.4byte	.LASF999
 2201 0050 02       		.uleb128 0x2
 2202 0051 04       		.byte	0x4
 2203 0052 05       		.byte	0x5
 2204 0053 AF120000 		.4byte	.LASF1000
 2205 0057 03       		.uleb128 0x3
 2206 0058 B93D0000 		.4byte	.LASF1002
 2207 005c 03       		.byte	0x3
 2208 005d 41       		.byte	0x41
 2209 005e 62000000 		.4byte	0x62
 2210 0062 02       		.uleb128 0x2
 2211 0063 04       		.byte	0x4
 2212 0064 07       		.byte	0x7
 2213 0065 83350000 		.4byte	.LASF1003
 2214 0069 02       		.uleb128 0x2
 2215 006a 08       		.byte	0x8
 2216 006b 05       		.byte	0x5
 2217 006c FA3D0000 		.4byte	.LASF1004
 2218 0070 02       		.uleb128 0x2
 2219 0071 08       		.byte	0x8
 2220 0072 07       		.byte	0x7
 2221 0073 53560000 		.4byte	.LASF1005
 2222 0077 04       		.uleb128 0x4
 2223 0078 04       		.byte	0x4
 2224 0079 05       		.byte	0x5
 2225 007a 696E7400 		.ascii	"int\000"
 2226 007e 02       		.uleb128 0x2
 2227 007f 04       		.byte	0x4
ARM GAS  /tmp/ccXTVNcx.s 			page 59


 2228 0080 07       		.byte	0x7
 2229 0081 DE450000 		.4byte	.LASF1006
 2230 0085 03       		.uleb128 0x3
 2231 0086 991A0000 		.4byte	.LASF1007
 2232 008a 04       		.byte	0x4
 2233 008b 15       		.byte	0x15
 2234 008c 30000000 		.4byte	0x30
 2235 0090 03       		.uleb128 0x3
 2236 0091 076F0000 		.4byte	.LASF1008
 2237 0095 04       		.byte	0x4
 2238 0096 2D       		.byte	0x2d
 2239 0097 57000000 		.4byte	0x57
 2240 009b 02       		.uleb128 0x2
 2241 009c 01       		.byte	0x1
 2242 009d 08       		.byte	0x8
 2243 009e AA220000 		.4byte	.LASF1009
 2244 00a2 02       		.uleb128 0x2
 2245 00a3 01       		.byte	0x1
 2246 00a4 02       		.byte	0x2
 2247 00a5 3C210000 		.4byte	.LASF1010
 2248 00a9 02       		.uleb128 0x2
 2249 00aa 04       		.byte	0x4
 2250 00ab 07       		.byte	0x7
 2251 00ac 74010000 		.4byte	.LASF1011
 2252 00b0 05       		.uleb128 0x5
 2253 00b1 90000000 		.4byte	0x90
 2254 00b5 C0000000 		.4byte	0xc0
 2255 00b9 06       		.uleb128 0x6
 2256 00ba A9000000 		.4byte	0xa9
 2257 00be 07       		.byte	0x7
 2258 00bf 00       		.byte	0
 2259 00c0 07       		.uleb128 0x7
 2260 00c1 C5000000 		.4byte	0xc5
 2261 00c5 08       		.uleb128 0x8
 2262 00c6 90000000 		.4byte	0x90
 2263 00ca 05       		.uleb128 0x5
 2264 00cb 90000000 		.4byte	0x90
 2265 00cf DA000000 		.4byte	0xda
 2266 00d3 06       		.uleb128 0x6
 2267 00d4 A9000000 		.4byte	0xa9
 2268 00d8 01       		.byte	0x1
 2269 00d9 00       		.byte	0
 2270 00da 05       		.uleb128 0x5
 2271 00db 90000000 		.4byte	0x90
 2272 00df EA000000 		.4byte	0xea
 2273 00e3 06       		.uleb128 0x6
 2274 00e4 A9000000 		.4byte	0xa9
 2275 00e8 03       		.byte	0x3
 2276 00e9 00       		.byte	0
 2277 00ea 05       		.uleb128 0x5
 2278 00eb 90000000 		.4byte	0x90
 2279 00ef FA000000 		.4byte	0xfa
 2280 00f3 06       		.uleb128 0x6
 2281 00f4 A9000000 		.4byte	0xa9
 2282 00f8 02       		.byte	0x2
 2283 00f9 00       		.byte	0
 2284 00fa 09       		.uleb128 0x9
ARM GAS  /tmp/ccXTVNcx.s 			page 60


 2285 00fb F803     		.2byte	0x3f8
 2286 00fd 05       		.byte	0x5
 2287 00fe 2F       		.byte	0x2f
 2288 00ff 0F040000 		.4byte	0x40f
 2289 0103 0A       		.uleb128 0xa
 2290 0104 222D0000 		.4byte	.LASF1012
 2291 0108 05       		.byte	0x5
 2292 0109 30       		.byte	0x30
 2293 010a C5000000 		.4byte	0xc5
 2294 010e 00       		.byte	0
 2295 010f 0A       		.uleb128 0xa
 2296 0110 BB5A0000 		.4byte	.LASF1013
 2297 0114 05       		.byte	0x5
 2298 0115 31       		.byte	0x31
 2299 0116 C5000000 		.4byte	0xc5
 2300 011a 04       		.byte	0x4
 2301 011b 0A       		.uleb128 0xa
 2302 011c AD2C0000 		.4byte	.LASF1014
 2303 0120 05       		.byte	0x5
 2304 0121 32       		.byte	0x32
 2305 0122 C5000000 		.4byte	0xc5
 2306 0126 08       		.byte	0x8
 2307 0127 0A       		.uleb128 0xa
 2308 0128 DA6B0000 		.4byte	.LASF1015
 2309 012c 05       		.byte	0x5
 2310 012d 33       		.byte	0x33
 2311 012e C0000000 		.4byte	0xc0
 2312 0132 0C       		.byte	0xc
 2313 0133 0A       		.uleb128 0xa
 2314 0134 C16B0000 		.4byte	.LASF1016
 2315 0138 05       		.byte	0x5
 2316 0139 34       		.byte	0x34
 2317 013a C5000000 		.4byte	0xc5
 2318 013e 10       		.byte	0x10
 2319 013f 0A       		.uleb128 0xa
 2320 0140 48330000 		.4byte	.LASF1017
 2321 0144 05       		.byte	0x5
 2322 0145 35       		.byte	0x35
 2323 0146 C0000000 		.4byte	0xc0
 2324 014a 14       		.byte	0x14
 2325 014b 0A       		.uleb128 0xa
 2326 014c 921D0000 		.4byte	.LASF1018
 2327 0150 05       		.byte	0x5
 2328 0151 36       		.byte	0x36
 2329 0152 0F040000 		.4byte	0x40f
 2330 0156 18       		.byte	0x18
 2331 0157 0A       		.uleb128 0xa
 2332 0158 06510000 		.4byte	.LASF1019
 2333 015c 05       		.byte	0x5
 2334 015d 37       		.byte	0x37
 2335 015e C5000000 		.4byte	0xc5
 2336 0162 20       		.byte	0x20
 2337 0163 0A       		.uleb128 0xa
 2338 0164 44710000 		.4byte	.LASF1020
 2339 0168 05       		.byte	0x5
 2340 0169 38       		.byte	0x38
 2341 016a C5000000 		.4byte	0xc5
ARM GAS  /tmp/ccXTVNcx.s 			page 61


 2342 016e 24       		.byte	0x24
 2343 016f 0A       		.uleb128 0xa
 2344 0170 D7590000 		.4byte	.LASF1021
 2345 0174 05       		.byte	0x5
 2346 0175 39       		.byte	0x39
 2347 0176 C5000000 		.4byte	0xc5
 2348 017a 28       		.byte	0x28
 2349 017b 0A       		.uleb128 0xa
 2350 017c 0B630000 		.4byte	.LASF1022
 2351 0180 05       		.byte	0x5
 2352 0181 3A       		.byte	0x3a
 2353 0182 C5000000 		.4byte	0xc5
 2354 0186 2C       		.byte	0x2c
 2355 0187 0A       		.uleb128 0xa
 2356 0188 F0400000 		.4byte	.LASF1023
 2357 018c 05       		.byte	0x5
 2358 018d 3B       		.byte	0x3b
 2359 018e C5000000 		.4byte	0xc5
 2360 0192 30       		.byte	0x30
 2361 0193 0A       		.uleb128 0xa
 2362 0194 F1210000 		.4byte	.LASF1024
 2363 0198 05       		.byte	0x5
 2364 0199 3C       		.byte	0x3c
 2365 019a 19040000 		.4byte	0x419
 2366 019e 34       		.byte	0x34
 2367 019f 0A       		.uleb128 0xa
 2368 01a0 17140000 		.4byte	.LASF1025
 2369 01a4 05       		.byte	0x5
 2370 01a5 3D       		.byte	0x3d
 2371 01a6 C5000000 		.4byte	0xc5
 2372 01aa 40       		.byte	0x40
 2373 01ab 0A       		.uleb128 0xa
 2374 01ac 05460000 		.4byte	.LASF1026
 2375 01b0 05       		.byte	0x5
 2376 01b1 3E       		.byte	0x3e
 2377 01b2 C5000000 		.4byte	0xc5
 2378 01b6 44       		.byte	0x44
 2379 01b7 0A       		.uleb128 0xa
 2380 01b8 BB1A0000 		.4byte	.LASF1027
 2381 01bc 05       		.byte	0x5
 2382 01bd 3F       		.byte	0x3f
 2383 01be C5000000 		.4byte	0xc5
 2384 01c2 48       		.byte	0x48
 2385 01c3 0A       		.uleb128 0xa
 2386 01c4 F04B0000 		.4byte	.LASF1028
 2387 01c8 05       		.byte	0x5
 2388 01c9 40       		.byte	0x40
 2389 01ca C5000000 		.4byte	0xc5
 2390 01ce 4C       		.byte	0x4c
 2391 01cf 0A       		.uleb128 0xa
 2392 01d0 AA1D0000 		.4byte	.LASF1029
 2393 01d4 05       		.byte	0x5
 2394 01d5 41       		.byte	0x41
 2395 01d6 23040000 		.4byte	0x423
 2396 01da 50       		.byte	0x50
 2397 01db 0A       		.uleb128 0xa
 2398 01dc 181E0000 		.4byte	.LASF1030
ARM GAS  /tmp/ccXTVNcx.s 			page 62


 2399 01e0 05       		.byte	0x5
 2400 01e1 42       		.byte	0x42
 2401 01e2 C5000000 		.4byte	0xc5
 2402 01e6 70       		.byte	0x70
 2403 01e7 0A       		.uleb128 0xa
 2404 01e8 4D4F0000 		.4byte	.LASF1031
 2405 01ec 05       		.byte	0x5
 2406 01ed 43       		.byte	0x43
 2407 01ee C5000000 		.4byte	0xc5
 2408 01f2 74       		.byte	0x74
 2409 01f3 0A       		.uleb128 0xa
 2410 01f4 B3480000 		.4byte	.LASF1032
 2411 01f8 05       		.byte	0x5
 2412 01f9 44       		.byte	0x44
 2413 01fa C5000000 		.4byte	0xc5
 2414 01fe 78       		.byte	0x78
 2415 01ff 0A       		.uleb128 0xa
 2416 0200 B41D0000 		.4byte	.LASF1033
 2417 0204 05       		.byte	0x5
 2418 0205 45       		.byte	0x45
 2419 0206 C0000000 		.4byte	0xc0
 2420 020a 7C       		.byte	0x7c
 2421 020b 0A       		.uleb128 0xa
 2422 020c 93590000 		.4byte	.LASF1034
 2423 0210 05       		.byte	0x5
 2424 0211 46       		.byte	0x46
 2425 0212 C5000000 		.4byte	0xc5
 2426 0216 80       		.byte	0x80
 2427 0217 0A       		.uleb128 0xa
 2428 0218 BE1D0000 		.4byte	.LASF1035
 2429 021c 05       		.byte	0x5
 2430 021d 47       		.byte	0x47
 2431 021e 2D040000 		.4byte	0x42d
 2432 0222 84       		.byte	0x84
 2433 0223 0A       		.uleb128 0xa
 2434 0224 856C0000 		.4byte	.LASF1036
 2435 0228 05       		.byte	0x5
 2436 0229 48       		.byte	0x48
 2437 022a C5000000 		.4byte	0xc5
 2438 022e 94       		.byte	0x94
 2439 022f 0A       		.uleb128 0xa
 2440 0230 0D230000 		.4byte	.LASF1037
 2441 0234 05       		.byte	0x5
 2442 0235 49       		.byte	0x49
 2443 0236 C5000000 		.4byte	0xc5
 2444 023a 98       		.byte	0x98
 2445 023b 0A       		.uleb128 0xa
 2446 023c 82720000 		.4byte	.LASF1038
 2447 0240 05       		.byte	0x5
 2448 0241 4A       		.byte	0x4a
 2449 0242 C5000000 		.4byte	0xc5
 2450 0246 9C       		.byte	0x9c
 2451 0247 0A       		.uleb128 0xa
 2452 0248 C81D0000 		.4byte	.LASF1039
 2453 024c 05       		.byte	0x5
 2454 024d 4B       		.byte	0x4b
 2455 024e 37040000 		.4byte	0x437
ARM GAS  /tmp/ccXTVNcx.s 			page 63


 2456 0252 A0       		.byte	0xa0
 2457 0253 0A       		.uleb128 0xa
 2458 0254 1C760000 		.4byte	.LASF1040
 2459 0258 05       		.byte	0x5
 2460 0259 4C       		.byte	0x4c
 2461 025a C5000000 		.4byte	0xc5
 2462 025e C0       		.byte	0xc0
 2463 025f 0A       		.uleb128 0xa
 2464 0260 612F0000 		.4byte	.LASF1041
 2465 0264 05       		.byte	0x5
 2466 0265 4D       		.byte	0x4d
 2467 0266 C5000000 		.4byte	0xc5
 2468 026a C4       		.byte	0xc4
 2469 026b 0A       		.uleb128 0xa
 2470 026c A4090000 		.4byte	.LASF1042
 2471 0270 05       		.byte	0x5
 2472 0271 4E       		.byte	0x4e
 2473 0272 C5000000 		.4byte	0xc5
 2474 0276 C8       		.byte	0xc8
 2475 0277 0A       		.uleb128 0xa
 2476 0278 D21D0000 		.4byte	.LASF1043
 2477 027c 05       		.byte	0x5
 2478 027d 4F       		.byte	0x4f
 2479 027e C0000000 		.4byte	0xc0
 2480 0282 CC       		.byte	0xcc
 2481 0283 0A       		.uleb128 0xa
 2482 0284 815D0000 		.4byte	.LASF1044
 2483 0288 05       		.byte	0x5
 2484 0289 50       		.byte	0x50
 2485 028a C5000000 		.4byte	0xc5
 2486 028e D0       		.byte	0xd0
 2487 028f 0A       		.uleb128 0xa
 2488 0290 34140000 		.4byte	.LASF1045
 2489 0294 05       		.byte	0x5
 2490 0295 51       		.byte	0x51
 2491 0296 C5000000 		.4byte	0xc5
 2492 029a D4       		.byte	0xd4
 2493 029b 0A       		.uleb128 0xa
 2494 029c 096B0000 		.4byte	.LASF1046
 2495 02a0 05       		.byte	0x5
 2496 02a1 52       		.byte	0x52
 2497 02a2 C5000000 		.4byte	0xc5
 2498 02a6 D8       		.byte	0xd8
 2499 02a7 0A       		.uleb128 0xa
 2500 02a8 DC1D0000 		.4byte	.LASF1047
 2501 02ac 05       		.byte	0x5
 2502 02ad 53       		.byte	0x53
 2503 02ae C0000000 		.4byte	0xc0
 2504 02b2 DC       		.byte	0xdc
 2505 02b3 0A       		.uleb128 0xa
 2506 02b4 8C640000 		.4byte	.LASF1048
 2507 02b8 05       		.byte	0x5
 2508 02b9 54       		.byte	0x54
 2509 02ba C5000000 		.4byte	0xc5
 2510 02be E0       		.byte	0xe0
 2511 02bf 0A       		.uleb128 0xa
 2512 02c0 511B0000 		.4byte	.LASF1049
ARM GAS  /tmp/ccXTVNcx.s 			page 64


 2513 02c4 05       		.byte	0x5
 2514 02c5 55       		.byte	0x55
 2515 02c6 C5000000 		.4byte	0xc5
 2516 02ca E4       		.byte	0xe4
 2517 02cb 0A       		.uleb128 0xa
 2518 02cc 9D710000 		.4byte	.LASF1050
 2519 02d0 05       		.byte	0x5
 2520 02d1 56       		.byte	0x56
 2521 02d2 C5000000 		.4byte	0xc5
 2522 02d6 E8       		.byte	0xe8
 2523 02d7 0A       		.uleb128 0xa
 2524 02d8 E61D0000 		.4byte	.LASF1051
 2525 02dc 05       		.byte	0x5
 2526 02dd 57       		.byte	0x57
 2527 02de 51040000 		.4byte	0x451
 2528 02e2 EC       		.byte	0xec
 2529 02e3 0B       		.uleb128 0xb
 2530 02e4 87130000 		.4byte	.LASF1052
 2531 02e8 05       		.byte	0x5
 2532 02e9 58       		.byte	0x58
 2533 02ea 5B040000 		.4byte	0x45b
 2534 02ee 0001     		.2byte	0x100
 2535 02f0 0B       		.uleb128 0xb
 2536 02f1 62580000 		.4byte	.LASF1053
 2537 02f5 05       		.byte	0x5
 2538 02f6 59       		.byte	0x59
 2539 02f7 75040000 		.4byte	0x475
 2540 02fb 0801     		.2byte	0x108
 2541 02fd 0B       		.uleb128 0xb
 2542 02fe 23060000 		.4byte	.LASF1054
 2543 0302 05       		.byte	0x5
 2544 0303 5A       		.byte	0x5a
 2545 0304 C5000000 		.4byte	0xc5
 2546 0308 5001     		.2byte	0x150
 2547 030a 0B       		.uleb128 0xb
 2548 030b AA750000 		.4byte	.LASF1055
 2549 030f 05       		.byte	0x5
 2550 0310 5B       		.byte	0x5b
 2551 0311 C5000000 		.4byte	0xc5
 2552 0315 5401     		.2byte	0x154
 2553 0317 0B       		.uleb128 0xb
 2554 0318 6D580000 		.4byte	.LASF1056
 2555 031c 05       		.byte	0x5
 2556 031d 5C       		.byte	0x5c
 2557 031e 8F040000 		.4byte	0x48f
 2558 0322 5801     		.2byte	0x158
 2559 0324 0B       		.uleb128 0xb
 2560 0325 DE390000 		.4byte	.LASF1057
 2561 0329 05       		.byte	0x5
 2562 032a 5D       		.byte	0x5d
 2563 032b C5000000 		.4byte	0xc5
 2564 032f 7001     		.2byte	0x170
 2565 0331 0B       		.uleb128 0xb
 2566 0332 83690000 		.4byte	.LASF1058
 2567 0336 05       		.byte	0x5
 2568 0337 5E       		.byte	0x5e
 2569 0338 C5000000 		.4byte	0xc5
ARM GAS  /tmp/ccXTVNcx.s 			page 65


 2570 033c 7401     		.2byte	0x174
 2571 033e 0B       		.uleb128 0xb
 2572 033f C6100000 		.4byte	.LASF1059
 2573 0343 05       		.byte	0x5
 2574 0344 5F       		.byte	0x5f
 2575 0345 99040000 		.4byte	0x499
 2576 0349 7801     		.2byte	0x178
 2577 034b 0B       		.uleb128 0xb
 2578 034c 6B300000 		.4byte	.LASF1060
 2579 0350 05       		.byte	0x5
 2580 0351 60       		.byte	0x60
 2581 0352 C5000000 		.4byte	0xc5
 2582 0356 9801     		.2byte	0x198
 2583 0358 0B       		.uleb128 0xb
 2584 0359 B25A0000 		.4byte	.LASF1061
 2585 035d 05       		.byte	0x5
 2586 035e 61       		.byte	0x61
 2587 035f C0000000 		.4byte	0xc0
 2588 0363 9C01     		.2byte	0x19c
 2589 0365 0B       		.uleb128 0xb
 2590 0366 78580000 		.4byte	.LASF1062
 2591 036a 05       		.byte	0x5
 2592 036b 62       		.byte	0x62
 2593 036c AE040000 		.4byte	0x4ae
 2594 0370 A001     		.2byte	0x1a0
 2595 0372 0B       		.uleb128 0xb
 2596 0373 CA4A0000 		.4byte	.LASF1063
 2597 0377 05       		.byte	0x5
 2598 0378 63       		.byte	0x63
 2599 0379 C5000000 		.4byte	0xc5
 2600 037d 0002     		.2byte	0x200
 2601 037f 0B       		.uleb128 0xb
 2602 0380 30670000 		.4byte	.LASF1064
 2603 0384 05       		.byte	0x5
 2604 0385 64       		.byte	0x64
 2605 0386 C5000000 		.4byte	0xc5
 2606 038a 0402     		.2byte	0x204
 2607 038c 0B       		.uleb128 0xb
 2608 038d CC6B0000 		.4byte	.LASF1065
 2609 0391 05       		.byte	0x5
 2610 0392 65       		.byte	0x65
 2611 0393 C5000000 		.4byte	0xc5
 2612 0397 0802     		.2byte	0x208
 2613 0399 0B       		.uleb128 0xb
 2614 039a 596F0000 		.4byte	.LASF1066
 2615 039e 05       		.byte	0x5
 2616 039f 66       		.byte	0x66
 2617 03a0 C5000000 		.4byte	0xc5
 2618 03a4 0C02     		.2byte	0x20c
 2619 03a6 0B       		.uleb128 0xb
 2620 03a7 83580000 		.4byte	.LASF1067
 2621 03ab 05       		.byte	0x5
 2622 03ac 67       		.byte	0x67
 2623 03ad C0000000 		.4byte	0xc0
 2624 03b1 1002     		.2byte	0x210
 2625 03b3 0B       		.uleb128 0xb
 2626 03b4 3A670000 		.4byte	.LASF1068
ARM GAS  /tmp/ccXTVNcx.s 			page 66


 2627 03b8 05       		.byte	0x5
 2628 03b9 68       		.byte	0x68
 2629 03ba C5000000 		.4byte	0xc5
 2630 03be 1402     		.2byte	0x214
 2631 03c0 0B       		.uleb128 0xb
 2632 03c1 8E580000 		.4byte	.LASF1069
 2633 03c5 05       		.byte	0x5
 2634 03c6 69       		.byte	0x69
 2635 03c7 B8040000 		.4byte	0x4b8
 2636 03cb 1802     		.2byte	0x218
 2637 03cd 0B       		.uleb128 0xb
 2638 03ce 7D490000 		.4byte	.LASF1070
 2639 03d2 05       		.byte	0x5
 2640 03d3 6A       		.byte	0x6a
 2641 03d4 C5000000 		.4byte	0xc5
 2642 03d8 3002     		.2byte	0x230
 2643 03da 0B       		.uleb128 0xb
 2644 03db 905A0000 		.4byte	.LASF1071
 2645 03df 05       		.byte	0x5
 2646 03e0 6B       		.byte	0x6b
 2647 03e1 C5000000 		.4byte	0xc5
 2648 03e5 3402     		.2byte	0x234
 2649 03e7 0B       		.uleb128 0xb
 2650 03e8 F3180000 		.4byte	.LASF1072
 2651 03ec 05       		.byte	0x5
 2652 03ed 6C       		.byte	0x6c
 2653 03ee C5000000 		.4byte	0xc5
 2654 03f2 3802     		.2byte	0x238
 2655 03f4 0B       		.uleb128 0xb
 2656 03f5 99580000 		.4byte	.LASF1073
 2657 03f9 05       		.byte	0x5
 2658 03fa 6D       		.byte	0x6d
 2659 03fb D2040000 		.4byte	0x4d2
 2660 03ff 3C02     		.2byte	0x23c
 2661 0401 0B       		.uleb128 0xb
 2662 0402 11640000 		.4byte	.LASF1074
 2663 0406 05       		.byte	0x5
 2664 0407 6E       		.byte	0x6e
 2665 0408 C0000000 		.4byte	0xc0
 2666 040c F403     		.2byte	0x3f4
 2667 040e 00       		.byte	0
 2668 040f 07       		.uleb128 0x7
 2669 0410 14040000 		.4byte	0x414
 2670 0414 08       		.uleb128 0x8
 2671 0415 CA000000 		.4byte	0xca
 2672 0419 07       		.uleb128 0x7
 2673 041a 1E040000 		.4byte	0x41e
 2674 041e 08       		.uleb128 0x8
 2675 041f EA000000 		.4byte	0xea
 2676 0423 07       		.uleb128 0x7
 2677 0424 28040000 		.4byte	0x428
 2678 0428 08       		.uleb128 0x8
 2679 0429 B0000000 		.4byte	0xb0
 2680 042d 07       		.uleb128 0x7
 2681 042e 32040000 		.4byte	0x432
 2682 0432 08       		.uleb128 0x8
 2683 0433 DA000000 		.4byte	0xda
ARM GAS  /tmp/ccXTVNcx.s 			page 67


 2684 0437 07       		.uleb128 0x7
 2685 0438 3C040000 		.4byte	0x43c
 2686 043c 08       		.uleb128 0x8
 2687 043d B0000000 		.4byte	0xb0
 2688 0441 05       		.uleb128 0x5
 2689 0442 90000000 		.4byte	0x90
 2690 0446 51040000 		.4byte	0x451
 2691 044a 06       		.uleb128 0x6
 2692 044b A9000000 		.4byte	0xa9
 2693 044f 04       		.byte	0x4
 2694 0450 00       		.byte	0
 2695 0451 07       		.uleb128 0x7
 2696 0452 56040000 		.4byte	0x456
 2697 0456 08       		.uleb128 0x8
 2698 0457 41040000 		.4byte	0x441
 2699 045b 07       		.uleb128 0x7
 2700 045c 60040000 		.4byte	0x460
 2701 0460 08       		.uleb128 0x8
 2702 0461 CA000000 		.4byte	0xca
 2703 0465 05       		.uleb128 0x5
 2704 0466 90000000 		.4byte	0x90
 2705 046a 75040000 		.4byte	0x475
 2706 046e 06       		.uleb128 0x6
 2707 046f A9000000 		.4byte	0xa9
 2708 0473 11       		.byte	0x11
 2709 0474 00       		.byte	0
 2710 0475 07       		.uleb128 0x7
 2711 0476 7A040000 		.4byte	0x47a
 2712 047a 08       		.uleb128 0x8
 2713 047b 65040000 		.4byte	0x465
 2714 047f 05       		.uleb128 0x5
 2715 0480 90000000 		.4byte	0x90
 2716 0484 8F040000 		.4byte	0x48f
 2717 0488 06       		.uleb128 0x6
 2718 0489 A9000000 		.4byte	0xa9
 2719 048d 05       		.byte	0x5
 2720 048e 00       		.byte	0
 2721 048f 07       		.uleb128 0x7
 2722 0490 94040000 		.4byte	0x494
 2723 0494 08       		.uleb128 0x8
 2724 0495 7F040000 		.4byte	0x47f
 2725 0499 08       		.uleb128 0x8
 2726 049a B0000000 		.4byte	0xb0
 2727 049e 05       		.uleb128 0x5
 2728 049f 90000000 		.4byte	0x90
 2729 04a3 AE040000 		.4byte	0x4ae
 2730 04a7 06       		.uleb128 0x6
 2731 04a8 A9000000 		.4byte	0xa9
 2732 04ac 17       		.byte	0x17
 2733 04ad 00       		.byte	0
 2734 04ae 07       		.uleb128 0x7
 2735 04af B3040000 		.4byte	0x4b3
 2736 04b3 08       		.uleb128 0x8
 2737 04b4 9E040000 		.4byte	0x49e
 2738 04b8 07       		.uleb128 0x7
 2739 04b9 BD040000 		.4byte	0x4bd
 2740 04bd 08       		.uleb128 0x8
ARM GAS  /tmp/ccXTVNcx.s 			page 68


 2741 04be 7F040000 		.4byte	0x47f
 2742 04c2 05       		.uleb128 0x5
 2743 04c3 90000000 		.4byte	0x90
 2744 04c7 D2040000 		.4byte	0x4d2
 2745 04cb 06       		.uleb128 0x6
 2746 04cc A9000000 		.4byte	0xa9
 2747 04d0 6D       		.byte	0x6d
 2748 04d1 00       		.byte	0
 2749 04d2 07       		.uleb128 0x7
 2750 04d3 D7040000 		.4byte	0x4d7
 2751 04d7 08       		.uleb128 0x8
 2752 04d8 C2040000 		.4byte	0x4c2
 2753 04dc 03       		.uleb128 0x3
 2754 04dd 650F0000 		.4byte	.LASF1075
 2755 04e1 05       		.byte	0x5
 2756 04e2 6F       		.byte	0x6f
 2757 04e3 FA000000 		.4byte	0xfa
 2758 04e7 0C       		.uleb128 0xc
 2759 04e8 CC390000 		.4byte	.LASF1129
 2760 04ec 01       		.byte	0x1
 2761 04ed 02       		.byte	0x2
 2762 04ee E4       		.byte	0xe4
 2763 04ef 66050000 		.4byte	0x566
 2764 04f3 0D       		.uleb128 0xd
 2765 04f4 8F000000 		.4byte	.LASF1076
 2766 04f8 00       		.sleb128 0
 2767 04f9 0D       		.uleb128 0xd
 2768 04fa A13B0000 		.4byte	.LASF1077
 2769 04fe 01       		.sleb128 1
 2770 04ff 0D       		.uleb128 0xd
 2771 0500 51010000 		.4byte	.LASF1078
 2772 0504 02       		.sleb128 2
 2773 0505 0D       		.uleb128 0xd
 2774 0506 AB520000 		.4byte	.LASF1079
 2775 050a 03       		.sleb128 3
 2776 050b 0D       		.uleb128 0xd
 2777 050c 3B320000 		.4byte	.LASF1080
 2778 0510 04       		.sleb128 4
 2779 0511 0D       		.uleb128 0xd
 2780 0512 5E570000 		.4byte	.LASF1081
 2781 0516 05       		.sleb128 5
 2782 0517 0D       		.uleb128 0xd
 2783 0518 8E320000 		.4byte	.LASF1082
 2784 051c 06       		.sleb128 6
 2785 051d 0D       		.uleb128 0xd
 2786 051e F36E0000 		.4byte	.LASF1083
 2787 0522 07       		.sleb128 7
 2788 0523 0D       		.uleb128 0xd
 2789 0524 C1060000 		.4byte	.LASF1084
 2790 0528 08       		.sleb128 8
 2791 0529 0D       		.uleb128 0xd
 2792 052a 7C0D0000 		.4byte	.LASF1085
 2793 052e 09       		.sleb128 9
 2794 052f 0D       		.uleb128 0xd
 2795 0530 900D0000 		.4byte	.LASF1086
 2796 0534 0A       		.sleb128 10
 2797 0535 0D       		.uleb128 0xd
ARM GAS  /tmp/ccXTVNcx.s 			page 69


 2798 0536 5C230000 		.4byte	.LASF1087
 2799 053a 0B       		.sleb128 11
 2800 053b 0D       		.uleb128 0xd
 2801 053c 4B570000 		.4byte	.LASF1088
 2802 0540 0C       		.sleb128 12
 2803 0541 0D       		.uleb128 0xd
 2804 0542 D4540000 		.4byte	.LASF1089
 2805 0546 0D       		.sleb128 13
 2806 0547 0D       		.uleb128 0xd
 2807 0548 9F560000 		.4byte	.LASF1090
 2808 054c 0E       		.sleb128 14
 2809 054d 0D       		.uleb128 0xd
 2810 054e C00E0000 		.4byte	.LASF1091
 2811 0552 0F       		.sleb128 15
 2812 0553 0D       		.uleb128 0xd
 2813 0554 013A0000 		.4byte	.LASF1092
 2814 0558 10       		.sleb128 16
 2815 0559 0D       		.uleb128 0xd
 2816 055a 73790000 		.4byte	.LASF1093
 2817 055e 11       		.sleb128 17
 2818 055f 0D       		.uleb128 0xd
 2819 0560 6E230000 		.4byte	.LASF1094
 2820 0564 12       		.sleb128 18
 2821 0565 00       		.byte	0
 2822 0566 0E       		.uleb128 0xe
 2823 0567 F9050000 		.4byte	.LASF1095
 2824 056b 02       		.byte	0x2
 2825 056c 2001     		.2byte	0x120
 2826 056e E7040000 		.4byte	0x4e7
 2827 0572 07       		.uleb128 0x7
 2828 0573 90000000 		.4byte	0x90
 2829 0577 0F       		.uleb128 0xf
 2830 0578 40       		.byte	0x40
 2831 0579 06       		.byte	0x6
 2832 057a 31       		.byte	0x31
 2833 057b 1C060000 		.4byte	0x61c
 2834 057f 0A       		.uleb128 0xa
 2835 0580 79270000 		.4byte	.LASF1096
 2836 0584 06       		.byte	0x6
 2837 0585 32       		.byte	0x32
 2838 0586 C5000000 		.4byte	0xc5
 2839 058a 00       		.byte	0
 2840 058b 0A       		.uleb128 0xa
 2841 058c 550B0000 		.4byte	.LASF1097
 2842 0590 06       		.byte	0x6
 2843 0591 33       		.byte	0x33
 2844 0592 C0000000 		.4byte	0xc0
 2845 0596 04       		.byte	0x4
 2846 0597 10       		.uleb128 0x10
 2847 0598 44415400 		.ascii	"DAT\000"
 2848 059c 06       		.byte	0x6
 2849 059d 34       		.byte	0x34
 2850 059e C5000000 		.4byte	0xc5
 2851 05a2 08       		.byte	0x8
 2852 05a3 0A       		.uleb128 0xa
 2853 05a4 E2270000 		.4byte	.LASF1098
 2854 05a8 06       		.byte	0x6
ARM GAS  /tmp/ccXTVNcx.s 			page 70


 2855 05a9 35       		.byte	0x35
 2856 05aa C5000000 		.4byte	0xc5
 2857 05ae 0C       		.byte	0xc
 2858 05af 0A       		.uleb128 0xa
 2859 05b0 BE010000 		.4byte	.LASF1099
 2860 05b4 06       		.byte	0x6
 2861 05b5 36       		.byte	0x36
 2862 05b6 C5000000 		.4byte	0xc5
 2863 05ba 10       		.byte	0x10
 2864 05bb 0A       		.uleb128 0xa
 2865 05bc C3010000 		.4byte	.LASF1100
 2866 05c0 06       		.byte	0x6
 2867 05c1 37       		.byte	0x37
 2868 05c2 C5000000 		.4byte	0xc5
 2869 05c6 14       		.byte	0x14
 2870 05c7 0A       		.uleb128 0xa
 2871 05c8 CA6F0000 		.4byte	.LASF1101
 2872 05cc 06       		.byte	0x6
 2873 05cd 38       		.byte	0x38
 2874 05ce C5000000 		.4byte	0xc5
 2875 05d2 18       		.byte	0x18
 2876 05d3 0A       		.uleb128 0xa
 2877 05d4 05350000 		.4byte	.LASF1102
 2878 05d8 06       		.byte	0x6
 2879 05d9 39       		.byte	0x39
 2880 05da C5000000 		.4byte	0xc5
 2881 05de 1C       		.byte	0x1c
 2882 05df 0A       		.uleb128 0xa
 2883 05e0 E7270000 		.4byte	.LASF1103
 2884 05e4 06       		.byte	0x6
 2885 05e5 3A       		.byte	0x3a
 2886 05e6 C5000000 		.4byte	0xc5
 2887 05ea 20       		.byte	0x20
 2888 05eb 0A       		.uleb128 0xa
 2889 05ec EC270000 		.4byte	.LASF1104
 2890 05f0 06       		.byte	0x6
 2891 05f1 3B       		.byte	0x3b
 2892 05f2 C5000000 		.4byte	0xc5
 2893 05f6 24       		.byte	0x24
 2894 05f7 0A       		.uleb128 0xa
 2895 05f8 F1270000 		.4byte	.LASF1105
 2896 05fc 06       		.byte	0x6
 2897 05fd 3C       		.byte	0x3c
 2898 05fe C5000000 		.4byte	0xc5
 2899 0602 28       		.byte	0x28
 2900 0603 0A       		.uleb128 0xa
 2901 0604 E96F0000 		.4byte	.LASF1106
 2902 0608 06       		.byte	0x6
 2903 0609 3D       		.byte	0x3d
 2904 060a C0000000 		.4byte	0xc0
 2905 060e 2C       		.byte	0x2c
 2906 060f 0A       		.uleb128 0xa
 2907 0610 E3640000 		.4byte	.LASF1107
 2908 0614 06       		.byte	0x6
 2909 0615 3E       		.byte	0x3e
 2910 0616 1C060000 		.4byte	0x61c
 2911 061a 30       		.byte	0x30
ARM GAS  /tmp/ccXTVNcx.s 			page 71


 2912 061b 00       		.byte	0
 2913 061c 08       		.uleb128 0x8
 2914 061d DA000000 		.4byte	0xda
 2915 0621 03       		.uleb128 0x3
 2916 0622 9A5A0000 		.4byte	.LASF1108
 2917 0626 06       		.byte	0x6
 2918 0627 3F       		.byte	0x3f
 2919 0628 77050000 		.4byte	0x577
 2920 062c 11       		.uleb128 0x11
 2921 062d 01       		.byte	0x1
 2922 062e 06       		.byte	0x6
 2923 062f F1       		.byte	0xf1
 2924 0630 59060000 		.4byte	0x659
 2925 0634 0D       		.uleb128 0xd
 2926 0635 0E090000 		.4byte	.LASF1109
 2927 0639 00       		.sleb128 0
 2928 063a 0D       		.uleb128 0xd
 2929 063b 5D100000 		.4byte	.LASF1110
 2930 063f 01       		.sleb128 1
 2931 0640 0D       		.uleb128 0xd
 2932 0641 69100000 		.4byte	.LASF1111
 2933 0645 02       		.sleb128 2
 2934 0646 0D       		.uleb128 0xd
 2935 0647 75100000 		.4byte	.LASF1112
 2936 064b 03       		.sleb128 3
 2937 064c 0D       		.uleb128 0xd
 2938 064d 81100000 		.4byte	.LASF1113
 2939 0651 04       		.sleb128 4
 2940 0652 0D       		.uleb128 0xd
 2941 0653 3A0D0000 		.4byte	.LASF1114
 2942 0657 05       		.sleb128 5
 2943 0658 00       		.byte	0
 2944 0659 03       		.uleb128 0x3
 2945 065a 66370000 		.4byte	.LASF1115
 2946 065e 06       		.byte	0x6
 2947 065f F8       		.byte	0xf8
 2948 0660 2C060000 		.4byte	0x62c
 2949 0664 11       		.uleb128 0x11
 2950 0665 01       		.byte	0x1
 2951 0666 06       		.byte	0x6
 2952 0667 FD       		.byte	0xfd
 2953 0668 8B060000 		.4byte	0x68b
 2954 066c 0D       		.uleb128 0xd
 2955 066d F9360000 		.4byte	.LASF1116
 2956 0671 00       		.sleb128 0
 2957 0672 0D       		.uleb128 0xd
 2958 0673 736A0000 		.4byte	.LASF1117
 2959 0677 01       		.sleb128 1
 2960 0678 0D       		.uleb128 0xd
 2961 0679 14210000 		.4byte	.LASF1118
 2962 067d 02       		.sleb128 2
 2963 067e 0D       		.uleb128 0xd
 2964 067f B5350000 		.4byte	.LASF1119
 2965 0683 03       		.sleb128 3
 2966 0684 0D       		.uleb128 0xd
 2967 0685 74630000 		.4byte	.LASF1120
 2968 0689 04       		.sleb128 4
ARM GAS  /tmp/ccXTVNcx.s 			page 72


 2969 068a 00       		.byte	0
 2970 068b 0E       		.uleb128 0xe
 2971 068c FC420000 		.4byte	.LASF1121
 2972 0690 06       		.byte	0x6
 2973 0691 0301     		.2byte	0x103
 2974 0693 64060000 		.4byte	0x664
 2975 0697 12       		.uleb128 0x12
 2976 0698 18       		.byte	0x18
 2977 0699 06       		.byte	0x6
 2978 069a 0801     		.2byte	0x108
 2979 069c EF060000 		.4byte	0x6ef
 2980 06a0 13       		.uleb128 0x13
 2981 06a1 D4600000 		.4byte	.LASF1122
 2982 06a5 06       		.byte	0x6
 2983 06a6 0901     		.2byte	0x109
 2984 06a8 85000000 		.4byte	0x85
 2985 06ac 00       		.byte	0
 2986 06ad 13       		.uleb128 0x13
 2987 06ae 5E3A0000 		.4byte	.LASF1123
 2988 06b2 06       		.byte	0x6
 2989 06b3 0A01     		.2byte	0x10a
 2990 06b5 EF060000 		.4byte	0x6ef
 2991 06b9 04       		.byte	0x4
 2992 06ba 13       		.uleb128 0x13
 2993 06bb A2740000 		.4byte	.LASF1124
 2994 06bf 06       		.byte	0x6
 2995 06c0 0B01     		.2byte	0x10b
 2996 06c2 77000000 		.4byte	0x77
 2997 06c6 08       		.byte	0x8
 2998 06c7 13       		.uleb128 0x13
 2999 06c8 EA570000 		.4byte	.LASF1125
 3000 06cc 06       		.byte	0x6
 3001 06cd 0D01     		.2byte	0x10d
 3002 06cf FA060000 		.4byte	0x6fa
 3003 06d3 0C       		.byte	0xc
 3004 06d4 13       		.uleb128 0x13
 3005 06d5 A7730000 		.4byte	.LASF1126
 3006 06d9 06       		.byte	0x6
 3007 06da 0E01     		.2byte	0x10e
 3008 06dc 77000000 		.4byte	0x77
 3009 06e0 10       		.byte	0x10
 3010 06e1 13       		.uleb128 0x13
 3011 06e2 5C360000 		.4byte	.LASF1127
 3012 06e6 06       		.byte	0x6
 3013 06e7 1001     		.2byte	0x110
 3014 06e9 8B060000 		.4byte	0x68b
 3015 06ed 14       		.byte	0x14
 3016 06ee 00       		.byte	0
 3017 06ef 14       		.uleb128 0x14
 3018 06f0 04       		.byte	0x4
 3019 06f1 F5060000 		.4byte	0x6f5
 3020 06f5 07       		.uleb128 0x7
 3021 06f6 85000000 		.4byte	0x85
 3022 06fa 14       		.uleb128 0x14
 3023 06fb 04       		.byte	0x4
 3024 06fc 85000000 		.4byte	0x85
 3025 0700 0E       		.uleb128 0xe
ARM GAS  /tmp/ccXTVNcx.s 			page 73


 3026 0701 C7350000 		.4byte	.LASF1128
 3027 0705 06       		.byte	0x6
 3028 0706 1101     		.2byte	0x111
 3029 0708 97060000 		.4byte	0x697
 3030 070c 15       		.uleb128 0x15
 3031 070d 5C5A0000 		.4byte	.LASF1130
 3032 0711 01       		.byte	0x1
 3033 0712 06       		.byte	0x6
 3034 0713 1B01     		.2byte	0x11b
 3035 0715 26070000 		.4byte	0x726
 3036 0719 0D       		.uleb128 0xd
 3037 071a CF540000 		.4byte	.LASF1131
 3038 071e 00       		.sleb128 0
 3039 071f 0D       		.uleb128 0xd
 3040 0720 3D490000 		.4byte	.LASF1132
 3041 0724 01       		.sleb128 1
 3042 0725 00       		.byte	0
 3043 0726 0E       		.uleb128 0xe
 3044 0727 5B1D0000 		.4byte	.LASF1133
 3045 072b 06       		.byte	0x6
 3046 072c 1E01     		.2byte	0x11e
 3047 072e 0C070000 		.4byte	0x70c
 3048 0732 16       		.uleb128 0x16
 3049 0733 01       		.byte	0x1
 3050 0734 06       		.byte	0x6
 3051 0735 2301     		.2byte	0x123
 3052 0737 60070000 		.4byte	0x760
 3053 073b 0D       		.uleb128 0xd
 3054 073c 2A420000 		.4byte	.LASF1134
 3055 0740 01       		.sleb128 1
 3056 0741 0D       		.uleb128 0xd
 3057 0742 39420000 		.4byte	.LASF1135
 3058 0746 02       		.sleb128 2
 3059 0747 0D       		.uleb128 0xd
 3060 0748 A2490000 		.4byte	.LASF1136
 3061 074c 03       		.sleb128 3
 3062 074d 0D       		.uleb128 0xd
 3063 074e 61140000 		.4byte	.LASF1137
 3064 0752 04       		.sleb128 4
 3065 0753 0D       		.uleb128 0xd
 3066 0754 6B2D0000 		.4byte	.LASF1138
 3067 0758 05       		.sleb128 5
 3068 0759 0D       		.uleb128 0xd
 3069 075a D2350000 		.4byte	.LASF1139
 3070 075e 06       		.sleb128 6
 3071 075f 00       		.byte	0
 3072 0760 0E       		.uleb128 0xe
 3073 0761 AB4C0000 		.4byte	.LASF1140
 3074 0765 06       		.byte	0x6
 3075 0766 2A01     		.2byte	0x12a
 3076 0768 32070000 		.4byte	0x732
 3077 076c 0E       		.uleb128 0xe
 3078 076d 48610000 		.4byte	.LASF1141
 3079 0771 06       		.byte	0x6
 3080 0772 2F01     		.2byte	0x12f
 3081 0774 78070000 		.4byte	0x778
 3082 0778 14       		.uleb128 0x14
ARM GAS  /tmp/ccXTVNcx.s 			page 74


 3083 0779 04       		.byte	0x4
 3084 077a 7E070000 		.4byte	0x77e
 3085 077e 17       		.uleb128 0x17
 3086 077f 8E070000 		.4byte	0x78e
 3087 0783 18       		.uleb128 0x18
 3088 0784 26070000 		.4byte	0x726
 3089 0788 18       		.uleb128 0x18
 3090 0789 60070000 		.4byte	0x760
 3091 078d 00       		.byte	0
 3092 078e 19       		.uleb128 0x19
 3093 078f 9D4C0000 		.4byte	.LASF1147
 3094 0793 1C       		.byte	0x1c
 3095 0794 01       		.byte	0x1
 3096 0795 2E       		.byte	0x2e
 3097 0796 EE070000 		.4byte	0x7ee
 3098 079a 10       		.uleb128 0x10
 3099 079b 697000   		.ascii	"ip\000"
 3100 079e 01       		.byte	0x1
 3101 079f 2F       		.byte	0x2f
 3102 07a0 EE070000 		.4byte	0x7ee
 3103 07a4 00       		.byte	0
 3104 07a5 10       		.uleb128 0x10
 3105 07a6 636C6B00 		.ascii	"clk\000"
 3106 07aa 01       		.byte	0x1
 3107 07ab 30       		.byte	0x30
 3108 07ac 66050000 		.4byte	0x566
 3109 07b0 04       		.byte	0x4
 3110 07b1 0A       		.uleb128 0xa
 3111 07b2 A1590000 		.4byte	.LASF1142
 3112 07b6 01       		.byte	0x1
 3113 07b7 31       		.byte	0x31
 3114 07b8 6C070000 		.4byte	0x76c
 3115 07bc 08       		.byte	0x8
 3116 07bd 0A       		.uleb128 0xa
 3117 07be 82080000 		.4byte	.LASF1143
 3118 07c2 01       		.byte	0x1
 3119 07c3 32       		.byte	0x32
 3120 07c4 6C070000 		.4byte	0x76c
 3121 07c8 0C       		.byte	0xc
 3122 07c9 0A       		.uleb128 0xa
 3123 07ca C3070000 		.4byte	.LASF1144
 3124 07ce 01       		.byte	0x1
 3125 07cf 33       		.byte	0x33
 3126 07d0 F4070000 		.4byte	0x7f4
 3127 07d4 10       		.byte	0x10
 3128 07d5 0A       		.uleb128 0xa
 3129 07d6 7D390000 		.4byte	.LASF1145
 3130 07da 01       		.byte	0x1
 3131 07db 34       		.byte	0x34
 3132 07dc F4070000 		.4byte	0x7f4
 3133 07e0 14       		.byte	0x14
 3134 07e1 0A       		.uleb128 0xa
 3135 07e2 49270000 		.4byte	.LASF1146
 3136 07e6 01       		.byte	0x1
 3137 07e7 35       		.byte	0x35
 3138 07e8 90000000 		.4byte	0x90
 3139 07ec 18       		.byte	0x18
ARM GAS  /tmp/ccXTVNcx.s 			page 75


 3140 07ed 00       		.byte	0
 3141 07ee 14       		.uleb128 0x14
 3142 07ef 04       		.byte	0x4
 3143 07f0 21060000 		.4byte	0x621
 3144 07f4 14       		.uleb128 0x14
 3145 07f5 04       		.byte	0x4
 3146 07f6 00070000 		.4byte	0x700
 3147 07fa 19       		.uleb128 0x19
 3148 07fb 09430000 		.4byte	.LASF1148
 3149 07ff 08       		.byte	0x8
 3150 0800 01       		.byte	0x1
 3151 0801 39       		.byte	0x39
 3152 0802 1F080000 		.4byte	0x81f
 3153 0806 0A       		.uleb128 0xa
 3154 0807 49720000 		.4byte	.LASF1149
 3155 080b 01       		.byte	0x1
 3156 080c 3A       		.byte	0x3a
 3157 080d F4070000 		.4byte	0x7f4
 3158 0811 00       		.byte	0
 3159 0812 0A       		.uleb128 0xa
 3160 0813 7B440000 		.4byte	.LASF1150
 3161 0817 01       		.byte	0x1
 3162 0818 3B       		.byte	0x3b
 3163 0819 6C070000 		.4byte	0x76c
 3164 081d 04       		.byte	0x4
 3165 081e 00       		.byte	0
 3166 081f 1A       		.uleb128 0x1a
 3167 0820 DA560000 		.4byte	.LASF1151
 3168 0824 02       		.byte	0x2
 3169 0825 2701     		.2byte	0x127
 3170 0827 03       		.byte	0x3
 3171 0828 39080000 		.4byte	0x839
 3172 082c 1B       		.uleb128 0x1b
 3173 082d 636C6B00 		.ascii	"clk\000"
 3174 0831 02       		.byte	0x2
 3175 0832 2701     		.2byte	0x127
 3176 0834 66050000 		.4byte	0x566
 3177 0838 00       		.byte	0
 3178 0839 1A       		.uleb128 0x1a
 3179 083a EE320000 		.4byte	.LASF1152
 3180 083e 02       		.byte	0x2
 3181 083f 3101     		.2byte	0x131
 3182 0841 03       		.byte	0x3
 3183 0842 53080000 		.4byte	0x853
 3184 0846 1B       		.uleb128 0x1b
 3185 0847 636C6B00 		.ascii	"clk\000"
 3186 084b 02       		.byte	0x2
 3187 084c 3101     		.2byte	0x131
 3188 084e 66050000 		.4byte	0x566
 3189 0852 00       		.byte	0
 3190 0853 1C       		.uleb128 0x1c
 3191 0854 39020000 		.4byte	.LASF1154
 3192 0858 01       		.byte	0x1
 3193 0859 78       		.byte	0x78
 3194 085a 77000000 		.4byte	0x77
 3195 085e 03       		.byte	0x3
 3196 085f 6F080000 		.4byte	0x86f
ARM GAS  /tmp/ccXTVNcx.s 			page 76


 3197 0863 1D       		.uleb128 0x1d
 3198 0864 1E750000 		.4byte	.LASF1153
 3199 0868 01       		.byte	0x1
 3200 0869 78       		.byte	0x78
 3201 086a EE070000 		.4byte	0x7ee
 3202 086e 00       		.byte	0
 3203 086f 1C       		.uleb128 0x1c
 3204 0870 6B1C0000 		.4byte	.LASF1155
 3205 0874 01       		.byte	0x1
 3206 0875 92       		.byte	0x92
 3207 0876 77000000 		.4byte	0x77
 3208 087a 01       		.byte	0x1
 3209 087b A1080000 		.4byte	0x8a1
 3210 087f 1D       		.uleb128 0x1d
 3211 0880 AD770000 		.4byte	.LASF1156
 3212 0884 01       		.byte	0x1
 3213 0885 92       		.byte	0x92
 3214 0886 85000000 		.4byte	0x85
 3215 088a 1D       		.uleb128 0x1d
 3216 088b B3770000 		.4byte	.LASF1157
 3217 088f 01       		.byte	0x1
 3218 0890 92       		.byte	0x92
 3219 0891 85000000 		.4byte	0x85
 3220 0895 1D       		.uleb128 0x1d
 3221 0896 0E420000 		.4byte	.LASF1158
 3222 089a 01       		.byte	0x1
 3223 089b 92       		.byte	0x92
 3224 089c 85000000 		.4byte	0x85
 3225 08a0 00       		.byte	0
 3226 08a1 1C       		.uleb128 0x1c
 3227 08a2 48420000 		.4byte	.LASF1159
 3228 08a6 01       		.byte	0x1
 3229 08a7 58       		.byte	0x58
 3230 08a8 90000000 		.4byte	0x90
 3231 08ac 03       		.byte	0x3
 3232 08ad BC080000 		.4byte	0x8bc
 3233 08b1 1E       		.uleb128 0x1e
 3234 08b2 696400   		.ascii	"id\000"
 3235 08b5 01       		.byte	0x1
 3236 08b6 58       		.byte	0x58
 3237 08b7 26070000 		.4byte	0x726
 3238 08bb 00       		.byte	0
 3239 08bc 1F       		.uleb128 0x1f
 3240 08bd CC730000 		.4byte	.LASF1170
 3241 08c1 01       		.byte	0x1
 3242 08c2 F5       		.byte	0xf5
 3243 08c3 59060000 		.4byte	0x659
 3244 08c7 01       		.byte	0x1
 3245 08c8 D8080000 		.4byte	0x8d8
 3246 08cc 1D       		.uleb128 0x1d
 3247 08cd 1E750000 		.4byte	.LASF1153
 3248 08d1 01       		.byte	0x1
 3249 08d2 F5       		.byte	0xf5
 3250 08d3 EE070000 		.4byte	0x7ee
 3251 08d7 00       		.byte	0
 3252 08d8 20       		.uleb128 0x20
 3253 08d9 5B350000 		.4byte	.LASF1160
ARM GAS  /tmp/ccXTVNcx.s 			page 77


 3254 08dd 01       		.byte	0x1
 3255 08de 4D       		.byte	0x4d
 3256 08df 03       		.byte	0x3
 3257 08e0 EF080000 		.4byte	0x8ef
 3258 08e4 1E       		.uleb128 0x1e
 3259 08e5 696400   		.ascii	"id\000"
 3260 08e8 01       		.byte	0x1
 3261 08e9 4D       		.byte	0x4d
 3262 08ea 26070000 		.4byte	0x726
 3263 08ee 00       		.byte	0
 3264 08ef 20       		.uleb128 0x20
 3265 08f0 6E3B0000 		.4byte	.LASF1161
 3266 08f4 01       		.byte	0x1
 3267 08f5 52       		.byte	0x52
 3268 08f6 03       		.byte	0x3
 3269 08f7 06090000 		.4byte	0x906
 3270 08fb 1E       		.uleb128 0x1e
 3271 08fc 696400   		.ascii	"id\000"
 3272 08ff 01       		.byte	0x1
 3273 0900 52       		.byte	0x52
 3274 0901 26070000 		.4byte	0x726
 3275 0905 00       		.byte	0
 3276 0906 20       		.uleb128 0x20
 3277 0907 43030000 		.4byte	.LASF1162
 3278 090b 01       		.byte	0x1
 3279 090c 5E       		.byte	0x5e
 3280 090d 03       		.byte	0x3
 3281 090e 1E090000 		.4byte	0x91e
 3282 0912 1D       		.uleb128 0x1d
 3283 0913 1E750000 		.4byte	.LASF1153
 3284 0917 01       		.byte	0x1
 3285 0918 5E       		.byte	0x5e
 3286 0919 EE070000 		.4byte	0x7ee
 3287 091d 00       		.byte	0
 3288 091e 1C       		.uleb128 0x1c
 3289 091f 6A5D0000 		.4byte	.LASF1163
 3290 0923 01       		.byte	0x1
 3291 0924 72       		.byte	0x72
 3292 0925 77000000 		.4byte	0x77
 3293 0929 03       		.byte	0x3
 3294 092a 3A090000 		.4byte	0x93a
 3295 092e 1D       		.uleb128 0x1d
 3296 092f 1E750000 		.4byte	.LASF1153
 3297 0933 01       		.byte	0x1
 3298 0934 72       		.byte	0x72
 3299 0935 EE070000 		.4byte	0x7ee
 3300 0939 00       		.byte	0
 3301 093a 20       		.uleb128 0x20
 3302 093b C5300000 		.4byte	.LASF1164
 3303 093f 01       		.byte	0x1
 3304 0940 68       		.byte	0x68
 3305 0941 03       		.byte	0x3
 3306 0942 52090000 		.4byte	0x952
 3307 0946 1D       		.uleb128 0x1d
 3308 0947 1E750000 		.4byte	.LASF1153
 3309 094b 01       		.byte	0x1
 3310 094c 68       		.byte	0x68
ARM GAS  /tmp/ccXTVNcx.s 			page 78


 3311 094d EE070000 		.4byte	0x7ee
 3312 0951 00       		.byte	0
 3313 0952 1C       		.uleb128 0x1c
 3314 0953 0A010000 		.4byte	.LASF1165
 3315 0957 01       		.byte	0x1
 3316 0958 7E       		.byte	0x7e
 3317 0959 77000000 		.4byte	0x77
 3318 095d 03       		.byte	0x3
 3319 095e 6E090000 		.4byte	0x96e
 3320 0962 1D       		.uleb128 0x1d
 3321 0963 1E750000 		.4byte	.LASF1153
 3322 0967 01       		.byte	0x1
 3323 0968 7E       		.byte	0x7e
 3324 0969 EE070000 		.4byte	0x7ee
 3325 096d 00       		.byte	0
 3326 096e 20       		.uleb128 0x20
 3327 096f BC780000 		.4byte	.LASF1166
 3328 0973 01       		.byte	0x1
 3329 0974 84       		.byte	0x84
 3330 0975 01       		.byte	0x1
 3331 0976 BF090000 		.4byte	0x9bf
 3332 097a 1D       		.uleb128 0x1d
 3333 097b 1E750000 		.4byte	.LASF1153
 3334 097f 01       		.byte	0x1
 3335 0980 84       		.byte	0x84
 3336 0981 EE070000 		.4byte	0x7ee
 3337 0985 1E       		.uleb128 0x1e
 3338 0986 73696400 		.ascii	"sid\000"
 3339 098a 01       		.byte	0x1
 3340 098b 84       		.byte	0x84
 3341 098c 59060000 		.4byte	0x659
 3342 0990 1D       		.uleb128 0x1d
 3343 0991 9C440000 		.4byte	.LASF1167
 3344 0995 01       		.byte	0x1
 3345 0996 84       		.byte	0x84
 3346 0997 85000000 		.4byte	0x85
 3347 099b 1D       		.uleb128 0x1d
 3348 099c 0E420000 		.4byte	.LASF1158
 3349 09a0 01       		.byte	0x1
 3350 09a1 84       		.byte	0x84
 3351 09a2 85000000 		.4byte	0x85
 3352 09a6 21       		.uleb128 0x21
 3353 09a7 88320000 		.4byte	.LASF1168
 3354 09ab 01       		.byte	0x1
 3355 09ac 86       		.byte	0x86
 3356 09ad 90000000 		.4byte	0x90
 3357 09b1 22       		.uleb128 0x22
 3358 09b2 21       		.uleb128 0x21
 3359 09b3 A4350000 		.4byte	.LASF1169
 3360 09b7 01       		.byte	0x1
 3361 09b8 8C       		.byte	0x8c
 3362 09b9 BF090000 		.4byte	0x9bf
 3363 09bd 00       		.byte	0
 3364 09be 00       		.byte	0
 3365 09bf 14       		.uleb128 0x14
 3366 09c0 04       		.byte	0x4
 3367 09c1 C5000000 		.4byte	0xc5
ARM GAS  /tmp/ccXTVNcx.s 			page 79


 3368 09c5 23       		.uleb128 0x23
 3369 09c6 414A0000 		.4byte	.LASF1171
 3370 09ca 01       		.byte	0x1
 3371 09cb 2402     		.2byte	0x224
 3372 09cd 77000000 		.4byte	0x77
 3373 09d1 01       		.byte	0x1
 3374 09d2 E2090000 		.4byte	0x9e2
 3375 09d6 1B       		.uleb128 0x1b
 3376 09d7 696400   		.ascii	"id\000"
 3377 09da 01       		.byte	0x1
 3378 09db 2402     		.2byte	0x224
 3379 09dd 26070000 		.4byte	0x726
 3380 09e1 00       		.byte	0
 3381 09e2 24       		.uleb128 0x24
 3382 09e3 210B0000 		.4byte	.LASF1177
 3383 09e7 01       		.byte	0x1
 3384 09e8 4801     		.2byte	0x148
 3385 09ea 00000000 		.4byte	.LFB212
 3386 09ee 20000000 		.4byte	.LFE212-.LFB212
 3387 09f2 01       		.uleb128 0x1
 3388 09f3 9C       		.byte	0x9c
 3389 09f4 360A0000 		.4byte	0xa36
 3390 09f8 25       		.uleb128 0x25
 3391 09f9 696400   		.ascii	"id\000"
 3392 09fc 01       		.byte	0x1
 3393 09fd 4801     		.2byte	0x148
 3394 09ff 26070000 		.4byte	0x726
 3395 0a03 00000000 		.4byte	.LLST0
 3396 0a07 26       		.uleb128 0x26
 3397 0a08 7B440000 		.4byte	.LASF1150
 3398 0a0c 01       		.byte	0x1
 3399 0a0d 4801     		.2byte	0x148
 3400 0a0f 60070000 		.4byte	0x760
 3401 0a13 01       		.uleb128 0x1
 3402 0a14 51       		.byte	0x51
 3403 0a15 27       		.uleb128 0x27
 3404 0a16 69696300 		.ascii	"iic\000"
 3405 0a1a 01       		.byte	0x1
 3406 0a1b 4A01     		.2byte	0x14a
 3407 0a1d 360A0000 		.4byte	0xa36
 3408 0a21 3A000000 		.4byte	.LLST1
 3409 0a25 28       		.uleb128 0x28
 3410 0a26 C30B0000 		.4byte	.LASF1172
 3411 0a2a 01       		.byte	0x1
 3412 0a2b 4B01     		.2byte	0x14b
 3413 0a2d 3C0A0000 		.4byte	0xa3c
 3414 0a31 03       		.uleb128 0x3
 3415 0a32 72       		.byte	0x72
 3416 0a33 14       		.sleb128 20
 3417 0a34 9F       		.byte	0x9f
 3418 0a35 00       		.byte	0
 3419 0a36 14       		.uleb128 0x14
 3420 0a37 04       		.byte	0x4
 3421 0a38 8E070000 		.4byte	0x78e
 3422 0a3c 14       		.uleb128 0x14
 3423 0a3d 04       		.byte	0x4
 3424 0a3e 420A0000 		.4byte	0xa42
ARM GAS  /tmp/ccXTVNcx.s 			page 80


 3425 0a42 08       		.uleb128 0x8
 3426 0a43 8B060000 		.4byte	0x68b
 3427 0a47 29       		.uleb128 0x29
 3428 0a48 585B0000 		.4byte	.LASF1175
 3429 0a4c 01       		.byte	0x1
 3430 0a4d B0       		.byte	0xb0
 3431 0a4e 77000000 		.4byte	0x77
 3432 0a52 00000000 		.4byte	.LFB209
 3433 0a56 FC000000 		.4byte	.LFE209-.LFB209
 3434 0a5a 01       		.uleb128 0x1
 3435 0a5b 9C       		.byte	0x9c
 3436 0a5c A50A0000 		.4byte	0xaa5
 3437 0a60 2A       		.uleb128 0x2a
 3438 0a61 1E750000 		.4byte	.LASF1153
 3439 0a65 01       		.byte	0x1
 3440 0a66 B0       		.byte	0xb0
 3441 0a67 EE070000 		.4byte	0x7ee
 3442 0a6b A4000000 		.4byte	.LLST2
 3443 0a6f 2B       		.uleb128 0x2b
 3444 0a70 49720000 		.4byte	.LASF1149
 3445 0a74 01       		.byte	0x1
 3446 0a75 B0       		.byte	0xb0
 3447 0a76 F4070000 		.4byte	0x7f4
 3448 0a7a 01       		.uleb128 0x1
 3449 0a7b 51       		.byte	0x51
 3450 0a7c 2C       		.uleb128 0x2c
 3451 0a7d 084D0000 		.4byte	.LASF1173
 3452 0a81 01       		.byte	0x1
 3453 0a82 B2       		.byte	0xb2
 3454 0a83 90000000 		.4byte	0x90
 3455 0a87 F4000000 		.4byte	.LLST3
 3456 0a8b 2D       		.uleb128 0x2d
 3457 0a8c 53080000 		.4byte	0x853
 3458 0a90 00000000 		.4byte	.LBB53
 3459 0a94 00000000 		.4byte	.Ldebug_ranges0+0
 3460 0a98 01       		.byte	0x1
 3461 0a99 B4       		.byte	0xb4
 3462 0a9a 2E       		.uleb128 0x2e
 3463 0a9b 63080000 		.4byte	0x863
 3464 0a9f A4000000 		.4byte	.LLST2
 3465 0aa3 00       		.byte	0
 3466 0aa4 00       		.byte	0
 3467 0aa5 1C       		.uleb128 0x1c
 3468 0aa6 66750000 		.4byte	.LASF1174
 3469 0aaa 01       		.byte	0x1
 3470 0aab 99       		.byte	0x99
 3471 0aac 59060000 		.4byte	0x659
 3472 0ab0 01       		.byte	0x1
 3473 0ab1 CC0A0000 		.4byte	0xacc
 3474 0ab5 1D       		.uleb128 0x1d
 3475 0ab6 1E750000 		.4byte	.LASF1153
 3476 0aba 01       		.byte	0x1
 3477 0abb 99       		.byte	0x99
 3478 0abc EE070000 		.4byte	0x7ee
 3479 0ac0 1D       		.uleb128 0x1d
 3480 0ac1 D4600000 		.4byte	.LASF1122
 3481 0ac5 01       		.byte	0x1
ARM GAS  /tmp/ccXTVNcx.s 			page 81


 3482 0ac6 99       		.byte	0x99
 3483 0ac7 85000000 		.4byte	0x85
 3484 0acb 00       		.byte	0
 3485 0acc 2F       		.uleb128 0x2f
 3486 0acd BC080000 		.4byte	0x8bc
 3487 0ad1 00000000 		.4byte	.LFB210
 3488 0ad5 88000000 		.4byte	.LFE210-.LFB210
 3489 0ad9 01       		.uleb128 0x1
 3490 0ada 9C       		.byte	0x9c
 3491 0adb F50B0000 		.4byte	0xbf5
 3492 0adf 2E       		.uleb128 0x2e
 3493 0ae0 CC080000 		.4byte	0x8cc
 3494 0ae4 BA010000 		.4byte	.LLST5
 3495 0ae8 30       		.uleb128 0x30
 3496 0ae9 53080000 		.4byte	0x853
 3497 0aed 00000000 		.4byte	.LBB75
 3498 0af1 20000000 		.4byte	.Ldebug_ranges0+0x20
 3499 0af5 01       		.byte	0x1
 3500 0af6 F7       		.byte	0xf7
 3501 0af7 050B0000 		.4byte	0xb05
 3502 0afb 2E       		.uleb128 0x2e
 3503 0afc 63080000 		.4byte	0x863
 3504 0b00 BA010000 		.4byte	.LLST5
 3505 0b04 00       		.byte	0
 3506 0b05 31       		.uleb128 0x31
 3507 0b06 28000000 		.4byte	.LBB79
 3508 0b0a 60000000 		.4byte	.LBE79-.LBB79
 3509 0b0e 2E       		.uleb128 0x2e
 3510 0b0f CC080000 		.4byte	0x8cc
 3511 0b13 FF010000 		.4byte	.LLST7
 3512 0b17 32       		.uleb128 0x32
 3513 0b18 A50A0000 		.4byte	0xaa5
 3514 0b1c 2C000000 		.4byte	.LBB81
 3515 0b20 5C000000 		.4byte	.LBE81-.LBB81
 3516 0b24 01       		.byte	0x1
 3517 0b25 FE       		.byte	0xfe
 3518 0b26 2E       		.uleb128 0x2e
 3519 0b27 C00A0000 		.4byte	0xac0
 3520 0b2b 2B020000 		.4byte	.LLST8
 3521 0b2f 2E       		.uleb128 0x2e
 3522 0b30 B50A0000 		.4byte	0xab5
 3523 0b34 3E020000 		.4byte	.LLST9
 3524 0b38 30       		.uleb128 0x30
 3525 0b39 6F080000 		.4byte	0x86f
 3526 0b3d 34000000 		.4byte	.LBB83
 3527 0b41 38000000 		.4byte	.Ldebug_ranges0+0x38
 3528 0b45 01       		.byte	0x1
 3529 0b46 9E       		.byte	0x9e
 3530 0b47 670B0000 		.4byte	0xb67
 3531 0b4b 2E       		.uleb128 0x2e
 3532 0b4c 95080000 		.4byte	0x895
 3533 0b50 5F020000 		.4byte	.LLST10
 3534 0b54 2E       		.uleb128 0x2e
 3535 0b55 8A080000 		.4byte	0x88a
 3536 0b59 76020000 		.4byte	.LLST11
 3537 0b5d 2E       		.uleb128 0x2e
 3538 0b5e 7F080000 		.4byte	0x87f
ARM GAS  /tmp/ccXTVNcx.s 			page 82


 3539 0b62 89020000 		.4byte	.LLST12
 3540 0b66 00       		.byte	0
 3541 0b67 33       		.uleb128 0x33
 3542 0b68 6F080000 		.4byte	0x86f
 3543 0b6c 4E000000 		.4byte	.LBB87
 3544 0b70 0A000000 		.4byte	.LBE87-.LBB87
 3545 0b74 01       		.byte	0x1
 3546 0b75 A1       		.byte	0xa1
 3547 0b76 960B0000 		.4byte	0xb96
 3548 0b7a 2E       		.uleb128 0x2e
 3549 0b7b 95080000 		.4byte	0x895
 3550 0b7f 9C020000 		.4byte	.LLST13
 3551 0b83 2E       		.uleb128 0x2e
 3552 0b84 8A080000 		.4byte	0x88a
 3553 0b88 B3020000 		.4byte	.LLST14
 3554 0b8c 2E       		.uleb128 0x2e
 3555 0b8d 7F080000 		.4byte	0x87f
 3556 0b91 C6020000 		.4byte	.LLST15
 3557 0b95 00       		.byte	0
 3558 0b96 33       		.uleb128 0x33
 3559 0b97 6F080000 		.4byte	0x86f
 3560 0b9b 62000000 		.4byte	.LBB89
 3561 0b9f 0A000000 		.4byte	.LBE89-.LBB89
 3562 0ba3 01       		.byte	0x1
 3563 0ba4 A4       		.byte	0xa4
 3564 0ba5 C50B0000 		.4byte	0xbc5
 3565 0ba9 2E       		.uleb128 0x2e
 3566 0baa 95080000 		.4byte	0x895
 3567 0bae D9020000 		.4byte	.LLST16
 3568 0bb2 2E       		.uleb128 0x2e
 3569 0bb3 8A080000 		.4byte	0x88a
 3570 0bb7 F0020000 		.4byte	.LLST17
 3571 0bbb 2E       		.uleb128 0x2e
 3572 0bbc 7F080000 		.4byte	0x87f
 3573 0bc0 03030000 		.4byte	.LLST18
 3574 0bc4 00       		.byte	0
 3575 0bc5 32       		.uleb128 0x32
 3576 0bc6 6F080000 		.4byte	0x86f
 3577 0bca 76000000 		.4byte	.LBB91
 3578 0bce 0A000000 		.4byte	.LBE91-.LBB91
 3579 0bd2 01       		.byte	0x1
 3580 0bd3 A7       		.byte	0xa7
 3581 0bd4 34       		.uleb128 0x34
 3582 0bd5 95080000 		.4byte	0x895
 3583 0bd9 05       		.uleb128 0x5
 3584 0bda 72       		.byte	0x72
 3585 0bdb 00       		.sleb128 0
 3586 0bdc 31       		.byte	0x31
 3587 0bdd 21       		.byte	0x21
 3588 0bde 9F       		.byte	0x9f
 3589 0bdf 2E       		.uleb128 0x2e
 3590 0be0 8A080000 		.4byte	0x88a
 3591 0be4 16030000 		.4byte	.LLST19
 3592 0be8 2E       		.uleb128 0x2e
 3593 0be9 7F080000 		.4byte	0x87f
 3594 0bed 29030000 		.4byte	.LLST20
 3595 0bf1 00       		.byte	0
ARM GAS  /tmp/ccXTVNcx.s 			page 83


 3596 0bf2 00       		.byte	0
 3597 0bf3 00       		.byte	0
 3598 0bf4 00       		.byte	0
 3599 0bf5 35       		.uleb128 0x35
 3600 0bf6 4E720000 		.4byte	.LASF1176
 3601 0bfa 01       		.byte	0x1
 3602 0bfb 0601     		.2byte	0x106
 3603 0bfd 77000000 		.4byte	0x77
 3604 0c01 00000000 		.4byte	.LFB211
 3605 0c05 AC000000 		.4byte	.LFE211-.LFB211
 3606 0c09 01       		.uleb128 0x1
 3607 0c0a 9C       		.byte	0x9c
 3608 0c0b 6A0C0000 		.4byte	0xc6a
 3609 0c0f 36       		.uleb128 0x36
 3610 0c10 1E750000 		.4byte	.LASF1153
 3611 0c14 01       		.byte	0x1
 3612 0c15 0601     		.2byte	0x106
 3613 0c17 EE070000 		.4byte	0x7ee
 3614 0c1b 3C030000 		.4byte	.LLST21
 3615 0c1f 36       		.uleb128 0x36
 3616 0c20 49720000 		.4byte	.LASF1149
 3617 0c24 01       		.byte	0x1
 3618 0c25 0601     		.2byte	0x106
 3619 0c27 F4070000 		.4byte	0x7f4
 3620 0c2b 5A030000 		.4byte	.LLST22
 3621 0c2f 37       		.uleb128 0x37
 3622 0c30 084D0000 		.4byte	.LASF1173
 3623 0c34 01       		.byte	0x1
 3624 0c35 0801     		.2byte	0x108
 3625 0c37 90000000 		.4byte	0x90
 3626 0c3b 2A040000 		.4byte	.LLST23
 3627 0c3f 27       		.uleb128 0x27
 3628 0c40 72657400 		.ascii	"ret\000"
 3629 0c44 01       		.byte	0x1
 3630 0c45 0901     		.2byte	0x109
 3631 0c47 77000000 		.4byte	0x77
 3632 0c4b 8B040000 		.4byte	.LLST24
 3633 0c4f 38       		.uleb128 0x38
 3634 0c50 53080000 		.4byte	0x853
 3635 0c54 06000000 		.4byte	.LBB93
 3636 0c58 06000000 		.4byte	.LBE93-.LBB93
 3637 0c5c 01       		.byte	0x1
 3638 0c5d 0C01     		.2byte	0x10c
 3639 0c5f 2E       		.uleb128 0x2e
 3640 0c60 63080000 		.4byte	0x863
 3641 0c64 F2040000 		.4byte	.LLST25
 3642 0c68 00       		.byte	0
 3643 0c69 00       		.byte	0
 3644 0c6a 24       		.uleb128 0x24
 3645 0c6b 2E600000 		.4byte	.LASF1178
 3646 0c6f 01       		.byte	0x1
 3647 0c70 6C01     		.2byte	0x16c
 3648 0c72 00000000 		.4byte	.LFB214
 3649 0c76 2C000000 		.4byte	.LFE214-.LFB214
 3650 0c7a 01       		.uleb128 0x1
 3651 0c7b 9C       		.byte	0x9c
 3652 0c7c C30C0000 		.4byte	0xcc3
ARM GAS  /tmp/ccXTVNcx.s 			page 84


 3653 0c80 25       		.uleb128 0x25
 3654 0c81 696400   		.ascii	"id\000"
 3655 0c84 01       		.byte	0x1
 3656 0c85 6C01     		.2byte	0x16c
 3657 0c87 26070000 		.4byte	0x726
 3658 0c8b 10050000 		.4byte	.LLST26
 3659 0c8f 39       		.uleb128 0x39
 3660 0c90 D8080000 		.4byte	0x8d8
 3661 0c94 02000000 		.4byte	.LBB95
 3662 0c98 50000000 		.4byte	.Ldebug_ranges0+0x50
 3663 0c9c 01       		.byte	0x1
 3664 0c9d 6E01     		.2byte	0x16e
 3665 0c9f 2E       		.uleb128 0x2e
 3666 0ca0 E4080000 		.4byte	0x8e4
 3667 0ca4 10050000 		.4byte	.LLST26
 3668 0ca8 2D       		.uleb128 0x2d
 3669 0ca9 1F080000 		.4byte	0x81f
 3670 0cad 0C000000 		.4byte	.LBB97
 3671 0cb1 70000000 		.4byte	.Ldebug_ranges0+0x70
 3672 0cb5 01       		.byte	0x1
 3673 0cb6 4F       		.byte	0x4f
 3674 0cb7 2E       		.uleb128 0x2e
 3675 0cb8 2C080000 		.4byte	0x82c
 3676 0cbc 31050000 		.4byte	.LLST28
 3677 0cc0 00       		.byte	0
 3678 0cc1 00       		.byte	0
 3679 0cc2 00       		.byte	0
 3680 0cc3 24       		.uleb128 0x24
 3681 0cc4 FC1A0000 		.4byte	.LASF1179
 3682 0cc8 01       		.byte	0x1
 3683 0cc9 7501     		.2byte	0x175
 3684 0ccb 00000000 		.4byte	.LFB215
 3685 0ccf 2C000000 		.4byte	.LFE215-.LFB215
 3686 0cd3 01       		.uleb128 0x1
 3687 0cd4 9C       		.byte	0x9c
 3688 0cd5 140D0000 		.4byte	0xd14
 3689 0cd9 25       		.uleb128 0x25
 3690 0cda 696400   		.ascii	"id\000"
 3691 0cdd 01       		.byte	0x1
 3692 0cde 7501     		.2byte	0x175
 3693 0ce0 26070000 		.4byte	0x726
 3694 0ce4 4D050000 		.4byte	.LLST29
 3695 0ce8 39       		.uleb128 0x39
 3696 0ce9 EF080000 		.4byte	0x8ef
 3697 0ced 0C000000 		.4byte	.LBB107
 3698 0cf1 90000000 		.4byte	.Ldebug_ranges0+0x90
 3699 0cf5 01       		.byte	0x1
 3700 0cf6 7A01     		.2byte	0x17a
 3701 0cf8 3A       		.uleb128 0x3a
 3702 0cf9 FB080000 		.4byte	0x8fb
 3703 0cfd 2D       		.uleb128 0x2d
 3704 0cfe 39080000 		.4byte	0x839
 3705 0d02 0E000000 		.4byte	.LBB109
 3706 0d06 B0000000 		.4byte	.Ldebug_ranges0+0xb0
 3707 0d0a 01       		.byte	0x1
 3708 0d0b 54       		.byte	0x54
 3709 0d0c 3A       		.uleb128 0x3a
ARM GAS  /tmp/ccXTVNcx.s 			page 85


 3710 0d0d 46080000 		.4byte	0x846
 3711 0d11 00       		.byte	0
 3712 0d12 00       		.byte	0
 3713 0d13 00       		.byte	0
 3714 0d14 3B       		.uleb128 0x3b
 3715 0d15 635A0000 		.4byte	.LASF1180
 3716 0d19 01       		.byte	0x1
 3717 0d1a 7E01     		.2byte	0x17e
 3718 0d1c 00000000 		.4byte	.LFB216
 3719 0d20 2C000000 		.4byte	.LFE216-.LFB216
 3720 0d24 01       		.uleb128 0x1
 3721 0d25 9C       		.byte	0x9c
 3722 0d26 7E0D0000 		.4byte	0xd7e
 3723 0d2a 25       		.uleb128 0x25
 3724 0d2b 696400   		.ascii	"id\000"
 3725 0d2e 01       		.byte	0x1
 3726 0d2f 7E01     		.2byte	0x17e
 3727 0d31 26070000 		.4byte	0x726
 3728 0d35 6E050000 		.4byte	.LLST30
 3729 0d39 36       		.uleb128 0x36
 3730 0d3a 6B2F0000 		.4byte	.LASF1181
 3731 0d3e 01       		.byte	0x1
 3732 0d3f 7E01     		.2byte	0x17e
 3733 0d41 90000000 		.4byte	0x90
 3734 0d45 8F050000 		.4byte	.LLST31
 3735 0d49 37       		.uleb128 0x37
 3736 0d4a 9B6F0000 		.4byte	.LASF1182
 3737 0d4e 01       		.byte	0x1
 3738 0d4f 8001     		.2byte	0x180
 3739 0d51 90000000 		.4byte	0x90
 3740 0d55 BB050000 		.4byte	.LLST32
 3741 0d59 38       		.uleb128 0x38
 3742 0d5a A1080000 		.4byte	0x8a1
 3743 0d5e 06000000 		.4byte	.LBB119
 3744 0d62 04000000 		.4byte	.LBE119-.LBB119
 3745 0d66 01       		.byte	0x1
 3746 0d67 8201     		.2byte	0x182
 3747 0d69 34       		.uleb128 0x34
 3748 0d6a B1080000 		.4byte	0x8b1
 3749 0d6e 04       		.uleb128 0x4
 3750 0d6f F3       		.byte	0xf3
 3751 0d70 01       		.uleb128 0x1
 3752 0d71 50       		.byte	0x50
 3753 0d72 9F       		.byte	0x9f
 3754 0d73 3C       		.uleb128 0x3c
 3755 0d74 0A000000 		.4byte	.LVL70
 3756 0d78 03140000 		.4byte	0x1403
 3757 0d7c 00       		.byte	0
 3758 0d7d 00       		.byte	0
 3759 0d7e 3D       		.uleb128 0x3d
 3760 0d7f 18400000 		.4byte	.LASF1183
 3761 0d83 01       		.byte	0x1
 3762 0d84 8801     		.2byte	0x188
 3763 0d86 90000000 		.4byte	0x90
 3764 0d8a 00000000 		.4byte	.LFB217
 3765 0d8e 24000000 		.4byte	.LFE217-.LFB217
 3766 0d92 01       		.uleb128 0x1
ARM GAS  /tmp/ccXTVNcx.s 			page 86


 3767 0d93 9C       		.byte	0x9c
 3768 0d94 CC0D0000 		.4byte	0xdcc
 3769 0d98 25       		.uleb128 0x25
 3770 0d99 696400   		.ascii	"id\000"
 3771 0d9c 01       		.byte	0x1
 3772 0d9d 8801     		.2byte	0x188
 3773 0d9f 26070000 		.4byte	0x726
 3774 0da3 CE050000 		.4byte	.LLST33
 3775 0da7 38       		.uleb128 0x38
 3776 0da8 A1080000 		.4byte	0x8a1
 3777 0dac 04000000 		.4byte	.LBB121
 3778 0db0 04000000 		.4byte	.LBE121-.LBB121
 3779 0db4 01       		.byte	0x1
 3780 0db5 8A01     		.2byte	0x18a
 3781 0db7 34       		.uleb128 0x34
 3782 0db8 B1080000 		.4byte	0x8b1
 3783 0dbc 04       		.uleb128 0x4
 3784 0dbd F3       		.byte	0xf3
 3785 0dbe 01       		.uleb128 0x1
 3786 0dbf 50       		.byte	0x50
 3787 0dc0 9F       		.byte	0x9f
 3788 0dc1 3C       		.uleb128 0x3c
 3789 0dc2 08000000 		.4byte	.LVL75
 3790 0dc6 03140000 		.4byte	0x1403
 3791 0dca 00       		.byte	0
 3792 0dcb 00       		.byte	0
 3793 0dcc 35       		.uleb128 0x35
 3794 0dcd 88730000 		.4byte	.LASF1184
 3795 0dd1 01       		.byte	0x1
 3796 0dd2 8E01     		.2byte	0x18e
 3797 0dd4 77000000 		.4byte	0x77
 3798 0dd8 00000000 		.4byte	.LFB218
 3799 0ddc 28000000 		.4byte	.LFE218-.LFB218
 3800 0de0 01       		.uleb128 0x1
 3801 0de1 9C       		.byte	0x9c
 3802 0de2 160E0000 		.4byte	0xe16
 3803 0de6 25       		.uleb128 0x25
 3804 0de7 696400   		.ascii	"id\000"
 3805 0dea 01       		.byte	0x1
 3806 0deb 8E01     		.2byte	0x18e
 3807 0ded 26070000 		.4byte	0x726
 3808 0df1 EF050000 		.4byte	.LLST34
 3809 0df5 36       		.uleb128 0x36
 3810 0df6 7B440000 		.4byte	.LASF1150
 3811 0dfa 01       		.byte	0x1
 3812 0dfb 8E01     		.2byte	0x18e
 3813 0dfd 6C070000 		.4byte	0x76c
 3814 0e01 10060000 		.4byte	.LLST35
 3815 0e05 27       		.uleb128 0x27
 3816 0e06 69696300 		.ascii	"iic\000"
 3817 0e0a 01       		.byte	0x1
 3818 0e0b 9001     		.2byte	0x190
 3819 0e0d 360A0000 		.4byte	0xa36
 3820 0e11 3C060000 		.4byte	.LLST36
 3821 0e15 00       		.byte	0
 3822 0e16 35       		.uleb128 0x35
 3823 0e17 D0090000 		.4byte	.LASF1185
ARM GAS  /tmp/ccXTVNcx.s 			page 87


 3824 0e1b 01       		.byte	0x1
 3825 0e1c 9801     		.2byte	0x198
 3826 0e1e 6C070000 		.4byte	0x76c
 3827 0e22 00000000 		.4byte	.LFB219
 3828 0e26 14000000 		.4byte	.LFE219-.LFB219
 3829 0e2a 01       		.uleb128 0x1
 3830 0e2b 9C       		.byte	0x9c
 3831 0e2c 400E0000 		.4byte	0xe40
 3832 0e30 25       		.uleb128 0x25
 3833 0e31 696400   		.ascii	"id\000"
 3834 0e34 01       		.byte	0x1
 3835 0e35 9801     		.2byte	0x198
 3836 0e37 26070000 		.4byte	0x726
 3837 0e3b 59060000 		.4byte	.LLST37
 3838 0e3f 00       		.byte	0
 3839 0e40 35       		.uleb128 0x35
 3840 0e41 EA3E0000 		.4byte	.LASF1186
 3841 0e45 01       		.byte	0x1
 3842 0e46 9E01     		.2byte	0x19e
 3843 0e48 77000000 		.4byte	0x77
 3844 0e4c 00000000 		.4byte	.LFB220
 3845 0e50 98000000 		.4byte	.LFE220-.LFB220
 3846 0e54 01       		.uleb128 0x1
 3847 0e55 9C       		.byte	0x9c
 3848 0e56 1D0F0000 		.4byte	0xf1d
 3849 0e5a 25       		.uleb128 0x25
 3850 0e5b 696400   		.ascii	"id\000"
 3851 0e5e 01       		.byte	0x1
 3852 0e5f 9E01     		.2byte	0x19e
 3853 0e61 26070000 		.4byte	0x726
 3854 0e65 7A060000 		.4byte	.LLST38
 3855 0e69 36       		.uleb128 0x36
 3856 0e6a 49720000 		.4byte	.LASF1149
 3857 0e6e 01       		.byte	0x1
 3858 0e6f 9E01     		.2byte	0x19e
 3859 0e71 F4070000 		.4byte	0x7f4
 3860 0e75 9B060000 		.4byte	.LLST39
 3861 0e79 27       		.uleb128 0x27
 3862 0e7a 69696300 		.ascii	"iic\000"
 3863 0e7e 01       		.byte	0x1
 3864 0e7f A001     		.2byte	0x1a0
 3865 0e81 360A0000 		.4byte	0xa36
 3866 0e85 D2060000 		.4byte	.LLST40
 3867 0e89 3E       		.uleb128 0x3e
 3868 0e8a 1E090000 		.4byte	0x91e
 3869 0e8e 4C000000 		.4byte	.LBB123
 3870 0e92 06000000 		.4byte	.LBE123-.LBB123
 3871 0e96 01       		.byte	0x1
 3872 0e97 AE01     		.2byte	0x1ae
 3873 0e99 A70E0000 		.4byte	0xea7
 3874 0e9d 2E       		.uleb128 0x2e
 3875 0e9e 2E090000 		.4byte	0x92e
 3876 0ea2 19070000 		.4byte	.LLST41
 3877 0ea6 00       		.byte	0
 3878 0ea7 3E       		.uleb128 0x3e
 3879 0ea8 3A090000 		.4byte	0x93a
 3880 0eac 66000000 		.4byte	.LBB125
ARM GAS  /tmp/ccXTVNcx.s 			page 88


 3881 0eb0 08000000 		.4byte	.LBE125-.LBB125
 3882 0eb4 01       		.byte	0x1
 3883 0eb5 B201     		.2byte	0x1b2
 3884 0eb7 C50E0000 		.4byte	0xec5
 3885 0ebb 2E       		.uleb128 0x2e
 3886 0ebc 46090000 		.4byte	0x946
 3887 0ec0 2C070000 		.4byte	.LLST42
 3888 0ec4 00       		.byte	0
 3889 0ec5 3F       		.uleb128 0x3f
 3890 0ec6 06090000 		.4byte	0x906
 3891 0eca 88000000 		.4byte	.LBB127
 3892 0ece D0000000 		.4byte	.Ldebug_ranges0+0xd0
 3893 0ed2 01       		.byte	0x1
 3894 0ed3 A801     		.2byte	0x1a8
 3895 0ed5 E10E0000 		.4byte	0xee1
 3896 0ed9 34       		.uleb128 0x34
 3897 0eda 12090000 		.4byte	0x912
 3898 0ede 01       		.uleb128 0x1
 3899 0edf 53       		.byte	0x53
 3900 0ee0 00       		.byte	0
 3901 0ee1 40       		.uleb128 0x40
 3902 0ee2 22000000 		.4byte	.LVL85
 3903 0ee6 F60E0000 		.4byte	0xef6
 3904 0eea 41       		.uleb128 0x41
 3905 0eeb 01       		.uleb128 0x1
 3906 0eec 51       		.byte	0x51
 3907 0eed 01       		.uleb128 0x1
 3908 0eee 33       		.byte	0x33
 3909 0eef 41       		.uleb128 0x41
 3910 0ef0 01       		.uleb128 0x1
 3911 0ef1 50       		.byte	0x50
 3912 0ef2 02       		.uleb128 0x2
 3913 0ef3 75       		.byte	0x75
 3914 0ef4 00       		.sleb128 0
 3915 0ef5 00       		.byte	0
 3916 0ef6 40       		.uleb128 0x40
 3917 0ef7 44000000 		.4byte	.LVL86
 3918 0efb 0B0F0000 		.4byte	0xf0b
 3919 0eff 41       		.uleb128 0x41
 3920 0f00 01       		.uleb128 0x1
 3921 0f01 51       		.byte	0x51
 3922 0f02 01       		.uleb128 0x1
 3923 0f03 31       		.byte	0x31
 3924 0f04 41       		.uleb128 0x41
 3925 0f05 01       		.uleb128 0x1
 3926 0f06 50       		.byte	0x50
 3927 0f07 02       		.uleb128 0x2
 3928 0f08 75       		.byte	0x75
 3929 0f09 00       		.sleb128 0
 3930 0f0a 00       		.byte	0
 3931 0f0b 42       		.uleb128 0x42
 3932 0f0c 7C000000 		.4byte	.LVL90
 3933 0f10 41       		.uleb128 0x41
 3934 0f11 01       		.uleb128 0x1
 3935 0f12 51       		.byte	0x51
 3936 0f13 01       		.uleb128 0x1
 3937 0f14 34       		.byte	0x34
ARM GAS  /tmp/ccXTVNcx.s 			page 89


 3938 0f15 41       		.uleb128 0x41
 3939 0f16 01       		.uleb128 0x1
 3940 0f17 50       		.byte	0x50
 3941 0f18 02       		.uleb128 0x2
 3942 0f19 75       		.byte	0x75
 3943 0f1a 00       		.sleb128 0
 3944 0f1b 00       		.byte	0
 3945 0f1c 00       		.byte	0
 3946 0f1d 35       		.uleb128 0x35
 3947 0f1e DA320000 		.4byte	.LASF1187
 3948 0f22 01       		.byte	0x1
 3949 0f23 BA01     		.2byte	0x1ba
 3950 0f25 77000000 		.4byte	0x77
 3951 0f29 00000000 		.4byte	.LFB221
 3952 0f2d 2E000000 		.4byte	.LFE221-.LFB221
 3953 0f31 01       		.uleb128 0x1
 3954 0f32 9C       		.byte	0x9c
 3955 0f33 9C0F0000 		.4byte	0xf9c
 3956 0f37 25       		.uleb128 0x25
 3957 0f38 696400   		.ascii	"id\000"
 3958 0f3b 01       		.byte	0x1
 3959 0f3c BA01     		.2byte	0x1ba
 3960 0f3e 26070000 		.4byte	0x726
 3961 0f42 3F070000 		.4byte	.LLST43
 3962 0f46 36       		.uleb128 0x36
 3963 0f47 D4600000 		.4byte	.LASF1122
 3964 0f4b 01       		.byte	0x1
 3965 0f4c BA01     		.2byte	0x1ba
 3966 0f4e 85000000 		.4byte	0x85
 3967 0f52 60070000 		.4byte	.LLST44
 3968 0f56 36       		.uleb128 0x36
 3969 0f57 A7430000 		.4byte	.LASF1188
 3970 0f5b 01       		.byte	0x1
 3971 0f5c BA01     		.2byte	0x1ba
 3972 0f5e EF060000 		.4byte	0x6ef
 3973 0f62 81070000 		.4byte	.LLST45
 3974 0f66 25       		.uleb128 0x25
 3975 0f67 6C656E00 		.ascii	"len\000"
 3976 0f6b 01       		.byte	0x1
 3977 0f6c BA01     		.2byte	0x1ba
 3978 0f6e 85000000 		.4byte	0x85
 3979 0f72 A2070000 		.4byte	.LLST46
 3980 0f76 28       		.uleb128 0x28
 3981 0f77 49720000 		.4byte	.LASF1149
 3982 0f7b 01       		.byte	0x1
 3983 0f7c BC01     		.2byte	0x1bc
 3984 0f7e 00070000 		.4byte	0x700
 3985 0f82 02       		.uleb128 0x2
 3986 0f83 91       		.byte	0x91
 3987 0f84 58       		.sleb128 -40
 3988 0f85 43       		.uleb128 0x43
 3989 0f86 22000000 		.4byte	.LVL98
 3990 0f8a 400E0000 		.4byte	0xe40
 3991 0f8e 41       		.uleb128 0x41
 3992 0f8f 01       		.uleb128 0x1
 3993 0f90 51       		.byte	0x51
 3994 0f91 02       		.uleb128 0x2
ARM GAS  /tmp/ccXTVNcx.s 			page 90


 3995 0f92 7D       		.byte	0x7d
 3996 0f93 00       		.sleb128 0
 3997 0f94 41       		.uleb128 0x41
 3998 0f95 01       		.uleb128 0x1
 3999 0f96 50       		.byte	0x50
 4000 0f97 02       		.uleb128 0x2
 4001 0f98 74       		.byte	0x74
 4002 0f99 00       		.sleb128 0
 4003 0f9a 00       		.byte	0
 4004 0f9b 00       		.byte	0
 4005 0f9c 35       		.uleb128 0x35
 4006 0f9d 77520000 		.4byte	.LASF1189
 4007 0fa1 01       		.byte	0x1
 4008 0fa2 C701     		.2byte	0x1c7
 4009 0fa4 77000000 		.4byte	0x77
 4010 0fa8 00000000 		.4byte	.LFB222
 4011 0fac 36000000 		.4byte	.LFE222-.LFB222
 4012 0fb0 01       		.uleb128 0x1
 4013 0fb1 9C       		.byte	0x9c
 4014 0fb2 2A100000 		.4byte	0x102a
 4015 0fb6 25       		.uleb128 0x25
 4016 0fb7 696400   		.ascii	"id\000"
 4017 0fba 01       		.byte	0x1
 4018 0fbb C701     		.2byte	0x1c7
 4019 0fbd 26070000 		.4byte	0x726
 4020 0fc1 C3070000 		.4byte	.LLST47
 4021 0fc5 36       		.uleb128 0x36
 4022 0fc6 D4600000 		.4byte	.LASF1122
 4023 0fca 01       		.byte	0x1
 4024 0fcb C701     		.2byte	0x1c7
 4025 0fcd 85000000 		.4byte	0x85
 4026 0fd1 E4070000 		.4byte	.LLST48
 4027 0fd5 25       		.uleb128 0x25
 4028 0fd6 636D6400 		.ascii	"cmd\000"
 4029 0fda 01       		.byte	0x1
 4030 0fdb C701     		.2byte	0x1c7
 4031 0fdd 85000000 		.4byte	0x85
 4032 0fe1 05080000 		.4byte	.LLST49
 4033 0fe5 36       		.uleb128 0x36
 4034 0fe6 A7430000 		.4byte	.LASF1188
 4035 0fea 01       		.byte	0x1
 4036 0feb C701     		.2byte	0x1c7
 4037 0fed FA060000 		.4byte	0x6fa
 4038 0ff1 48080000 		.4byte	.LLST50
 4039 0ff5 44       		.uleb128 0x44
 4040 0ff6 6C656E00 		.ascii	"len\000"
 4041 0ffa 01       		.byte	0x1
 4042 0ffb C701     		.2byte	0x1c7
 4043 0ffd 77000000 		.4byte	0x77
 4044 1001 02       		.uleb128 0x2
 4045 1002 91       		.byte	0x91
 4046 1003 00       		.sleb128 0
 4047 1004 28       		.uleb128 0x28
 4048 1005 49720000 		.4byte	.LASF1149
 4049 1009 01       		.byte	0x1
 4050 100a C901     		.2byte	0x1c9
 4051 100c 00070000 		.4byte	0x700
ARM GAS  /tmp/ccXTVNcx.s 			page 91


 4052 1010 02       		.uleb128 0x2
 4053 1011 91       		.byte	0x91
 4054 1012 58       		.sleb128 -40
 4055 1013 43       		.uleb128 0x43
 4056 1014 2A000000 		.4byte	.LVL104
 4057 1018 400E0000 		.4byte	0xe40
 4058 101c 41       		.uleb128 0x41
 4059 101d 01       		.uleb128 0x1
 4060 101e 51       		.byte	0x51
 4061 101f 02       		.uleb128 0x2
 4062 1020 74       		.byte	0x74
 4063 1021 00       		.sleb128 0
 4064 1022 41       		.uleb128 0x41
 4065 1023 01       		.uleb128 0x1
 4066 1024 50       		.byte	0x50
 4067 1025 02       		.uleb128 0x2
 4068 1026 75       		.byte	0x75
 4069 1027 00       		.sleb128 0
 4070 1028 00       		.byte	0
 4071 1029 00       		.byte	0
 4072 102a 35       		.uleb128 0x35
 4073 102b 653A0000 		.4byte	.LASF1190
 4074 102f 01       		.byte	0x1
 4075 1030 D401     		.2byte	0x1d4
 4076 1032 77000000 		.4byte	0x77
 4077 1036 00000000 		.4byte	.LFB223
 4078 103a 2E000000 		.4byte	.LFE223-.LFB223
 4079 103e 01       		.uleb128 0x1
 4080 103f 9C       		.byte	0x9c
 4081 1040 A9100000 		.4byte	0x10a9
 4082 1044 25       		.uleb128 0x25
 4083 1045 696400   		.ascii	"id\000"
 4084 1048 01       		.byte	0x1
 4085 1049 D401     		.2byte	0x1d4
 4086 104b 26070000 		.4byte	0x726
 4087 104f 69080000 		.4byte	.LLST51
 4088 1053 36       		.uleb128 0x36
 4089 1054 D4600000 		.4byte	.LASF1122
 4090 1058 01       		.byte	0x1
 4091 1059 D401     		.2byte	0x1d4
 4092 105b 85000000 		.4byte	0x85
 4093 105f 8A080000 		.4byte	.LLST52
 4094 1063 36       		.uleb128 0x36
 4095 1064 A7430000 		.4byte	.LASF1188
 4096 1068 01       		.byte	0x1
 4097 1069 D401     		.2byte	0x1d4
 4098 106b FA060000 		.4byte	0x6fa
 4099 106f AB080000 		.4byte	.LLST53
 4100 1073 25       		.uleb128 0x25
 4101 1074 6C656E00 		.ascii	"len\000"
 4102 1078 01       		.byte	0x1
 4103 1079 D401     		.2byte	0x1d4
 4104 107b 77000000 		.4byte	0x77
 4105 107f CC080000 		.4byte	.LLST54
 4106 1083 28       		.uleb128 0x28
 4107 1084 49720000 		.4byte	.LASF1149
 4108 1088 01       		.byte	0x1
ARM GAS  /tmp/ccXTVNcx.s 			page 92


 4109 1089 D601     		.2byte	0x1d6
 4110 108b 00070000 		.4byte	0x700
 4111 108f 02       		.uleb128 0x2
 4112 1090 91       		.byte	0x91
 4113 1091 58       		.sleb128 -40
 4114 1092 43       		.uleb128 0x43
 4115 1093 22000000 		.4byte	.LVL109
 4116 1097 400E0000 		.4byte	0xe40
 4117 109b 41       		.uleb128 0x41
 4118 109c 01       		.uleb128 0x1
 4119 109d 51       		.byte	0x51
 4120 109e 02       		.uleb128 0x2
 4121 109f 7D       		.byte	0x7d
 4122 10a0 00       		.sleb128 0
 4123 10a1 41       		.uleb128 0x41
 4124 10a2 01       		.uleb128 0x1
 4125 10a3 50       		.byte	0x50
 4126 10a4 02       		.uleb128 0x2
 4127 10a5 74       		.byte	0x74
 4128 10a6 00       		.sleb128 0
 4129 10a7 00       		.byte	0
 4130 10a8 00       		.byte	0
 4131 10a9 35       		.uleb128 0x35
 4132 10aa 22270000 		.4byte	.LASF1191
 4133 10ae 01       		.byte	0x1
 4134 10af DF01     		.2byte	0x1df
 4135 10b1 77000000 		.4byte	0x77
 4136 10b5 00000000 		.4byte	.LFB224
 4137 10b9 20000000 		.4byte	.LFE224-.LFB224
 4138 10bd 01       		.uleb128 0x1
 4139 10be 9C       		.byte	0x9c
 4140 10bf 06110000 		.4byte	0x1106
 4141 10c3 25       		.uleb128 0x25
 4142 10c4 696400   		.ascii	"id\000"
 4143 10c7 01       		.byte	0x1
 4144 10c8 DF01     		.2byte	0x1df
 4145 10ca 26070000 		.4byte	0x726
 4146 10ce F8080000 		.4byte	.LLST55
 4147 10d2 39       		.uleb128 0x39
 4148 10d3 52090000 		.4byte	0x952
 4149 10d7 00000000 		.4byte	.LBB131
 4150 10db E8000000 		.4byte	.Ldebug_ranges0+0xe8
 4151 10df 01       		.byte	0x1
 4152 10e0 E101     		.2byte	0x1e1
 4153 10e2 2E       		.uleb128 0x2e
 4154 10e3 62090000 		.4byte	0x962
 4155 10e7 19090000 		.4byte	.LLST56
 4156 10eb 2D       		.uleb128 0x2d
 4157 10ec 53080000 		.4byte	0x853
 4158 10f0 00000000 		.4byte	.LBB133
 4159 10f4 08010000 		.4byte	.Ldebug_ranges0+0x108
 4160 10f8 01       		.byte	0x1
 4161 10f9 80       		.byte	0x80
 4162 10fa 2E       		.uleb128 0x2e
 4163 10fb 63080000 		.4byte	0x863
 4164 10ff 19090000 		.4byte	.LLST56
 4165 1103 00       		.byte	0
ARM GAS  /tmp/ccXTVNcx.s 			page 93


 4166 1104 00       		.byte	0
 4167 1105 00       		.byte	0
 4168 1106 24       		.uleb128 0x24
 4169 1107 06390000 		.4byte	.LASF1192
 4170 110b 01       		.byte	0x1
 4171 110c E501     		.2byte	0x1e5
 4172 110e 00000000 		.4byte	.LFB225
 4173 1112 28000000 		.4byte	.LFE225-.LFB225
 4174 1116 01       		.uleb128 0x1
 4175 1117 9C       		.byte	0x9c
 4176 1118 46110000 		.4byte	0x1146
 4177 111c 25       		.uleb128 0x25
 4178 111d 696400   		.ascii	"id\000"
 4179 1120 01       		.byte	0x1
 4180 1121 E501     		.2byte	0x1e5
 4181 1123 26070000 		.4byte	0x726
 4182 1127 3E090000 		.4byte	.LLST58
 4183 112b 3C       		.uleb128 0x3c
 4184 112c 16000000 		.4byte	.LVL118
 4185 1130 470A0000 		.4byte	0xa47
 4186 1134 42       		.uleb128 0x42
 4187 1135 22000000 		.4byte	.LVL119
 4188 1139 41       		.uleb128 0x41
 4189 113a 01       		.uleb128 0x1
 4190 113b 51       		.byte	0x51
 4191 113c 01       		.uleb128 0x1
 4192 113d 32       		.byte	0x32
 4193 113e 41       		.uleb128 0x41
 4194 113f 01       		.uleb128 0x1
 4195 1140 50       		.byte	0x50
 4196 1141 02       		.uleb128 0x2
 4197 1142 75       		.byte	0x75
 4198 1143 00       		.sleb128 0
 4199 1144 00       		.byte	0
 4200 1145 00       		.byte	0
 4201 1146 24       		.uleb128 0x24
 4202 1147 0D180000 		.4byte	.LASF1193
 4203 114b 01       		.byte	0x1
 4204 114c 5801     		.2byte	0x158
 4205 114e 00000000 		.4byte	.LFB213
 4206 1152 3C000000 		.4byte	.LFE213-.LFB213
 4207 1156 01       		.uleb128 0x1
 4208 1157 9C       		.byte	0x9c
 4209 1158 C8110000 		.4byte	0x11c8
 4210 115c 25       		.uleb128 0x25
 4211 115d 696400   		.ascii	"id\000"
 4212 1160 01       		.byte	0x1
 4213 1161 5801     		.2byte	0x158
 4214 1163 26070000 		.4byte	0x726
 4215 1167 5F090000 		.4byte	.LLST59
 4216 116b 36       		.uleb128 0x36
 4217 116c 7B440000 		.4byte	.LASF1150
 4218 1170 01       		.byte	0x1
 4219 1171 5801     		.2byte	0x158
 4220 1173 60070000 		.4byte	0x760
 4221 1177 99090000 		.4byte	.LLST60
 4222 117b 27       		.uleb128 0x27
ARM GAS  /tmp/ccXTVNcx.s 			page 94


 4223 117c 69696300 		.ascii	"iic\000"
 4224 1180 01       		.byte	0x1
 4225 1181 5A01     		.2byte	0x15a
 4226 1183 360A0000 		.4byte	0xa36
 4227 1187 D3090000 		.4byte	.LLST61
 4228 118b 28       		.uleb128 0x28
 4229 118c C30B0000 		.4byte	.LASF1172
 4230 1190 01       		.byte	0x1
 4231 1191 5B01     		.2byte	0x15b
 4232 1193 3C0A0000 		.4byte	0xa3c
 4233 1197 03       		.uleb128 0x3
 4234 1198 77       		.byte	0x77
 4235 1199 14       		.sleb128 20
 4236 119a 9F       		.byte	0x9f
 4237 119b 3F       		.uleb128 0x3f
 4238 119c C5090000 		.4byte	0x9c5
 4239 11a0 12000000 		.4byte	.LBB143
 4240 11a4 28010000 		.4byte	.Ldebug_ranges0+0x128
 4241 11a8 01       		.byte	0x1
 4242 11a9 6501     		.2byte	0x165
 4243 11ab B7110000 		.4byte	0x11b7
 4244 11af 34       		.uleb128 0x34
 4245 11b0 D6090000 		.4byte	0x9d6
 4246 11b4 01       		.uleb128 0x1
 4247 11b5 58       		.byte	0x58
 4248 11b6 00       		.byte	0
 4249 11b7 43       		.uleb128 0x43
 4250 11b8 34000000 		.4byte	.LVL125
 4251 11bc 06110000 		.4byte	0x1106
 4252 11c0 41       		.uleb128 0x41
 4253 11c1 01       		.uleb128 0x1
 4254 11c2 50       		.byte	0x50
 4255 11c3 02       		.uleb128 0x2
 4256 11c4 78       		.byte	0x78
 4257 11c5 00       		.sleb128 0
 4258 11c6 00       		.byte	0
 4259 11c7 00       		.byte	0
 4260 11c8 24       		.uleb128 0x24
 4261 11c9 F2470000 		.4byte	.LASF1194
 4262 11cd 01       		.byte	0x1
 4263 11ce ED01     		.2byte	0x1ed
 4264 11d0 00000000 		.4byte	.LFB226
 4265 11d4 84000000 		.4byte	.LFE226-.LFB226
 4266 11d8 01       		.uleb128 0x1
 4267 11d9 9C       		.byte	0x9c
 4268 11da C1120000 		.4byte	0x12c1
 4269 11de 25       		.uleb128 0x25
 4270 11df 696400   		.ascii	"id\000"
 4271 11e2 01       		.byte	0x1
 4272 11e3 ED01     		.2byte	0x1ed
 4273 11e5 26070000 		.4byte	0x726
 4274 11e9 3D0A0000 		.4byte	.LLST62
 4275 11ed 25       		.uleb128 0x25
 4276 11ee 73696400 		.ascii	"sid\000"
 4277 11f2 01       		.byte	0x1
 4278 11f3 EE01     		.2byte	0x1ee
 4279 11f5 59060000 		.4byte	0x659
ARM GAS  /tmp/ccXTVNcx.s 			page 95


 4280 11f9 690A0000 		.4byte	.LLST63
 4281 11fd 36       		.uleb128 0x36
 4282 11fe 49720000 		.4byte	.LASF1149
 4283 1202 01       		.byte	0x1
 4284 1203 EF01     		.2byte	0x1ef
 4285 1205 F4070000 		.4byte	0x7f4
 4286 1209 950A0000 		.4byte	.LLST64
 4287 120d 36       		.uleb128 0x36
 4288 120e 7B440000 		.4byte	.LASF1150
 4289 1212 01       		.byte	0x1
 4290 1213 F001     		.2byte	0x1f0
 4291 1215 6C070000 		.4byte	0x76c
 4292 1219 DE0A0000 		.4byte	.LLST65
 4293 121d 36       		.uleb128 0x36
 4294 121e 53330000 		.4byte	.LASF1195
 4295 1222 01       		.byte	0x1
 4296 1223 F101     		.2byte	0x1f1
 4297 1225 85000000 		.4byte	0x85
 4298 1229 270B0000 		.4byte	.LLST66
 4299 122d 27       		.uleb128 0x27
 4300 122e 69696300 		.ascii	"iic\000"
 4301 1232 01       		.byte	0x1
 4302 1233 F301     		.2byte	0x1f3
 4303 1235 360A0000 		.4byte	0xa36
 4304 1239 530B0000 		.4byte	.LLST67
 4305 123d 37       		.uleb128 0x37
 4306 123e 77290000 		.4byte	.LASF1196
 4307 1242 01       		.byte	0x1
 4308 1243 F401     		.2byte	0x1f4
 4309 1245 C1120000 		.4byte	0x12c1
 4310 1249 850B0000 		.4byte	.LLST68
 4311 124d 3F       		.uleb128 0x3f
 4312 124e 6E090000 		.4byte	0x96e
 4313 1252 20000000 		.4byte	.LBB147
 4314 1256 40010000 		.4byte	.Ldebug_ranges0+0x140
 4315 125a 01       		.byte	0x1
 4316 125b FA01     		.2byte	0x1fa
 4317 125d A8120000 		.4byte	0x12a8
 4318 1261 2E       		.uleb128 0x2e
 4319 1262 9B090000 		.4byte	0x99b
 4320 1266 C10B0000 		.4byte	.LLST69
 4321 126a 2E       		.uleb128 0x2e
 4322 126b 90090000 		.4byte	0x990
 4323 126f DF0B0000 		.4byte	.LLST70
 4324 1273 2E       		.uleb128 0x2e
 4325 1274 85090000 		.4byte	0x985
 4326 1278 FD0B0000 		.4byte	.LLST71
 4327 127c 2E       		.uleb128 0x2e
 4328 127d 7A090000 		.4byte	0x97a
 4329 1281 1B0C0000 		.4byte	.LLST72
 4330 1285 45       		.uleb128 0x45
 4331 1286 40010000 		.4byte	.Ldebug_ranges0+0x140
 4332 128a 46       		.uleb128 0x46
 4333 128b A6090000 		.4byte	0x9a6
 4334 128f 4D0C0000 		.4byte	.LLST73
 4335 1293 31       		.uleb128 0x31
 4336 1294 32000000 		.4byte	.LBB149
ARM GAS  /tmp/ccXTVNcx.s 			page 96


 4337 1298 0C000000 		.4byte	.LBE149-.LBB149
 4338 129c 46       		.uleb128 0x46
 4339 129d B2090000 		.4byte	0x9b2
 4340 12a1 6F0C0000 		.4byte	.LLST74
 4341 12a5 00       		.byte	0
 4342 12a6 00       		.byte	0
 4343 12a7 00       		.byte	0
 4344 12a8 38       		.uleb128 0x38
 4345 12a9 3A090000 		.4byte	0x93a
 4346 12ad 6C000000 		.4byte	.LBB154
 4347 12b1 18000000 		.4byte	.LBE154-.LBB154
 4348 12b5 01       		.byte	0x1
 4349 12b6 FE01     		.2byte	0x1fe
 4350 12b8 34       		.uleb128 0x34
 4351 12b9 46090000 		.4byte	0x946
 4352 12bd 01       		.uleb128 0x1
 4353 12be 54       		.byte	0x54
 4354 12bf 00       		.byte	0
 4355 12c0 00       		.byte	0
 4356 12c1 14       		.uleb128 0x14
 4357 12c2 04       		.byte	0x4
 4358 12c3 FA070000 		.4byte	0x7fa
 4359 12c7 24       		.uleb128 0x24
 4360 12c8 F6270000 		.4byte	.LASF1197
 4361 12cc 01       		.byte	0x1
 4362 12cd 0402     		.2byte	0x204
 4363 12cf 00000000 		.4byte	.LFB227
 4364 12d3 98000000 		.4byte	.LFE227-.LFB227
 4365 12d7 01       		.uleb128 0x1
 4366 12d8 9C       		.byte	0x9c
 4367 12d9 6D130000 		.4byte	0x136d
 4368 12dd 25       		.uleb128 0x25
 4369 12de 696400   		.ascii	"id\000"
 4370 12e1 01       		.byte	0x1
 4371 12e2 0402     		.2byte	0x204
 4372 12e4 26070000 		.4byte	0x726
 4373 12e8 A70C0000 		.4byte	.LLST75
 4374 12ec 27       		.uleb128 0x27
 4375 12ed 72657400 		.ascii	"ret\000"
 4376 12f1 01       		.byte	0x1
 4377 12f2 0602     		.2byte	0x206
 4378 12f4 77000000 		.4byte	0x77
 4379 12f8 E10C0000 		.4byte	.LLST76
 4380 12fc 27       		.uleb128 0x27
 4381 12fd 69696300 		.ascii	"iic\000"
 4382 1301 01       		.byte	0x1
 4383 1302 0702     		.2byte	0x207
 4384 1304 360A0000 		.4byte	0xa36
 4385 1308 FF0C0000 		.4byte	.LLST77
 4386 130c 47       		.uleb128 0x47
 4387 130d 60010000 		.4byte	.Ldebug_ranges0+0x160
 4388 1311 46130000 		.4byte	0x1346
 4389 1315 37       		.uleb128 0x37
 4390 1316 77290000 		.4byte	.LASF1196
 4391 131a 01       		.byte	0x1
 4392 131b 0B02     		.2byte	0x20b
 4393 131d C1120000 		.4byte	0x12c1
ARM GAS  /tmp/ccXTVNcx.s 			page 97


 4394 1321 700D0000 		.4byte	.LLST78
 4395 1325 27       		.uleb128 0x27
 4396 1326 73696400 		.ascii	"sid\000"
 4397 132a 01       		.byte	0x1
 4398 132b 0D02     		.2byte	0x20d
 4399 132d 59060000 		.4byte	0x659
 4400 1331 920D0000 		.4byte	.LLST79
 4401 1335 43       		.uleb128 0x43
 4402 1336 76000000 		.4byte	.LVL151
 4403 133a BC080000 		.4byte	0x8bc
 4404 133e 41       		.uleb128 0x41
 4405 133f 01       		.uleb128 0x1
 4406 1340 50       		.byte	0x50
 4407 1341 02       		.uleb128 0x2
 4408 1342 78       		.byte	0x78
 4409 1343 00       		.sleb128 0
 4410 1344 00       		.byte	0
 4411 1345 00       		.byte	0
 4412 1346 48       		.uleb128 0x48
 4413 1347 48000000 		.4byte	.LVL144
 4414 134b F50B0000 		.4byte	0xbf5
 4415 134f 60130000 		.4byte	0x1360
 4416 1353 41       		.uleb128 0x41
 4417 1354 01       		.uleb128 0x1
 4418 1355 51       		.byte	0x51
 4419 1356 02       		.uleb128 0x2
 4420 1357 77       		.byte	0x77
 4421 1358 00       		.sleb128 0
 4422 1359 41       		.uleb128 0x41
 4423 135a 01       		.uleb128 0x1
 4424 135b 50       		.byte	0x50
 4425 135c 02       		.uleb128 0x2
 4426 135d 78       		.byte	0x78
 4427 135e 00       		.sleb128 0
 4428 135f 00       		.byte	0
 4429 1360 42       		.uleb128 0x42
 4430 1361 60000000 		.4byte	.LVL146
 4431 1365 41       		.uleb128 0x41
 4432 1366 01       		.uleb128 0x1
 4433 1367 50       		.byte	0x50
 4434 1368 02       		.uleb128 0x2
 4435 1369 75       		.byte	0x75
 4436 136a 00       		.sleb128 0
 4437 136b 00       		.byte	0
 4438 136c 00       		.byte	0
 4439 136d 24       		.uleb128 0x24
 4440 136e 97790000 		.4byte	.LASF1198
 4441 1372 01       		.byte	0x1
 4442 1373 1E02     		.2byte	0x21e
 4443 1375 00000000 		.4byte	.LFB228
 4444 1379 14000000 		.4byte	.LFE228-.LFB228
 4445 137d 01       		.uleb128 0x1
 4446 137e 9C       		.byte	0x9c
 4447 137f 93130000 		.4byte	0x1393
 4448 1383 25       		.uleb128 0x25
 4449 1384 696400   		.ascii	"id\000"
 4450 1387 01       		.byte	0x1
ARM GAS  /tmp/ccXTVNcx.s 			page 98


 4451 1388 1E02     		.2byte	0x21e
 4452 138a 26070000 		.4byte	0x726
 4453 138e A50D0000 		.4byte	.LLST80
 4454 1392 00       		.byte	0
 4455 1393 2F       		.uleb128 0x2f
 4456 1394 C5090000 		.4byte	0x9c5
 4457 1398 00000000 		.4byte	.LFB229
 4458 139c 18000000 		.4byte	.LFE229-.LFB229
 4459 13a0 01       		.uleb128 0x1
 4460 13a1 9C       		.byte	0x9c
 4461 13a2 B0130000 		.4byte	0x13b0
 4462 13a6 2E       		.uleb128 0x2e
 4463 13a7 D6090000 		.4byte	0x9d6
 4464 13ab C60D0000 		.4byte	.LLST81
 4465 13af 00       		.byte	0
 4466 13b0 05       		.uleb128 0x5
 4467 13b1 8E070000 		.4byte	0x78e
 4468 13b5 C0130000 		.4byte	0x13c0
 4469 13b9 06       		.uleb128 0x6
 4470 13ba A9000000 		.4byte	0xa9
 4471 13be 00       		.byte	0
 4472 13bf 00       		.byte	0
 4473 13c0 49       		.uleb128 0x49
 4474 13c1 69326300 		.ascii	"i2c\000"
 4475 13c5 01       		.byte	0x1
 4476 13c6 3F       		.byte	0x3f
 4477 13c7 B0130000 		.4byte	0x13b0
 4478 13cb 05       		.uleb128 0x5
 4479 13cc 03       		.byte	0x3
 4480 13cd 00000000 		.4byte	i2c
 4481 13d1 05       		.uleb128 0x5
 4482 13d2 FA070000 		.4byte	0x7fa
 4483 13d6 E7130000 		.4byte	0x13e7
 4484 13da 06       		.uleb128 0x6
 4485 13db A9000000 		.4byte	0xa9
 4486 13df 00       		.byte	0
 4487 13e0 06       		.uleb128 0x6
 4488 13e1 A9000000 		.4byte	0xa9
 4489 13e5 04       		.byte	0x4
 4490 13e6 00       		.byte	0
 4491 13e7 4A       		.uleb128 0x4a
 4492 13e8 A94B0000 		.4byte	.LASF1199
 4493 13ec 01       		.byte	0x1
 4494 13ed 43       		.byte	0x43
 4495 13ee D1130000 		.4byte	0x13d1
 4496 13f2 05       		.uleb128 0x5
 4497 13f3 03       		.byte	0x3
 4498 13f4 00000000 		.4byte	i2c_slave
 4499 13f8 4B       		.uleb128 0x4b
 4500 13f9 66530000 		.4byte	.LASF1203
 4501 13fd 07       		.byte	0x7
 4502 13fe D3       		.byte	0xd3
 4503 13ff 72050000 		.4byte	0x572
 4504 1403 4C       		.uleb128 0x4c
 4505 1404 7E400000 		.4byte	.LASF1204
 4506 1408 02       		.byte	0x2
 4507 1409 1302     		.2byte	0x213
ARM GAS  /tmp/ccXTVNcx.s 			page 99


 4508 140b 90000000 		.4byte	0x90
 4509 140f 00       		.byte	0
 4510              		.section	.debug_abbrev,"",%progbits
 4511              	.Ldebug_abbrev0:
 4512 0000 01       		.uleb128 0x1
 4513 0001 11       		.uleb128 0x11
 4514 0002 01       		.byte	0x1
 4515 0003 25       		.uleb128 0x25
 4516 0004 0E       		.uleb128 0xe
 4517 0005 13       		.uleb128 0x13
 4518 0006 0B       		.uleb128 0xb
 4519 0007 03       		.uleb128 0x3
 4520 0008 0E       		.uleb128 0xe
 4521 0009 1B       		.uleb128 0x1b
 4522 000a 0E       		.uleb128 0xe
 4523 000b 55       		.uleb128 0x55
 4524 000c 17       		.uleb128 0x17
 4525 000d 11       		.uleb128 0x11
 4526 000e 01       		.uleb128 0x1
 4527 000f 10       		.uleb128 0x10
 4528 0010 17       		.uleb128 0x17
 4529 0011 9942     		.uleb128 0x2119
 4530 0013 17       		.uleb128 0x17
 4531 0014 00       		.byte	0
 4532 0015 00       		.byte	0
 4533 0016 02       		.uleb128 0x2
 4534 0017 24       		.uleb128 0x24
 4535 0018 00       		.byte	0
 4536 0019 0B       		.uleb128 0xb
 4537 001a 0B       		.uleb128 0xb
 4538 001b 3E       		.uleb128 0x3e
 4539 001c 0B       		.uleb128 0xb
 4540 001d 03       		.uleb128 0x3
 4541 001e 0E       		.uleb128 0xe
 4542 001f 00       		.byte	0
 4543 0020 00       		.byte	0
 4544 0021 03       		.uleb128 0x3
 4545 0022 16       		.uleb128 0x16
 4546 0023 00       		.byte	0
 4547 0024 03       		.uleb128 0x3
 4548 0025 0E       		.uleb128 0xe
 4549 0026 3A       		.uleb128 0x3a
 4550 0027 0B       		.uleb128 0xb
 4551 0028 3B       		.uleb128 0x3b
 4552 0029 0B       		.uleb128 0xb
 4553 002a 49       		.uleb128 0x49
 4554 002b 13       		.uleb128 0x13
 4555 002c 00       		.byte	0
 4556 002d 00       		.byte	0
 4557 002e 04       		.uleb128 0x4
 4558 002f 24       		.uleb128 0x24
 4559 0030 00       		.byte	0
 4560 0031 0B       		.uleb128 0xb
 4561 0032 0B       		.uleb128 0xb
 4562 0033 3E       		.uleb128 0x3e
 4563 0034 0B       		.uleb128 0xb
 4564 0035 03       		.uleb128 0x3
ARM GAS  /tmp/ccXTVNcx.s 			page 100


 4565 0036 08       		.uleb128 0x8
 4566 0037 00       		.byte	0
 4567 0038 00       		.byte	0
 4568 0039 05       		.uleb128 0x5
 4569 003a 01       		.uleb128 0x1
 4570 003b 01       		.byte	0x1
 4571 003c 49       		.uleb128 0x49
 4572 003d 13       		.uleb128 0x13
 4573 003e 01       		.uleb128 0x1
 4574 003f 13       		.uleb128 0x13
 4575 0040 00       		.byte	0
 4576 0041 00       		.byte	0
 4577 0042 06       		.uleb128 0x6
 4578 0043 21       		.uleb128 0x21
 4579 0044 00       		.byte	0
 4580 0045 49       		.uleb128 0x49
 4581 0046 13       		.uleb128 0x13
 4582 0047 2F       		.uleb128 0x2f
 4583 0048 0B       		.uleb128 0xb
 4584 0049 00       		.byte	0
 4585 004a 00       		.byte	0
 4586 004b 07       		.uleb128 0x7
 4587 004c 26       		.uleb128 0x26
 4588 004d 00       		.byte	0
 4589 004e 49       		.uleb128 0x49
 4590 004f 13       		.uleb128 0x13
 4591 0050 00       		.byte	0
 4592 0051 00       		.byte	0
 4593 0052 08       		.uleb128 0x8
 4594 0053 35       		.uleb128 0x35
 4595 0054 00       		.byte	0
 4596 0055 49       		.uleb128 0x49
 4597 0056 13       		.uleb128 0x13
 4598 0057 00       		.byte	0
 4599 0058 00       		.byte	0
 4600 0059 09       		.uleb128 0x9
 4601 005a 13       		.uleb128 0x13
 4602 005b 01       		.byte	0x1
 4603 005c 0B       		.uleb128 0xb
 4604 005d 05       		.uleb128 0x5
 4605 005e 3A       		.uleb128 0x3a
 4606 005f 0B       		.uleb128 0xb
 4607 0060 3B       		.uleb128 0x3b
 4608 0061 0B       		.uleb128 0xb
 4609 0062 01       		.uleb128 0x1
 4610 0063 13       		.uleb128 0x13
 4611 0064 00       		.byte	0
 4612 0065 00       		.byte	0
 4613 0066 0A       		.uleb128 0xa
 4614 0067 0D       		.uleb128 0xd
 4615 0068 00       		.byte	0
 4616 0069 03       		.uleb128 0x3
 4617 006a 0E       		.uleb128 0xe
 4618 006b 3A       		.uleb128 0x3a
 4619 006c 0B       		.uleb128 0xb
 4620 006d 3B       		.uleb128 0x3b
 4621 006e 0B       		.uleb128 0xb
ARM GAS  /tmp/ccXTVNcx.s 			page 101


 4622 006f 49       		.uleb128 0x49
 4623 0070 13       		.uleb128 0x13
 4624 0071 38       		.uleb128 0x38
 4625 0072 0B       		.uleb128 0xb
 4626 0073 00       		.byte	0
 4627 0074 00       		.byte	0
 4628 0075 0B       		.uleb128 0xb
 4629 0076 0D       		.uleb128 0xd
 4630 0077 00       		.byte	0
 4631 0078 03       		.uleb128 0x3
 4632 0079 0E       		.uleb128 0xe
 4633 007a 3A       		.uleb128 0x3a
 4634 007b 0B       		.uleb128 0xb
 4635 007c 3B       		.uleb128 0x3b
 4636 007d 0B       		.uleb128 0xb
 4637 007e 49       		.uleb128 0x49
 4638 007f 13       		.uleb128 0x13
 4639 0080 38       		.uleb128 0x38
 4640 0081 05       		.uleb128 0x5
 4641 0082 00       		.byte	0
 4642 0083 00       		.byte	0
 4643 0084 0C       		.uleb128 0xc
 4644 0085 04       		.uleb128 0x4
 4645 0086 01       		.byte	0x1
 4646 0087 03       		.uleb128 0x3
 4647 0088 0E       		.uleb128 0xe
 4648 0089 0B       		.uleb128 0xb
 4649 008a 0B       		.uleb128 0xb
 4650 008b 3A       		.uleb128 0x3a
 4651 008c 0B       		.uleb128 0xb
 4652 008d 3B       		.uleb128 0x3b
 4653 008e 0B       		.uleb128 0xb
 4654 008f 01       		.uleb128 0x1
 4655 0090 13       		.uleb128 0x13
 4656 0091 00       		.byte	0
 4657 0092 00       		.byte	0
 4658 0093 0D       		.uleb128 0xd
 4659 0094 28       		.uleb128 0x28
 4660 0095 00       		.byte	0
 4661 0096 03       		.uleb128 0x3
 4662 0097 0E       		.uleb128 0xe
 4663 0098 1C       		.uleb128 0x1c
 4664 0099 0D       		.uleb128 0xd
 4665 009a 00       		.byte	0
 4666 009b 00       		.byte	0
 4667 009c 0E       		.uleb128 0xe
 4668 009d 16       		.uleb128 0x16
 4669 009e 00       		.byte	0
 4670 009f 03       		.uleb128 0x3
 4671 00a0 0E       		.uleb128 0xe
 4672 00a1 3A       		.uleb128 0x3a
 4673 00a2 0B       		.uleb128 0xb
 4674 00a3 3B       		.uleb128 0x3b
 4675 00a4 05       		.uleb128 0x5
 4676 00a5 49       		.uleb128 0x49
 4677 00a6 13       		.uleb128 0x13
 4678 00a7 00       		.byte	0
ARM GAS  /tmp/ccXTVNcx.s 			page 102


 4679 00a8 00       		.byte	0
 4680 00a9 0F       		.uleb128 0xf
 4681 00aa 13       		.uleb128 0x13
 4682 00ab 01       		.byte	0x1
 4683 00ac 0B       		.uleb128 0xb
 4684 00ad 0B       		.uleb128 0xb
 4685 00ae 3A       		.uleb128 0x3a
 4686 00af 0B       		.uleb128 0xb
 4687 00b0 3B       		.uleb128 0x3b
 4688 00b1 0B       		.uleb128 0xb
 4689 00b2 01       		.uleb128 0x1
 4690 00b3 13       		.uleb128 0x13
 4691 00b4 00       		.byte	0
 4692 00b5 00       		.byte	0
 4693 00b6 10       		.uleb128 0x10
 4694 00b7 0D       		.uleb128 0xd
 4695 00b8 00       		.byte	0
 4696 00b9 03       		.uleb128 0x3
 4697 00ba 08       		.uleb128 0x8
 4698 00bb 3A       		.uleb128 0x3a
 4699 00bc 0B       		.uleb128 0xb
 4700 00bd 3B       		.uleb128 0x3b
 4701 00be 0B       		.uleb128 0xb
 4702 00bf 49       		.uleb128 0x49
 4703 00c0 13       		.uleb128 0x13
 4704 00c1 38       		.uleb128 0x38
 4705 00c2 0B       		.uleb128 0xb
 4706 00c3 00       		.byte	0
 4707 00c4 00       		.byte	0
 4708 00c5 11       		.uleb128 0x11
 4709 00c6 04       		.uleb128 0x4
 4710 00c7 01       		.byte	0x1
 4711 00c8 0B       		.uleb128 0xb
 4712 00c9 0B       		.uleb128 0xb
 4713 00ca 3A       		.uleb128 0x3a
 4714 00cb 0B       		.uleb128 0xb
 4715 00cc 3B       		.uleb128 0x3b
 4716 00cd 0B       		.uleb128 0xb
 4717 00ce 01       		.uleb128 0x1
 4718 00cf 13       		.uleb128 0x13
 4719 00d0 00       		.byte	0
 4720 00d1 00       		.byte	0
 4721 00d2 12       		.uleb128 0x12
 4722 00d3 13       		.uleb128 0x13
 4723 00d4 01       		.byte	0x1
 4724 00d5 0B       		.uleb128 0xb
 4725 00d6 0B       		.uleb128 0xb
 4726 00d7 3A       		.uleb128 0x3a
 4727 00d8 0B       		.uleb128 0xb
 4728 00d9 3B       		.uleb128 0x3b
 4729 00da 05       		.uleb128 0x5
 4730 00db 01       		.uleb128 0x1
 4731 00dc 13       		.uleb128 0x13
 4732 00dd 00       		.byte	0
 4733 00de 00       		.byte	0
 4734 00df 13       		.uleb128 0x13
 4735 00e0 0D       		.uleb128 0xd
ARM GAS  /tmp/ccXTVNcx.s 			page 103


 4736 00e1 00       		.byte	0
 4737 00e2 03       		.uleb128 0x3
 4738 00e3 0E       		.uleb128 0xe
 4739 00e4 3A       		.uleb128 0x3a
 4740 00e5 0B       		.uleb128 0xb
 4741 00e6 3B       		.uleb128 0x3b
 4742 00e7 05       		.uleb128 0x5
 4743 00e8 49       		.uleb128 0x49
 4744 00e9 13       		.uleb128 0x13
 4745 00ea 38       		.uleb128 0x38
 4746 00eb 0B       		.uleb128 0xb
 4747 00ec 00       		.byte	0
 4748 00ed 00       		.byte	0
 4749 00ee 14       		.uleb128 0x14
 4750 00ef 0F       		.uleb128 0xf
 4751 00f0 00       		.byte	0
 4752 00f1 0B       		.uleb128 0xb
 4753 00f2 0B       		.uleb128 0xb
 4754 00f3 49       		.uleb128 0x49
 4755 00f4 13       		.uleb128 0x13
 4756 00f5 00       		.byte	0
 4757 00f6 00       		.byte	0
 4758 00f7 15       		.uleb128 0x15
 4759 00f8 04       		.uleb128 0x4
 4760 00f9 01       		.byte	0x1
 4761 00fa 03       		.uleb128 0x3
 4762 00fb 0E       		.uleb128 0xe
 4763 00fc 0B       		.uleb128 0xb
 4764 00fd 0B       		.uleb128 0xb
 4765 00fe 3A       		.uleb128 0x3a
 4766 00ff 0B       		.uleb128 0xb
 4767 0100 3B       		.uleb128 0x3b
 4768 0101 05       		.uleb128 0x5
 4769 0102 01       		.uleb128 0x1
 4770 0103 13       		.uleb128 0x13
 4771 0104 00       		.byte	0
 4772 0105 00       		.byte	0
 4773 0106 16       		.uleb128 0x16
 4774 0107 04       		.uleb128 0x4
 4775 0108 01       		.byte	0x1
 4776 0109 0B       		.uleb128 0xb
 4777 010a 0B       		.uleb128 0xb
 4778 010b 3A       		.uleb128 0x3a
 4779 010c 0B       		.uleb128 0xb
 4780 010d 3B       		.uleb128 0x3b
 4781 010e 05       		.uleb128 0x5
 4782 010f 01       		.uleb128 0x1
 4783 0110 13       		.uleb128 0x13
 4784 0111 00       		.byte	0
 4785 0112 00       		.byte	0
 4786 0113 17       		.uleb128 0x17
 4787 0114 15       		.uleb128 0x15
 4788 0115 01       		.byte	0x1
 4789 0116 27       		.uleb128 0x27
 4790 0117 19       		.uleb128 0x19
 4791 0118 01       		.uleb128 0x1
 4792 0119 13       		.uleb128 0x13
ARM GAS  /tmp/ccXTVNcx.s 			page 104


 4793 011a 00       		.byte	0
 4794 011b 00       		.byte	0
 4795 011c 18       		.uleb128 0x18
 4796 011d 05       		.uleb128 0x5
 4797 011e 00       		.byte	0
 4798 011f 49       		.uleb128 0x49
 4799 0120 13       		.uleb128 0x13
 4800 0121 00       		.byte	0
 4801 0122 00       		.byte	0
 4802 0123 19       		.uleb128 0x19
 4803 0124 13       		.uleb128 0x13
 4804 0125 01       		.byte	0x1
 4805 0126 03       		.uleb128 0x3
 4806 0127 0E       		.uleb128 0xe
 4807 0128 0B       		.uleb128 0xb
 4808 0129 0B       		.uleb128 0xb
 4809 012a 3A       		.uleb128 0x3a
 4810 012b 0B       		.uleb128 0xb
 4811 012c 3B       		.uleb128 0x3b
 4812 012d 0B       		.uleb128 0xb
 4813 012e 01       		.uleb128 0x1
 4814 012f 13       		.uleb128 0x13
 4815 0130 00       		.byte	0
 4816 0131 00       		.byte	0
 4817 0132 1A       		.uleb128 0x1a
 4818 0133 2E       		.uleb128 0x2e
 4819 0134 01       		.byte	0x1
 4820 0135 03       		.uleb128 0x3
 4821 0136 0E       		.uleb128 0xe
 4822 0137 3A       		.uleb128 0x3a
 4823 0138 0B       		.uleb128 0xb
 4824 0139 3B       		.uleb128 0x3b
 4825 013a 05       		.uleb128 0x5
 4826 013b 27       		.uleb128 0x27
 4827 013c 19       		.uleb128 0x19
 4828 013d 20       		.uleb128 0x20
 4829 013e 0B       		.uleb128 0xb
 4830 013f 01       		.uleb128 0x1
 4831 0140 13       		.uleb128 0x13
 4832 0141 00       		.byte	0
 4833 0142 00       		.byte	0
 4834 0143 1B       		.uleb128 0x1b
 4835 0144 05       		.uleb128 0x5
 4836 0145 00       		.byte	0
 4837 0146 03       		.uleb128 0x3
 4838 0147 08       		.uleb128 0x8
 4839 0148 3A       		.uleb128 0x3a
 4840 0149 0B       		.uleb128 0xb
 4841 014a 3B       		.uleb128 0x3b
 4842 014b 05       		.uleb128 0x5
 4843 014c 49       		.uleb128 0x49
 4844 014d 13       		.uleb128 0x13
 4845 014e 00       		.byte	0
 4846 014f 00       		.byte	0
 4847 0150 1C       		.uleb128 0x1c
 4848 0151 2E       		.uleb128 0x2e
 4849 0152 01       		.byte	0x1
ARM GAS  /tmp/ccXTVNcx.s 			page 105


 4850 0153 03       		.uleb128 0x3
 4851 0154 0E       		.uleb128 0xe
 4852 0155 3A       		.uleb128 0x3a
 4853 0156 0B       		.uleb128 0xb
 4854 0157 3B       		.uleb128 0x3b
 4855 0158 0B       		.uleb128 0xb
 4856 0159 27       		.uleb128 0x27
 4857 015a 19       		.uleb128 0x19
 4858 015b 49       		.uleb128 0x49
 4859 015c 13       		.uleb128 0x13
 4860 015d 20       		.uleb128 0x20
 4861 015e 0B       		.uleb128 0xb
 4862 015f 01       		.uleb128 0x1
 4863 0160 13       		.uleb128 0x13
 4864 0161 00       		.byte	0
 4865 0162 00       		.byte	0
 4866 0163 1D       		.uleb128 0x1d
 4867 0164 05       		.uleb128 0x5
 4868 0165 00       		.byte	0
 4869 0166 03       		.uleb128 0x3
 4870 0167 0E       		.uleb128 0xe
 4871 0168 3A       		.uleb128 0x3a
 4872 0169 0B       		.uleb128 0xb
 4873 016a 3B       		.uleb128 0x3b
 4874 016b 0B       		.uleb128 0xb
 4875 016c 49       		.uleb128 0x49
 4876 016d 13       		.uleb128 0x13
 4877 016e 00       		.byte	0
 4878 016f 00       		.byte	0
 4879 0170 1E       		.uleb128 0x1e
 4880 0171 05       		.uleb128 0x5
 4881 0172 00       		.byte	0
 4882 0173 03       		.uleb128 0x3
 4883 0174 08       		.uleb128 0x8
 4884 0175 3A       		.uleb128 0x3a
 4885 0176 0B       		.uleb128 0xb
 4886 0177 3B       		.uleb128 0x3b
 4887 0178 0B       		.uleb128 0xb
 4888 0179 49       		.uleb128 0x49
 4889 017a 13       		.uleb128 0x13
 4890 017b 00       		.byte	0
 4891 017c 00       		.byte	0
 4892 017d 1F       		.uleb128 0x1f
 4893 017e 2E       		.uleb128 0x2e
 4894 017f 01       		.byte	0x1
 4895 0180 3F       		.uleb128 0x3f
 4896 0181 19       		.uleb128 0x19
 4897 0182 03       		.uleb128 0x3
 4898 0183 0E       		.uleb128 0xe
 4899 0184 3A       		.uleb128 0x3a
 4900 0185 0B       		.uleb128 0xb
 4901 0186 3B       		.uleb128 0x3b
 4902 0187 0B       		.uleb128 0xb
 4903 0188 27       		.uleb128 0x27
 4904 0189 19       		.uleb128 0x19
 4905 018a 49       		.uleb128 0x49
 4906 018b 13       		.uleb128 0x13
ARM GAS  /tmp/ccXTVNcx.s 			page 106


 4907 018c 20       		.uleb128 0x20
 4908 018d 0B       		.uleb128 0xb
 4909 018e 01       		.uleb128 0x1
 4910 018f 13       		.uleb128 0x13
 4911 0190 00       		.byte	0
 4912 0191 00       		.byte	0
 4913 0192 20       		.uleb128 0x20
 4914 0193 2E       		.uleb128 0x2e
 4915 0194 01       		.byte	0x1
 4916 0195 03       		.uleb128 0x3
 4917 0196 0E       		.uleb128 0xe
 4918 0197 3A       		.uleb128 0x3a
 4919 0198 0B       		.uleb128 0xb
 4920 0199 3B       		.uleb128 0x3b
 4921 019a 0B       		.uleb128 0xb
 4922 019b 27       		.uleb128 0x27
 4923 019c 19       		.uleb128 0x19
 4924 019d 20       		.uleb128 0x20
 4925 019e 0B       		.uleb128 0xb
 4926 019f 01       		.uleb128 0x1
 4927 01a0 13       		.uleb128 0x13
 4928 01a1 00       		.byte	0
 4929 01a2 00       		.byte	0
 4930 01a3 21       		.uleb128 0x21
 4931 01a4 34       		.uleb128 0x34
 4932 01a5 00       		.byte	0
 4933 01a6 03       		.uleb128 0x3
 4934 01a7 0E       		.uleb128 0xe
 4935 01a8 3A       		.uleb128 0x3a
 4936 01a9 0B       		.uleb128 0xb
 4937 01aa 3B       		.uleb128 0x3b
 4938 01ab 0B       		.uleb128 0xb
 4939 01ac 49       		.uleb128 0x49
 4940 01ad 13       		.uleb128 0x13
 4941 01ae 00       		.byte	0
 4942 01af 00       		.byte	0
 4943 01b0 22       		.uleb128 0x22
 4944 01b1 0B       		.uleb128 0xb
 4945 01b2 01       		.byte	0x1
 4946 01b3 00       		.byte	0
 4947 01b4 00       		.byte	0
 4948 01b5 23       		.uleb128 0x23
 4949 01b6 2E       		.uleb128 0x2e
 4950 01b7 01       		.byte	0x1
 4951 01b8 3F       		.uleb128 0x3f
 4952 01b9 19       		.uleb128 0x19
 4953 01ba 03       		.uleb128 0x3
 4954 01bb 0E       		.uleb128 0xe
 4955 01bc 3A       		.uleb128 0x3a
 4956 01bd 0B       		.uleb128 0xb
 4957 01be 3B       		.uleb128 0x3b
 4958 01bf 05       		.uleb128 0x5
 4959 01c0 27       		.uleb128 0x27
 4960 01c1 19       		.uleb128 0x19
 4961 01c2 49       		.uleb128 0x49
 4962 01c3 13       		.uleb128 0x13
 4963 01c4 20       		.uleb128 0x20
ARM GAS  /tmp/ccXTVNcx.s 			page 107


 4964 01c5 0B       		.uleb128 0xb
 4965 01c6 01       		.uleb128 0x1
 4966 01c7 13       		.uleb128 0x13
 4967 01c8 00       		.byte	0
 4968 01c9 00       		.byte	0
 4969 01ca 24       		.uleb128 0x24
 4970 01cb 2E       		.uleb128 0x2e
 4971 01cc 01       		.byte	0x1
 4972 01cd 3F       		.uleb128 0x3f
 4973 01ce 19       		.uleb128 0x19
 4974 01cf 03       		.uleb128 0x3
 4975 01d0 0E       		.uleb128 0xe
 4976 01d1 3A       		.uleb128 0x3a
 4977 01d2 0B       		.uleb128 0xb
 4978 01d3 3B       		.uleb128 0x3b
 4979 01d4 05       		.uleb128 0x5
 4980 01d5 27       		.uleb128 0x27
 4981 01d6 19       		.uleb128 0x19
 4982 01d7 11       		.uleb128 0x11
 4983 01d8 01       		.uleb128 0x1
 4984 01d9 12       		.uleb128 0x12
 4985 01da 06       		.uleb128 0x6
 4986 01db 40       		.uleb128 0x40
 4987 01dc 18       		.uleb128 0x18
 4988 01dd 9742     		.uleb128 0x2117
 4989 01df 19       		.uleb128 0x19
 4990 01e0 01       		.uleb128 0x1
 4991 01e1 13       		.uleb128 0x13
 4992 01e2 00       		.byte	0
 4993 01e3 00       		.byte	0
 4994 01e4 25       		.uleb128 0x25
 4995 01e5 05       		.uleb128 0x5
 4996 01e6 00       		.byte	0
 4997 01e7 03       		.uleb128 0x3
 4998 01e8 08       		.uleb128 0x8
 4999 01e9 3A       		.uleb128 0x3a
 5000 01ea 0B       		.uleb128 0xb
 5001 01eb 3B       		.uleb128 0x3b
 5002 01ec 05       		.uleb128 0x5
 5003 01ed 49       		.uleb128 0x49
 5004 01ee 13       		.uleb128 0x13
 5005 01ef 02       		.uleb128 0x2
 5006 01f0 17       		.uleb128 0x17
 5007 01f1 00       		.byte	0
 5008 01f2 00       		.byte	0
 5009 01f3 26       		.uleb128 0x26
 5010 01f4 05       		.uleb128 0x5
 5011 01f5 00       		.byte	0
 5012 01f6 03       		.uleb128 0x3
 5013 01f7 0E       		.uleb128 0xe
 5014 01f8 3A       		.uleb128 0x3a
 5015 01f9 0B       		.uleb128 0xb
 5016 01fa 3B       		.uleb128 0x3b
 5017 01fb 05       		.uleb128 0x5
 5018 01fc 49       		.uleb128 0x49
 5019 01fd 13       		.uleb128 0x13
 5020 01fe 02       		.uleb128 0x2
ARM GAS  /tmp/ccXTVNcx.s 			page 108


 5021 01ff 18       		.uleb128 0x18
 5022 0200 00       		.byte	0
 5023 0201 00       		.byte	0
 5024 0202 27       		.uleb128 0x27
 5025 0203 34       		.uleb128 0x34
 5026 0204 00       		.byte	0
 5027 0205 03       		.uleb128 0x3
 5028 0206 08       		.uleb128 0x8
 5029 0207 3A       		.uleb128 0x3a
 5030 0208 0B       		.uleb128 0xb
 5031 0209 3B       		.uleb128 0x3b
 5032 020a 05       		.uleb128 0x5
 5033 020b 49       		.uleb128 0x49
 5034 020c 13       		.uleb128 0x13
 5035 020d 02       		.uleb128 0x2
 5036 020e 17       		.uleb128 0x17
 5037 020f 00       		.byte	0
 5038 0210 00       		.byte	0
 5039 0211 28       		.uleb128 0x28
 5040 0212 34       		.uleb128 0x34
 5041 0213 00       		.byte	0
 5042 0214 03       		.uleb128 0x3
 5043 0215 0E       		.uleb128 0xe
 5044 0216 3A       		.uleb128 0x3a
 5045 0217 0B       		.uleb128 0xb
 5046 0218 3B       		.uleb128 0x3b
 5047 0219 05       		.uleb128 0x5
 5048 021a 49       		.uleb128 0x49
 5049 021b 13       		.uleb128 0x13
 5050 021c 02       		.uleb128 0x2
 5051 021d 18       		.uleb128 0x18
 5052 021e 00       		.byte	0
 5053 021f 00       		.byte	0
 5054 0220 29       		.uleb128 0x29
 5055 0221 2E       		.uleb128 0x2e
 5056 0222 01       		.byte	0x1
 5057 0223 3F       		.uleb128 0x3f
 5058 0224 19       		.uleb128 0x19
 5059 0225 03       		.uleb128 0x3
 5060 0226 0E       		.uleb128 0xe
 5061 0227 3A       		.uleb128 0x3a
 5062 0228 0B       		.uleb128 0xb
 5063 0229 3B       		.uleb128 0x3b
 5064 022a 0B       		.uleb128 0xb
 5065 022b 27       		.uleb128 0x27
 5066 022c 19       		.uleb128 0x19
 5067 022d 49       		.uleb128 0x49
 5068 022e 13       		.uleb128 0x13
 5069 022f 11       		.uleb128 0x11
 5070 0230 01       		.uleb128 0x1
 5071 0231 12       		.uleb128 0x12
 5072 0232 06       		.uleb128 0x6
 5073 0233 40       		.uleb128 0x40
 5074 0234 18       		.uleb128 0x18
 5075 0235 9742     		.uleb128 0x2117
 5076 0237 19       		.uleb128 0x19
 5077 0238 01       		.uleb128 0x1
ARM GAS  /tmp/ccXTVNcx.s 			page 109


 5078 0239 13       		.uleb128 0x13
 5079 023a 00       		.byte	0
 5080 023b 00       		.byte	0
 5081 023c 2A       		.uleb128 0x2a
 5082 023d 05       		.uleb128 0x5
 5083 023e 00       		.byte	0
 5084 023f 03       		.uleb128 0x3
 5085 0240 0E       		.uleb128 0xe
 5086 0241 3A       		.uleb128 0x3a
 5087 0242 0B       		.uleb128 0xb
 5088 0243 3B       		.uleb128 0x3b
 5089 0244 0B       		.uleb128 0xb
 5090 0245 49       		.uleb128 0x49
 5091 0246 13       		.uleb128 0x13
 5092 0247 02       		.uleb128 0x2
 5093 0248 17       		.uleb128 0x17
 5094 0249 00       		.byte	0
 5095 024a 00       		.byte	0
 5096 024b 2B       		.uleb128 0x2b
 5097 024c 05       		.uleb128 0x5
 5098 024d 00       		.byte	0
 5099 024e 03       		.uleb128 0x3
 5100 024f 0E       		.uleb128 0xe
 5101 0250 3A       		.uleb128 0x3a
 5102 0251 0B       		.uleb128 0xb
 5103 0252 3B       		.uleb128 0x3b
 5104 0253 0B       		.uleb128 0xb
 5105 0254 49       		.uleb128 0x49
 5106 0255 13       		.uleb128 0x13
 5107 0256 02       		.uleb128 0x2
 5108 0257 18       		.uleb128 0x18
 5109 0258 00       		.byte	0
 5110 0259 00       		.byte	0
 5111 025a 2C       		.uleb128 0x2c
 5112 025b 34       		.uleb128 0x34
 5113 025c 00       		.byte	0
 5114 025d 03       		.uleb128 0x3
 5115 025e 0E       		.uleb128 0xe
 5116 025f 3A       		.uleb128 0x3a
 5117 0260 0B       		.uleb128 0xb
 5118 0261 3B       		.uleb128 0x3b
 5119 0262 0B       		.uleb128 0xb
 5120 0263 49       		.uleb128 0x49
 5121 0264 13       		.uleb128 0x13
 5122 0265 02       		.uleb128 0x2
 5123 0266 17       		.uleb128 0x17
 5124 0267 00       		.byte	0
 5125 0268 00       		.byte	0
 5126 0269 2D       		.uleb128 0x2d
 5127 026a 1D       		.uleb128 0x1d
 5128 026b 01       		.byte	0x1
 5129 026c 31       		.uleb128 0x31
 5130 026d 13       		.uleb128 0x13
 5131 026e 52       		.uleb128 0x52
 5132 026f 01       		.uleb128 0x1
 5133 0270 55       		.uleb128 0x55
 5134 0271 17       		.uleb128 0x17
ARM GAS  /tmp/ccXTVNcx.s 			page 110


 5135 0272 58       		.uleb128 0x58
 5136 0273 0B       		.uleb128 0xb
 5137 0274 59       		.uleb128 0x59
 5138 0275 0B       		.uleb128 0xb
 5139 0276 00       		.byte	0
 5140 0277 00       		.byte	0
 5141 0278 2E       		.uleb128 0x2e
 5142 0279 05       		.uleb128 0x5
 5143 027a 00       		.byte	0
 5144 027b 31       		.uleb128 0x31
 5145 027c 13       		.uleb128 0x13
 5146 027d 02       		.uleb128 0x2
 5147 027e 17       		.uleb128 0x17
 5148 027f 00       		.byte	0
 5149 0280 00       		.byte	0
 5150 0281 2F       		.uleb128 0x2f
 5151 0282 2E       		.uleb128 0x2e
 5152 0283 01       		.byte	0x1
 5153 0284 31       		.uleb128 0x31
 5154 0285 13       		.uleb128 0x13
 5155 0286 11       		.uleb128 0x11
 5156 0287 01       		.uleb128 0x1
 5157 0288 12       		.uleb128 0x12
 5158 0289 06       		.uleb128 0x6
 5159 028a 40       		.uleb128 0x40
 5160 028b 18       		.uleb128 0x18
 5161 028c 9742     		.uleb128 0x2117
 5162 028e 19       		.uleb128 0x19
 5163 028f 01       		.uleb128 0x1
 5164 0290 13       		.uleb128 0x13
 5165 0291 00       		.byte	0
 5166 0292 00       		.byte	0
 5167 0293 30       		.uleb128 0x30
 5168 0294 1D       		.uleb128 0x1d
 5169 0295 01       		.byte	0x1
 5170 0296 31       		.uleb128 0x31
 5171 0297 13       		.uleb128 0x13
 5172 0298 52       		.uleb128 0x52
 5173 0299 01       		.uleb128 0x1
 5174 029a 55       		.uleb128 0x55
 5175 029b 17       		.uleb128 0x17
 5176 029c 58       		.uleb128 0x58
 5177 029d 0B       		.uleb128 0xb
 5178 029e 59       		.uleb128 0x59
 5179 029f 0B       		.uleb128 0xb
 5180 02a0 01       		.uleb128 0x1
 5181 02a1 13       		.uleb128 0x13
 5182 02a2 00       		.byte	0
 5183 02a3 00       		.byte	0
 5184 02a4 31       		.uleb128 0x31
 5185 02a5 0B       		.uleb128 0xb
 5186 02a6 01       		.byte	0x1
 5187 02a7 11       		.uleb128 0x11
 5188 02a8 01       		.uleb128 0x1
 5189 02a9 12       		.uleb128 0x12
 5190 02aa 06       		.uleb128 0x6
 5191 02ab 00       		.byte	0
ARM GAS  /tmp/ccXTVNcx.s 			page 111


 5192 02ac 00       		.byte	0
 5193 02ad 32       		.uleb128 0x32
 5194 02ae 1D       		.uleb128 0x1d
 5195 02af 01       		.byte	0x1
 5196 02b0 31       		.uleb128 0x31
 5197 02b1 13       		.uleb128 0x13
 5198 02b2 11       		.uleb128 0x11
 5199 02b3 01       		.uleb128 0x1
 5200 02b4 12       		.uleb128 0x12
 5201 02b5 06       		.uleb128 0x6
 5202 02b6 58       		.uleb128 0x58
 5203 02b7 0B       		.uleb128 0xb
 5204 02b8 59       		.uleb128 0x59
 5205 02b9 0B       		.uleb128 0xb
 5206 02ba 00       		.byte	0
 5207 02bb 00       		.byte	0
 5208 02bc 33       		.uleb128 0x33
 5209 02bd 1D       		.uleb128 0x1d
 5210 02be 01       		.byte	0x1
 5211 02bf 31       		.uleb128 0x31
 5212 02c0 13       		.uleb128 0x13
 5213 02c1 11       		.uleb128 0x11
 5214 02c2 01       		.uleb128 0x1
 5215 02c3 12       		.uleb128 0x12
 5216 02c4 06       		.uleb128 0x6
 5217 02c5 58       		.uleb128 0x58
 5218 02c6 0B       		.uleb128 0xb
 5219 02c7 59       		.uleb128 0x59
 5220 02c8 0B       		.uleb128 0xb
 5221 02c9 01       		.uleb128 0x1
 5222 02ca 13       		.uleb128 0x13
 5223 02cb 00       		.byte	0
 5224 02cc 00       		.byte	0
 5225 02cd 34       		.uleb128 0x34
 5226 02ce 05       		.uleb128 0x5
 5227 02cf 00       		.byte	0
 5228 02d0 31       		.uleb128 0x31
 5229 02d1 13       		.uleb128 0x13
 5230 02d2 02       		.uleb128 0x2
 5231 02d3 18       		.uleb128 0x18
 5232 02d4 00       		.byte	0
 5233 02d5 00       		.byte	0
 5234 02d6 35       		.uleb128 0x35
 5235 02d7 2E       		.uleb128 0x2e
 5236 02d8 01       		.byte	0x1
 5237 02d9 3F       		.uleb128 0x3f
 5238 02da 19       		.uleb128 0x19
 5239 02db 03       		.uleb128 0x3
 5240 02dc 0E       		.uleb128 0xe
 5241 02dd 3A       		.uleb128 0x3a
 5242 02de 0B       		.uleb128 0xb
 5243 02df 3B       		.uleb128 0x3b
 5244 02e0 05       		.uleb128 0x5
 5245 02e1 27       		.uleb128 0x27
 5246 02e2 19       		.uleb128 0x19
 5247 02e3 49       		.uleb128 0x49
 5248 02e4 13       		.uleb128 0x13
ARM GAS  /tmp/ccXTVNcx.s 			page 112


 5249 02e5 11       		.uleb128 0x11
 5250 02e6 01       		.uleb128 0x1
 5251 02e7 12       		.uleb128 0x12
 5252 02e8 06       		.uleb128 0x6
 5253 02e9 40       		.uleb128 0x40
 5254 02ea 18       		.uleb128 0x18
 5255 02eb 9742     		.uleb128 0x2117
 5256 02ed 19       		.uleb128 0x19
 5257 02ee 01       		.uleb128 0x1
 5258 02ef 13       		.uleb128 0x13
 5259 02f0 00       		.byte	0
 5260 02f1 00       		.byte	0
 5261 02f2 36       		.uleb128 0x36
 5262 02f3 05       		.uleb128 0x5
 5263 02f4 00       		.byte	0
 5264 02f5 03       		.uleb128 0x3
 5265 02f6 0E       		.uleb128 0xe
 5266 02f7 3A       		.uleb128 0x3a
 5267 02f8 0B       		.uleb128 0xb
 5268 02f9 3B       		.uleb128 0x3b
 5269 02fa 05       		.uleb128 0x5
 5270 02fb 49       		.uleb128 0x49
 5271 02fc 13       		.uleb128 0x13
 5272 02fd 02       		.uleb128 0x2
 5273 02fe 17       		.uleb128 0x17
 5274 02ff 00       		.byte	0
 5275 0300 00       		.byte	0
 5276 0301 37       		.uleb128 0x37
 5277 0302 34       		.uleb128 0x34
 5278 0303 00       		.byte	0
 5279 0304 03       		.uleb128 0x3
 5280 0305 0E       		.uleb128 0xe
 5281 0306 3A       		.uleb128 0x3a
 5282 0307 0B       		.uleb128 0xb
 5283 0308 3B       		.uleb128 0x3b
 5284 0309 05       		.uleb128 0x5
 5285 030a 49       		.uleb128 0x49
 5286 030b 13       		.uleb128 0x13
 5287 030c 02       		.uleb128 0x2
 5288 030d 17       		.uleb128 0x17
 5289 030e 00       		.byte	0
 5290 030f 00       		.byte	0
 5291 0310 38       		.uleb128 0x38
 5292 0311 1D       		.uleb128 0x1d
 5293 0312 01       		.byte	0x1
 5294 0313 31       		.uleb128 0x31
 5295 0314 13       		.uleb128 0x13
 5296 0315 11       		.uleb128 0x11
 5297 0316 01       		.uleb128 0x1
 5298 0317 12       		.uleb128 0x12
 5299 0318 06       		.uleb128 0x6
 5300 0319 58       		.uleb128 0x58
 5301 031a 0B       		.uleb128 0xb
 5302 031b 59       		.uleb128 0x59
 5303 031c 05       		.uleb128 0x5
 5304 031d 00       		.byte	0
 5305 031e 00       		.byte	0
ARM GAS  /tmp/ccXTVNcx.s 			page 113


 5306 031f 39       		.uleb128 0x39
 5307 0320 1D       		.uleb128 0x1d
 5308 0321 01       		.byte	0x1
 5309 0322 31       		.uleb128 0x31
 5310 0323 13       		.uleb128 0x13
 5311 0324 52       		.uleb128 0x52
 5312 0325 01       		.uleb128 0x1
 5313 0326 55       		.uleb128 0x55
 5314 0327 17       		.uleb128 0x17
 5315 0328 58       		.uleb128 0x58
 5316 0329 0B       		.uleb128 0xb
 5317 032a 59       		.uleb128 0x59
 5318 032b 05       		.uleb128 0x5
 5319 032c 00       		.byte	0
 5320 032d 00       		.byte	0
 5321 032e 3A       		.uleb128 0x3a
 5322 032f 05       		.uleb128 0x5
 5323 0330 00       		.byte	0
 5324 0331 31       		.uleb128 0x31
 5325 0332 13       		.uleb128 0x13
 5326 0333 00       		.byte	0
 5327 0334 00       		.byte	0
 5328 0335 3B       		.uleb128 0x3b
 5329 0336 2E       		.uleb128 0x2e
 5330 0337 01       		.byte	0x1
 5331 0338 3F       		.uleb128 0x3f
 5332 0339 19       		.uleb128 0x19
 5333 033a 03       		.uleb128 0x3
 5334 033b 0E       		.uleb128 0xe
 5335 033c 3A       		.uleb128 0x3a
 5336 033d 0B       		.uleb128 0xb
 5337 033e 3B       		.uleb128 0x3b
 5338 033f 05       		.uleb128 0x5
 5339 0340 27       		.uleb128 0x27
 5340 0341 19       		.uleb128 0x19
 5341 0342 11       		.uleb128 0x11
 5342 0343 01       		.uleb128 0x1
 5343 0344 12       		.uleb128 0x12
 5344 0345 06       		.uleb128 0x6
 5345 0346 40       		.uleb128 0x40
 5346 0347 18       		.uleb128 0x18
 5347 0348 9642     		.uleb128 0x2116
 5348 034a 19       		.uleb128 0x19
 5349 034b 01       		.uleb128 0x1
 5350 034c 13       		.uleb128 0x13
 5351 034d 00       		.byte	0
 5352 034e 00       		.byte	0
 5353 034f 3C       		.uleb128 0x3c
 5354 0350 898201   		.uleb128 0x4109
 5355 0353 00       		.byte	0
 5356 0354 11       		.uleb128 0x11
 5357 0355 01       		.uleb128 0x1
 5358 0356 31       		.uleb128 0x31
 5359 0357 13       		.uleb128 0x13
 5360 0358 00       		.byte	0
 5361 0359 00       		.byte	0
 5362 035a 3D       		.uleb128 0x3d
ARM GAS  /tmp/ccXTVNcx.s 			page 114


 5363 035b 2E       		.uleb128 0x2e
 5364 035c 01       		.byte	0x1
 5365 035d 3F       		.uleb128 0x3f
 5366 035e 19       		.uleb128 0x19
 5367 035f 03       		.uleb128 0x3
 5368 0360 0E       		.uleb128 0xe
 5369 0361 3A       		.uleb128 0x3a
 5370 0362 0B       		.uleb128 0xb
 5371 0363 3B       		.uleb128 0x3b
 5372 0364 05       		.uleb128 0x5
 5373 0365 27       		.uleb128 0x27
 5374 0366 19       		.uleb128 0x19
 5375 0367 49       		.uleb128 0x49
 5376 0368 13       		.uleb128 0x13
 5377 0369 11       		.uleb128 0x11
 5378 036a 01       		.uleb128 0x1
 5379 036b 12       		.uleb128 0x12
 5380 036c 06       		.uleb128 0x6
 5381 036d 40       		.uleb128 0x40
 5382 036e 18       		.uleb128 0x18
 5383 036f 9642     		.uleb128 0x2116
 5384 0371 19       		.uleb128 0x19
 5385 0372 01       		.uleb128 0x1
 5386 0373 13       		.uleb128 0x13
 5387 0374 00       		.byte	0
 5388 0375 00       		.byte	0
 5389 0376 3E       		.uleb128 0x3e
 5390 0377 1D       		.uleb128 0x1d
 5391 0378 01       		.byte	0x1
 5392 0379 31       		.uleb128 0x31
 5393 037a 13       		.uleb128 0x13
 5394 037b 11       		.uleb128 0x11
 5395 037c 01       		.uleb128 0x1
 5396 037d 12       		.uleb128 0x12
 5397 037e 06       		.uleb128 0x6
 5398 037f 58       		.uleb128 0x58
 5399 0380 0B       		.uleb128 0xb
 5400 0381 59       		.uleb128 0x59
 5401 0382 05       		.uleb128 0x5
 5402 0383 01       		.uleb128 0x1
 5403 0384 13       		.uleb128 0x13
 5404 0385 00       		.byte	0
 5405 0386 00       		.byte	0
 5406 0387 3F       		.uleb128 0x3f
 5407 0388 1D       		.uleb128 0x1d
 5408 0389 01       		.byte	0x1
 5409 038a 31       		.uleb128 0x31
 5410 038b 13       		.uleb128 0x13
 5411 038c 52       		.uleb128 0x52
 5412 038d 01       		.uleb128 0x1
 5413 038e 55       		.uleb128 0x55
 5414 038f 17       		.uleb128 0x17
 5415 0390 58       		.uleb128 0x58
 5416 0391 0B       		.uleb128 0xb
 5417 0392 59       		.uleb128 0x59
 5418 0393 05       		.uleb128 0x5
 5419 0394 01       		.uleb128 0x1
ARM GAS  /tmp/ccXTVNcx.s 			page 115


 5420 0395 13       		.uleb128 0x13
 5421 0396 00       		.byte	0
 5422 0397 00       		.byte	0
 5423 0398 40       		.uleb128 0x40
 5424 0399 898201   		.uleb128 0x4109
 5425 039c 01       		.byte	0x1
 5426 039d 11       		.uleb128 0x11
 5427 039e 01       		.uleb128 0x1
 5428 039f 01       		.uleb128 0x1
 5429 03a0 13       		.uleb128 0x13
 5430 03a1 00       		.byte	0
 5431 03a2 00       		.byte	0
 5432 03a3 41       		.uleb128 0x41
 5433 03a4 8A8201   		.uleb128 0x410a
 5434 03a7 00       		.byte	0
 5435 03a8 02       		.uleb128 0x2
 5436 03a9 18       		.uleb128 0x18
 5437 03aa 9142     		.uleb128 0x2111
 5438 03ac 18       		.uleb128 0x18
 5439 03ad 00       		.byte	0
 5440 03ae 00       		.byte	0
 5441 03af 42       		.uleb128 0x42
 5442 03b0 898201   		.uleb128 0x4109
 5443 03b3 01       		.byte	0x1
 5444 03b4 11       		.uleb128 0x11
 5445 03b5 01       		.uleb128 0x1
 5446 03b6 00       		.byte	0
 5447 03b7 00       		.byte	0
 5448 03b8 43       		.uleb128 0x43
 5449 03b9 898201   		.uleb128 0x4109
 5450 03bc 01       		.byte	0x1
 5451 03bd 11       		.uleb128 0x11
 5452 03be 01       		.uleb128 0x1
 5453 03bf 31       		.uleb128 0x31
 5454 03c0 13       		.uleb128 0x13
 5455 03c1 00       		.byte	0
 5456 03c2 00       		.byte	0
 5457 03c3 44       		.uleb128 0x44
 5458 03c4 05       		.uleb128 0x5
 5459 03c5 00       		.byte	0
 5460 03c6 03       		.uleb128 0x3
 5461 03c7 08       		.uleb128 0x8
 5462 03c8 3A       		.uleb128 0x3a
 5463 03c9 0B       		.uleb128 0xb
 5464 03ca 3B       		.uleb128 0x3b
 5465 03cb 05       		.uleb128 0x5
 5466 03cc 49       		.uleb128 0x49
 5467 03cd 13       		.uleb128 0x13
 5468 03ce 02       		.uleb128 0x2
 5469 03cf 18       		.uleb128 0x18
 5470 03d0 00       		.byte	0
 5471 03d1 00       		.byte	0
 5472 03d2 45       		.uleb128 0x45
 5473 03d3 0B       		.uleb128 0xb
 5474 03d4 01       		.byte	0x1
 5475 03d5 55       		.uleb128 0x55
 5476 03d6 17       		.uleb128 0x17
ARM GAS  /tmp/ccXTVNcx.s 			page 116


 5477 03d7 00       		.byte	0
 5478 03d8 00       		.byte	0
 5479 03d9 46       		.uleb128 0x46
 5480 03da 34       		.uleb128 0x34
 5481 03db 00       		.byte	0
 5482 03dc 31       		.uleb128 0x31
 5483 03dd 13       		.uleb128 0x13
 5484 03de 02       		.uleb128 0x2
 5485 03df 17       		.uleb128 0x17
 5486 03e0 00       		.byte	0
 5487 03e1 00       		.byte	0
 5488 03e2 47       		.uleb128 0x47
 5489 03e3 0B       		.uleb128 0xb
 5490 03e4 01       		.byte	0x1
 5491 03e5 55       		.uleb128 0x55
 5492 03e6 17       		.uleb128 0x17
 5493 03e7 01       		.uleb128 0x1
 5494 03e8 13       		.uleb128 0x13
 5495 03e9 00       		.byte	0
 5496 03ea 00       		.byte	0
 5497 03eb 48       		.uleb128 0x48
 5498 03ec 898201   		.uleb128 0x4109
 5499 03ef 01       		.byte	0x1
 5500 03f0 11       		.uleb128 0x11
 5501 03f1 01       		.uleb128 0x1
 5502 03f2 31       		.uleb128 0x31
 5503 03f3 13       		.uleb128 0x13
 5504 03f4 01       		.uleb128 0x1
 5505 03f5 13       		.uleb128 0x13
 5506 03f6 00       		.byte	0
 5507 03f7 00       		.byte	0
 5508 03f8 49       		.uleb128 0x49
 5509 03f9 34       		.uleb128 0x34
 5510 03fa 00       		.byte	0
 5511 03fb 03       		.uleb128 0x3
 5512 03fc 08       		.uleb128 0x8
 5513 03fd 3A       		.uleb128 0x3a
 5514 03fe 0B       		.uleb128 0xb
 5515 03ff 3B       		.uleb128 0x3b
 5516 0400 0B       		.uleb128 0xb
 5517 0401 49       		.uleb128 0x49
 5518 0402 13       		.uleb128 0x13
 5519 0403 02       		.uleb128 0x2
 5520 0404 18       		.uleb128 0x18
 5521 0405 00       		.byte	0
 5522 0406 00       		.byte	0
 5523 0407 4A       		.uleb128 0x4a
 5524 0408 34       		.uleb128 0x34
 5525 0409 00       		.byte	0
 5526 040a 03       		.uleb128 0x3
 5527 040b 0E       		.uleb128 0xe
 5528 040c 3A       		.uleb128 0x3a
 5529 040d 0B       		.uleb128 0xb
 5530 040e 3B       		.uleb128 0x3b
 5531 040f 0B       		.uleb128 0xb
 5532 0410 49       		.uleb128 0x49
 5533 0411 13       		.uleb128 0x13
ARM GAS  /tmp/ccXTVNcx.s 			page 117


 5534 0412 02       		.uleb128 0x2
 5535 0413 18       		.uleb128 0x18
 5536 0414 00       		.byte	0
 5537 0415 00       		.byte	0
 5538 0416 4B       		.uleb128 0x4b
 5539 0417 34       		.uleb128 0x34
 5540 0418 00       		.byte	0
 5541 0419 03       		.uleb128 0x3
 5542 041a 0E       		.uleb128 0xe
 5543 041b 3A       		.uleb128 0x3a
 5544 041c 0B       		.uleb128 0xb
 5545 041d 3B       		.uleb128 0x3b
 5546 041e 0B       		.uleb128 0xb
 5547 041f 49       		.uleb128 0x49
 5548 0420 13       		.uleb128 0x13
 5549 0421 3F       		.uleb128 0x3f
 5550 0422 19       		.uleb128 0x19
 5551 0423 3C       		.uleb128 0x3c
 5552 0424 19       		.uleb128 0x19
 5553 0425 00       		.byte	0
 5554 0426 00       		.byte	0
 5555 0427 4C       		.uleb128 0x4c
 5556 0428 2E       		.uleb128 0x2e
 5557 0429 00       		.byte	0
 5558 042a 3F       		.uleb128 0x3f
 5559 042b 19       		.uleb128 0x19
 5560 042c 03       		.uleb128 0x3
 5561 042d 0E       		.uleb128 0xe
 5562 042e 3A       		.uleb128 0x3a
 5563 042f 0B       		.uleb128 0xb
 5564 0430 3B       		.uleb128 0x3b
 5565 0431 05       		.uleb128 0x5
 5566 0432 27       		.uleb128 0x27
 5567 0433 19       		.uleb128 0x19
 5568 0434 49       		.uleb128 0x49
 5569 0435 13       		.uleb128 0x13
 5570 0436 3C       		.uleb128 0x3c
 5571 0437 19       		.uleb128 0x19
 5572 0438 00       		.byte	0
 5573 0439 00       		.byte	0
 5574 043a 00       		.byte	0
 5575              		.section	.debug_loc,"",%progbits
 5576              	.Ldebug_loc0:
 5577              	.LLST0:
 5578 0000 00000000 		.4byte	.LVL0
 5579 0004 04000000 		.4byte	.LVL1
 5580 0008 0100     		.2byte	0x1
 5581 000a 50       		.byte	0x50
 5582 000b 04000000 		.4byte	.LVL1
 5583 000f 06000000 		.4byte	.LVL2
 5584 0013 0400     		.2byte	0x4
 5585 0015 F3       		.byte	0xf3
 5586 0016 01       		.uleb128 0x1
 5587 0017 50       		.byte	0x50
 5588 0018 9F       		.byte	0x9f
 5589 0019 06000000 		.4byte	.LVL2
 5590 001d 0C000000 		.4byte	.LVL3
ARM GAS  /tmp/ccXTVNcx.s 			page 118


 5591 0021 0100     		.2byte	0x1
 5592 0023 50       		.byte	0x50
 5593 0024 0C000000 		.4byte	.LVL3
 5594 0028 20000000 		.4byte	.LFE212
 5595 002c 0400     		.2byte	0x4
 5596 002e F3       		.byte	0xf3
 5597 002f 01       		.uleb128 0x1
 5598 0030 50       		.byte	0x50
 5599 0031 9F       		.byte	0x9f
 5600 0032 00000000 		.4byte	0
 5601 0036 00000000 		.4byte	0
 5602              	.LLST1:
 5603 003a 00000000 		.4byte	.LVL0
 5604 003e 04000000 		.4byte	.LVL1
 5605 0042 0E00     		.2byte	0xe
 5606 0044 70       		.byte	0x70
 5607 0045 00       		.sleb128 0
 5608 0046 08       		.byte	0x8
 5609 0047 FF       		.byte	0xff
 5610 0048 1A       		.byte	0x1a
 5611 0049 4C       		.byte	0x4c
 5612 004a 1E       		.byte	0x1e
 5613 004b 03       		.byte	0x3
 5614 004c 00000000 		.4byte	i2c
 5615 0050 22       		.byte	0x22
 5616 0051 9F       		.byte	0x9f
 5617 0052 04000000 		.4byte	.LVL1
 5618 0056 06000000 		.4byte	.LVL2
 5619 005a 0F00     		.2byte	0xf
 5620 005c F3       		.byte	0xf3
 5621 005d 01       		.uleb128 0x1
 5622 005e 50       		.byte	0x50
 5623 005f 08       		.byte	0x8
 5624 0060 FF       		.byte	0xff
 5625 0061 1A       		.byte	0x1a
 5626 0062 4C       		.byte	0x4c
 5627 0063 1E       		.byte	0x1e
 5628 0064 03       		.byte	0x3
 5629 0065 00000000 		.4byte	i2c
 5630 0069 22       		.byte	0x22
 5631 006a 9F       		.byte	0x9f
 5632 006b 06000000 		.4byte	.LVL2
 5633 006f 0C000000 		.4byte	.LVL3
 5634 0073 0E00     		.2byte	0xe
 5635 0075 70       		.byte	0x70
 5636 0076 00       		.sleb128 0
 5637 0077 08       		.byte	0x8
 5638 0078 FF       		.byte	0xff
 5639 0079 1A       		.byte	0x1a
 5640 007a 4C       		.byte	0x4c
 5641 007b 1E       		.byte	0x1e
 5642 007c 03       		.byte	0x3
 5643 007d 00000000 		.4byte	i2c
 5644 0081 22       		.byte	0x22
 5645 0082 9F       		.byte	0x9f
 5646 0083 0C000000 		.4byte	.LVL3
 5647 0087 20000000 		.4byte	.LFE212
ARM GAS  /tmp/ccXTVNcx.s 			page 119


 5648 008b 0F00     		.2byte	0xf
 5649 008d F3       		.byte	0xf3
 5650 008e 01       		.uleb128 0x1
 5651 008f 50       		.byte	0x50
 5652 0090 08       		.byte	0x8
 5653 0091 FF       		.byte	0xff
 5654 0092 1A       		.byte	0x1a
 5655 0093 4C       		.byte	0x4c
 5656 0094 1E       		.byte	0x1e
 5657 0095 03       		.byte	0x3
 5658 0096 00000000 		.4byte	i2c
 5659 009a 22       		.byte	0x22
 5660 009b 9F       		.byte	0x9f
 5661 009c 00000000 		.4byte	0
 5662 00a0 00000000 		.4byte	0
 5663              	.LLST2:
 5664 00a4 00000000 		.4byte	.LVL5
 5665 00a8 06000000 		.4byte	.LVL6
 5666 00ac 0100     		.2byte	0x1
 5667 00ae 50       		.byte	0x50
 5668 00af 06000000 		.4byte	.LVL6
 5669 00b3 46000000 		.4byte	.LVL10
 5670 00b7 0100     		.2byte	0x1
 5671 00b9 52       		.byte	0x52
 5672 00ba 46000000 		.4byte	.LVL10
 5673 00be 50000000 		.4byte	.LVL13
 5674 00c2 0400     		.2byte	0x4
 5675 00c4 F3       		.byte	0xf3
 5676 00c5 01       		.uleb128 0x1
 5677 00c6 50       		.byte	0x50
 5678 00c7 9F       		.byte	0x9f
 5679 00c8 50000000 		.4byte	.LVL13
 5680 00cc 60000000 		.4byte	.LVL15
 5681 00d0 0100     		.2byte	0x1
 5682 00d2 52       		.byte	0x52
 5683 00d3 60000000 		.4byte	.LVL15
 5684 00d7 64000000 		.4byte	.LVL16
 5685 00db 0400     		.2byte	0x4
 5686 00dd F3       		.byte	0xf3
 5687 00de 01       		.uleb128 0x1
 5688 00df 50       		.byte	0x50
 5689 00e0 9F       		.byte	0x9f
 5690 00e1 64000000 		.4byte	.LVL16
 5691 00e5 FC000000 		.4byte	.LFE209
 5692 00e9 0100     		.2byte	0x1
 5693 00eb 52       		.byte	0x52
 5694 00ec 00000000 		.4byte	0
 5695 00f0 00000000 		.4byte	0
 5696              	.LLST3:
 5697 00f4 00000000 		.4byte	.LVL5
 5698 00f8 18000000 		.4byte	.LVL7
 5699 00fc 0300     		.2byte	0x3
 5700 00fe 08       		.byte	0x8
 5701 00ff 3C       		.byte	0x3c
 5702 0100 9F       		.byte	0x9f
 5703 0101 18000000 		.4byte	.LVL7
 5704 0105 3A000000 		.4byte	.LVL8
ARM GAS  /tmp/ccXTVNcx.s 			page 120


 5705 0109 0100     		.2byte	0x1
 5706 010b 50       		.byte	0x50
 5707 010c 3C000000 		.4byte	.LVL9
 5708 0110 4C000000 		.4byte	.LVL11
 5709 0114 0100     		.2byte	0x1
 5710 0116 50       		.byte	0x50
 5711 0117 4C000000 		.4byte	.LVL11
 5712 011b 4E000000 		.4byte	.LVL12
 5713 011f 0500     		.2byte	0x5
 5714 0121 F3       		.byte	0xf3
 5715 0122 01       		.uleb128 0x1
 5716 0123 50       		.byte	0x50
 5717 0124 23       		.byte	0x23
 5718 0125 18       		.uleb128 0x18
 5719 0126 50000000 		.4byte	.LVL13
 5720 012a 58000000 		.4byte	.LVL14
 5721 012e 0300     		.2byte	0x3
 5722 0130 08       		.byte	0x8
 5723 0131 3C       		.byte	0x3c
 5724 0132 9F       		.byte	0x9f
 5725 0133 58000000 		.4byte	.LVL14
 5726 0137 60000000 		.4byte	.LVL15
 5727 013b 0300     		.2byte	0x3
 5728 013d 08       		.byte	0x8
 5729 013e 2C       		.byte	0x2c
 5730 013f 9F       		.byte	0x9f
 5731 0140 64000000 		.4byte	.LVL16
 5732 0144 96000000 		.4byte	.LVL17
 5733 0148 0300     		.2byte	0x3
 5734 014a 08       		.byte	0x8
 5735 014b 3C       		.byte	0x3c
 5736 014c 9F       		.byte	0x9f
 5737 014d 96000000 		.4byte	.LVL17
 5738 0151 98000000 		.4byte	.LVL18
 5739 0155 0200     		.2byte	0x2
 5740 0157 4C       		.byte	0x4c
 5741 0158 9F       		.byte	0x9f
 5742 0159 98000000 		.4byte	.LVL18
 5743 015d 9C000000 		.4byte	.LVL19
 5744 0161 0300     		.2byte	0x3
 5745 0163 08       		.byte	0x8
 5746 0164 3C       		.byte	0x3c
 5747 0165 9F       		.byte	0x9f
 5748 0166 9C000000 		.4byte	.LVL19
 5749 016a 9E000000 		.4byte	.LVL20
 5750 016e 0300     		.2byte	0x3
 5751 0170 08       		.byte	0x8
 5752 0171 2C       		.byte	0x2c
 5753 0172 9F       		.byte	0x9f
 5754 0173 9E000000 		.4byte	.LVL20
 5755 0177 B2000000 		.4byte	.LVL21
 5756 017b 0300     		.2byte	0x3
 5757 017d 08       		.byte	0x8
 5758 017e 3C       		.byte	0x3c
 5759 017f 9F       		.byte	0x9f
 5760 0180 B2000000 		.4byte	.LVL21
 5761 0184 B4000000 		.4byte	.LVL22
ARM GAS  /tmp/ccXTVNcx.s 			page 121


 5762 0188 0300     		.2byte	0x3
 5763 018a 08       		.byte	0x8
 5764 018b 38       		.byte	0x38
 5765 018c 9F       		.byte	0x9f
 5766 018d B4000000 		.4byte	.LVL22
 5767 0191 C6000000 		.4byte	.LVL23
 5768 0195 0300     		.2byte	0x3
 5769 0197 08       		.byte	0x8
 5770 0198 3C       		.byte	0x3c
 5771 0199 9F       		.byte	0x9f
 5772 019a D0000000 		.4byte	.LVL24
 5773 019e DA000000 		.4byte	.LVL25
 5774 01a2 0100     		.2byte	0x1
 5775 01a4 50       		.byte	0x50
 5776 01a5 DA000000 		.4byte	.LVL25
 5777 01a9 FC000000 		.4byte	.LFE209
 5778 01ad 0300     		.2byte	0x3
 5779 01af 08       		.byte	0x8
 5780 01b0 3C       		.byte	0x3c
 5781 01b1 9F       		.byte	0x9f
 5782 01b2 00000000 		.4byte	0
 5783 01b6 00000000 		.4byte	0
 5784              	.LLST5:
 5785 01ba 00000000 		.4byte	.LVL26
 5786 01be 1E000000 		.4byte	.LVL27
 5787 01c2 0100     		.2byte	0x1
 5788 01c4 50       		.byte	0x50
 5789 01c5 1E000000 		.4byte	.LVL27
 5790 01c9 20000000 		.4byte	.LVL28
 5791 01cd 0400     		.2byte	0x4
 5792 01cf F3       		.byte	0xf3
 5793 01d0 01       		.uleb128 0x1
 5794 01d1 50       		.byte	0x50
 5795 01d2 9F       		.byte	0x9f
 5796 01d3 20000000 		.4byte	.LVL28
 5797 01d7 2A000000 		.4byte	.LVL30
 5798 01db 0100     		.2byte	0x1
 5799 01dd 50       		.byte	0x50
 5800 01de 2A000000 		.4byte	.LVL30
 5801 01e2 76000000 		.4byte	.LVL41
 5802 01e6 0100     		.2byte	0x1
 5803 01e8 52       		.byte	0x52
 5804 01e9 76000000 		.4byte	.LVL41
 5805 01ed 88000000 		.4byte	.LFE210
 5806 01f1 0400     		.2byte	0x4
 5807 01f3 F3       		.byte	0xf3
 5808 01f4 01       		.uleb128 0x1
 5809 01f5 50       		.byte	0x50
 5810 01f6 9F       		.byte	0x9f
 5811 01f7 00000000 		.4byte	0
 5812 01fb 00000000 		.4byte	0
 5813              	.LLST7:
 5814 01ff 28000000 		.4byte	.LVL29
 5815 0203 2A000000 		.4byte	.LVL30
 5816 0207 0100     		.2byte	0x1
 5817 0209 50       		.byte	0x50
 5818 020a 2A000000 		.4byte	.LVL30
ARM GAS  /tmp/ccXTVNcx.s 			page 122


 5819 020e 76000000 		.4byte	.LVL41
 5820 0212 0100     		.2byte	0x1
 5821 0214 52       		.byte	0x52
 5822 0215 76000000 		.4byte	.LVL41
 5823 0219 88000000 		.4byte	.LFE210
 5824 021d 0400     		.2byte	0x4
 5825 021f F3       		.byte	0xf3
 5826 0220 01       		.uleb128 0x1
 5827 0221 50       		.byte	0x50
 5828 0222 9F       		.byte	0x9f
 5829 0223 00000000 		.4byte	0
 5830 0227 00000000 		.4byte	0
 5831              	.LLST8:
 5832 022b 2C000000 		.4byte	.LVL31
 5833 022f 78000000 		.4byte	.LVL42
 5834 0233 0100     		.2byte	0x1
 5835 0235 51       		.byte	0x51
 5836 0236 00000000 		.4byte	0
 5837 023a 00000000 		.4byte	0
 5838              	.LLST9:
 5839 023e 2C000000 		.4byte	.LVL31
 5840 0242 76000000 		.4byte	.LVL41
 5841 0246 0100     		.2byte	0x1
 5842 0248 52       		.byte	0x52
 5843 0249 76000000 		.4byte	.LVL41
 5844 024d 88000000 		.4byte	.LFE210
 5845 0251 0400     		.2byte	0x4
 5846 0253 F3       		.byte	0xf3
 5847 0254 01       		.uleb128 0x1
 5848 0255 50       		.byte	0x50
 5849 0256 9F       		.byte	0x9f
 5850 0257 00000000 		.4byte	0
 5851 025b 00000000 		.4byte	0
 5852              	.LLST10:
 5853 025f 3A000000 		.4byte	.LVL32
 5854 0263 3E000000 		.4byte	.LVL34
 5855 0267 0500     		.2byte	0x5
 5856 0269 70       		.byte	0x70
 5857 026a 00       		.sleb128 0
 5858 026b 31       		.byte	0x31
 5859 026c 21       		.byte	0x21
 5860 026d 9F       		.byte	0x9f
 5861 026e 00000000 		.4byte	0
 5862 0272 00000000 		.4byte	0
 5863              	.LLST11:
 5864 0276 3A000000 		.4byte	.LVL32
 5865 027a 78000000 		.4byte	.LVL42
 5866 027e 0100     		.2byte	0x1
 5867 0280 51       		.byte	0x51
 5868 0281 00000000 		.4byte	0
 5869 0285 00000000 		.4byte	0
 5870              	.LLST12:
 5871 0289 3A000000 		.4byte	.LVL32
 5872 028d 3C000000 		.4byte	.LVL33
 5873 0291 0100     		.2byte	0x1
 5874 0293 53       		.byte	0x53
 5875 0294 00000000 		.4byte	0
ARM GAS  /tmp/ccXTVNcx.s 			page 123


 5876 0298 00000000 		.4byte	0
 5877              	.LLST13:
 5878 029c 4E000000 		.4byte	.LVL35
 5879 02a0 52000000 		.4byte	.LVL37
 5880 02a4 0500     		.2byte	0x5
 5881 02a6 70       		.byte	0x70
 5882 02a7 00       		.sleb128 0
 5883 02a8 31       		.byte	0x31
 5884 02a9 21       		.byte	0x21
 5885 02aa 9F       		.byte	0x9f
 5886 02ab 00000000 		.4byte	0
 5887 02af 00000000 		.4byte	0
 5888              	.LLST14:
 5889 02b3 4E000000 		.4byte	.LVL35
 5890 02b7 78000000 		.4byte	.LVL42
 5891 02bb 0100     		.2byte	0x1
 5892 02bd 51       		.byte	0x51
 5893 02be 00000000 		.4byte	0
 5894 02c2 00000000 		.4byte	0
 5895              	.LLST15:
 5896 02c6 4E000000 		.4byte	.LVL35
 5897 02ca 50000000 		.4byte	.LVL36
 5898 02ce 0100     		.2byte	0x1
 5899 02d0 53       		.byte	0x53
 5900 02d1 00000000 		.4byte	0
 5901 02d5 00000000 		.4byte	0
 5902              	.LLST16:
 5903 02d9 62000000 		.4byte	.LVL38
 5904 02dd 66000000 		.4byte	.LVL40
 5905 02e1 0500     		.2byte	0x5
 5906 02e3 70       		.byte	0x70
 5907 02e4 00       		.sleb128 0
 5908 02e5 31       		.byte	0x31
 5909 02e6 21       		.byte	0x21
 5910 02e7 9F       		.byte	0x9f
 5911 02e8 00000000 		.4byte	0
 5912 02ec 00000000 		.4byte	0
 5913              	.LLST17:
 5914 02f0 62000000 		.4byte	.LVL38
 5915 02f4 78000000 		.4byte	.LVL42
 5916 02f8 0100     		.2byte	0x1
 5917 02fa 51       		.byte	0x51
 5918 02fb 00000000 		.4byte	0
 5919 02ff 00000000 		.4byte	0
 5920              	.LLST18:
 5921 0303 62000000 		.4byte	.LVL38
 5922 0307 64000000 		.4byte	.LVL39
 5923 030b 0100     		.2byte	0x1
 5924 030d 53       		.byte	0x53
 5925 030e 00000000 		.4byte	0
 5926 0312 00000000 		.4byte	0
 5927              	.LLST19:
 5928 0316 76000000 		.4byte	.LVL41
 5929 031a 78000000 		.4byte	.LVL42
 5930 031e 0100     		.2byte	0x1
 5931 0320 51       		.byte	0x51
 5932 0321 00000000 		.4byte	0
ARM GAS  /tmp/ccXTVNcx.s 			page 124


 5933 0325 00000000 		.4byte	0
 5934              	.LLST20:
 5935 0329 76000000 		.4byte	.LVL41
 5936 032d 84000000 		.4byte	.LVL43
 5937 0331 0100     		.2byte	0x1
 5938 0333 53       		.byte	0x53
 5939 0334 00000000 		.4byte	0
 5940 0338 00000000 		.4byte	0
 5941              	.LLST21:
 5942 033c 00000000 		.4byte	.LVL44
 5943 0340 0A000000 		.4byte	.LVL46
 5944 0344 0100     		.2byte	0x1
 5945 0346 50       		.byte	0x50
 5946 0347 0A000000 		.4byte	.LVL46
 5947 034b AC000000 		.4byte	.LFE211
 5948 034f 0100     		.2byte	0x1
 5949 0351 52       		.byte	0x52
 5950 0352 00000000 		.4byte	0
 5951 0356 00000000 		.4byte	0
 5952              	.LLST22:
 5953 035a 00000000 		.4byte	.LVL44
 5954 035e 38000000 		.4byte	.LVL47
 5955 0362 0100     		.2byte	0x1
 5956 0364 51       		.byte	0x51
 5957 0365 38000000 		.4byte	.LVL47
 5958 0369 42000000 		.4byte	.LVL49
 5959 036d 0400     		.2byte	0x4
 5960 036f F3       		.byte	0xf3
 5961 0370 01       		.uleb128 0x1
 5962 0371 51       		.byte	0x51
 5963 0372 9F       		.byte	0x9f
 5964 0373 42000000 		.4byte	.LVL49
 5965 0377 52000000 		.4byte	.LVL50
 5966 037b 0100     		.2byte	0x1
 5967 037d 51       		.byte	0x51
 5968 037e 52000000 		.4byte	.LVL50
 5969 0382 58000000 		.4byte	.LVL51
 5970 0386 0400     		.2byte	0x4
 5971 0388 F3       		.byte	0xf3
 5972 0389 01       		.uleb128 0x1
 5973 038a 51       		.byte	0x51
 5974 038b 9F       		.byte	0x9f
 5975 038c 58000000 		.4byte	.LVL51
 5976 0390 6E000000 		.4byte	.LVL53
 5977 0394 0100     		.2byte	0x1
 5978 0396 51       		.byte	0x51
 5979 0397 6E000000 		.4byte	.LVL53
 5980 039b 74000000 		.4byte	.LVL54
 5981 039f 0400     		.2byte	0x4
 5982 03a1 F3       		.byte	0xf3
 5983 03a2 01       		.uleb128 0x1
 5984 03a3 51       		.byte	0x51
 5985 03a4 9F       		.byte	0x9f
 5986 03a5 74000000 		.4byte	.LVL54
 5987 03a9 80000000 		.4byte	.LVL55
 5988 03ad 0100     		.2byte	0x1
 5989 03af 51       		.byte	0x51
ARM GAS  /tmp/ccXTVNcx.s 			page 125


 5990 03b0 80000000 		.4byte	.LVL55
 5991 03b4 86000000 		.4byte	.LVL56
 5992 03b8 0400     		.2byte	0x4
 5993 03ba F3       		.byte	0xf3
 5994 03bb 01       		.uleb128 0x1
 5995 03bc 51       		.byte	0x51
 5996 03bd 9F       		.byte	0x9f
 5997 03be 86000000 		.4byte	.LVL56
 5998 03c2 88000000 		.4byte	.LVL57
 5999 03c6 0100     		.2byte	0x1
 6000 03c8 51       		.byte	0x51
 6001 03c9 88000000 		.4byte	.LVL57
 6002 03cd 8E000000 		.4byte	.LVL58
 6003 03d1 0400     		.2byte	0x4
 6004 03d3 F3       		.byte	0xf3
 6005 03d4 01       		.uleb128 0x1
 6006 03d5 51       		.byte	0x51
 6007 03d6 9F       		.byte	0x9f
 6008 03d7 8E000000 		.4byte	.LVL58
 6009 03db 90000000 		.4byte	.LVL59
 6010 03df 0100     		.2byte	0x1
 6011 03e1 51       		.byte	0x51
 6012 03e2 90000000 		.4byte	.LVL59
 6013 03e6 96000000 		.4byte	.LVL60
 6014 03ea 0400     		.2byte	0x4
 6015 03ec F3       		.byte	0xf3
 6016 03ed 01       		.uleb128 0x1
 6017 03ee 51       		.byte	0x51
 6018 03ef 9F       		.byte	0x9f
 6019 03f0 96000000 		.4byte	.LVL60
 6020 03f4 98000000 		.4byte	.LVL61
 6021 03f8 0100     		.2byte	0x1
 6022 03fa 51       		.byte	0x51
 6023 03fb 98000000 		.4byte	.LVL61
 6024 03ff 9E000000 		.4byte	.LVL62
 6025 0403 0400     		.2byte	0x4
 6026 0405 F3       		.byte	0xf3
 6027 0406 01       		.uleb128 0x1
 6028 0407 51       		.byte	0x51
 6029 0408 9F       		.byte	0x9f
 6030 0409 9E000000 		.4byte	.LVL62
 6031 040d A0000000 		.4byte	.LVL63
 6032 0411 0100     		.2byte	0x1
 6033 0413 51       		.byte	0x51
 6034 0414 A0000000 		.4byte	.LVL63
 6035 0418 AC000000 		.4byte	.LFE211
 6036 041c 0400     		.2byte	0x4
 6037 041e F3       		.byte	0xf3
 6038 041f 01       		.uleb128 0x1
 6039 0420 51       		.byte	0x51
 6040 0421 9F       		.byte	0x9f
 6041 0422 00000000 		.4byte	0
 6042 0426 00000000 		.4byte	0
 6043              	.LLST23:
 6044 042a 00000000 		.4byte	.LVL44
 6045 042e 3C000000 		.4byte	.LVL48
 6046 0432 0300     		.2byte	0x3
ARM GAS  /tmp/ccXTVNcx.s 			page 126


 6047 0434 08       		.byte	0x8
 6048 0435 3C       		.byte	0x3c
 6049 0436 9F       		.byte	0x9f
 6050 0437 3C000000 		.4byte	.LVL48
 6051 043b 42000000 		.4byte	.LVL49
 6052 043f 0100     		.2byte	0x1
 6053 0441 53       		.byte	0x53
 6054 0442 42000000 		.4byte	.LVL49
 6055 0446 74000000 		.4byte	.LVL54
 6056 044a 0300     		.2byte	0x3
 6057 044c 08       		.byte	0x8
 6058 044d 3C       		.byte	0x3c
 6059 044e 9F       		.byte	0x9f
 6060 044f 74000000 		.4byte	.LVL54
 6061 0453 86000000 		.4byte	.LVL56
 6062 0457 0300     		.2byte	0x3
 6063 0459 08       		.byte	0x8
 6064 045a 38       		.byte	0x38
 6065 045b 9F       		.byte	0x9f
 6066 045c 86000000 		.4byte	.LVL56
 6067 0460 96000000 		.4byte	.LVL60
 6068 0464 0300     		.2byte	0x3
 6069 0466 08       		.byte	0x8
 6070 0467 3C       		.byte	0x3c
 6071 0468 9F       		.byte	0x9f
 6072 0469 96000000 		.4byte	.LVL60
 6073 046d 9E000000 		.4byte	.LVL62
 6074 0471 0300     		.2byte	0x3
 6075 0473 08       		.byte	0x8
 6076 0474 38       		.byte	0x38
 6077 0475 9F       		.byte	0x9f
 6078 0476 9E000000 		.4byte	.LVL62
 6079 047a AC000000 		.4byte	.LFE211
 6080 047e 0300     		.2byte	0x3
 6081 0480 08       		.byte	0x8
 6082 0481 3C       		.byte	0x3c
 6083 0482 9F       		.byte	0x9f
 6084 0483 00000000 		.4byte	0
 6085 0487 00000000 		.4byte	0
 6086              	.LLST24:
 6087 048b 00000000 		.4byte	.LVL44
 6088 048f 3C000000 		.4byte	.LVL48
 6089 0493 0200     		.2byte	0x2
 6090 0495 30       		.byte	0x30
 6091 0496 9F       		.byte	0x9f
 6092 0497 3C000000 		.4byte	.LVL48
 6093 049b 42000000 		.4byte	.LVL49
 6094 049f 0100     		.2byte	0x1
 6095 04a1 50       		.byte	0x50
 6096 04a2 42000000 		.4byte	.LVL49
 6097 04a6 68000000 		.4byte	.LVL52
 6098 04aa 0200     		.2byte	0x2
 6099 04ac 30       		.byte	0x30
 6100 04ad 9F       		.byte	0x9f
 6101 04ae 68000000 		.4byte	.LVL52
 6102 04b2 74000000 		.4byte	.LVL54
 6103 04b6 0200     		.2byte	0x2
ARM GAS  /tmp/ccXTVNcx.s 			page 127


 6104 04b8 35       		.byte	0x35
 6105 04b9 9F       		.byte	0x9f
 6106 04ba 74000000 		.4byte	.LVL54
 6107 04be 86000000 		.4byte	.LVL56
 6108 04c2 0200     		.2byte	0x2
 6109 04c4 32       		.byte	0x32
 6110 04c5 9F       		.byte	0x9f
 6111 04c6 86000000 		.4byte	.LVL56
 6112 04ca 96000000 		.4byte	.LVL60
 6113 04ce 0200     		.2byte	0x2
 6114 04d0 30       		.byte	0x30
 6115 04d1 9F       		.byte	0x9f
 6116 04d2 96000000 		.4byte	.LVL60
 6117 04d6 9E000000 		.4byte	.LVL62
 6118 04da 0200     		.2byte	0x2
 6119 04dc 32       		.byte	0x32
 6120 04dd 9F       		.byte	0x9f
 6121 04de 9E000000 		.4byte	.LVL62
 6122 04e2 AC000000 		.4byte	.LFE211
 6123 04e6 0200     		.2byte	0x2
 6124 04e8 35       		.byte	0x35
 6125 04e9 9F       		.byte	0x9f
 6126 04ea 00000000 		.4byte	0
 6127 04ee 00000000 		.4byte	0
 6128              	.LLST25:
 6129 04f2 06000000 		.4byte	.LVL45
 6130 04f6 0A000000 		.4byte	.LVL46
 6131 04fa 0100     		.2byte	0x1
 6132 04fc 50       		.byte	0x50
 6133 04fd 0A000000 		.4byte	.LVL46
 6134 0501 AC000000 		.4byte	.LFE211
 6135 0505 0100     		.2byte	0x1
 6136 0507 52       		.byte	0x52
 6137 0508 00000000 		.4byte	0
 6138 050c 00000000 		.4byte	0
 6139              	.LLST26:
 6140 0510 00000000 		.4byte	.LVL64
 6141 0514 08000000 		.4byte	.LVL65
 6142 0518 0100     		.2byte	0x1
 6143 051a 50       		.byte	0x50
 6144 051b 08000000 		.4byte	.LVL65
 6145 051f 2C000000 		.4byte	.LFE214
 6146 0523 0400     		.2byte	0x4
 6147 0525 F3       		.byte	0xf3
 6148 0526 01       		.uleb128 0x1
 6149 0527 50       		.byte	0x50
 6150 0528 9F       		.byte	0x9f
 6151 0529 00000000 		.4byte	0
 6152 052d 00000000 		.4byte	0
 6153              	.LLST28:
 6154 0531 00000000 		.4byte	.LVL64
 6155 0535 08000000 		.4byte	.LVL65
 6156 0539 0A00     		.2byte	0xa
 6157 053b 70       		.byte	0x70
 6158 053c 00       		.sleb128 0
 6159 053d 4C       		.byte	0x4c
 6160 053e 1E       		.byte	0x1e
ARM GAS  /tmp/ccXTVNcx.s 			page 128


 6161 053f 03       		.byte	0x3
 6162 0540 04000000 		.4byte	i2c+4
 6163 0544 22       		.byte	0x22
 6164 0545 00000000 		.4byte	0
 6165 0549 00000000 		.4byte	0
 6166              	.LLST29:
 6167 054d 00000000 		.4byte	.LVL66
 6168 0551 08000000 		.4byte	.LVL67
 6169 0555 0100     		.2byte	0x1
 6170 0557 50       		.byte	0x50
 6171 0558 08000000 		.4byte	.LVL67
 6172 055c 2C000000 		.4byte	.LFE215
 6173 0560 0400     		.2byte	0x4
 6174 0562 F3       		.byte	0xf3
 6175 0563 01       		.uleb128 0x1
 6176 0564 50       		.byte	0x50
 6177 0565 9F       		.byte	0x9f
 6178 0566 00000000 		.4byte	0
 6179 056a 00000000 		.4byte	0
 6180              	.LLST30:
 6181 056e 00000000 		.4byte	.LVL69
 6182 0572 09000000 		.4byte	.LVL70-1
 6183 0576 0100     		.2byte	0x1
 6184 0578 50       		.byte	0x50
 6185 0579 09000000 		.4byte	.LVL70-1
 6186 057d 2C000000 		.4byte	.LFE216
 6187 0581 0400     		.2byte	0x4
 6188 0583 F3       		.byte	0xf3
 6189 0584 01       		.uleb128 0x1
 6190 0585 50       		.byte	0x50
 6191 0586 9F       		.byte	0x9f
 6192 0587 00000000 		.4byte	0
 6193 058b 00000000 		.4byte	0
 6194              	.LLST31:
 6195 058f 00000000 		.4byte	.LVL69
 6196 0593 09000000 		.4byte	.LVL70-1
 6197 0597 0100     		.2byte	0x1
 6198 0599 51       		.byte	0x51
 6199 059a 09000000 		.4byte	.LVL70-1
 6200 059e 24000000 		.4byte	.LVL73
 6201 05a2 0100     		.2byte	0x1
 6202 05a4 55       		.byte	0x55
 6203 05a5 24000000 		.4byte	.LVL73
 6204 05a9 2C000000 		.4byte	.LFE216
 6205 05ad 0400     		.2byte	0x4
 6206 05af F3       		.byte	0xf3
 6207 05b0 01       		.uleb128 0x1
 6208 05b1 51       		.byte	0x51
 6209 05b2 9F       		.byte	0x9f
 6210 05b3 00000000 		.4byte	0
 6211 05b7 00000000 		.4byte	0
 6212              	.LLST32:
 6213 05bb 10000000 		.4byte	.LVL71
 6214 05bf 22000000 		.4byte	.LVL72
 6215 05c3 0100     		.2byte	0x1
 6216 05c5 50       		.byte	0x50
 6217 05c6 00000000 		.4byte	0
ARM GAS  /tmp/ccXTVNcx.s 			page 129


 6218 05ca 00000000 		.4byte	0
 6219              	.LLST33:
 6220 05ce 00000000 		.4byte	.LVL74
 6221 05d2 07000000 		.4byte	.LVL75-1
 6222 05d6 0100     		.2byte	0x1
 6223 05d8 50       		.byte	0x50
 6224 05d9 07000000 		.4byte	.LVL75-1
 6225 05dd 24000000 		.4byte	.LFE217
 6226 05e1 0400     		.2byte	0x4
 6227 05e3 F3       		.byte	0xf3
 6228 05e4 01       		.uleb128 0x1
 6229 05e5 50       		.byte	0x50
 6230 05e6 9F       		.byte	0x9f
 6231 05e7 00000000 		.4byte	0
 6232 05eb 00000000 		.4byte	0
 6233              	.LLST34:
 6234 05ef 00000000 		.4byte	.LVL77
 6235 05f3 06000000 		.4byte	.LVL78
 6236 05f7 0100     		.2byte	0x1
 6237 05f9 50       		.byte	0x50
 6238 05fa 06000000 		.4byte	.LVL78
 6239 05fe 28000000 		.4byte	.LFE218
 6240 0602 0400     		.2byte	0x4
 6241 0604 F3       		.byte	0xf3
 6242 0605 01       		.uleb128 0x1
 6243 0606 50       		.byte	0x50
 6244 0607 9F       		.byte	0x9f
 6245 0608 00000000 		.4byte	0
 6246 060c 00000000 		.4byte	0
 6247              	.LLST35:
 6248 0610 00000000 		.4byte	.LVL77
 6249 0614 18000000 		.4byte	.LVL79
 6250 0618 0100     		.2byte	0x1
 6251 061a 51       		.byte	0x51
 6252 061b 18000000 		.4byte	.LVL79
 6253 061f 1C000000 		.4byte	.LVL80
 6254 0623 0400     		.2byte	0x4
 6255 0625 F3       		.byte	0xf3
 6256 0626 01       		.uleb128 0x1
 6257 0627 51       		.byte	0x51
 6258 0628 9F       		.byte	0x9f
 6259 0629 1C000000 		.4byte	.LVL80
 6260 062d 28000000 		.4byte	.LFE218
 6261 0631 0100     		.2byte	0x1
 6262 0633 51       		.byte	0x51
 6263 0634 00000000 		.4byte	0
 6264 0638 00000000 		.4byte	0
 6265              	.LLST36:
 6266 063c 00000000 		.4byte	.LVL77
 6267 0640 06000000 		.4byte	.LVL78
 6268 0644 0B00     		.2byte	0xb
 6269 0646 70       		.byte	0x70
 6270 0647 00       		.sleb128 0
 6271 0648 4C       		.byte	0x4c
 6272 0649 1E       		.byte	0x1e
 6273 064a 03       		.byte	0x3
 6274 064b 00000000 		.4byte	i2c
ARM GAS  /tmp/ccXTVNcx.s 			page 130


 6275 064f 22       		.byte	0x22
 6276 0650 9F       		.byte	0x9f
 6277 0651 00000000 		.4byte	0
 6278 0655 00000000 		.4byte	0
 6279              	.LLST37:
 6280 0659 00000000 		.4byte	.LVL81
 6281 065d 04000000 		.4byte	.LVL82
 6282 0661 0100     		.2byte	0x1
 6283 0663 50       		.byte	0x50
 6284 0664 04000000 		.4byte	.LVL82
 6285 0668 14000000 		.4byte	.LFE219
 6286 066c 0400     		.2byte	0x4
 6287 066e F3       		.byte	0xf3
 6288 066f 01       		.uleb128 0x1
 6289 0670 50       		.byte	0x50
 6290 0671 9F       		.byte	0x9f
 6291 0672 00000000 		.4byte	0
 6292 0676 00000000 		.4byte	0
 6293              	.LLST38:
 6294 067a 00000000 		.4byte	.LVL83
 6295 067e 21000000 		.4byte	.LVL85-1
 6296 0682 0100     		.2byte	0x1
 6297 0684 50       		.byte	0x50
 6298 0685 21000000 		.4byte	.LVL85-1
 6299 0689 98000000 		.4byte	.LFE220
 6300 068d 0400     		.2byte	0x4
 6301 068f F3       		.byte	0xf3
 6302 0690 01       		.uleb128 0x1
 6303 0691 50       		.byte	0x50
 6304 0692 9F       		.byte	0x9f
 6305 0693 00000000 		.4byte	0
 6306 0697 00000000 		.4byte	0
 6307              	.LLST39:
 6308 069b 00000000 		.4byte	.LVL83
 6309 069f 1E000000 		.4byte	.LVL84
 6310 06a3 0100     		.2byte	0x1
 6311 06a5 51       		.byte	0x51
 6312 06a6 1E000000 		.4byte	.LVL84
 6313 06aa 7E000000 		.4byte	.LVL92
 6314 06ae 0100     		.2byte	0x1
 6315 06b0 56       		.byte	0x56
 6316 06b1 7E000000 		.4byte	.LVL92
 6317 06b5 86000000 		.4byte	.LVL93
 6318 06b9 0400     		.2byte	0x4
 6319 06bb F3       		.byte	0xf3
 6320 06bc 01       		.uleb128 0x1
 6321 06bd 51       		.byte	0x51
 6322 06be 9F       		.byte	0x9f
 6323 06bf 86000000 		.4byte	.LVL93
 6324 06c3 98000000 		.4byte	.LFE220
 6325 06c7 0100     		.2byte	0x1
 6326 06c9 56       		.byte	0x56
 6327 06ca 00000000 		.4byte	0
 6328 06ce 00000000 		.4byte	0
 6329              	.LLST40:
 6330 06d2 00000000 		.4byte	.LVL83
 6331 06d6 21000000 		.4byte	.LVL85-1
ARM GAS  /tmp/ccXTVNcx.s 			page 131


 6332 06da 0B00     		.2byte	0xb
 6333 06dc 70       		.byte	0x70
 6334 06dd 00       		.sleb128 0
 6335 06de 4C       		.byte	0x4c
 6336 06df 1E       		.byte	0x1e
 6337 06e0 03       		.byte	0x3
 6338 06e1 00000000 		.4byte	i2c
 6339 06e5 22       		.byte	0x22
 6340 06e6 9F       		.byte	0x9f
 6341 06e7 21000000 		.4byte	.LVL85-1
 6342 06eb 7E000000 		.4byte	.LVL91
 6343 06ef 0B00     		.2byte	0xb
 6344 06f1 75       		.byte	0x75
 6345 06f2 00       		.sleb128 0
 6346 06f3 4C       		.byte	0x4c
 6347 06f4 1E       		.byte	0x1e
 6348 06f5 03       		.byte	0x3
 6349 06f6 00000000 		.4byte	i2c
 6350 06fa 22       		.byte	0x22
 6351 06fb 9F       		.byte	0x9f
 6352 06fc 86000000 		.4byte	.LVL93
 6353 0700 98000000 		.4byte	.LFE220
 6354 0704 0B00     		.2byte	0xb
 6355 0706 75       		.byte	0x75
 6356 0707 00       		.sleb128 0
 6357 0708 4C       		.byte	0x4c
 6358 0709 1E       		.byte	0x1e
 6359 070a 03       		.byte	0x3
 6360 070b 00000000 		.4byte	i2c
 6361 070f 22       		.byte	0x22
 6362 0710 9F       		.byte	0x9f
 6363 0711 00000000 		.4byte	0
 6364 0715 00000000 		.4byte	0
 6365              	.LLST41:
 6366 0719 50000000 		.4byte	.LVL87
 6367 071d 7B000000 		.4byte	.LVL90-1
 6368 0721 0100     		.2byte	0x1
 6369 0723 52       		.byte	0x52
 6370 0724 00000000 		.4byte	0
 6371 0728 00000000 		.4byte	0
 6372              	.LLST42:
 6373 072c 66000000 		.4byte	.LVL88
 6374 0730 6E000000 		.4byte	.LVL89
 6375 0734 0100     		.2byte	0x1
 6376 0736 52       		.byte	0x52
 6377 0737 00000000 		.4byte	0
 6378 073b 00000000 		.4byte	0
 6379              	.LLST43:
 6380 073f 00000000 		.4byte	.LVL95
 6381 0743 1A000000 		.4byte	.LVL97
 6382 0747 0100     		.2byte	0x1
 6383 0749 50       		.byte	0x50
 6384 074a 1A000000 		.4byte	.LVL97
 6385 074e 2E000000 		.4byte	.LFE221
 6386 0752 0400     		.2byte	0x4
 6387 0754 F3       		.byte	0xf3
 6388 0755 01       		.uleb128 0x1
ARM GAS  /tmp/ccXTVNcx.s 			page 132


 6389 0756 50       		.byte	0x50
 6390 0757 9F       		.byte	0x9f
 6391 0758 00000000 		.4byte	0
 6392 075c 00000000 		.4byte	0
 6393              	.LLST44:
 6394 0760 00000000 		.4byte	.LVL95
 6395 0764 1A000000 		.4byte	.LVL97
 6396 0768 0100     		.2byte	0x1
 6397 076a 51       		.byte	0x51
 6398 076b 1A000000 		.4byte	.LVL97
 6399 076f 2E000000 		.4byte	.LFE221
 6400 0773 0400     		.2byte	0x4
 6401 0775 F3       		.byte	0xf3
 6402 0776 01       		.uleb128 0x1
 6403 0777 51       		.byte	0x51
 6404 0778 9F       		.byte	0x9f
 6405 0779 00000000 		.4byte	0
 6406 077d 00000000 		.4byte	0
 6407              	.LLST45:
 6408 0781 00000000 		.4byte	.LVL95
 6409 0785 1A000000 		.4byte	.LVL97
 6410 0789 0100     		.2byte	0x1
 6411 078b 52       		.byte	0x52
 6412 078c 1A000000 		.4byte	.LVL97
 6413 0790 2E000000 		.4byte	.LFE221
 6414 0794 0400     		.2byte	0x4
 6415 0796 F3       		.byte	0xf3
 6416 0797 01       		.uleb128 0x1
 6417 0798 52       		.byte	0x52
 6418 0799 9F       		.byte	0x9f
 6419 079a 00000000 		.4byte	0
 6420 079e 00000000 		.4byte	0
 6421              	.LLST46:
 6422 07a2 00000000 		.4byte	.LVL95
 6423 07a6 06000000 		.4byte	.LVL96
 6424 07aa 0100     		.2byte	0x1
 6425 07ac 53       		.byte	0x53
 6426 07ad 06000000 		.4byte	.LVL96
 6427 07b1 2E000000 		.4byte	.LFE221
 6428 07b5 0400     		.2byte	0x4
 6429 07b7 F3       		.byte	0xf3
 6430 07b8 01       		.uleb128 0x1
 6431 07b9 53       		.byte	0x53
 6432 07ba 9F       		.byte	0x9f
 6433 07bb 00000000 		.4byte	0
 6434 07bf 00000000 		.4byte	0
 6435              	.LLST47:
 6436 07c3 00000000 		.4byte	.LVL99
 6437 07c7 08000000 		.4byte	.LVL100
 6438 07cb 0100     		.2byte	0x1
 6439 07cd 50       		.byte	0x50
 6440 07ce 08000000 		.4byte	.LVL100
 6441 07d2 36000000 		.4byte	.LFE222
 6442 07d6 0400     		.2byte	0x4
 6443 07d8 F3       		.byte	0xf3
 6444 07d9 01       		.uleb128 0x1
 6445 07da 50       		.byte	0x50
ARM GAS  /tmp/ccXTVNcx.s 			page 133


 6446 07db 9F       		.byte	0x9f
 6447 07dc 00000000 		.4byte	0
 6448 07e0 00000000 		.4byte	0
 6449              	.LLST48:
 6450 07e4 00000000 		.4byte	.LVL99
 6451 07e8 22000000 		.4byte	.LVL103
 6452 07ec 0100     		.2byte	0x1
 6453 07ee 51       		.byte	0x51
 6454 07ef 22000000 		.4byte	.LVL103
 6455 07f3 36000000 		.4byte	.LFE222
 6456 07f7 0400     		.2byte	0x4
 6457 07f9 F3       		.byte	0xf3
 6458 07fa 01       		.uleb128 0x1
 6459 07fb 51       		.byte	0x51
 6460 07fc 9F       		.byte	0x9f
 6461 07fd 00000000 		.4byte	0
 6462 0801 00000000 		.4byte	0
 6463              	.LLST49:
 6464 0805 00000000 		.4byte	.LVL99
 6465 0809 0C000000 		.4byte	.LVL101
 6466 080d 0100     		.2byte	0x1
 6467 080f 52       		.byte	0x52
 6468 0810 0C000000 		.4byte	.LVL101
 6469 0814 14000000 		.4byte	.LVL102
 6470 0818 0200     		.2byte	0x2
 6471 081a 70       		.byte	0x70
 6472 081b 07       		.sleb128 7
 6473 081c 14000000 		.4byte	.LVL102
 6474 0820 22000000 		.4byte	.LVL103
 6475 0824 0200     		.2byte	0x2
 6476 0826 70       		.byte	0x70
 6477 0827 00       		.sleb128 0
 6478 0828 22000000 		.4byte	.LVL103
 6479 082c 34000000 		.4byte	.LVL105
 6480 0830 0200     		.2byte	0x2
 6481 0832 7D       		.byte	0x7d
 6482 0833 07       		.sleb128 7
 6483 0834 34000000 		.4byte	.LVL105
 6484 0838 36000000 		.4byte	.LFE222
 6485 083c 0200     		.2byte	0x2
 6486 083e 91       		.byte	0x91
 6487 083f 57       		.sleb128 -41
 6488 0840 00000000 		.4byte	0
 6489 0844 00000000 		.4byte	0
 6490              	.LLST50:
 6491 0848 00000000 		.4byte	.LVL99
 6492 084c 22000000 		.4byte	.LVL103
 6493 0850 0100     		.2byte	0x1
 6494 0852 53       		.byte	0x53
 6495 0853 22000000 		.4byte	.LVL103
 6496 0857 36000000 		.4byte	.LFE222
 6497 085b 0400     		.2byte	0x4
 6498 085d F3       		.byte	0xf3
 6499 085e 01       		.uleb128 0x1
 6500 085f 53       		.byte	0x53
 6501 0860 9F       		.byte	0x9f
 6502 0861 00000000 		.4byte	0
ARM GAS  /tmp/ccXTVNcx.s 			page 134


 6503 0865 00000000 		.4byte	0
 6504              	.LLST51:
 6505 0869 00000000 		.4byte	.LVL106
 6506 086d 1A000000 		.4byte	.LVL108
 6507 0871 0100     		.2byte	0x1
 6508 0873 50       		.byte	0x50
 6509 0874 1A000000 		.4byte	.LVL108
 6510 0878 2E000000 		.4byte	.LFE223
 6511 087c 0400     		.2byte	0x4
 6512 087e F3       		.byte	0xf3
 6513 087f 01       		.uleb128 0x1
 6514 0880 50       		.byte	0x50
 6515 0881 9F       		.byte	0x9f
 6516 0882 00000000 		.4byte	0
 6517 0886 00000000 		.4byte	0
 6518              	.LLST52:
 6519 088a 00000000 		.4byte	.LVL106
 6520 088e 1A000000 		.4byte	.LVL108
 6521 0892 0100     		.2byte	0x1
 6522 0894 51       		.byte	0x51
 6523 0895 1A000000 		.4byte	.LVL108
 6524 0899 2E000000 		.4byte	.LFE223
 6525 089d 0400     		.2byte	0x4
 6526 089f F3       		.byte	0xf3
 6527 08a0 01       		.uleb128 0x1
 6528 08a1 51       		.byte	0x51
 6529 08a2 9F       		.byte	0x9f
 6530 08a3 00000000 		.4byte	0
 6531 08a7 00000000 		.4byte	0
 6532              	.LLST53:
 6533 08ab 00000000 		.4byte	.LVL106
 6534 08af 1A000000 		.4byte	.LVL108
 6535 08b3 0100     		.2byte	0x1
 6536 08b5 52       		.byte	0x52
 6537 08b6 1A000000 		.4byte	.LVL108
 6538 08ba 2E000000 		.4byte	.LFE223
 6539 08be 0400     		.2byte	0x4
 6540 08c0 F3       		.byte	0xf3
 6541 08c1 01       		.uleb128 0x1
 6542 08c2 52       		.byte	0x52
 6543 08c3 9F       		.byte	0x9f
 6544 08c4 00000000 		.4byte	0
 6545 08c8 00000000 		.4byte	0
 6546              	.LLST54:
 6547 08cc 00000000 		.4byte	.LVL106
 6548 08d0 06000000 		.4byte	.LVL107
 6549 08d4 0100     		.2byte	0x1
 6550 08d6 53       		.byte	0x53
 6551 08d7 06000000 		.4byte	.LVL107
 6552 08db 2C000000 		.4byte	.LVL110
 6553 08df 0100     		.2byte	0x1
 6554 08e1 55       		.byte	0x55
 6555 08e2 2C000000 		.4byte	.LVL110
 6556 08e6 2E000000 		.4byte	.LFE223
 6557 08ea 0400     		.2byte	0x4
 6558 08ec F3       		.byte	0xf3
 6559 08ed 01       		.uleb128 0x1
ARM GAS  /tmp/ccXTVNcx.s 			page 135


 6560 08ee 53       		.byte	0x53
 6561 08ef 9F       		.byte	0x9f
 6562 08f0 00000000 		.4byte	0
 6563 08f4 00000000 		.4byte	0
 6564              	.LLST55:
 6565 08f8 00000000 		.4byte	.LVL111
 6566 08fc 06000000 		.4byte	.LVL112
 6567 0900 0100     		.2byte	0x1
 6568 0902 50       		.byte	0x50
 6569 0903 06000000 		.4byte	.LVL112
 6570 0907 20000000 		.4byte	.LFE224
 6571 090b 0400     		.2byte	0x4
 6572 090d F3       		.byte	0xf3
 6573 090e 01       		.uleb128 0x1
 6574 090f 50       		.byte	0x50
 6575 0910 9F       		.byte	0x9f
 6576 0911 00000000 		.4byte	0
 6577 0915 00000000 		.4byte	0
 6578              	.LLST56:
 6579 0919 0C000000 		.4byte	.LVL113
 6580 091d 10000000 		.4byte	.LVL114
 6581 0921 0100     		.2byte	0x1
 6582 0923 53       		.byte	0x53
 6583 0924 10000000 		.4byte	.LVL114
 6584 0928 16000000 		.4byte	.LVL115
 6585 092c 0800     		.2byte	0x8
 6586 092e 70       		.byte	0x70
 6587 092f 00       		.sleb128 0
 6588 0930 03       		.byte	0x3
 6589 0931 00000000 		.4byte	.LANCHOR0
 6590 0935 22       		.byte	0x22
 6591 0936 00000000 		.4byte	0
 6592 093a 00000000 		.4byte	0
 6593              	.LLST58:
 6594 093e 00000000 		.4byte	.LVL116
 6595 0942 0E000000 		.4byte	.LVL117
 6596 0946 0100     		.2byte	0x1
 6597 0948 50       		.byte	0x50
 6598 0949 0E000000 		.4byte	.LVL117
 6599 094d 28000000 		.4byte	.LFE225
 6600 0951 0400     		.2byte	0x4
 6601 0953 F3       		.byte	0xf3
 6602 0954 01       		.uleb128 0x1
 6603 0955 50       		.byte	0x50
 6604 0956 9F       		.byte	0x9f
 6605 0957 00000000 		.4byte	0
 6606 095b 00000000 		.4byte	0
 6607              	.LLST59:
 6608 095f 00000000 		.4byte	.LVL120
 6609 0963 0A000000 		.4byte	.LVL121
 6610 0967 0100     		.2byte	0x1
 6611 0969 50       		.byte	0x50
 6612 096a 0A000000 		.4byte	.LVL121
 6613 096e 10000000 		.4byte	.LVL122
 6614 0972 0400     		.2byte	0x4
 6615 0974 F3       		.byte	0xf3
 6616 0975 01       		.uleb128 0x1
ARM GAS  /tmp/ccXTVNcx.s 			page 136


 6617 0976 50       		.byte	0x50
 6618 0977 9F       		.byte	0x9f
 6619 0978 10000000 		.4byte	.LVL122
 6620 097c 20000000 		.4byte	.LVL123
 6621 0980 0100     		.2byte	0x1
 6622 0982 50       		.byte	0x50
 6623 0983 20000000 		.4byte	.LVL123
 6624 0987 3C000000 		.4byte	.LFE213
 6625 098b 0400     		.2byte	0x4
 6626 098d F3       		.byte	0xf3
 6627 098e 01       		.uleb128 0x1
 6628 098f 50       		.byte	0x50
 6629 0990 9F       		.byte	0x9f
 6630 0991 00000000 		.4byte	0
 6631 0995 00000000 		.4byte	0
 6632              	.LLST60:
 6633 0999 00000000 		.4byte	.LVL120
 6634 099d 0A000000 		.4byte	.LVL121
 6635 09a1 0100     		.2byte	0x1
 6636 09a3 51       		.byte	0x51
 6637 09a4 0A000000 		.4byte	.LVL121
 6638 09a8 10000000 		.4byte	.LVL122
 6639 09ac 0400     		.2byte	0x4
 6640 09ae F3       		.byte	0xf3
 6641 09af 01       		.uleb128 0x1
 6642 09b0 51       		.byte	0x51
 6643 09b1 9F       		.byte	0x9f
 6644 09b2 10000000 		.4byte	.LVL122
 6645 09b6 20000000 		.4byte	.LVL123
 6646 09ba 0100     		.2byte	0x1
 6647 09bc 51       		.byte	0x51
 6648 09bd 20000000 		.4byte	.LVL123
 6649 09c1 3C000000 		.4byte	.LFE213
 6650 09c5 0400     		.2byte	0x4
 6651 09c7 F3       		.byte	0xf3
 6652 09c8 01       		.uleb128 0x1
 6653 09c9 51       		.byte	0x51
 6654 09ca 9F       		.byte	0x9f
 6655 09cb 00000000 		.4byte	0
 6656 09cf 00000000 		.4byte	0
 6657              	.LLST61:
 6658 09d3 00000000 		.4byte	.LVL120
 6659 09d7 0A000000 		.4byte	.LVL121
 6660 09db 0E00     		.2byte	0xe
 6661 09dd 70       		.byte	0x70
 6662 09de 00       		.sleb128 0
 6663 09df 08       		.byte	0x8
 6664 09e0 FF       		.byte	0xff
 6665 09e1 1A       		.byte	0x1a
 6666 09e2 4C       		.byte	0x4c
 6667 09e3 1E       		.byte	0x1e
 6668 09e4 03       		.byte	0x3
 6669 09e5 00000000 		.4byte	i2c
 6670 09e9 22       		.byte	0x22
 6671 09ea 9F       		.byte	0x9f
 6672 09eb 0A000000 		.4byte	.LVL121
 6673 09ef 10000000 		.4byte	.LVL122
ARM GAS  /tmp/ccXTVNcx.s 			page 137


 6674 09f3 0F00     		.2byte	0xf
 6675 09f5 F3       		.byte	0xf3
 6676 09f6 01       		.uleb128 0x1
 6677 09f7 50       		.byte	0x50
 6678 09f8 08       		.byte	0x8
 6679 09f9 FF       		.byte	0xff
 6680 09fa 1A       		.byte	0x1a
 6681 09fb 4C       		.byte	0x4c
 6682 09fc 1E       		.byte	0x1e
 6683 09fd 03       		.byte	0x3
 6684 09fe 00000000 		.4byte	i2c
 6685 0a02 22       		.byte	0x22
 6686 0a03 9F       		.byte	0x9f
 6687 0a04 10000000 		.4byte	.LVL122
 6688 0a08 20000000 		.4byte	.LVL123
 6689 0a0c 0E00     		.2byte	0xe
 6690 0a0e 70       		.byte	0x70
 6691 0a0f 00       		.sleb128 0
 6692 0a10 08       		.byte	0x8
 6693 0a11 FF       		.byte	0xff
 6694 0a12 1A       		.byte	0x1a
 6695 0a13 4C       		.byte	0x4c
 6696 0a14 1E       		.byte	0x1e
 6697 0a15 03       		.byte	0x3
 6698 0a16 00000000 		.4byte	i2c
 6699 0a1a 22       		.byte	0x22
 6700 0a1b 9F       		.byte	0x9f
 6701 0a1c 20000000 		.4byte	.LVL123
 6702 0a20 3C000000 		.4byte	.LFE213
 6703 0a24 0F00     		.2byte	0xf
 6704 0a26 F3       		.byte	0xf3
 6705 0a27 01       		.uleb128 0x1
 6706 0a28 50       		.byte	0x50
 6707 0a29 08       		.byte	0x8
 6708 0a2a FF       		.byte	0xff
 6709 0a2b 1A       		.byte	0x1a
 6710 0a2c 4C       		.byte	0x4c
 6711 0a2d 1E       		.byte	0x1e
 6712 0a2e 03       		.byte	0x3
 6713 0a2f 00000000 		.4byte	i2c
 6714 0a33 22       		.byte	0x22
 6715 0a34 9F       		.byte	0x9f
 6716 0a35 00000000 		.4byte	0
 6717 0a39 00000000 		.4byte	0
 6718              	.LLST62:
 6719 0a3d 00000000 		.4byte	.LVL126
 6720 0a41 58000000 		.4byte	.LVL137
 6721 0a45 0100     		.2byte	0x1
 6722 0a47 50       		.byte	0x50
 6723 0a48 58000000 		.4byte	.LVL137
 6724 0a4c 66000000 		.4byte	.LVL139
 6725 0a50 0400     		.2byte	0x4
 6726 0a52 F3       		.byte	0xf3
 6727 0a53 01       		.uleb128 0x1
 6728 0a54 50       		.byte	0x50
 6729 0a55 9F       		.byte	0x9f
 6730 0a56 66000000 		.4byte	.LVL139
ARM GAS  /tmp/ccXTVNcx.s 			page 138


 6731 0a5a 84000000 		.4byte	.LFE226
 6732 0a5e 0100     		.2byte	0x1
 6733 0a60 50       		.byte	0x50
 6734 0a61 00000000 		.4byte	0
 6735 0a65 00000000 		.4byte	0
 6736              	.LLST63:
 6737 0a69 00000000 		.4byte	.LVL126
 6738 0a6d 5A000000 		.4byte	.LVL138
 6739 0a71 0100     		.2byte	0x1
 6740 0a73 51       		.byte	0x51
 6741 0a74 5A000000 		.4byte	.LVL138
 6742 0a78 66000000 		.4byte	.LVL139
 6743 0a7c 0400     		.2byte	0x4
 6744 0a7e F3       		.byte	0xf3
 6745 0a7f 01       		.uleb128 0x1
 6746 0a80 51       		.byte	0x51
 6747 0a81 9F       		.byte	0x9f
 6748 0a82 66000000 		.4byte	.LVL139
 6749 0a86 84000000 		.4byte	.LFE226
 6750 0a8a 0100     		.2byte	0x1
 6751 0a8c 51       		.byte	0x51
 6752 0a8d 00000000 		.4byte	0
 6753 0a91 00000000 		.4byte	0
 6754              	.LLST64:
 6755 0a95 00000000 		.4byte	.LVL126
 6756 0a99 22000000 		.4byte	.LVL130
 6757 0a9d 0100     		.2byte	0x1
 6758 0a9f 52       		.byte	0x52
 6759 0aa0 22000000 		.4byte	.LVL130
 6760 0aa4 24000000 		.4byte	.LVL131
 6761 0aa8 0200     		.2byte	0x2
 6762 0aaa 74       		.byte	0x74
 6763 0aab 00       		.sleb128 0
 6764 0aac 24000000 		.4byte	.LVL131
 6765 0ab0 58000000 		.4byte	.LVL137
 6766 0ab4 1200     		.2byte	0x12
 6767 0ab6 70       		.byte	0x70
 6768 0ab7 00       		.sleb128 0
 6769 0ab8 32       		.byte	0x32
 6770 0ab9 24       		.byte	0x24
 6771 0aba 70       		.byte	0x70
 6772 0abb 00       		.sleb128 0
 6773 0abc 22       		.byte	0x22
 6774 0abd 71       		.byte	0x71
 6775 0abe 00       		.sleb128 0
 6776 0abf 22       		.byte	0x22
 6777 0ac0 33       		.byte	0x33
 6778 0ac1 24       		.byte	0x24
 6779 0ac2 03       		.byte	0x3
 6780 0ac3 00000000 		.4byte	.LANCHOR1
 6781 0ac7 22       		.byte	0x22
 6782 0ac8 58000000 		.4byte	.LVL137
 6783 0acc 84000000 		.4byte	.LFE226
 6784 0ad0 0400     		.2byte	0x4
 6785 0ad2 F3       		.byte	0xf3
 6786 0ad3 01       		.uleb128 0x1
 6787 0ad4 52       		.byte	0x52
ARM GAS  /tmp/ccXTVNcx.s 			page 139


 6788 0ad5 9F       		.byte	0x9f
 6789 0ad6 00000000 		.4byte	0
 6790 0ada 00000000 		.4byte	0
 6791              	.LLST65:
 6792 0ade 00000000 		.4byte	.LVL126
 6793 0ae2 1A000000 		.4byte	.LVL129
 6794 0ae6 0100     		.2byte	0x1
 6795 0ae8 53       		.byte	0x53
 6796 0ae9 1A000000 		.4byte	.LVL129
 6797 0aed 24000000 		.4byte	.LVL131
 6798 0af1 0200     		.2byte	0x2
 6799 0af3 74       		.byte	0x74
 6800 0af4 04       		.sleb128 4
 6801 0af5 24000000 		.4byte	.LVL131
 6802 0af9 58000000 		.4byte	.LVL137
 6803 0afd 1200     		.2byte	0x12
 6804 0aff 70       		.byte	0x70
 6805 0b00 00       		.sleb128 0
 6806 0b01 32       		.byte	0x32
 6807 0b02 24       		.byte	0x24
 6808 0b03 70       		.byte	0x70
 6809 0b04 00       		.sleb128 0
 6810 0b05 22       		.byte	0x22
 6811 0b06 71       		.byte	0x71
 6812 0b07 00       		.sleb128 0
 6813 0b08 22       		.byte	0x22
 6814 0b09 33       		.byte	0x33
 6815 0b0a 24       		.byte	0x24
 6816 0b0b 03       		.byte	0x3
 6817 0b0c 04000000 		.4byte	.LANCHOR1+4
 6818 0b10 22       		.byte	0x22
 6819 0b11 58000000 		.4byte	.LVL137
 6820 0b15 84000000 		.4byte	.LFE226
 6821 0b19 0400     		.2byte	0x4
 6822 0b1b F3       		.byte	0xf3
 6823 0b1c 01       		.uleb128 0x1
 6824 0b1d 53       		.byte	0x53
 6825 0b1e 9F       		.byte	0x9f
 6826 0b1f 00000000 		.4byte	0
 6827 0b23 00000000 		.4byte	0
 6828              	.LLST66:
 6829 0b27 00000000 		.4byte	.LVL126
 6830 0b2b 04000000 		.4byte	.LVL127
 6831 0b2f 0200     		.2byte	0x2
 6832 0b31 91       		.byte	0x91
 6833 0b32 00       		.sleb128 0
 6834 0b33 04000000 		.4byte	.LVL127
 6835 0b37 08000000 		.4byte	.LVL128
 6836 0b3b 0200     		.2byte	0x2
 6837 0b3d 74       		.byte	0x74
 6838 0b3e 00       		.sleb128 0
 6839 0b3f 08000000 		.4byte	.LVL128
 6840 0b43 84000000 		.4byte	.LFE226
 6841 0b47 0200     		.2byte	0x2
 6842 0b49 91       		.byte	0x91
 6843 0b4a 00       		.sleb128 0
 6844 0b4b 00000000 		.4byte	0
ARM GAS  /tmp/ccXTVNcx.s 			page 140


 6845 0b4f 00000000 		.4byte	0
 6846              	.LLST67:
 6847 0b53 00000000 		.4byte	.LVL126
 6848 0b57 58000000 		.4byte	.LVL137
 6849 0b5b 0B00     		.2byte	0xb
 6850 0b5d 70       		.byte	0x70
 6851 0b5e 00       		.sleb128 0
 6852 0b5f 4C       		.byte	0x4c
 6853 0b60 1E       		.byte	0x1e
 6854 0b61 03       		.byte	0x3
 6855 0b62 00000000 		.4byte	i2c
 6856 0b66 22       		.byte	0x22
 6857 0b67 9F       		.byte	0x9f
 6858 0b68 66000000 		.4byte	.LVL139
 6859 0b6c 84000000 		.4byte	.LFE226
 6860 0b70 0B00     		.2byte	0xb
 6861 0b72 70       		.byte	0x70
 6862 0b73 00       		.sleb128 0
 6863 0b74 4C       		.byte	0x4c
 6864 0b75 1E       		.byte	0x1e
 6865 0b76 03       		.byte	0x3
 6866 0b77 00000000 		.4byte	i2c
 6867 0b7b 22       		.byte	0x22
 6868 0b7c 9F       		.byte	0x9f
 6869 0b7d 00000000 		.4byte	0
 6870 0b81 00000000 		.4byte	0
 6871              	.LLST68:
 6872 0b85 00000000 		.4byte	.LVL126
 6873 0b89 58000000 		.4byte	.LVL137
 6874 0b8d 1000     		.2byte	0x10
 6875 0b8f 70       		.byte	0x70
 6876 0b90 00       		.sleb128 0
 6877 0b91 35       		.byte	0x35
 6878 0b92 1E       		.byte	0x1e
 6879 0b93 71       		.byte	0x71
 6880 0b94 00       		.sleb128 0
 6881 0b95 22       		.byte	0x22
 6882 0b96 33       		.byte	0x33
 6883 0b97 24       		.byte	0x24
 6884 0b98 03       		.byte	0x3
 6885 0b99 00000000 		.4byte	i2c_slave
 6886 0b9d 22       		.byte	0x22
 6887 0b9e 9F       		.byte	0x9f
 6888 0b9f 66000000 		.4byte	.LVL139
 6889 0ba3 84000000 		.4byte	.LFE226
 6890 0ba7 1000     		.2byte	0x10
 6891 0ba9 70       		.byte	0x70
 6892 0baa 00       		.sleb128 0
 6893 0bab 35       		.byte	0x35
 6894 0bac 1E       		.byte	0x1e
 6895 0bad 71       		.byte	0x71
 6896 0bae 00       		.sleb128 0
 6897 0baf 22       		.byte	0x22
 6898 0bb0 33       		.byte	0x33
 6899 0bb1 24       		.byte	0x24
 6900 0bb2 03       		.byte	0x3
 6901 0bb3 00000000 		.4byte	i2c_slave
ARM GAS  /tmp/ccXTVNcx.s 			page 141


 6902 0bb7 22       		.byte	0x22
 6903 0bb8 9F       		.byte	0x9f
 6904 0bb9 00000000 		.4byte	0
 6905 0bbd 00000000 		.4byte	0
 6906              	.LLST69:
 6907 0bc1 28000000 		.4byte	.LVL132
 6908 0bc5 3E000000 		.4byte	.LVL136
 6909 0bc9 0100     		.2byte	0x1
 6910 0bcb 56       		.byte	0x56
 6911 0bcc 66000000 		.4byte	.LVL139
 6912 0bd0 6A000000 		.4byte	.LVL140
 6913 0bd4 0100     		.2byte	0x1
 6914 0bd6 56       		.byte	0x56
 6915 0bd7 00000000 		.4byte	0
 6916 0bdb 00000000 		.4byte	0
 6917              	.LLST70:
 6918 0bdf 28000000 		.4byte	.LVL132
 6919 0be3 3E000000 		.4byte	.LVL136
 6920 0be7 0100     		.2byte	0x1
 6921 0be9 57       		.byte	0x57
 6922 0bea 66000000 		.4byte	.LVL139
 6923 0bee 6A000000 		.4byte	.LVL140
 6924 0bf2 0100     		.2byte	0x1
 6925 0bf4 57       		.byte	0x57
 6926 0bf5 00000000 		.4byte	0
 6927 0bf9 00000000 		.4byte	0
 6928              	.LLST71:
 6929 0bfd 28000000 		.4byte	.LVL132
 6930 0c01 3E000000 		.4byte	.LVL136
 6931 0c05 0100     		.2byte	0x1
 6932 0c07 51       		.byte	0x51
 6933 0c08 66000000 		.4byte	.LVL139
 6934 0c0c 6A000000 		.4byte	.LVL140
 6935 0c10 0100     		.2byte	0x1
 6936 0c12 51       		.byte	0x51
 6937 0c13 00000000 		.4byte	0
 6938 0c17 00000000 		.4byte	0
 6939              	.LLST72:
 6940 0c1b 28000000 		.4byte	.LVL132
 6941 0c1f 36000000 		.4byte	.LVL134
 6942 0c23 0100     		.2byte	0x1
 6943 0c25 54       		.byte	0x54
 6944 0c26 36000000 		.4byte	.LVL134
 6945 0c2a 3E000000 		.4byte	.LVL136
 6946 0c2e 0A00     		.2byte	0xa
 6947 0c30 73       		.byte	0x73
 6948 0c31 00       		.sleb128 0
 6949 0c32 70       		.byte	0x70
 6950 0c33 00       		.sleb128 0
 6951 0c34 1C       		.byte	0x1c
 6952 0c35 32       		.byte	0x32
 6953 0c36 24       		.byte	0x24
 6954 0c37 75       		.byte	0x75
 6955 0c38 00       		.sleb128 0
 6956 0c39 22       		.byte	0x22
 6957 0c3a 66000000 		.4byte	.LVL139
 6958 0c3e 6A000000 		.4byte	.LVL140
ARM GAS  /tmp/ccXTVNcx.s 			page 142


 6959 0c42 0100     		.2byte	0x1
 6960 0c44 54       		.byte	0x54
 6961 0c45 00000000 		.4byte	0
 6962 0c49 00000000 		.4byte	0
 6963              	.LLST73:
 6964 0c4d 28000000 		.4byte	.LVL132
 6965 0c51 3E000000 		.4byte	.LVL136
 6966 0c55 0300     		.2byte	0x3
 6967 0c57 71       		.byte	0x71
 6968 0c58 7F       		.sleb128 -1
 6969 0c59 9F       		.byte	0x9f
 6970 0c5a 66000000 		.4byte	.LVL139
 6971 0c5e 6A000000 		.4byte	.LVL140
 6972 0c62 0300     		.2byte	0x3
 6973 0c64 71       		.byte	0x71
 6974 0c65 7F       		.sleb128 -1
 6975 0c66 9F       		.byte	0x9f
 6976 0c67 00000000 		.4byte	0
 6977 0c6b 00000000 		.4byte	0
 6978              	.LLST74:
 6979 0c6f 32000000 		.4byte	.LVL133
 6980 0c73 36000000 		.4byte	.LVL134
 6981 0c77 0300     		.2byte	0x3
 6982 0c79 74       		.byte	0x74
 6983 0c7a 20       		.sleb128 32
 6984 0c7b 9F       		.byte	0x9f
 6985 0c7c 36000000 		.4byte	.LVL134
 6986 0c80 3C000000 		.4byte	.LVL135
 6987 0c84 0100     		.2byte	0x1
 6988 0c86 54       		.byte	0x54
 6989 0c87 3C000000 		.4byte	.LVL135
 6990 0c8b 3E000000 		.4byte	.LVL136
 6991 0c8f 0E00     		.2byte	0xe
 6992 0c91 73       		.byte	0x73
 6993 0c92 00       		.sleb128 0
 6994 0c93 70       		.byte	0x70
 6995 0c94 00       		.sleb128 0
 6996 0c95 1C       		.byte	0x1c
 6997 0c96 32       		.byte	0x32
 6998 0c97 24       		.byte	0x24
 6999 0c98 75       		.byte	0x75
 7000 0c99 00       		.sleb128 0
 7001 0c9a 22       		.byte	0x22
 7002 0c9b 06       		.byte	0x6
 7003 0c9c 23       		.byte	0x23
 7004 0c9d 20       		.uleb128 0x20
 7005 0c9e 9F       		.byte	0x9f
 7006 0c9f 00000000 		.4byte	0
 7007 0ca3 00000000 		.4byte	0
 7008              	.LLST75:
 7009 0ca7 00000000 		.4byte	.LVL142
 7010 0cab 28000000 		.4byte	.LVL143
 7011 0caf 0100     		.2byte	0x1
 7012 0cb1 50       		.byte	0x50
 7013 0cb2 28000000 		.4byte	.LVL143
 7014 0cb6 70000000 		.4byte	.LVL149
 7015 0cba 0400     		.2byte	0x4
ARM GAS  /tmp/ccXTVNcx.s 			page 143


 7016 0cbc F3       		.byte	0xf3
 7017 0cbd 01       		.uleb128 0x1
 7018 0cbe 50       		.byte	0x50
 7019 0cbf 9F       		.byte	0x9f
 7020 0cc0 70000000 		.4byte	.LVL149
 7021 0cc4 72000000 		.4byte	.LVL150
 7022 0cc8 0100     		.2byte	0x1
 7023 0cca 50       		.byte	0x50
 7024 0ccb 72000000 		.4byte	.LVL150
 7025 0ccf 98000000 		.4byte	.LFE227
 7026 0cd3 0400     		.2byte	0x4
 7027 0cd5 F3       		.byte	0xf3
 7028 0cd6 01       		.uleb128 0x1
 7029 0cd7 50       		.byte	0x50
 7030 0cd8 9F       		.byte	0x9f
 7031 0cd9 00000000 		.4byte	0
 7032 0cdd 00000000 		.4byte	0
 7033              	.LLST76:
 7034 0ce1 48000000 		.4byte	.LVL144
 7035 0ce5 5E000000 		.4byte	.LVL145
 7036 0ce9 0100     		.2byte	0x1
 7037 0ceb 50       		.byte	0x50
 7038 0cec 6A000000 		.4byte	.LVL148
 7039 0cf0 70000000 		.4byte	.LVL149
 7040 0cf4 0100     		.2byte	0x1
 7041 0cf6 50       		.byte	0x50
 7042 0cf7 00000000 		.4byte	0
 7043 0cfb 00000000 		.4byte	0
 7044              	.LLST77:
 7045 0cff 00000000 		.4byte	.LVL142
 7046 0d03 28000000 		.4byte	.LVL143
 7047 0d07 0B00     		.2byte	0xb
 7048 0d09 70       		.byte	0x70
 7049 0d0a 00       		.sleb128 0
 7050 0d0b 4C       		.byte	0x4c
 7051 0d0c 1E       		.byte	0x1e
 7052 0d0d 03       		.byte	0x3
 7053 0d0e 00000000 		.4byte	i2c
 7054 0d12 22       		.byte	0x22
 7055 0d13 9F       		.byte	0x9f
 7056 0d14 28000000 		.4byte	.LVL143
 7057 0d18 60000000 		.4byte	.LVL147
 7058 0d1c 0B00     		.2byte	0xb
 7059 0d1e 75       		.byte	0x75
 7060 0d1f 00       		.sleb128 0
 7061 0d20 4C       		.byte	0x4c
 7062 0d21 1E       		.byte	0x1e
 7063 0d22 03       		.byte	0x3
 7064 0d23 00000000 		.4byte	i2c
 7065 0d27 22       		.byte	0x22
 7066 0d28 9F       		.byte	0x9f
 7067 0d29 6A000000 		.4byte	.LVL148
 7068 0d2d 70000000 		.4byte	.LVL149
 7069 0d31 0B00     		.2byte	0xb
 7070 0d33 75       		.byte	0x75
 7071 0d34 00       		.sleb128 0
 7072 0d35 4C       		.byte	0x4c
ARM GAS  /tmp/ccXTVNcx.s 			page 144


 7073 0d36 1E       		.byte	0x1e
 7074 0d37 03       		.byte	0x3
 7075 0d38 00000000 		.4byte	i2c
 7076 0d3c 22       		.byte	0x22
 7077 0d3d 9F       		.byte	0x9f
 7078 0d3e 70000000 		.4byte	.LVL149
 7079 0d42 72000000 		.4byte	.LVL150
 7080 0d46 0B00     		.2byte	0xb
 7081 0d48 70       		.byte	0x70
 7082 0d49 00       		.sleb128 0
 7083 0d4a 4C       		.byte	0x4c
 7084 0d4b 1E       		.byte	0x1e
 7085 0d4c 03       		.byte	0x3
 7086 0d4d 00000000 		.4byte	i2c
 7087 0d51 22       		.byte	0x22
 7088 0d52 9F       		.byte	0x9f
 7089 0d53 72000000 		.4byte	.LVL150
 7090 0d57 98000000 		.4byte	.LFE227
 7091 0d5b 0B00     		.2byte	0xb
 7092 0d5d 75       		.byte	0x75
 7093 0d5e 00       		.sleb128 0
 7094 0d5f 4C       		.byte	0x4c
 7095 0d60 1E       		.byte	0x1e
 7096 0d61 03       		.byte	0x3
 7097 0d62 00000000 		.4byte	i2c
 7098 0d66 22       		.byte	0x22
 7099 0d67 9F       		.byte	0x9f
 7100 0d68 00000000 		.4byte	0
 7101 0d6c 00000000 		.4byte	0
 7102              	.LLST78:
 7103 0d70 76000000 		.4byte	.LVL151
 7104 0d74 7C000000 		.4byte	.LVL152
 7105 0d78 1000     		.2byte	0x10
 7106 0d7a 75       		.byte	0x75
 7107 0d7b 00       		.sleb128 0
 7108 0d7c 35       		.byte	0x35
 7109 0d7d 1E       		.byte	0x1e
 7110 0d7e 70       		.byte	0x70
 7111 0d7f 00       		.sleb128 0
 7112 0d80 22       		.byte	0x22
 7113 0d81 33       		.byte	0x33
 7114 0d82 24       		.byte	0x24
 7115 0d83 03       		.byte	0x3
 7116 0d84 00000000 		.4byte	i2c_slave
 7117 0d88 22       		.byte	0x22
 7118 0d89 9F       		.byte	0x9f
 7119 0d8a 00000000 		.4byte	0
 7120 0d8e 00000000 		.4byte	0
 7121              	.LLST79:
 7122 0d92 76000000 		.4byte	.LVL151
 7123 0d96 7C000000 		.4byte	.LVL152
 7124 0d9a 0100     		.2byte	0x1
 7125 0d9c 50       		.byte	0x50
 7126 0d9d 00000000 		.4byte	0
 7127 0da1 00000000 		.4byte	0
 7128              	.LLST80:
 7129 0da5 00000000 		.4byte	.LVL153
ARM GAS  /tmp/ccXTVNcx.s 			page 145


 7130 0da9 06000000 		.4byte	.LVL154
 7131 0dad 0100     		.2byte	0x1
 7132 0daf 50       		.byte	0x50
 7133 0db0 06000000 		.4byte	.LVL154
 7134 0db4 14000000 		.4byte	.LFE228
 7135 0db8 0400     		.2byte	0x4
 7136 0dba F3       		.byte	0xf3
 7137 0dbb 01       		.uleb128 0x1
 7138 0dbc 50       		.byte	0x50
 7139 0dbd 9F       		.byte	0x9f
 7140 0dbe 00000000 		.4byte	0
 7141 0dc2 00000000 		.4byte	0
 7142              	.LLST81:
 7143 0dc6 00000000 		.4byte	.LVL155
 7144 0dca 04000000 		.4byte	.LVL156
 7145 0dce 0100     		.2byte	0x1
 7146 0dd0 50       		.byte	0x50
 7147 0dd1 04000000 		.4byte	.LVL156
 7148 0dd5 18000000 		.4byte	.LFE229
 7149 0dd9 0400     		.2byte	0x4
 7150 0ddb F3       		.byte	0xf3
 7151 0ddc 01       		.uleb128 0x1
 7152 0ddd 50       		.byte	0x50
 7153 0dde 9F       		.byte	0x9f
 7154 0ddf 00000000 		.4byte	0
 7155 0de3 00000000 		.4byte	0
 7156              		.section	.debug_aranges,"",%progbits
 7157 0000 BC000000 		.4byte	0xbc
 7158 0004 0200     		.2byte	0x2
 7159 0006 00000000 		.4byte	.Ldebug_info0
 7160 000a 04       		.byte	0x4
 7161 000b 00       		.byte	0
 7162 000c 0000     		.2byte	0
 7163 000e 0000     		.2byte	0
 7164 0010 00000000 		.4byte	.LFB212
 7165 0014 20000000 		.4byte	.LFE212-.LFB212
 7166 0018 00000000 		.4byte	.LFB209
 7167 001c FC000000 		.4byte	.LFE209-.LFB209
 7168 0020 00000000 		.4byte	.LFB210
 7169 0024 88000000 		.4byte	.LFE210-.LFB210
 7170 0028 00000000 		.4byte	.LFB211
 7171 002c AC000000 		.4byte	.LFE211-.LFB211
 7172 0030 00000000 		.4byte	.LFB214
 7173 0034 2C000000 		.4byte	.LFE214-.LFB214
 7174 0038 00000000 		.4byte	.LFB215
 7175 003c 2C000000 		.4byte	.LFE215-.LFB215
 7176 0040 00000000 		.4byte	.LFB216
 7177 0044 2C000000 		.4byte	.LFE216-.LFB216
 7178 0048 00000000 		.4byte	.LFB217
 7179 004c 24000000 		.4byte	.LFE217-.LFB217
 7180 0050 00000000 		.4byte	.LFB218
 7181 0054 28000000 		.4byte	.LFE218-.LFB218
 7182 0058 00000000 		.4byte	.LFB219
 7183 005c 14000000 		.4byte	.LFE219-.LFB219
 7184 0060 00000000 		.4byte	.LFB220
 7185 0064 98000000 		.4byte	.LFE220-.LFB220
 7186 0068 00000000 		.4byte	.LFB221
ARM GAS  /tmp/ccXTVNcx.s 			page 146


 7187 006c 2E000000 		.4byte	.LFE221-.LFB221
 7188 0070 00000000 		.4byte	.LFB222
 7189 0074 36000000 		.4byte	.LFE222-.LFB222
 7190 0078 00000000 		.4byte	.LFB223
 7191 007c 2E000000 		.4byte	.LFE223-.LFB223
 7192 0080 00000000 		.4byte	.LFB224
 7193 0084 20000000 		.4byte	.LFE224-.LFB224
 7194 0088 00000000 		.4byte	.LFB225
 7195 008c 28000000 		.4byte	.LFE225-.LFB225
 7196 0090 00000000 		.4byte	.LFB213
 7197 0094 3C000000 		.4byte	.LFE213-.LFB213
 7198 0098 00000000 		.4byte	.LFB226
 7199 009c 84000000 		.4byte	.LFE226-.LFB226
 7200 00a0 00000000 		.4byte	.LFB227
 7201 00a4 98000000 		.4byte	.LFE227-.LFB227
 7202 00a8 00000000 		.4byte	.LFB228
 7203 00ac 14000000 		.4byte	.LFE228-.LFB228
 7204 00b0 00000000 		.4byte	.LFB229
 7205 00b4 18000000 		.4byte	.LFE229-.LFB229
 7206 00b8 00000000 		.4byte	0
 7207 00bc 00000000 		.4byte	0
 7208              		.section	.debug_ranges,"",%progbits
 7209              	.Ldebug_ranges0:
 7210 0000 00000000 		.4byte	.LBB53
 7211 0004 02000000 		.4byte	.LBE53
 7212 0008 04000000 		.4byte	.LBB57
 7213 000c 06000000 		.4byte	.LBE57
 7214 0010 08000000 		.4byte	.LBB58
 7215 0014 0A000000 		.4byte	.LBE58
 7216 0018 00000000 		.4byte	0
 7217 001c 00000000 		.4byte	0
 7218 0020 00000000 		.4byte	.LBB75
 7219 0024 04000000 		.4byte	.LBE75
 7220 0028 08000000 		.4byte	.LBB78
 7221 002c 0A000000 		.4byte	.LBE78
 7222 0030 00000000 		.4byte	0
 7223 0034 00000000 		.4byte	0
 7224 0038 34000000 		.4byte	.LBB83
 7225 003c 36000000 		.4byte	.LBE83
 7226 0040 3A000000 		.4byte	.LBB86
 7227 0044 44000000 		.4byte	.LBE86
 7228 0048 00000000 		.4byte	0
 7229 004c 00000000 		.4byte	0
 7230 0050 02000000 		.4byte	.LBB95
 7231 0054 16000000 		.4byte	.LBE95
 7232 0058 16000000 		.4byte	.LBB105
 7233 005c 1A000000 		.4byte	.LBE105
 7234 0060 1C000000 		.4byte	.LBB106
 7235 0064 1E000000 		.4byte	.LBE106
 7236 0068 00000000 		.4byte	0
 7237 006c 00000000 		.4byte	0
 7238 0070 0C000000 		.4byte	.LBB97
 7239 0074 16000000 		.4byte	.LBE97
 7240 0078 16000000 		.4byte	.LBB101
 7241 007c 1A000000 		.4byte	.LBE101
 7242 0080 1C000000 		.4byte	.LBB102
 7243 0084 1E000000 		.4byte	.LBE102
ARM GAS  /tmp/ccXTVNcx.s 			page 147


 7244 0088 00000000 		.4byte	0
 7245 008c 00000000 		.4byte	0
 7246 0090 0C000000 		.4byte	.LBB107
 7247 0094 10000000 		.4byte	.LBE107
 7248 0098 14000000 		.4byte	.LBB117
 7249 009c 1E000000 		.4byte	.LBE117
 7250 00a0 1E000000 		.4byte	.LBB118
 7251 00a4 22000000 		.4byte	.LBE118
 7252 00a8 00000000 		.4byte	0
 7253 00ac 00000000 		.4byte	0
 7254 00b0 0E000000 		.4byte	.LBB109
 7255 00b4 10000000 		.4byte	.LBE109
 7256 00b8 14000000 		.4byte	.LBB113
 7257 00bc 1E000000 		.4byte	.LBE113
 7258 00c0 1E000000 		.4byte	.LBB114
 7259 00c4 22000000 		.4byte	.LBE114
 7260 00c8 00000000 		.4byte	0
 7261 00cc 00000000 		.4byte	0
 7262 00d0 88000000 		.4byte	.LBB127
 7263 00d4 8A000000 		.4byte	.LBE127
 7264 00d8 8C000000 		.4byte	.LBB130
 7265 00dc 98000000 		.4byte	.LBE130
 7266 00e0 00000000 		.4byte	0
 7267 00e4 00000000 		.4byte	0
 7268 00e8 00000000 		.4byte	.LBB131
 7269 00ec 02000000 		.4byte	.LBE131
 7270 00f0 0C000000 		.4byte	.LBB141
 7271 00f4 10000000 		.4byte	.LBE141
 7272 00f8 10000000 		.4byte	.LBB142
 7273 00fc 1A000000 		.4byte	.LBE142
 7274 0100 00000000 		.4byte	0
 7275 0104 00000000 		.4byte	0
 7276 0108 00000000 		.4byte	.LBB133
 7277 010c 02000000 		.4byte	.LBE133
 7278 0110 0E000000 		.4byte	.LBB137
 7279 0114 10000000 		.4byte	.LBE137
 7280 0118 10000000 		.4byte	.LBB138
 7281 011c 12000000 		.4byte	.LBE138
 7282 0120 00000000 		.4byte	0
 7283 0124 00000000 		.4byte	0
 7284 0128 12000000 		.4byte	.LBB143
 7285 012c 14000000 		.4byte	.LBE143
 7286 0130 26000000 		.4byte	.LBB146
 7287 0134 2A000000 		.4byte	.LBE146
 7288 0138 00000000 		.4byte	0
 7289 013c 00000000 		.4byte	0
 7290 0140 20000000 		.4byte	.LBB147
 7291 0144 22000000 		.4byte	.LBE147
 7292 0148 28000000 		.4byte	.LBB152
 7293 014c 3E000000 		.4byte	.LBE152
 7294 0150 66000000 		.4byte	.LBB153
 7295 0154 6A000000 		.4byte	.LBE153
 7296 0158 00000000 		.4byte	0
 7297 015c 00000000 		.4byte	0
 7298 0160 1A000000 		.4byte	.LBB156
 7299 0164 1C000000 		.4byte	.LBE156
 7300 0168 22000000 		.4byte	.LBB157
ARM GAS  /tmp/ccXTVNcx.s 			page 148


 7301 016c 24000000 		.4byte	.LBE157
 7302 0170 70000000 		.4byte	.LBB158
 7303 0174 98000000 		.4byte	.LBE158
 7304 0178 00000000 		.4byte	0
 7305 017c 00000000 		.4byte	0
 7306 0180 00000000 		.4byte	.LFB212
 7307 0184 20000000 		.4byte	.LFE212
 7308 0188 00000000 		.4byte	.LFB209
 7309 018c FC000000 		.4byte	.LFE209
 7310 0190 00000000 		.4byte	.LFB210
 7311 0194 88000000 		.4byte	.LFE210
 7312 0198 00000000 		.4byte	.LFB211
 7313 019c AC000000 		.4byte	.LFE211
 7314 01a0 00000000 		.4byte	.LFB214
 7315 01a4 2C000000 		.4byte	.LFE214
 7316 01a8 00000000 		.4byte	.LFB215
 7317 01ac 2C000000 		.4byte	.LFE215
 7318 01b0 00000000 		.4byte	.LFB216
 7319 01b4 2C000000 		.4byte	.LFE216
 7320 01b8 00000000 		.4byte	.LFB217
 7321 01bc 24000000 		.4byte	.LFE217
 7322 01c0 00000000 		.4byte	.LFB218
 7323 01c4 28000000 		.4byte	.LFE218
 7324 01c8 00000000 		.4byte	.LFB219
 7325 01cc 14000000 		.4byte	.LFE219
 7326 01d0 00000000 		.4byte	.LFB220
 7327 01d4 98000000 		.4byte	.LFE220
 7328 01d8 00000000 		.4byte	.LFB221
 7329 01dc 2E000000 		.4byte	.LFE221
 7330 01e0 00000000 		.4byte	.LFB222
 7331 01e4 36000000 		.4byte	.LFE222
 7332 01e8 00000000 		.4byte	.LFB223
 7333 01ec 2E000000 		.4byte	.LFE223
 7334 01f0 00000000 		.4byte	.LFB224
 7335 01f4 20000000 		.4byte	.LFE224
 7336 01f8 00000000 		.4byte	.LFB225
 7337 01fc 28000000 		.4byte	.LFE225
 7338 0200 00000000 		.4byte	.LFB213
 7339 0204 3C000000 		.4byte	.LFE213
 7340 0208 00000000 		.4byte	.LFB226
 7341 020c 84000000 		.4byte	.LFE226
 7342 0210 00000000 		.4byte	.LFB227
 7343 0214 98000000 		.4byte	.LFE227
 7344 0218 00000000 		.4byte	.LFB228
 7345 021c 14000000 		.4byte	.LFE228
 7346 0220 00000000 		.4byte	.LFB229
 7347 0224 18000000 		.4byte	.LFE229
 7348 0228 00000000 		.4byte	0
 7349 022c 00000000 		.4byte	0
 7350              		.section	.debug_macro,"",%progbits
 7351              	.Ldebug_macro0:
 7352 0000 0400     		.2byte	0x4
 7353 0002 02       		.byte	0x2
 7354 0003 00000000 		.4byte	.Ldebug_line0
 7355 0007 07       		.byte	0x7
 7356 0008 00000000 		.4byte	.Ldebug_macro1
 7357 000c 03       		.byte	0x3
ARM GAS  /tmp/ccXTVNcx.s 			page 149


 7358 000d 00       		.uleb128 0
 7359 000e 01       		.uleb128 0x1
 7360 000f 03       		.byte	0x3
 7361 0010 20       		.uleb128 0x20
 7362 0011 07       		.uleb128 0x7
 7363 0012 05       		.byte	0x5
 7364 0013 1E       		.uleb128 0x1e
 7365 0014 35780000 		.4byte	.LASF345
 7366              		.file 8 "../lpc11cx4-library/lpc_chip_11cxx_lib/inc/lpc_types.h"
 7367 0018 03       		.byte	0x3
 7368 0019 20       		.uleb128 0x20
 7369 001a 08       		.uleb128 0x8
 7370 001b 05       		.byte	0x5
 7371 001c 21       		.uleb128 0x21
 7372 001d A7210000 		.4byte	.LASF346
 7373              		.file 9 "/usr/lib/gcc/arm-none-eabi/4.9.3/include/stdint.h"
 7374 0021 03       		.byte	0x3
 7375 0022 23       		.uleb128 0x23
 7376 0023 09       		.uleb128 0x9
 7377 0024 03       		.byte	0x3
 7378 0025 09       		.uleb128 0x9
 7379 0026 04       		.uleb128 0x4
 7380 0027 05       		.byte	0x5
 7381 0028 0A       		.uleb128 0xa
 7382 0029 7F1C0000 		.4byte	.LASF347
 7383 002d 03       		.byte	0x3
 7384 002e 0C       		.uleb128 0xc
 7385 002f 03       		.uleb128 0x3
 7386 0030 05       		.byte	0x5
 7387 0031 06       		.uleb128 0x6
 7388 0032 5A4E0000 		.4byte	.LASF348
 7389              		.file 10 "/usr/arm-none-eabi/include/sys/features.h"
 7390 0036 03       		.byte	0x3
 7391 0037 08       		.uleb128 0x8
 7392 0038 0A       		.uleb128 0xa
 7393 0039 07       		.byte	0x7
 7394 003a 00000000 		.4byte	.Ldebug_macro2
 7395 003e 04       		.byte	0x4
 7396 003f 07       		.byte	0x7
 7397 0040 00000000 		.4byte	.Ldebug_macro3
 7398 0044 04       		.byte	0x4
 7399              		.file 11 "/usr/arm-none-eabi/include/sys/_intsup.h"
 7400 0045 03       		.byte	0x3
 7401 0046 0D       		.uleb128 0xd
 7402 0047 0B       		.uleb128 0xb
 7403 0048 07       		.byte	0x7
 7404 0049 00000000 		.4byte	.Ldebug_macro4
 7405 004d 04       		.byte	0x4
 7406 004e 07       		.byte	0x7
 7407 004f 00000000 		.4byte	.Ldebug_macro5
 7408 0053 04       		.byte	0x4
 7409 0054 05       		.byte	0x5
 7410 0055 0D       		.uleb128 0xd
 7411 0056 60640000 		.4byte	.LASF441
 7412 005a 04       		.byte	0x4
 7413              		.file 12 "/usr/lib/gcc/arm-none-eabi/4.9.3/include/stdbool.h"
 7414 005b 03       		.byte	0x3
ARM GAS  /tmp/ccXTVNcx.s 			page 150


 7415 005c 24       		.uleb128 0x24
 7416 005d 0C       		.uleb128 0xc
 7417 005e 07       		.byte	0x7
 7418 005f 00000000 		.4byte	.Ldebug_macro6
 7419 0063 04       		.byte	0x4
 7420 0064 07       		.byte	0x7
 7421 0065 00000000 		.4byte	.Ldebug_macro7
 7422 0069 04       		.byte	0x4
 7423              		.file 13 "../lpc11cx4-library/lpc_chip_11cxx_lib/inc/sys_config.h"
 7424 006a 03       		.byte	0x3
 7425 006b 21       		.uleb128 0x21
 7426 006c 0D       		.uleb128 0xd
 7427 006d 07       		.byte	0x7
 7428 006e 00000000 		.4byte	.Ldebug_macro8
 7429 0072 04       		.byte	0x4
 7430              		.file 14 "../lpc11cx4-library/lpc_chip_11cxx_lib/inc/cmsis.h"
 7431 0073 03       		.byte	0x3
 7432 0074 22       		.uleb128 0x22
 7433 0075 0E       		.uleb128 0xe
 7434 0076 05       		.byte	0x5
 7435 0077 1E       		.uleb128 0x1e
 7436 0078 614D0000 		.4byte	.LASF464
 7437              		.file 15 "../lpc11cx4-library/lpc_chip_11cxx_lib/inc/cmsis_11cxx.h"
 7438 007c 03       		.byte	0x3
 7439 007d 2E       		.uleb128 0x2e
 7440 007e 0F       		.uleb128 0xf
 7441 007f 07       		.byte	0x7
 7442 0080 00000000 		.4byte	.Ldebug_macro9
 7443 0084 04       		.byte	0x4
 7444              		.file 16 "../lpc11cx4-library/lpc_chip_11cxx_lib/inc/core_cm0.h"
 7445 0085 03       		.byte	0x3
 7446 0086 3E       		.uleb128 0x3e
 7447 0087 10       		.uleb128 0x10
 7448 0088 07       		.byte	0x7
 7449 0089 00000000 		.4byte	.Ldebug_macro10
 7450              		.file 17 "../lpc11cx4-library/lpc_chip_11cxx_lib/inc/core_cmInstr.h"
 7451 008d 03       		.byte	0x3
 7452 008e 70       		.uleb128 0x70
 7453 008f 11       		.uleb128 0x11
 7454 0090 05       		.byte	0x5
 7455 0091 19       		.uleb128 0x19
 7456 0092 081D0000 		.4byte	.LASF478
 7457 0096 04       		.byte	0x4
 7458              		.file 18 "../lpc11cx4-library/lpc_chip_11cxx_lib/inc/core_cmFunc.h"
 7459 0097 03       		.byte	0x3
 7460 0098 71       		.uleb128 0x71
 7461 0099 12       		.uleb128 0x12
 7462 009a 05       		.byte	0x5
 7463 009b 19       		.uleb128 0x19
 7464 009c 6F6E0000 		.4byte	.LASF479
 7465 00a0 04       		.byte	0x4
 7466 00a1 07       		.byte	0x7
 7467 00a2 00000000 		.4byte	.Ldebug_macro11
 7468 00a6 04       		.byte	0x4
 7469 00a7 04       		.byte	0x4
 7470 00a8 07       		.byte	0x7
 7471 00a9 00000000 		.4byte	.Ldebug_macro12
ARM GAS  /tmp/ccXTVNcx.s 			page 151


 7472              		.file 19 "../lpc11cx4-library/lpc_chip_11cxx_lib/inc/pmu_11xx.h"
 7473 00ad 03       		.byte	0x3
 7474 00ae E801     		.uleb128 0xe8
 7475 00b0 13       		.uleb128 0x13
 7476 00b1 07       		.byte	0x7
 7477 00b2 00000000 		.4byte	.Ldebug_macro13
 7478 00b6 04       		.byte	0x4
 7479              		.file 20 "../lpc11cx4-library/lpc_chip_11cxx_lib/inc/fmc_11xx.h"
 7480 00b7 03       		.byte	0x3
 7481 00b8 E901     		.uleb128 0xe9
 7482 00ba 14       		.uleb128 0x14
 7483 00bb 05       		.byte	0x5
 7484 00bc 21       		.uleb128 0x21
 7485 00bd 5C660000 		.4byte	.LASF608
 7486 00c1 04       		.byte	0x4
 7487 00c2 03       		.byte	0x3
 7488 00c3 EA01     		.uleb128 0xea
 7489 00c5 05       		.uleb128 0x5
 7490 00c6 07       		.byte	0x7
 7491 00c7 00000000 		.4byte	.Ldebug_macro14
 7492 00cb 04       		.byte	0x4
 7493 00cc 03       		.byte	0x3
 7494 00cd EB01     		.uleb128 0xeb
 7495 00cf 02       		.uleb128 0x2
 7496 00d0 07       		.byte	0x7
 7497 00d1 00000000 		.4byte	.Ldebug_macro15
 7498 00d5 04       		.byte	0x4
 7499              		.file 21 "../lpc11cx4-library/lpc_chip_11cxx_lib/inc/iocon_11xx.h"
 7500 00d6 03       		.byte	0x3
 7501 00d7 EC01     		.uleb128 0xec
 7502 00d9 15       		.uleb128 0x15
 7503 00da 07       		.byte	0x7
 7504 00db 00000000 		.4byte	.Ldebug_macro16
 7505 00df 04       		.byte	0x4
 7506              		.file 22 "../lpc11cx4-library/lpc_chip_11cxx_lib/inc/timer_11xx.h"
 7507 00e0 03       		.byte	0x3
 7508 00e1 ED01     		.uleb128 0xed
 7509 00e3 16       		.uleb128 0x16
 7510 00e4 07       		.byte	0x7
 7511 00e5 00000000 		.4byte	.Ldebug_macro17
 7512 00e9 04       		.byte	0x4
 7513              		.file 23 "../lpc11cx4-library/lpc_chip_11cxx_lib/inc/uart_11xx.h"
 7514 00ea 03       		.byte	0x3
 7515 00eb EE01     		.uleb128 0xee
 7516 00ed 17       		.uleb128 0x17
 7517 00ee 05       		.byte	0x5
 7518 00ef 21       		.uleb128 0x21
 7519 00f0 46240000 		.4byte	.LASF692
 7520              		.file 24 "../lpc11cx4-library/lpc_chip_11cxx_lib/inc/ring_buffer.h"
 7521 00f4 03       		.byte	0x3
 7522 00f5 23       		.uleb128 0x23
 7523 00f6 18       		.uleb128 0x18
 7524 00f7 07       		.byte	0x7
 7525 00f8 00000000 		.4byte	.Ldebug_macro18
 7526 00fc 04       		.byte	0x4
 7527 00fd 07       		.byte	0x7
 7528 00fe 00000000 		.4byte	.Ldebug_macro19
ARM GAS  /tmp/ccXTVNcx.s 			page 152


 7529 0102 04       		.byte	0x4
 7530              		.file 25 "../lpc11cx4-library/lpc_chip_11cxx_lib/inc/wwdt_11xx.h"
 7531 0103 03       		.byte	0x3
 7532 0104 EF01     		.uleb128 0xef
 7533 0106 19       		.uleb128 0x19
 7534 0107 07       		.byte	0x7
 7535 0108 00000000 		.4byte	.Ldebug_macro20
 7536 010c 04       		.byte	0x4
 7537              		.file 26 "../lpc11cx4-library/lpc_chip_11cxx_lib/inc/ssp_11xx.h"
 7538 010d 03       		.byte	0x3
 7539 010e F001     		.uleb128 0xf0
 7540 0110 1A       		.uleb128 0x1a
 7541 0111 07       		.byte	0x7
 7542 0112 00000000 		.4byte	.Ldebug_macro21
 7543 0116 04       		.byte	0x4
 7544              		.file 27 "../lpc11cx4-library/lpc_chip_11cxx_lib/inc/romapi_11xx.h"
 7545 0117 03       		.byte	0x3
 7546 0118 F101     		.uleb128 0xf1
 7547 011a 1B       		.uleb128 0x1b
 7548 011b 05       		.byte	0x5
 7549 011c 21       		.uleb128 0x21
 7550 011d 9B2C0000 		.4byte	.LASF845
 7551              		.file 28 "../lpc11cx4-library/lpc_chip_11cxx_lib/inc/error.h"
 7552 0121 03       		.byte	0x3
 7553 0122 23       		.uleb128 0x23
 7554 0123 1C       		.uleb128 0x1c
 7555 0124 07       		.byte	0x7
 7556 0125 00000000 		.4byte	.Ldebug_macro22
 7557 0129 04       		.byte	0x4
 7558 012a 04       		.byte	0x4
 7559              		.file 29 "../lpc11cx4-library/lpc_chip_11cxx_lib/inc/adc_11xx.h"
 7560 012b 03       		.byte	0x3
 7561 012c F501     		.uleb128 0xf5
 7562 012e 1D       		.uleb128 0x1d
 7563 012f 07       		.byte	0x7
 7564 0130 00000000 		.4byte	.Ldebug_macro23
 7565 0134 04       		.byte	0x4
 7566              		.file 30 "../lpc11cx4-library/lpc_chip_11cxx_lib/inc/gpio_11xx_2.h"
 7567 0135 03       		.byte	0x3
 7568 0136 FE01     		.uleb128 0xfe
 7569 0138 1E       		.uleb128 0x1e
 7570 0139 05       		.byte	0x5
 7571 013a 22       		.uleb128 0x22
 7572 013b 09370000 		.4byte	.LASF868
 7573 013f 04       		.byte	0x4
 7574 0140 03       		.byte	0x3
 7575 0141 8B02     		.uleb128 0x10b
 7576 0143 06       		.uleb128 0x6
 7577 0144 07       		.byte	0x7
 7578 0145 00000000 		.4byte	.Ldebug_macro24
 7579 0149 04       		.byte	0x4
 7580              		.file 31 "../lpc11cx4-library/lpc_chip_11cxx_lib/inc/ccand_11xx.h"
 7581 014a 03       		.byte	0x3
 7582 014b 8E02     		.uleb128 0x10e
 7583 014d 1F       		.uleb128 0x1f
 7584 014e 07       		.byte	0x7
 7585 014f 00000000 		.4byte	.Ldebug_macro25
ARM GAS  /tmp/ccXTVNcx.s 			page 153


 7586 0153 04       		.byte	0x4
 7587 0154 04       		.byte	0x4
 7588 0155 05       		.byte	0x5
 7589 0156 29       		.uleb128 0x29
 7590 0157 F0700000 		.4byte	.LASF993
 7591 015b 05       		.byte	0x5
 7592 015c 2A       		.uleb128 0x2a
 7593 015d 90460000 		.4byte	.LASF994
 7594 0161 05       		.byte	0x5
 7595 0162 2B       		.uleb128 0x2b
 7596 0163 E4680000 		.4byte	.LASF995
 7597 0167 04       		.byte	0x4
 7598 0168 00       		.byte	0
 7599              		.section	.debug_macro,"G",%progbits,wm4.0.577787f3295b446bf0a2b287b3e6b6b4,comdat
 7600              	.Ldebug_macro1:
 7601 0000 0400     		.2byte	0x4
 7602 0002 00       		.byte	0
 7603 0003 05       		.byte	0x5
 7604 0004 00       		.uleb128 0
 7605 0005 72490000 		.4byte	.LASF0
 7606 0009 05       		.byte	0x5
 7607 000a 00       		.uleb128 0
 7608 000b 63090000 		.4byte	.LASF1
 7609 000f 05       		.byte	0x5
 7610 0010 00       		.uleb128 0
 7611 0011 AA350000 		.4byte	.LASF2
 7612 0015 05       		.byte	0x5
 7613 0016 00       		.uleb128 0
 7614 0017 545F0000 		.4byte	.LASF3
 7615 001b 05       		.byte	0x5
 7616 001c 00       		.uleb128 0
 7617 001d E51B0000 		.4byte	.LASF4
 7618 0021 05       		.byte	0x5
 7619 0022 00       		.uleb128 0
 7620 0023 CC770000 		.4byte	.LASF5
 7621 0027 05       		.byte	0x5
 7622 0028 00       		.uleb128 0
 7623 0029 31660000 		.4byte	.LASF6
 7624 002d 05       		.byte	0x5
 7625 002e 00       		.uleb128 0
 7626 002f D71E0000 		.4byte	.LASF7
 7627 0033 05       		.byte	0x5
 7628 0034 00       		.uleb128 0
 7629 0035 94550000 		.4byte	.LASF8
 7630 0039 05       		.byte	0x5
 7631 003a 00       		.uleb128 0
 7632 003b 83390000 		.4byte	.LASF9
 7633 003f 05       		.byte	0x5
 7634 0040 00       		.uleb128 0
 7635 0041 B9770000 		.4byte	.LASF10
 7636 0045 05       		.byte	0x5
 7637 0046 00       		.uleb128 0
 7638 0047 53030000 		.4byte	.LASF11
 7639 004b 05       		.byte	0x5
 7640 004c 00       		.uleb128 0
 7641 004d 4F3A0000 		.4byte	.LASF12
 7642 0051 05       		.byte	0x5
ARM GAS  /tmp/ccXTVNcx.s 			page 154


 7643 0052 00       		.uleb128 0
 7644 0053 4F590000 		.4byte	.LASF13
 7645 0057 05       		.byte	0x5
 7646 0058 00       		.uleb128 0
 7647 0059 8F6E0000 		.4byte	.LASF14
 7648 005d 05       		.byte	0x5
 7649 005e 00       		.uleb128 0
 7650 005f 38170000 		.4byte	.LASF15
 7651 0063 05       		.byte	0x5
 7652 0064 00       		.uleb128 0
 7653 0065 88040000 		.4byte	.LASF16
 7654 0069 05       		.byte	0x5
 7655 006a 00       		.uleb128 0
 7656 006b C4590000 		.4byte	.LASF17
 7657 006f 05       		.byte	0x5
 7658 0070 00       		.uleb128 0
 7659 0071 7E670000 		.4byte	.LASF18
 7660 0075 05       		.byte	0x5
 7661 0076 00       		.uleb128 0
 7662 0077 91170000 		.4byte	.LASF19
 7663 007b 05       		.byte	0x5
 7664 007c 00       		.uleb128 0
 7665 007d 13220000 		.4byte	.LASF20
 7666 0081 05       		.byte	0x5
 7667 0082 00       		.uleb128 0
 7668 0083 60630000 		.4byte	.LASF21
 7669 0087 05       		.byte	0x5
 7670 0088 00       		.uleb128 0
 7671 0089 A5410000 		.4byte	.LASF22
 7672 008d 05       		.byte	0x5
 7673 008e 00       		.uleb128 0
 7674 008f 754E0000 		.4byte	.LASF23
 7675 0093 05       		.byte	0x5
 7676 0094 00       		.uleb128 0
 7677 0095 00560000 		.4byte	.LASF24
 7678 0099 05       		.byte	0x5
 7679 009a 00       		.uleb128 0
 7680 009b 620D0000 		.4byte	.LASF25
 7681 009f 05       		.byte	0x5
 7682 00a0 00       		.uleb128 0
 7683 00a1 DF050000 		.4byte	.LASF26
 7684 00a5 05       		.byte	0x5
 7685 00a6 00       		.uleb128 0
 7686 00a7 80430000 		.4byte	.LASF27
 7687 00ab 05       		.byte	0x5
 7688 00ac 00       		.uleb128 0
 7689 00ad FA230000 		.4byte	.LASF28
 7690 00b1 05       		.byte	0x5
 7691 00b2 00       		.uleb128 0
 7692 00b3 BC140000 		.4byte	.LASF29
 7693 00b7 05       		.byte	0x5
 7694 00b8 00       		.uleb128 0
 7695 00b9 D9750000 		.4byte	.LASF30
 7696 00bd 05       		.byte	0x5
 7697 00be 00       		.uleb128 0
 7698 00bf B7560000 		.4byte	.LASF31
 7699 00c3 05       		.byte	0x5
ARM GAS  /tmp/ccXTVNcx.s 			page 155


 7700 00c4 00       		.uleb128 0
 7701 00c5 78220000 		.4byte	.LASF32
 7702 00c9 05       		.byte	0x5
 7703 00ca 00       		.uleb128 0
 7704 00cb 81440000 		.4byte	.LASF33
 7705 00cf 05       		.byte	0x5
 7706 00d0 00       		.uleb128 0
 7707 00d1 655F0000 		.4byte	.LASF34
 7708 00d5 05       		.byte	0x5
 7709 00d6 00       		.uleb128 0
 7710 00d7 49470000 		.4byte	.LASF35
 7711 00db 05       		.byte	0x5
 7712 00dc 00       		.uleb128 0
 7713 00dd 12620000 		.4byte	.LASF36
 7714 00e1 05       		.byte	0x5
 7715 00e2 00       		.uleb128 0
 7716 00e3 9B160000 		.4byte	.LASF37
 7717 00e7 05       		.byte	0x5
 7718 00e8 00       		.uleb128 0
 7719 00e9 5C380000 		.4byte	.LASF38
 7720 00ed 05       		.byte	0x5
 7721 00ee 00       		.uleb128 0
 7722 00ef 79060000 		.4byte	.LASF39
 7723 00f3 05       		.byte	0x5
 7724 00f4 00       		.uleb128 0
 7725 00f5 8E070000 		.4byte	.LASF40
 7726 00f9 05       		.byte	0x5
 7727 00fa 00       		.uleb128 0
 7728 00fb 1D780000 		.4byte	.LASF41
 7729 00ff 05       		.byte	0x5
 7730 0100 00       		.uleb128 0
 7731 0101 75410000 		.4byte	.LASF42
 7732 0105 05       		.byte	0x5
 7733 0106 00       		.uleb128 0
 7734 0107 CE490000 		.4byte	.LASF43
 7735 010b 05       		.byte	0x5
 7736 010c 00       		.uleb128 0
 7737 010d 0B360000 		.4byte	.LASF44
 7738 0111 05       		.byte	0x5
 7739 0112 00       		.uleb128 0
 7740 0113 236D0000 		.4byte	.LASF45
 7741 0117 05       		.byte	0x5
 7742 0118 00       		.uleb128 0
 7743 0119 A9630000 		.4byte	.LASF46
 7744 011d 05       		.byte	0x5
 7745 011e 00       		.uleb128 0
 7746 011f D1140000 		.4byte	.LASF47
 7747 0123 05       		.byte	0x5
 7748 0124 00       		.uleb128 0
 7749 0125 63720000 		.4byte	.LASF48
 7750 0129 05       		.byte	0x5
 7751 012a 00       		.uleb128 0
 7752 012b B1540000 		.4byte	.LASF49
 7753 012f 05       		.byte	0x5
 7754 0130 00       		.uleb128 0
 7755 0131 D8790000 		.4byte	.LASF50
 7756 0135 05       		.byte	0x5
ARM GAS  /tmp/ccXTVNcx.s 			page 156


 7757 0136 00       		.uleb128 0
 7758 0137 E5110000 		.4byte	.LASF51
 7759 013b 05       		.byte	0x5
 7760 013c 00       		.uleb128 0
 7761 013d F1570000 		.4byte	.LASF52
 7762 0141 05       		.byte	0x5
 7763 0142 00       		.uleb128 0
 7764 0143 1D5F0000 		.4byte	.LASF53
 7765 0147 05       		.byte	0x5
 7766 0148 00       		.uleb128 0
 7767 0149 BE380000 		.4byte	.LASF54
 7768 014d 05       		.byte	0x5
 7769 014e 00       		.uleb128 0
 7770 014f 00140000 		.4byte	.LASF55
 7771 0153 05       		.byte	0x5
 7772 0154 00       		.uleb128 0
 7773 0155 91570000 		.4byte	.LASF56
 7774 0159 05       		.byte	0x5
 7775 015a 00       		.uleb128 0
 7776 015b E9390000 		.4byte	.LASF57
 7777 015f 05       		.byte	0x5
 7778 0160 00       		.uleb128 0
 7779 0161 AE090000 		.4byte	.LASF58
 7780 0165 05       		.byte	0x5
 7781 0166 00       		.uleb128 0
 7782 0167 31370000 		.4byte	.LASF59
 7783 016b 05       		.byte	0x5
 7784 016c 00       		.uleb128 0
 7785 016d 30700000 		.4byte	.LASF60
 7786 0171 05       		.byte	0x5
 7787 0172 00       		.uleb128 0
 7788 0173 6F570000 		.4byte	.LASF61
 7789 0177 05       		.byte	0x5
 7790 0178 00       		.uleb128 0
 7791 0179 30230000 		.4byte	.LASF62
 7792 017d 05       		.byte	0x5
 7793 017e 00       		.uleb128 0
 7794 017f FE610000 		.4byte	.LASF63
 7795 0183 05       		.byte	0x5
 7796 0184 00       		.uleb128 0
 7797 0185 35620000 		.4byte	.LASF64
 7798 0189 05       		.byte	0x5
 7799 018a 00       		.uleb128 0
 7800 018b 73330000 		.4byte	.LASF65
 7801 018f 05       		.byte	0x5
 7802 0190 00       		.uleb128 0
 7803 0191 33280000 		.4byte	.LASF66
 7804 0195 05       		.byte	0x5
 7805 0196 00       		.uleb128 0
 7806 0197 19230000 		.4byte	.LASF67
 7807 019b 05       		.byte	0x5
 7808 019c 00       		.uleb128 0
 7809 019d 790E0000 		.4byte	.LASF68
 7810 01a1 05       		.byte	0x5
 7811 01a2 00       		.uleb128 0
 7812 01a3 A9670000 		.4byte	.LASF69
 7813 01a7 05       		.byte	0x5
ARM GAS  /tmp/ccXTVNcx.s 			page 157


 7814 01a8 00       		.uleb128 0
 7815 01a9 A7380000 		.4byte	.LASF70
 7816 01ad 05       		.byte	0x5
 7817 01ae 00       		.uleb128 0
 7818 01af 8A690000 		.4byte	.LASF71
 7819 01b3 05       		.byte	0x5
 7820 01b4 00       		.uleb128 0
 7821 01b5 7D010000 		.4byte	.LASF72
 7822 01b9 05       		.byte	0x5
 7823 01ba 00       		.uleb128 0
 7824 01bb AC130000 		.4byte	.LASF73
 7825 01bf 05       		.byte	0x5
 7826 01c0 00       		.uleb128 0
 7827 01c1 483D0000 		.4byte	.LASF74
 7828 01c5 05       		.byte	0x5
 7829 01c6 00       		.uleb128 0
 7830 01c7 015B0000 		.4byte	.LASF75
 7831 01cb 05       		.byte	0x5
 7832 01cc 00       		.uleb128 0
 7833 01cd A7710000 		.4byte	.LASF76
 7834 01d1 05       		.byte	0x5
 7835 01d2 00       		.uleb128 0
 7836 01d3 76610000 		.4byte	.LASF77
 7837 01d7 05       		.byte	0x5
 7838 01d8 00       		.uleb128 0
 7839 01d9 D55C0000 		.4byte	.LASF78
 7840 01dd 05       		.byte	0x5
 7841 01de 00       		.uleb128 0
 7842 01df 06100000 		.4byte	.LASF79
 7843 01e3 05       		.byte	0x5
 7844 01e4 00       		.uleb128 0
 7845 01e5 FB400000 		.4byte	.LASF80
 7846 01e9 05       		.byte	0x5
 7847 01ea 00       		.uleb128 0
 7848 01eb D05E0000 		.4byte	.LASF81
 7849 01ef 05       		.byte	0x5
 7850 01f0 00       		.uleb128 0
 7851 01f1 A4140000 		.4byte	.LASF82
 7852 01f5 05       		.byte	0x5
 7853 01f6 00       		.uleb128 0
 7854 01f7 EC4A0000 		.4byte	.LASF83
 7855 01fb 05       		.byte	0x5
 7856 01fc 00       		.uleb128 0
 7857 01fd 032E0000 		.4byte	.LASF84
 7858 0201 05       		.byte	0x5
 7859 0202 00       		.uleb128 0
 7860 0203 FB150000 		.4byte	.LASF85
 7861 0207 05       		.byte	0x5
 7862 0208 00       		.uleb128 0
 7863 0209 510F0000 		.4byte	.LASF86
 7864 020d 05       		.byte	0x5
 7865 020e 00       		.uleb128 0
 7866 020f 22390000 		.4byte	.LASF87
 7867 0213 05       		.byte	0x5
 7868 0214 00       		.uleb128 0
 7869 0215 2C290000 		.4byte	.LASF88
 7870 0219 05       		.byte	0x5
ARM GAS  /tmp/ccXTVNcx.s 			page 158


 7871 021a 00       		.uleb128 0
 7872 021b 08790000 		.4byte	.LASF89
 7873 021f 05       		.byte	0x5
 7874 0220 00       		.uleb128 0
 7875 0221 CE640000 		.4byte	.LASF90
 7876 0225 05       		.byte	0x5
 7877 0226 00       		.uleb128 0
 7878 0227 593D0000 		.4byte	.LASF91
 7879 022b 05       		.byte	0x5
 7880 022c 00       		.uleb128 0
 7881 022d B00A0000 		.4byte	.LASF92
 7882 0231 05       		.byte	0x5
 7883 0232 00       		.uleb128 0
 7884 0233 ED2F0000 		.4byte	.LASF93
 7885 0237 05       		.byte	0x5
 7886 0238 00       		.uleb128 0
 7887 0239 86510000 		.4byte	.LASF94
 7888 023d 05       		.byte	0x5
 7889 023e 00       		.uleb128 0
 7890 023f E8640000 		.4byte	.LASF95
 7891 0243 05       		.byte	0x5
 7892 0244 00       		.uleb128 0
 7893 0245 E6760000 		.4byte	.LASF96
 7894 0249 05       		.byte	0x5
 7895 024a 00       		.uleb128 0
 7896 024b A05F0000 		.4byte	.LASF97
 7897 024f 05       		.byte	0x5
 7898 0250 00       		.uleb128 0
 7899 0251 EE240000 		.4byte	.LASF98
 7900 0255 05       		.byte	0x5
 7901 0256 00       		.uleb128 0
 7902 0257 6E5B0000 		.4byte	.LASF99
 7903 025b 05       		.byte	0x5
 7904 025c 00       		.uleb128 0
 7905 025d E9630000 		.4byte	.LASF100
 7906 0261 05       		.byte	0x5
 7907 0262 00       		.uleb128 0
 7908 0263 5B790000 		.4byte	.LASF101
 7909 0267 05       		.byte	0x5
 7910 0268 00       		.uleb128 0
 7911 0269 7F070000 		.4byte	.LASF102
 7912 026d 05       		.byte	0x5
 7913 026e 00       		.uleb128 0
 7914 026f A4580000 		.4byte	.LASF103
 7915 0273 05       		.byte	0x5
 7916 0274 00       		.uleb128 0
 7917 0275 93650000 		.4byte	.LASF104
 7918 0279 05       		.byte	0x5
 7919 027a 00       		.uleb128 0
 7920 027b 71680000 		.4byte	.LASF105
 7921 027f 05       		.byte	0x5
 7922 0280 00       		.uleb128 0
 7923 0281 A9280000 		.4byte	.LASF106
 7924 0285 05       		.byte	0x5
 7925 0286 00       		.uleb128 0
 7926 0287 4A500000 		.4byte	.LASF107
 7927 028b 05       		.byte	0x5
ARM GAS  /tmp/ccXTVNcx.s 			page 159


 7928 028c 00       		.uleb128 0
 7929 028d 18540000 		.4byte	.LASF108
 7930 0291 05       		.byte	0x5
 7931 0292 00       		.uleb128 0
 7932 0293 C5500000 		.4byte	.LASF109
 7933 0297 05       		.byte	0x5
 7934 0298 00       		.uleb128 0
 7935 0299 41150000 		.4byte	.LASF110
 7936 029d 05       		.byte	0x5
 7937 029e 00       		.uleb128 0
 7938 029f A0000000 		.4byte	.LASF111
 7939 02a3 05       		.byte	0x5
 7940 02a4 00       		.uleb128 0
 7941 02a5 DE300000 		.4byte	.LASF112
 7942 02a9 05       		.byte	0x5
 7943 02aa 00       		.uleb128 0
 7944 02ab F11F0000 		.4byte	.LASF113
 7945 02af 05       		.byte	0x5
 7946 02b0 00       		.uleb128 0
 7947 02b1 AC730000 		.4byte	.LASF114
 7948 02b5 05       		.byte	0x5
 7949 02b6 00       		.uleb128 0
 7950 02b7 3B790000 		.4byte	.LASF115
 7951 02bb 05       		.byte	0x5
 7952 02bc 00       		.uleb128 0
 7953 02bd B8120000 		.4byte	.LASF116
 7954 02c1 05       		.byte	0x5
 7955 02c2 00       		.uleb128 0
 7956 02c3 D8470000 		.4byte	.LASF117
 7957 02c7 05       		.byte	0x5
 7958 02c8 00       		.uleb128 0
 7959 02c9 0B470000 		.4byte	.LASF118
 7960 02cd 05       		.byte	0x5
 7961 02ce 00       		.uleb128 0
 7962 02cf 081E0000 		.4byte	.LASF119
 7963 02d3 05       		.byte	0x5
 7964 02d4 00       		.uleb128 0
 7965 02d5 CE100000 		.4byte	.LASF120
 7966 02d9 05       		.byte	0x5
 7967 02da 00       		.uleb128 0
 7968 02db 71470000 		.4byte	.LASF121
 7969 02df 05       		.byte	0x5
 7970 02e0 00       		.uleb128 0
 7971 02e1 29460000 		.4byte	.LASF122
 7972 02e5 05       		.byte	0x5
 7973 02e6 00       		.uleb128 0
 7974 02e7 EA3D0000 		.4byte	.LASF123
 7975 02eb 05       		.byte	0x5
 7976 02ec 00       		.uleb128 0
 7977 02ed B8390000 		.4byte	.LASF124
 7978 02f1 05       		.byte	0x5
 7979 02f2 00       		.uleb128 0
 7980 02f3 3B470000 		.4byte	.LASF125
 7981 02f7 05       		.byte	0x5
 7982 02f8 00       		.uleb128 0
 7983 02f9 12460000 		.4byte	.LASF126
 7984 02fd 05       		.byte	0x5
ARM GAS  /tmp/ccXTVNcx.s 			page 160


 7985 02fe 00       		.uleb128 0
 7986 02ff 6E190000 		.4byte	.LASF127
 7987 0303 05       		.byte	0x5
 7988 0304 00       		.uleb128 0
 7989 0305 24170000 		.4byte	.LASF128
 7990 0309 05       		.byte	0x5
 7991 030a 00       		.uleb128 0
 7992 030b F85E0000 		.4byte	.LASF129
 7993 030f 05       		.byte	0x5
 7994 0310 00       		.uleb128 0
 7995 0311 CA190000 		.4byte	.LASF130
 7996 0315 05       		.byte	0x5
 7997 0316 00       		.uleb128 0
 7998 0317 CA3C0000 		.4byte	.LASF131
 7999 031b 05       		.byte	0x5
 8000 031c 00       		.uleb128 0
 8001 031d 9A230000 		.4byte	.LASF132
 8002 0321 05       		.byte	0x5
 8003 0322 00       		.uleb128 0
 8004 0323 50290000 		.4byte	.LASF133
 8005 0327 05       		.byte	0x5
 8006 0328 00       		.uleb128 0
 8007 0329 B7270000 		.4byte	.LASF134
 8008 032d 05       		.byte	0x5
 8009 032e 00       		.uleb128 0
 8010 032f 64060000 		.4byte	.LASF135
 8011 0333 05       		.byte	0x5
 8012 0334 00       		.uleb128 0
 8013 0335 65340000 		.4byte	.LASF136
 8014 0339 05       		.byte	0x5
 8015 033a 00       		.uleb128 0
 8016 033b 5B1B0000 		.4byte	.LASF137
 8017 033f 05       		.byte	0x5
 8018 0340 00       		.uleb128 0
 8019 0341 D20D0000 		.4byte	.LASF138
 8020 0345 05       		.byte	0x5
 8021 0346 00       		.uleb128 0
 8022 0347 1F040000 		.4byte	.LASF139
 8023 034b 05       		.byte	0x5
 8024 034c 00       		.uleb128 0
 8025 034d 2B520000 		.4byte	.LASF140
 8026 0351 05       		.byte	0x5
 8027 0352 00       		.uleb128 0
 8028 0353 40780000 		.4byte	.LASF141
 8029 0357 05       		.byte	0x5
 8030 0358 00       		.uleb128 0
 8031 0359 DC1F0000 		.4byte	.LASF142
 8032 035d 05       		.byte	0x5
 8033 035e 00       		.uleb128 0
 8034 035f 9F040000 		.4byte	.LASF143
 8035 0363 05       		.byte	0x5
 8036 0364 00       		.uleb128 0
 8037 0365 07680000 		.4byte	.LASF144
 8038 0369 05       		.byte	0x5
 8039 036a 00       		.uleb128 0
 8040 036b CD720000 		.4byte	.LASF145
 8041 036f 05       		.byte	0x5
ARM GAS  /tmp/ccXTVNcx.s 			page 161


 8042 0370 00       		.uleb128 0
 8043 0371 49130000 		.4byte	.LASF146
 8044 0375 05       		.byte	0x5
 8045 0376 00       		.uleb128 0
 8046 0377 1E340000 		.4byte	.LASF147
 8047 037b 05       		.byte	0x5
 8048 037c 00       		.uleb128 0
 8049 037d 4F6C0000 		.4byte	.LASF148
 8050 0381 05       		.byte	0x5
 8051 0382 00       		.uleb128 0
 8052 0383 45260000 		.4byte	.LASF149
 8053 0387 05       		.byte	0x5
 8054 0388 00       		.uleb128 0
 8055 0389 EF740000 		.4byte	.LASF150
 8056 038d 05       		.byte	0x5
 8057 038e 00       		.uleb128 0
 8058 038f 9F600000 		.4byte	.LASF151
 8059 0393 05       		.byte	0x5
 8060 0394 00       		.uleb128 0
 8061 0395 2B070000 		.4byte	.LASF152
 8062 0399 05       		.byte	0x5
 8063 039a 00       		.uleb128 0
 8064 039b 34710000 		.4byte	.LASF153
 8065 039f 05       		.byte	0x5
 8066 03a0 00       		.uleb128 0
 8067 03a1 12070000 		.4byte	.LASF154
 8068 03a5 05       		.byte	0x5
 8069 03a6 00       		.uleb128 0
 8070 03a7 D0340000 		.4byte	.LASF155
 8071 03ab 05       		.byte	0x5
 8072 03ac 00       		.uleb128 0
 8073 03ad BD250000 		.4byte	.LASF156
 8074 03b1 05       		.byte	0x5
 8075 03b2 00       		.uleb128 0
 8076 03b3 0D450000 		.4byte	.LASF157
 8077 03b7 05       		.byte	0x5
 8078 03b8 00       		.uleb128 0
 8079 03b9 3D000000 		.4byte	.LASF158
 8080 03bd 05       		.byte	0x5
 8081 03be 00       		.uleb128 0
 8082 03bf C43D0000 		.4byte	.LASF159
 8083 03c3 05       		.byte	0x5
 8084 03c4 00       		.uleb128 0
 8085 03c5 96640000 		.4byte	.LASF160
 8086 03c9 05       		.byte	0x5
 8087 03ca 00       		.uleb128 0
 8088 03cb 02250000 		.4byte	.LASF161
 8089 03cf 05       		.byte	0x5
 8090 03d0 00       		.uleb128 0
 8091 03d1 223B0000 		.4byte	.LASF162
 8092 03d5 05       		.byte	0x5
 8093 03d6 00       		.uleb128 0
 8094 03d7 A6530000 		.4byte	.LASF163
 8095 03db 05       		.byte	0x5
 8096 03dc 00       		.uleb128 0
 8097 03dd A4450000 		.4byte	.LASF164
 8098 03e1 05       		.byte	0x5
ARM GAS  /tmp/ccXTVNcx.s 			page 162


 8099 03e2 00       		.uleb128 0
 8100 03e3 02110000 		.4byte	.LASF165
 8101 03e7 05       		.byte	0x5
 8102 03e8 00       		.uleb128 0
 8103 03e9 1C4E0000 		.4byte	.LASF166
 8104 03ed 05       		.byte	0x5
 8105 03ee 00       		.uleb128 0
 8106 03ef C3240000 		.4byte	.LASF167
 8107 03f3 05       		.byte	0x5
 8108 03f4 00       		.uleb128 0
 8109 03f5 63360000 		.4byte	.LASF168
 8110 03f9 05       		.byte	0x5
 8111 03fa 00       		.uleb128 0
 8112 03fb 8D050000 		.4byte	.LASF169
 8113 03ff 05       		.byte	0x5
 8114 0400 00       		.uleb128 0
 8115 0401 E6100000 		.4byte	.LASF170
 8116 0405 05       		.byte	0x5
 8117 0406 00       		.uleb128 0
 8118 0407 8B0E0000 		.4byte	.LASF171
 8119 040b 05       		.byte	0x5
 8120 040c 00       		.uleb128 0
 8121 040d 9C020000 		.4byte	.LASF172
 8122 0411 05       		.byte	0x5
 8123 0412 00       		.uleb128 0
 8124 0413 61520000 		.4byte	.LASF173
 8125 0417 05       		.byte	0x5
 8126 0418 00       		.uleb128 0
 8127 0419 9A480000 		.4byte	.LASF174
 8128 041d 05       		.byte	0x5
 8129 041e 00       		.uleb128 0
 8130 041f 0D060000 		.4byte	.LASF175
 8131 0423 05       		.byte	0x5
 8132 0424 00       		.uleb128 0
 8133 0425 FE520000 		.4byte	.LASF176
 8134 0429 05       		.byte	0x5
 8135 042a 00       		.uleb128 0
 8136 042b C0180000 		.4byte	.LASF177
 8137 042f 05       		.byte	0x5
 8138 0430 00       		.uleb128 0
 8139 0431 D6710000 		.4byte	.LASF178
 8140 0435 05       		.byte	0x5
 8141 0436 00       		.uleb128 0
 8142 0437 76300000 		.4byte	.LASF179
 8143 043b 05       		.byte	0x5
 8144 043c 00       		.uleb128 0
 8145 043d D54A0000 		.4byte	.LASF180
 8146 0441 05       		.byte	0x5
 8147 0442 00       		.uleb128 0
 8148 0443 C6130000 		.4byte	.LASF181
 8149 0447 05       		.byte	0x5
 8150 0448 00       		.uleb128 0
 8151 0449 F01D0000 		.4byte	.LASF182
 8152 044d 05       		.byte	0x5
 8153 044e 00       		.uleb128 0
 8154 044f D0630000 		.4byte	.LASF183
 8155 0453 05       		.byte	0x5
ARM GAS  /tmp/ccXTVNcx.s 			page 163


 8156 0454 00       		.uleb128 0
 8157 0455 E0010000 		.4byte	.LASF184
 8158 0459 05       		.byte	0x5
 8159 045a 00       		.uleb128 0
 8160 045b EB380000 		.4byte	.LASF185
 8161 045f 05       		.byte	0x5
 8162 0460 00       		.uleb128 0
 8163 0461 C6620000 		.4byte	.LASF186
 8164 0465 05       		.byte	0x5
 8165 0466 00       		.uleb128 0
 8166 0467 62010000 		.4byte	.LASF187
 8167 046b 05       		.byte	0x5
 8168 046c 00       		.uleb128 0
 8169 046d DD740000 		.4byte	.LASF188
 8170 0471 05       		.byte	0x5
 8171 0472 00       		.uleb128 0
 8172 0473 65350000 		.4byte	.LASF189
 8173 0477 05       		.byte	0x5
 8174 0478 00       		.uleb128 0
 8175 0479 61760000 		.4byte	.LASF190
 8176 047d 05       		.byte	0x5
 8177 047e 00       		.uleb128 0
 8178 047f 1E0D0000 		.4byte	.LASF191
 8179 0483 05       		.byte	0x5
 8180 0484 00       		.uleb128 0
 8181 0485 2E310000 		.4byte	.LASF192
 8182 0489 05       		.byte	0x5
 8183 048a 00       		.uleb128 0
 8184 048b DB240000 		.4byte	.LASF193
 8185 048f 05       		.byte	0x5
 8186 0490 00       		.uleb128 0
 8187 0491 49250000 		.4byte	.LASF194
 8188 0495 05       		.byte	0x5
 8189 0496 00       		.uleb128 0
 8190 0497 D70A0000 		.4byte	.LASF195
 8191 049b 05       		.byte	0x5
 8192 049c 00       		.uleb128 0
 8193 049d A7300000 		.4byte	.LASF196
 8194 04a1 05       		.byte	0x5
 8195 04a2 00       		.uleb128 0
 8196 04a3 3F1B0000 		.4byte	.LASF197
 8197 04a7 05       		.byte	0x5
 8198 04a8 00       		.uleb128 0
 8199 04a9 83550000 		.4byte	.LASF198
 8200 04ad 05       		.byte	0x5
 8201 04ae 00       		.uleb128 0
 8202 04af EA040000 		.4byte	.LASF199
 8203 04b3 05       		.byte	0x5
 8204 04b4 00       		.uleb128 0
 8205 04b5 EB450000 		.4byte	.LASF200
 8206 04b9 05       		.byte	0x5
 8207 04ba 00       		.uleb128 0
 8208 04bb 73370000 		.4byte	.LASF201
 8209 04bf 05       		.byte	0x5
 8210 04c0 00       		.uleb128 0
 8211 04c1 80650000 		.4byte	.LASF202
 8212 04c5 05       		.byte	0x5
ARM GAS  /tmp/ccXTVNcx.s 			page 164


 8213 04c6 00       		.uleb128 0
 8214 04c7 3F510000 		.4byte	.LASF203
 8215 04cb 05       		.byte	0x5
 8216 04cc 00       		.uleb128 0
 8217 04cd C3790000 		.4byte	.LASF204
 8218 04d1 05       		.byte	0x5
 8219 04d2 00       		.uleb128 0
 8220 04d3 76420000 		.4byte	.LASF205
 8221 04d7 05       		.byte	0x5
 8222 04d8 00       		.uleb128 0
 8223 04d9 2B3D0000 		.4byte	.LASF206
 8224 04dd 05       		.byte	0x5
 8225 04de 00       		.uleb128 0
 8226 04df 92410000 		.4byte	.LASF207
 8227 04e3 05       		.byte	0x5
 8228 04e4 00       		.uleb128 0
 8229 04e5 94510000 		.4byte	.LASF208
 8230 04e9 05       		.byte	0x5
 8231 04ea 00       		.uleb128 0
 8232 04eb 66030000 		.4byte	.LASF209
 8233 04ef 05       		.byte	0x5
 8234 04f0 00       		.uleb128 0
 8235 04f1 1D490000 		.4byte	.LASF210
 8236 04f5 05       		.byte	0x5
 8237 04f6 00       		.uleb128 0
 8238 04f7 0C4C0000 		.4byte	.LASF211
 8239 04fb 05       		.byte	0x5
 8240 04fc 00       		.uleb128 0
 8241 04fd 0D0C0000 		.4byte	.LASF212
 8242 0501 05       		.byte	0x5
 8243 0502 00       		.uleb128 0
 8244 0503 84790000 		.4byte	.LASF213
 8245 0507 05       		.byte	0x5
 8246 0508 00       		.uleb128 0
 8247 0509 795A0000 		.4byte	.LASF214
 8248 050d 05       		.byte	0x5
 8249 050e 00       		.uleb128 0
 8250 050f E5670000 		.4byte	.LASF215
 8251 0513 05       		.byte	0x5
 8252 0514 00       		.uleb128 0
 8253 0515 15630000 		.4byte	.LASF216
 8254 0519 05       		.byte	0x5
 8255 051a 00       		.uleb128 0
 8256 051b 0F730000 		.4byte	.LASF217
 8257 051f 05       		.byte	0x5
 8258 0520 00       		.uleb128 0
 8259 0521 A06E0000 		.4byte	.LASF218
 8260 0525 05       		.byte	0x5
 8261 0526 00       		.uleb128 0
 8262 0527 A06B0000 		.4byte	.LASF219
 8263 052b 05       		.byte	0x5
 8264 052c 00       		.uleb128 0
 8265 052d DE600000 		.4byte	.LASF220
 8266 0531 05       		.byte	0x5
 8267 0532 00       		.uleb128 0
 8268 0533 4B5D0000 		.4byte	.LASF221
 8269 0537 05       		.byte	0x5
ARM GAS  /tmp/ccXTVNcx.s 			page 165


 8270 0538 00       		.uleb128 0
 8271 0539 75090000 		.4byte	.LASF222
 8272 053d 05       		.byte	0x5
 8273 053e 00       		.uleb128 0
 8274 053f 8D3B0000 		.4byte	.LASF223
 8275 0543 05       		.byte	0x5
 8276 0544 00       		.uleb128 0
 8277 0545 286E0000 		.4byte	.LASF224
 8278 0549 05       		.byte	0x5
 8279 054a 00       		.uleb128 0
 8280 054b 99150000 		.4byte	.LASF225
 8281 054f 05       		.byte	0x5
 8282 0550 00       		.uleb128 0
 8283 0551 E86A0000 		.4byte	.LASF226
 8284 0555 05       		.byte	0x5
 8285 0556 00       		.uleb128 0
 8286 0557 5C7A0000 		.4byte	.LASF227
 8287 055b 05       		.byte	0x5
 8288 055c 00       		.uleb128 0
 8289 055d 2A570000 		.4byte	.LASF228
 8290 0561 05       		.byte	0x5
 8291 0562 00       		.uleb128 0
 8292 0563 C8570000 		.4byte	.LASF229
 8293 0567 05       		.byte	0x5
 8294 0568 00       		.uleb128 0
 8295 0569 E3610000 		.4byte	.LASF230
 8296 056d 05       		.byte	0x5
 8297 056e 00       		.uleb128 0
 8298 056f 636F0000 		.4byte	.LASF231
 8299 0573 05       		.byte	0x5
 8300 0574 00       		.uleb128 0
 8301 0575 492B0000 		.4byte	.LASF232
 8302 0579 05       		.byte	0x5
 8303 057a 00       		.uleb128 0
 8304 057b C2460000 		.4byte	.LASF233
 8305 057f 05       		.byte	0x5
 8306 0580 00       		.uleb128 0
 8307 0581 AF4E0000 		.4byte	.LASF234
 8308 0585 05       		.byte	0x5
 8309 0586 00       		.uleb128 0
 8310 0587 70050000 		.4byte	.LASF235
 8311 058b 05       		.byte	0x5
 8312 058c 00       		.uleb128 0
 8313 058d 81600000 		.4byte	.LASF236
 8314 0591 05       		.byte	0x5
 8315 0592 00       		.uleb128 0
 8316 0593 36120000 		.4byte	.LASF237
 8317 0597 05       		.byte	0x5
 8318 0598 00       		.uleb128 0
 8319 0599 BC640000 		.4byte	.LASF238
 8320 059d 05       		.byte	0x5
 8321 059e 00       		.uleb128 0
 8322 059f C5030000 		.4byte	.LASF239
 8323 05a3 05       		.byte	0x5
 8324 05a4 00       		.uleb128 0
 8325 05a5 2F540000 		.4byte	.LASF240
 8326 05a9 05       		.byte	0x5
ARM GAS  /tmp/ccXTVNcx.s 			page 166


 8327 05aa 00       		.uleb128 0
 8328 05ab B6700000 		.4byte	.LASF241
 8329 05af 05       		.byte	0x5
 8330 05b0 00       		.uleb128 0
 8331 05b1 063D0000 		.4byte	.LASF242
 8332 05b5 05       		.byte	0x5
 8333 05b6 00       		.uleb128 0
 8334 05b7 9C120000 		.4byte	.LASF243
 8335 05bb 05       		.byte	0x5
 8336 05bc 00       		.uleb128 0
 8337 05bd 572E0000 		.4byte	.LASF244
 8338 05c1 05       		.byte	0x5
 8339 05c2 00       		.uleb128 0
 8340 05c3 7C020000 		.4byte	.LASF245
 8341 05c7 05       		.byte	0x5
 8342 05c8 00       		.uleb128 0
 8343 05c9 6A2A0000 		.4byte	.LASF246
 8344 05cd 05       		.byte	0x5
 8345 05ce 00       		.uleb128 0
 8346 05cf 112C0000 		.4byte	.LASF247
 8347 05d3 05       		.byte	0x5
 8348 05d4 00       		.uleb128 0
 8349 05d5 FE630000 		.4byte	.LASF248
 8350 05d9 05       		.byte	0x5
 8351 05da 00       		.uleb128 0
 8352 05db E56B0000 		.4byte	.LASF249
 8353 05df 05       		.byte	0x5
 8354 05e0 00       		.uleb128 0
 8355 05e1 3C080000 		.4byte	.LASF250
 8356 05e5 05       		.byte	0x5
 8357 05e6 00       		.uleb128 0
 8358 05e7 B7210000 		.4byte	.LASF251
 8359 05eb 05       		.byte	0x5
 8360 05ec 00       		.uleb128 0
 8361 05ed 93680000 		.4byte	.LASF252
 8362 05f1 05       		.byte	0x5
 8363 05f2 00       		.uleb128 0
 8364 05f3 6A560000 		.4byte	.LASF253
 8365 05f7 05       		.byte	0x5
 8366 05f8 00       		.uleb128 0
 8367 05f9 A23D0000 		.4byte	.LASF254
 8368 05fd 05       		.byte	0x5
 8369 05fe 00       		.uleb128 0
 8370 05ff 325A0000 		.4byte	.LASF255
 8371 0603 05       		.byte	0x5
 8372 0604 00       		.uleb128 0
 8373 0605 D1700000 		.4byte	.LASF256
 8374 0609 05       		.byte	0x5
 8375 060a 00       		.uleb128 0
 8376 060b BC5E0000 		.4byte	.LASF257
 8377 060f 05       		.byte	0x5
 8378 0610 00       		.uleb128 0
 8379 0611 52370000 		.4byte	.LASF258
 8380 0615 05       		.byte	0x5
 8381 0616 00       		.uleb128 0
 8382 0617 C1520000 		.4byte	.LASF259
 8383 061b 05       		.byte	0x5
ARM GAS  /tmp/ccXTVNcx.s 			page 167


 8384 061c 00       		.uleb128 0
 8385 061d 41310000 		.4byte	.LASF260
 8386 0621 05       		.byte	0x5
 8387 0622 00       		.uleb128 0
 8388 0623 30590000 		.4byte	.LASF261
 8389 0627 05       		.byte	0x5
 8390 0628 00       		.uleb128 0
 8391 0629 27210000 		.4byte	.LASF262
 8392 062d 05       		.byte	0x5
 8393 062e 00       		.uleb128 0
 8394 062f 926A0000 		.4byte	.LASF263
 8395 0633 05       		.byte	0x5
 8396 0634 00       		.uleb128 0
 8397 0635 6E7A0000 		.4byte	.LASF264
 8398 0639 05       		.byte	0x5
 8399 063a 00       		.uleb128 0
 8400 063b 05050000 		.4byte	.LASF265
 8401 063f 05       		.byte	0x5
 8402 0640 00       		.uleb128 0
 8403 0641 8D720000 		.4byte	.LASF266
 8404 0645 05       		.byte	0x5
 8405 0646 00       		.uleb128 0
 8406 0647 A3690000 		.4byte	.LASF267
 8407 064b 05       		.byte	0x5
 8408 064c 00       		.uleb128 0
 8409 064d 355E0000 		.4byte	.LASF268
 8410 0651 05       		.byte	0x5
 8411 0652 00       		.uleb128 0
 8412 0653 DA730000 		.4byte	.LASF269
 8413 0657 05       		.byte	0x5
 8414 0658 00       		.uleb128 0
 8415 0659 292B0000 		.4byte	.LASF270
 8416 065d 05       		.byte	0x5
 8417 065e 00       		.uleb128 0
 8418 065f A40D0000 		.4byte	.LASF271
 8419 0663 05       		.byte	0x5
 8420 0664 00       		.uleb128 0
 8421 0665 D1050000 		.4byte	.LASF272
 8422 0669 05       		.byte	0x5
 8423 066a 00       		.uleb128 0
 8424 066b 3C570000 		.4byte	.LASF273
 8425 066f 05       		.byte	0x5
 8426 0670 00       		.uleb128 0
 8427 0671 A45A0000 		.4byte	.LASF274
 8428 0675 05       		.byte	0x5
 8429 0676 00       		.uleb128 0
 8430 0677 10200000 		.4byte	.LASF275
 8431 067b 05       		.byte	0x5
 8432 067c 00       		.uleb128 0
 8433 067d C3020000 		.4byte	.LASF276
 8434 0681 05       		.byte	0x5
 8435 0682 00       		.uleb128 0
 8436 0683 2D480000 		.4byte	.LASF277
 8437 0687 05       		.byte	0x5
 8438 0688 00       		.uleb128 0
 8439 0689 753D0000 		.4byte	.LASF278
 8440 068d 05       		.byte	0x5
ARM GAS  /tmp/ccXTVNcx.s 			page 168


 8441 068e 00       		.uleb128 0
 8442 068f FD0D0000 		.4byte	.LASF279
 8443 0693 05       		.byte	0x5
 8444 0694 00       		.uleb128 0
 8445 0695 455F0000 		.4byte	.LASF280
 8446 0699 05       		.byte	0x5
 8447 069a 00       		.uleb128 0
 8448 069b 520D0000 		.4byte	.LASF281
 8449 069f 05       		.byte	0x5
 8450 06a0 00       		.uleb128 0
 8451 06a1 0E5F0000 		.4byte	.LASF282
 8452 06a5 05       		.byte	0x5
 8453 06a6 00       		.uleb128 0
 8454 06a7 A1440000 		.4byte	.LASF283
 8455 06ab 05       		.byte	0x5
 8456 06ac 00       		.uleb128 0
 8457 06ad 806E0000 		.4byte	.LASF284
 8458 06b1 05       		.byte	0x5
 8459 06b2 00       		.uleb128 0
 8460 06b3 BF580000 		.4byte	.LASF285
 8461 06b7 05       		.byte	0x5
 8462 06b8 00       		.uleb128 0
 8463 06b9 0B5D0000 		.4byte	.LASF286
 8464 06bd 05       		.byte	0x5
 8465 06be 00       		.uleb128 0
 8466 06bf BE230000 		.4byte	.LASF287
 8467 06c3 05       		.byte	0x5
 8468 06c4 00       		.uleb128 0
 8469 06c5 F43F0000 		.4byte	.LASF288
 8470 06c9 05       		.byte	0x5
 8471 06ca 00       		.uleb128 0
 8472 06cb 3C5D0000 		.4byte	.LASF289
 8473 06cf 05       		.byte	0x5
 8474 06d0 00       		.uleb128 0
 8475 06d1 95350000 		.4byte	.LASF290
 8476 06d5 05       		.byte	0x5
 8477 06d6 00       		.uleb128 0
 8478 06d7 3A270000 		.4byte	.LASF291
 8479 06db 05       		.byte	0x5
 8480 06dc 00       		.uleb128 0
 8481 06dd 20770000 		.4byte	.LASF292
 8482 06e1 05       		.byte	0x5
 8483 06e2 00       		.uleb128 0
 8484 06e3 B82C0000 		.4byte	.LASF293
 8485 06e7 05       		.byte	0x5
 8486 06e8 00       		.uleb128 0
 8487 06e9 F64E0000 		.4byte	.LASF294
 8488 06ed 05       		.byte	0x5
 8489 06ee 00       		.uleb128 0
 8490 06ef 6F000000 		.4byte	.LASF295
 8491 06f3 05       		.byte	0x5
 8492 06f4 00       		.uleb128 0
 8493 06f5 89700000 		.4byte	.LASF296
 8494 06f9 05       		.byte	0x5
 8495 06fa 00       		.uleb128 0
 8496 06fb 394B0000 		.4byte	.LASF297
 8497 06ff 05       		.byte	0x5
ARM GAS  /tmp/ccXTVNcx.s 			page 169


 8498 0700 00       		.uleb128 0
 8499 0701 AF220000 		.4byte	.LASF298
 8500 0705 05       		.byte	0x5
 8501 0706 00       		.uleb128 0
 8502 0707 24140000 		.4byte	.LASF299
 8503 070b 05       		.byte	0x5
 8504 070c 00       		.uleb128 0
 8505 070d DD650000 		.4byte	.LASF300
 8506 0711 05       		.byte	0x5
 8507 0712 00       		.uleb128 0
 8508 0713 C20D0000 		.4byte	.LASF301
 8509 0717 05       		.byte	0x5
 8510 0718 00       		.uleb128 0
 8511 0719 826A0000 		.4byte	.LASF302
 8512 071d 05       		.byte	0x5
 8513 071e 00       		.uleb128 0
 8514 071f B1620000 		.4byte	.LASF303
 8515 0723 05       		.byte	0x5
 8516 0724 00       		.uleb128 0
 8517 0725 A9310000 		.4byte	.LASF304
 8518 0729 05       		.byte	0x5
 8519 072a 00       		.uleb128 0
 8520 072b 02400000 		.4byte	.LASF305
 8521 072f 05       		.byte	0x5
 8522 0730 00       		.uleb128 0
 8523 0731 C05F0000 		.4byte	.LASF306
 8524 0735 05       		.byte	0x5
 8525 0736 00       		.uleb128 0
 8526 0737 F1140000 		.4byte	.LASF307
 8527 073b 05       		.byte	0x5
 8528 073c 00       		.uleb128 0
 8529 073d D24B0000 		.4byte	.LASF308
 8530 0741 05       		.byte	0x5
 8531 0742 00       		.uleb128 0
 8532 0743 5B390000 		.4byte	.LASF309
 8533 0747 05       		.byte	0x5
 8534 0748 00       		.uleb128 0
 8535 0749 8A1B0000 		.4byte	.LASF310
 8536 074d 05       		.byte	0x5
 8537 074e 00       		.uleb128 0
 8538 074f E9000000 		.4byte	.LASF311
 8539 0753 05       		.byte	0x5
 8540 0754 00       		.uleb128 0
 8541 0755 BF2A0000 		.4byte	.LASF312
 8542 0759 05       		.byte	0x5
 8543 075a 00       		.uleb128 0
 8544 075b 835F0000 		.4byte	.LASF313
 8545 075f 05       		.byte	0x5
 8546 0760 00       		.uleb128 0
 8547 0761 843D0000 		.4byte	.LASF314
 8548 0765 05       		.byte	0x5
 8549 0766 00       		.uleb128 0
 8550 0767 27240000 		.4byte	.LASF315
 8551 076b 05       		.byte	0x5
 8552 076c 00       		.uleb128 0
 8553 076d 5C2B0000 		.4byte	.LASF316
 8554 0771 05       		.byte	0x5
ARM GAS  /tmp/ccXTVNcx.s 			page 170


 8555 0772 00       		.uleb128 0
 8556 0773 0A520000 		.4byte	.LASF317
 8557 0777 05       		.byte	0x5
 8558 0778 00       		.uleb128 0
 8559 0779 3F350000 		.4byte	.LASF318
 8560 077d 05       		.byte	0x5
 8561 077e 00       		.uleb128 0
 8562 077f 5C220000 		.4byte	.LASF319
 8563 0783 05       		.byte	0x5
 8564 0784 00       		.uleb128 0
 8565 0785 B4410000 		.4byte	.LASF320
 8566 0789 05       		.byte	0x5
 8567 078a 00       		.uleb128 0
 8568 078b 326B0000 		.4byte	.LASF321
 8569 078f 05       		.byte	0x5
 8570 0790 00       		.uleb128 0
 8571 0791 C6650000 		.4byte	.LASF322
 8572 0795 05       		.byte	0x5
 8573 0796 00       		.uleb128 0
 8574 0797 814C0000 		.4byte	.LASF323
 8575 079b 05       		.byte	0x5
 8576 079c 00       		.uleb128 0
 8577 079d 5C330000 		.4byte	.LASF324
 8578 07a1 05       		.byte	0x5
 8579 07a2 00       		.uleb128 0
 8580 07a3 93060000 		.4byte	.LASF325
 8581 07a7 05       		.byte	0x5
 8582 07a8 00       		.uleb128 0
 8583 07a9 B74C0000 		.4byte	.LASF326
 8584 07ad 05       		.byte	0x5
 8585 07ae 00       		.uleb128 0
 8586 07af FB590000 		.4byte	.LASF327
 8587 07b3 05       		.byte	0x5
 8588 07b4 00       		.uleb128 0
 8589 07b5 CC560000 		.4byte	.LASF328
 8590 07b9 05       		.byte	0x5
 8591 07ba 00       		.uleb128 0
 8592 07bb 63730000 		.4byte	.LASF329
 8593 07bf 05       		.byte	0x5
 8594 07c0 00       		.uleb128 0
 8595 07c1 33500000 		.4byte	.LASF330
 8596 07c5 05       		.byte	0x5
 8597 07c6 00       		.uleb128 0
 8598 07c7 43690000 		.4byte	.LASF331
 8599 07cb 05       		.byte	0x5
 8600 07cc 00       		.uleb128 0
 8601 07cd F25D0000 		.4byte	.LASF332
 8602 07d1 05       		.byte	0x5
 8603 07d2 00       		.uleb128 0
 8604 07d3 4F360000 		.4byte	.LASF333
 8605 07d7 05       		.byte	0x5
 8606 07d8 00       		.uleb128 0
 8607 07d9 950F0000 		.4byte	.LASF334
 8608 07dd 05       		.byte	0x5
 8609 07de 00       		.uleb128 0
 8610 07df C95C0000 		.4byte	.LASF335
 8611 07e3 05       		.byte	0x5
ARM GAS  /tmp/ccXTVNcx.s 			page 171


 8612 07e4 00       		.uleb128 0
 8613 07e5 A3050000 		.4byte	.LASF336
 8614 07e9 05       		.byte	0x5
 8615 07ea 00       		.uleb128 0
 8616 07eb 83150000 		.4byte	.LASF337
 8617 07ef 05       		.byte	0x5
 8618 07f0 00       		.uleb128 0
 8619 07f1 4E630000 		.4byte	.LASF338
 8620 07f5 05       		.byte	0x5
 8621 07f6 00       		.uleb128 0
 8622 07f7 5F2D0000 		.4byte	.LASF339
 8623 07fb 05       		.byte	0x5
 8624 07fc 00       		.uleb128 0
 8625 07fd 276C0000 		.4byte	.LASF340
 8626 0801 05       		.byte	0x5
 8627 0802 00       		.uleb128 0
 8628 0803 2B380000 		.4byte	.LASF341
 8629 0807 05       		.byte	0x5
 8630 0808 00       		.uleb128 0
 8631 0809 C95D0000 		.4byte	.LASF342
 8632 080d 05       		.byte	0x5
 8633 080e 00       		.uleb128 0
 8634 080f BE200000 		.4byte	.LASF343
 8635 0813 05       		.byte	0x5
 8636 0814 00       		.uleb128 0
 8637 0815 5F6D0000 		.4byte	.LASF344
 8638 0819 00       		.byte	0
 8639              		.section	.debug_macro,"G",%progbits,wm4.features.h.22.2e382148a0560adabf236cddd4e880f4,comdat
 8640              	.Ldebug_macro2:
 8641 0000 0400     		.2byte	0x4
 8642 0002 00       		.byte	0
 8643 0003 05       		.byte	0x5
 8644 0004 16       		.uleb128 0x16
 8645 0005 D8000000 		.4byte	.LASF349
 8646 0009 05       		.byte	0x5
 8647 000a 1F       		.uleb128 0x1f
 8648 000b E6180000 		.4byte	.LASF350
 8649 000f 05       		.byte	0x5
 8650 0010 20       		.uleb128 0x20
 8651 0011 5E170000 		.4byte	.LASF351
 8652 0015 05       		.byte	0x5
 8653 0016 25       		.uleb128 0x25
 8654 0017 48120000 		.4byte	.LASF352
 8655 001b 05       		.byte	0x5
 8656 001c 2C       		.uleb128 0x2c
 8657 001d 2C6A0000 		.4byte	.LASF353
 8658 0021 00       		.byte	0
 8659              		.section	.debug_macro,"G",%progbits,wm4._default_types.h.15.933e8edd27a65e0b69af4a865eb623d2,comda
 8660              	.Ldebug_macro3:
 8661 0000 0400     		.2byte	0x4
 8662 0002 00       		.byte	0
 8663 0003 05       		.byte	0x5
 8664 0004 0F       		.uleb128 0xf
 8665 0005 6B430000 		.4byte	.LASF354
 8666 0009 05       		.byte	0x5
 8667 000a 21       		.uleb128 0x21
 8668 000b 4A170000 		.4byte	.LASF355
ARM GAS  /tmp/ccXTVNcx.s 			page 172


 8669 000f 05       		.byte	0x5
 8670 0010 2F       		.uleb128 0x2f
 8671 0011 A8250000 		.4byte	.LASF356
 8672 0015 05       		.byte	0x5
 8673 0016 45       		.uleb128 0x45
 8674 0017 7D1D0000 		.4byte	.LASF357
 8675 001b 05       		.byte	0x5
 8676 001c 5F       		.uleb128 0x5f
 8677 001d 91530000 		.4byte	.LASF358
 8678 0021 05       		.byte	0x5
 8679 0022 7E       		.uleb128 0x7e
 8680 0023 88490000 		.4byte	.LASF359
 8681 0027 05       		.byte	0x5
 8682 0028 9801     		.uleb128 0x98
 8683 002a 91130000 		.4byte	.LASF360
 8684 002e 05       		.byte	0x5
 8685 002f AE01     		.uleb128 0xae
 8686 0031 66600000 		.4byte	.LASF361
 8687 0035 05       		.byte	0x5
 8688 0036 C001     		.uleb128 0xc0
 8689 0038 92420000 		.4byte	.LASF362
 8690 003c 06       		.byte	0x6
 8691 003d D601     		.uleb128 0xd6
 8692 003f 70530000 		.4byte	.LASF363
 8693 0043 00       		.byte	0
 8694              		.section	.debug_macro,"G",%progbits,wm4._intsup.h.10.ca9f32a61b410c270a48d1161ca2c217,comdat
 8695              	.Ldebug_macro4:
 8696 0000 0400     		.2byte	0x4
 8697 0002 00       		.byte	0
 8698 0003 05       		.byte	0x5
 8699 0004 0A       		.uleb128 0xa
 8700 0005 496F0000 		.4byte	.LASF364
 8701 0009 05       		.byte	0x5
 8702 000a 10       		.uleb128 0x10
 8703 000b 4F430000 		.4byte	.LASF365
 8704 000f 05       		.byte	0x5
 8705 0010 1A       		.uleb128 0x1a
 8706 0011 7F590000 		.4byte	.LASF366
 8707 0015 05       		.byte	0x5
 8708 0016 21       		.uleb128 0x21
 8709 0017 38680000 		.4byte	.LASF367
 8710 001b 00       		.byte	0
 8711              		.section	.debug_macro,"G",%progbits,wm4.stdint.h.22.f4a337c398d8b6d821a97202448bc0d0,comdat
 8712              	.Ldebug_macro5:
 8713 0000 0400     		.2byte	0x4
 8714 0002 00       		.byte	0
 8715 0003 05       		.byte	0x5
 8716 0004 16       		.uleb128 0x16
 8717 0005 16260000 		.4byte	.LASF368
 8718 0009 05       		.byte	0x5
 8719 000a 1C       		.uleb128 0x1c
 8720 000b 84710000 		.4byte	.LASF369
 8721 000f 05       		.byte	0x5
 8722 0010 22       		.uleb128 0x22
 8723 0011 793B0000 		.4byte	.LASF370
 8724 0015 05       		.byte	0x5
 8725 0016 28       		.uleb128 0x28
ARM GAS  /tmp/ccXTVNcx.s 			page 173


 8726 0017 502A0000 		.4byte	.LASF371
 8727 001b 05       		.byte	0x5
 8728 001c 2E       		.uleb128 0x2e
 8729 001d 11130000 		.4byte	.LASF372
 8730 0021 05       		.byte	0x5
 8731 0022 34       		.uleb128 0x34
 8732 0023 8F310000 		.4byte	.LASF373
 8733 0027 05       		.byte	0x5
 8734 0028 3A       		.uleb128 0x3a
 8735 0029 15690000 		.4byte	.LASF374
 8736 002d 05       		.byte	0x5
 8737 002e 40       		.uleb128 0x40
 8738 002f B03C0000 		.4byte	.LASF375
 8739 0033 05       		.byte	0x5
 8740 0034 4C       		.uleb128 0x4c
 8741 0035 294A0000 		.4byte	.LASF376
 8742 0039 05       		.byte	0x5
 8743 003a 56       		.uleb128 0x56
 8744 003b DB440000 		.4byte	.LASF377
 8745 003f 05       		.byte	0x5
 8746 0040 60       		.uleb128 0x60
 8747 0041 6C0C0000 		.4byte	.LASF378
 8748 0045 05       		.byte	0x5
 8749 0046 6A       		.uleb128 0x6a
 8750 0047 85200000 		.4byte	.LASF379
 8751 004b 05       		.byte	0x5
 8752 004c AD01     		.uleb128 0xad
 8753 004e 012D0000 		.4byte	.LASF380
 8754 0052 05       		.byte	0x5
 8755 0053 AE01     		.uleb128 0xae
 8756 0055 456D0000 		.4byte	.LASF381
 8757 0059 05       		.byte	0x5
 8758 005a AF01     		.uleb128 0xaf
 8759 005c 331C0000 		.4byte	.LASF382
 8760 0060 05       		.byte	0x5
 8761 0061 C501     		.uleb128 0xc5
 8762 0063 6B320000 		.4byte	.LASF383
 8763 0067 05       		.byte	0x5
 8764 0068 C601     		.uleb128 0xc6
 8765 006a A94D0000 		.4byte	.LASF384
 8766 006e 05       		.byte	0x5
 8767 006f C701     		.uleb128 0xc7
 8768 0071 83160000 		.4byte	.LASF385
 8769 0075 05       		.byte	0x5
 8770 0076 CF01     		.uleb128 0xcf
 8771 0078 48680000 		.4byte	.LASF386
 8772 007c 05       		.byte	0x5
 8773 007d D001     		.uleb128 0xd0
 8774 007f 11280000 		.4byte	.LASF387
 8775 0083 05       		.byte	0x5
 8776 0084 D101     		.uleb128 0xd1
 8777 0086 5F150000 		.4byte	.LASF388
 8778 008a 05       		.byte	0x5
 8779 008b DB01     		.uleb128 0xdb
 8780 008d 8A4D0000 		.4byte	.LASF389
 8781 0091 05       		.byte	0x5
 8782 0092 DC01     		.uleb128 0xdc
ARM GAS  /tmp/ccXTVNcx.s 			page 174


 8783 0094 AF2E0000 		.4byte	.LASF390
 8784 0098 05       		.byte	0x5
 8785 0099 DD01     		.uleb128 0xdd
 8786 009b C72C0000 		.4byte	.LASF391
 8787 009f 05       		.byte	0x5
 8788 00a0 E501     		.uleb128 0xe5
 8789 00a2 E3410000 		.4byte	.LASF392
 8790 00a6 05       		.byte	0x5
 8791 00a7 E601     		.uleb128 0xe6
 8792 00a9 F9480000 		.4byte	.LASF393
 8793 00ad 05       		.byte	0x5
 8794 00ae E701     		.uleb128 0xe7
 8795 00b0 985B0000 		.4byte	.LASF394
 8796 00b4 05       		.byte	0x5
 8797 00b5 F101     		.uleb128 0xf1
 8798 00b7 D35D0000 		.4byte	.LASF395
 8799 00bb 05       		.byte	0x5
 8800 00bc F201     		.uleb128 0xf2
 8801 00be EE3C0000 		.4byte	.LASF396
 8802 00c2 05       		.byte	0x5
 8803 00c3 F301     		.uleb128 0xf3
 8804 00c5 A90B0000 		.4byte	.LASF397
 8805 00c9 05       		.byte	0x5
 8806 00ca 8102     		.uleb128 0x101
 8807 00cc 1A640000 		.4byte	.LASF398
 8808 00d0 05       		.byte	0x5
 8809 00d1 8202     		.uleb128 0x102
 8810 00d3 231E0000 		.4byte	.LASF399
 8811 00d7 05       		.byte	0x5
 8812 00d8 8302     		.uleb128 0x103
 8813 00da D6660000 		.4byte	.LASF400
 8814 00de 05       		.byte	0x5
 8815 00df 9302     		.uleb128 0x113
 8816 00e1 12660000 		.4byte	.LASF401
 8817 00e5 05       		.byte	0x5
 8818 00e6 9402     		.uleb128 0x114
 8819 00e8 70040000 		.4byte	.LASF402
 8820 00ec 05       		.byte	0x5
 8821 00ed 9502     		.uleb128 0x115
 8822 00ef 594A0000 		.4byte	.LASF403
 8823 00f3 05       		.byte	0x5
 8824 00f4 A302     		.uleb128 0x123
 8825 00f6 BD160000 		.4byte	.LASF404
 8826 00fa 05       		.byte	0x5
 8827 00fb A402     		.uleb128 0x124
 8828 00fd A80C0000 		.4byte	.LASF405
 8829 0101 05       		.byte	0x5
 8830 0102 A502     		.uleb128 0x125
 8831 0104 B0660000 		.4byte	.LASF406
 8832 0108 05       		.byte	0x5
 8833 0109 B302     		.uleb128 0x133
 8834 010b E4460000 		.4byte	.LASF407
 8835 010f 05       		.byte	0x5
 8836 0110 B402     		.uleb128 0x134
 8837 0112 03320000 		.4byte	.LASF408
 8838 0116 05       		.byte	0x5
 8839 0117 B502     		.uleb128 0x135
ARM GAS  /tmp/ccXTVNcx.s 			page 175


 8840 0119 3F160000 		.4byte	.LASF409
 8841 011d 05       		.byte	0x5
 8842 011e C302     		.uleb128 0x143
 8843 0120 1A1D0000 		.4byte	.LASF410
 8844 0124 05       		.byte	0x5
 8845 0125 C402     		.uleb128 0x144
 8846 0127 04300000 		.4byte	.LASF411
 8847 012b 05       		.byte	0x5
 8848 012c C502     		.uleb128 0x145
 8849 012e 90110000 		.4byte	.LASF412
 8850 0132 05       		.byte	0x5
 8851 0133 D302     		.uleb128 0x153
 8852 0135 BF260000 		.4byte	.LASF413
 8853 0139 05       		.byte	0x5
 8854 013a D402     		.uleb128 0x154
 8855 013c 1A5D0000 		.4byte	.LASF414
 8856 0140 05       		.byte	0x5
 8857 0141 D502     		.uleb128 0x155
 8858 0143 8D540000 		.4byte	.LASF415
 8859 0147 05       		.byte	0x5
 8860 0148 E302     		.uleb128 0x163
 8861 014a 314E0000 		.4byte	.LASF416
 8862 014e 05       		.byte	0x5
 8863 014f E402     		.uleb128 0x164
 8864 0151 BC450000 		.4byte	.LASF417
 8865 0155 05       		.byte	0x5
 8866 0156 E502     		.uleb128 0x165
 8867 0158 AC430000 		.4byte	.LASF418
 8868 015c 05       		.byte	0x5
 8869 015d F302     		.uleb128 0x173
 8870 015f 64400000 		.4byte	.LASF419
 8871 0163 05       		.byte	0x5
 8872 0164 F402     		.uleb128 0x174
 8873 0166 B1490000 		.4byte	.LASF420
 8874 016a 05       		.byte	0x5
 8875 016b FC02     		.uleb128 0x17c
 8876 016d CC2D0000 		.4byte	.LASF421
 8877 0171 05       		.byte	0x5
 8878 0172 8403     		.uleb128 0x184
 8879 0174 1D560000 		.4byte	.LASF422
 8880 0178 05       		.byte	0x5
 8881 0179 8A03     		.uleb128 0x18a
 8882 017b F62E0000 		.4byte	.LASF423
 8883 017f 05       		.byte	0x5
 8884 0180 8B03     		.uleb128 0x18b
 8885 0182 5C4C0000 		.4byte	.LASF424
 8886 0186 05       		.byte	0x5
 8887 0187 8F03     		.uleb128 0x18f
 8888 0189 A8590000 		.4byte	.LASF425
 8889 018d 05       		.byte	0x5
 8890 018e 9303     		.uleb128 0x193
 8891 0190 D9220000 		.4byte	.LASF426
 8892 0194 05       		.byte	0x5
 8893 0195 9803     		.uleb128 0x198
 8894 0197 AD500000 		.4byte	.LASF427
 8895 019b 05       		.byte	0x5
 8896 019c A303     		.uleb128 0x1a3
ARM GAS  /tmp/ccXTVNcx.s 			page 176


 8897 019e 68110000 		.4byte	.LASF428
 8898 01a2 05       		.byte	0x5
 8899 01a3 AD03     		.uleb128 0x1ad
 8900 01a5 94220000 		.4byte	.LASF429
 8901 01a9 05       		.byte	0x5
 8902 01aa B203     		.uleb128 0x1b2
 8903 01ac D1020000 		.4byte	.LASF430
 8904 01b0 05       		.byte	0x5
 8905 01b1 B903     		.uleb128 0x1b9
 8906 01b3 1B370000 		.4byte	.LASF431
 8907 01b7 05       		.byte	0x5
 8908 01b8 BA03     		.uleb128 0x1ba
 8909 01ba 91670000 		.4byte	.LASF432
 8910 01be 05       		.byte	0x5
 8911 01bf C503     		.uleb128 0x1c5
 8912 01c1 E40C0000 		.4byte	.LASF433
 8913 01c5 05       		.byte	0x5
 8914 01c6 C603     		.uleb128 0x1c6
 8915 01c8 B36E0000 		.4byte	.LASF434
 8916 01cc 05       		.byte	0x5
 8917 01cd D103     		.uleb128 0x1d1
 8918 01cf BC600000 		.4byte	.LASF435
 8919 01d3 05       		.byte	0x5
 8920 01d4 D203     		.uleb128 0x1d2
 8921 01d6 3F460000 		.4byte	.LASF436
 8922 01da 05       		.byte	0x5
 8923 01db DE03     		.uleb128 0x1de
 8924 01dd 53320000 		.4byte	.LASF437
 8925 01e1 05       		.byte	0x5
 8926 01e2 DF03     		.uleb128 0x1df
 8927 01e4 A25E0000 		.4byte	.LASF438
 8928 01e8 05       		.byte	0x5
 8929 01e9 EE03     		.uleb128 0x1ee
 8930 01eb BF220000 		.4byte	.LASF439
 8931 01ef 05       		.byte	0x5
 8932 01f0 EF03     		.uleb128 0x1ef
 8933 01f2 4A530000 		.4byte	.LASF440
 8934 01f6 00       		.byte	0
 8935              		.section	.debug_macro,"G",%progbits,wm4.stdbool.h.29.1c9ee6859ce8145f7838a4f2549ccec2,comdat
 8936              	.Ldebug_macro6:
 8937 0000 0400     		.2byte	0x4
 8938 0002 00       		.byte	0
 8939 0003 05       		.byte	0x5
 8940 0004 1D       		.uleb128 0x1d
 8941 0005 416E0000 		.4byte	.LASF442
 8942 0009 05       		.byte	0x5
 8943 000a 21       		.uleb128 0x21
 8944 000b 30790000 		.4byte	.LASF443
 8945 000f 05       		.byte	0x5
 8946 0010 22       		.uleb128 0x22
 8947 0011 224B0000 		.4byte	.LASF444
 8948 0015 05       		.byte	0x5
 8949 0016 23       		.uleb128 0x23
 8950 0017 DE2A0000 		.4byte	.LASF445
 8951 001b 05       		.byte	0x5
 8952 001c 30       		.uleb128 0x30
 8953 001d E9730000 		.4byte	.LASF446
ARM GAS  /tmp/ccXTVNcx.s 			page 177


 8954 0021 00       		.byte	0
 8955              		.section	.debug_macro,"G",%progbits,wm4.lpc_types.h.63.5779355f7bf16476226d33c241ffb98a,comdat
 8956              	.Ldebug_macro7:
 8957 0000 0400     		.2byte	0x4
 8958 0002 00       		.byte	0
 8959 0003 05       		.byte	0x5
 8960 0004 3F       		.uleb128 0x3f
 8961 0005 01080000 		.4byte	.LASF447
 8962 0009 05       		.byte	0x5
 8963 000a 45       		.uleb128 0x45
 8964 000b 89080000 		.4byte	.LASF448
 8965 000f 06       		.byte	0x6
 8966 0010 66       		.uleb128 0x66
 8967 0011 B7600000 		.4byte	.LASF449
 8968 0015 05       		.byte	0x5
 8969 0016 68       		.uleb128 0x68
 8970 0017 872A0000 		.4byte	.LASF450
 8971 001b 06       		.byte	0x6
 8972 001c 6E       		.uleb128 0x6e
 8973 001d 27290000 		.4byte	.LASF451
 8974 0021 05       		.byte	0x5
 8975 0022 70       		.uleb128 0x70
 8976 0023 731B0000 		.4byte	.LASF452
 8977 0027 06       		.byte	0x6
 8978 0028 7F       		.uleb128 0x7f
 8979 0029 D5300000 		.4byte	.LASF453
 8980 002d 05       		.byte	0x5
 8981 002e 8101     		.uleb128 0x81
 8982 0030 CA6C0000 		.4byte	.LASF454
 8983 0034 05       		.byte	0x5
 8984 0035 8501     		.uleb128 0x85
 8985 0037 43520000 		.4byte	.LASF455
 8986 003b 05       		.byte	0x5
 8987 003c 8901     		.uleb128 0x89
 8988 003e B46A0000 		.4byte	.LASF456
 8989 0042 05       		.byte	0x5
 8990 0043 8C01     		.uleb128 0x8c
 8991 0045 E3210000 		.4byte	.LASF457
 8992 0049 05       		.byte	0x5
 8993 004a 8E01     		.uleb128 0x8e
 8994 004c 8E370000 		.4byte	.LASF458
 8995 0050 05       		.byte	0x5
 8996 0051 9101     		.uleb128 0x91
 8997 0053 A3650000 		.4byte	.LASF459
 8998 0057 05       		.byte	0x5
 8999 0058 9401     		.uleb128 0x94
 9000 005a 4F490000 		.4byte	.LASF460
 9001 005e 05       		.byte	0x5
 9002 005f CD01     		.uleb128 0xcd
 9003 0061 E1690000 		.4byte	.LASF461
 9004 0065 00       		.byte	0
 9005              		.section	.debug_macro,"G",%progbits,wm4.sys_config.h.31.9f234e9c90333d233c7e647ebe63e928,comdat
 9006              	.Ldebug_macro8:
 9007 0000 0400     		.2byte	0x4
 9008 0002 00       		.byte	0
 9009 0003 05       		.byte	0x5
 9010 0004 1F       		.uleb128 0x1f
ARM GAS  /tmp/ccXTVNcx.s 			page 178


 9011 0005 B33A0000 		.4byte	.LASF462
 9012 0009 05       		.byte	0x5
 9013 000a 26       		.uleb128 0x26
 9014 000b C81A0000 		.4byte	.LASF463
 9015 000f 00       		.byte	0
 9016              		.section	.debug_macro,"G",%progbits,wm4.cmsis_11cxx.h.33.407e9bbb5d170cd1552d3f7dc3fd5c42,comdat
 9017              	.Ldebug_macro9:
 9018 0000 0400     		.2byte	0x4
 9019 0002 00       		.byte	0
 9020 0003 05       		.byte	0x5
 9021 0004 21       		.uleb128 0x21
 9022 0005 6E740000 		.4byte	.LASF465
 9023 0009 05       		.byte	0x5
 9024 000a 8801     		.uleb128 0x88
 9025 000c 4C380000 		.4byte	.LASF466
 9026 0010 05       		.byte	0x5
 9027 0011 8901     		.uleb128 0x89
 9028 0013 F56F0000 		.4byte	.LASF467
 9029 0017 05       		.byte	0x5
 9030 0018 8A01     		.uleb128 0x8a
 9031 001a C0510000 		.4byte	.LASF468
 9032 001e 00       		.byte	0
 9033              		.section	.debug_macro,"G",%progbits,wm4.core_cm0.h.32.192d13cfa8b31e63c86621de62eb153f,comdat
 9034              	.Ldebug_macro10:
 9035 0000 0400     		.2byte	0x4
 9036 0002 00       		.byte	0
 9037 0003 05       		.byte	0x5
 9038 0004 20       		.uleb128 0x20
 9039 0005 CF110000 		.4byte	.LASF469
 9040 0009 05       		.byte	0x5
 9041 000a 38       		.uleb128 0x38
 9042 000b E12C0000 		.4byte	.LASF470
 9043 000f 05       		.byte	0x5
 9044 0010 39       		.uleb128 0x39
 9045 0011 136B0000 		.4byte	.LASF471
 9046 0015 05       		.byte	0x5
 9047 0016 3A       		.uleb128 0x3a
 9048 0017 471E0000 		.4byte	.LASF472
 9049 001b 05       		.byte	0x5
 9050 001c 3D       		.uleb128 0x3d
 9051 001d 372B0000 		.4byte	.LASF473
 9052 0021 05       		.byte	0x5
 9053 0022 4B       		.uleb128 0x4b
 9054 0023 040F0000 		.4byte	.LASF474
 9055 0027 05       		.byte	0x5
 9056 0028 4C       		.uleb128 0x4c
 9057 0029 F8780000 		.4byte	.LASF475
 9058 002d 05       		.byte	0x5
 9059 002e 4D       		.uleb128 0x4d
 9060 002f 7A3C0000 		.4byte	.LASF476
 9061 0033 05       		.byte	0x5
 9062 0034 58       		.uleb128 0x58
 9063 0035 A76A0000 		.4byte	.LASF477
 9064 0039 00       		.byte	0
 9065              		.section	.debug_macro,"G",%progbits,wm4.core_cm0.h.120.f4257ea7d0bce0cbabffe223e23b2fd4,comdat
 9066              	.Ldebug_macro11:
 9067 0000 0400     		.2byte	0x4
ARM GAS  /tmp/ccXTVNcx.s 			page 179


 9068 0002 00       		.byte	0
 9069 0003 05       		.byte	0x5
 9070 0004 78       		.uleb128 0x78
 9071 0005 06750000 		.4byte	.LASF480
 9072 0009 05       		.byte	0x5
 9073 000a 9701     		.uleb128 0x97
 9074 000c C43A0000 		.4byte	.LASF481
 9075 0010 05       		.byte	0x5
 9076 0011 9901     		.uleb128 0x99
 9077 0013 A22E0000 		.4byte	.LASF482
 9078 0017 05       		.byte	0x5
 9079 0018 9A01     		.uleb128 0x9a
 9080 001a 44670000 		.4byte	.LASF483
 9081 001e 05       		.byte	0x5
 9082 001f B002     		.uleb128 0x130
 9083 0021 1D430000 		.4byte	.LASF484
 9084 0025 05       		.byte	0x5
 9085 0026 B102     		.uleb128 0x131
 9086 0028 23730000 		.4byte	.LASF485
 9087 002c 05       		.byte	0x5
 9088 002d B302     		.uleb128 0x133
 9089 002f E85A0000 		.4byte	.LASF486
 9090 0033 05       		.byte	0x5
 9091 0034 B402     		.uleb128 0x134
 9092 0036 59460000 		.4byte	.LASF487
 9093 003a 05       		.byte	0x5
 9094 003b B602     		.uleb128 0x136
 9095 003d D2200000 		.4byte	.LASF488
 9096 0041 05       		.byte	0x5
 9097 0042 B702     		.uleb128 0x137
 9098 0044 84030000 		.4byte	.LASF489
 9099 0048 05       		.byte	0x5
 9100 0049 B902     		.uleb128 0x139
 9101 004b BF280000 		.4byte	.LASF490
 9102 004f 05       		.byte	0x5
 9103 0050 BA02     		.uleb128 0x13a
 9104 0052 FC190000 		.4byte	.LASF491
 9105 0056 05       		.byte	0x5
 9106 0057 BC02     		.uleb128 0x13c
 9107 0059 613C0000 		.4byte	.LASF492
 9108 005d 05       		.byte	0x5
 9109 005e BD02     		.uleb128 0x13d
 9110 0060 BD330000 		.4byte	.LASF493
 9111 0064 05       		.byte	0x5
 9112 0065 C002     		.uleb128 0x140
 9113 0067 E94F0000 		.4byte	.LASF494
 9114 006b 05       		.byte	0x5
 9115 006c C102     		.uleb128 0x141
 9116 006e D6280000 		.4byte	.LASF495
 9117 0072 05       		.byte	0x5
 9118 0073 C302     		.uleb128 0x143
 9119 0075 6C2E0000 		.4byte	.LASF496
 9120 0079 05       		.byte	0x5
 9121 007a C402     		.uleb128 0x144
 9122 007c 91610000 		.4byte	.LASF497
 9123 0080 05       		.byte	0x5
 9124 0081 C602     		.uleb128 0x146
ARM GAS  /tmp/ccXTVNcx.s 			page 180


 9125 0083 1E680000 		.4byte	.LASF498
 9126 0087 05       		.byte	0x5
 9127 0088 C702     		.uleb128 0x147
 9128 008a 80270000 		.4byte	.LASF499
 9129 008e 05       		.byte	0x5
 9130 008f C902     		.uleb128 0x149
 9131 0091 EF090000 		.4byte	.LASF500
 9132 0095 05       		.byte	0x5
 9133 0096 CA02     		.uleb128 0x14a
 9134 0098 164F0000 		.4byte	.LASF501
 9135 009c 05       		.byte	0x5
 9136 009d CC02     		.uleb128 0x14c
 9137 009f B23B0000 		.4byte	.LASF502
 9138 00a3 05       		.byte	0x5
 9139 00a4 CD02     		.uleb128 0x14d
 9140 00a6 45020000 		.4byte	.LASF503
 9141 00aa 05       		.byte	0x5
 9142 00ab CF02     		.uleb128 0x14f
 9143 00ad CE4F0000 		.4byte	.LASF504
 9144 00b1 05       		.byte	0x5
 9145 00b2 D002     		.uleb128 0x150
 9146 00b4 9C370000 		.4byte	.LASF505
 9147 00b8 05       		.byte	0x5
 9148 00b9 D202     		.uleb128 0x152
 9149 00bb 55040000 		.4byte	.LASF506
 9150 00bf 05       		.byte	0x5
 9151 00c0 D302     		.uleb128 0x153
 9152 00c2 97340000 		.4byte	.LASF507
 9153 00c6 05       		.byte	0x5
 9154 00c7 D502     		.uleb128 0x155
 9155 00c9 E62A0000 		.4byte	.LASF508
 9156 00cd 05       		.byte	0x5
 9157 00ce D602     		.uleb128 0x156
 9158 00d0 A22B0000 		.4byte	.LASF509
 9159 00d4 05       		.byte	0x5
 9160 00d5 D802     		.uleb128 0x158
 9161 00d7 5A260000 		.4byte	.LASF510
 9162 00db 05       		.byte	0x5
 9163 00dc D902     		.uleb128 0x159
 9164 00de B11C0000 		.4byte	.LASF511
 9165 00e2 05       		.byte	0x5
 9166 00e3 DC02     		.uleb128 0x15c
 9167 00e5 28150000 		.4byte	.LASF512
 9168 00e9 05       		.byte	0x5
 9169 00ea DD02     		.uleb128 0x15d
 9170 00ec A0320000 		.4byte	.LASF513
 9171 00f0 05       		.byte	0x5
 9172 00f1 DF02     		.uleb128 0x15f
 9173 00f3 5A0B0000 		.4byte	.LASF514
 9174 00f7 05       		.byte	0x5
 9175 00f8 E002     		.uleb128 0x160
 9176 00fa 7A780000 		.4byte	.LASF515
 9177 00fe 05       		.byte	0x5
 9178 00ff E202     		.uleb128 0x162
 9179 0101 A7680000 		.4byte	.LASF516
 9180 0105 05       		.byte	0x5
 9181 0106 E302     		.uleb128 0x163
ARM GAS  /tmp/ccXTVNcx.s 			page 181


 9182 0108 AC1B0000 		.4byte	.LASF517
 9183 010c 05       		.byte	0x5
 9184 010d E502     		.uleb128 0x165
 9185 010f 862E0000 		.4byte	.LASF518
 9186 0113 05       		.byte	0x5
 9187 0114 E602     		.uleb128 0x166
 9188 0116 F0710000 		.4byte	.LASF519
 9189 011a 05       		.byte	0x5
 9190 011b E802     		.uleb128 0x168
 9191 011d 31740000 		.4byte	.LASF520
 9192 0121 05       		.byte	0x5
 9193 0122 E902     		.uleb128 0x169
 9194 0124 02030000 		.4byte	.LASF521
 9195 0128 05       		.byte	0x5
 9196 0129 EC02     		.uleb128 0x16c
 9197 012b C64E0000 		.4byte	.LASF522
 9198 012f 05       		.byte	0x5
 9199 0130 ED02     		.uleb128 0x16d
 9200 0132 78770000 		.4byte	.LASF523
 9201 0136 05       		.byte	0x5
 9202 0137 EF02     		.uleb128 0x16f
 9203 0139 61270000 		.4byte	.LASF524
 9204 013d 05       		.byte	0x5
 9205 013e F002     		.uleb128 0x170
 9206 0140 FC180000 		.4byte	.LASF525
 9207 0144 05       		.byte	0x5
 9208 0145 F202     		.uleb128 0x172
 9209 0147 E3250000 		.4byte	.LASF526
 9210 014b 05       		.byte	0x5
 9211 014c F302     		.uleb128 0x173
 9212 014e EA1E0000 		.4byte	.LASF527
 9213 0152 05       		.byte	0x5
 9214 0153 F602     		.uleb128 0x176
 9215 0155 EF690000 		.4byte	.LASF528
 9216 0159 05       		.byte	0x5
 9217 015a F702     		.uleb128 0x177
 9218 015c D10E0000 		.4byte	.LASF529
 9219 0160 05       		.byte	0x5
 9220 0161 F902     		.uleb128 0x179
 9221 0163 77750000 		.4byte	.LASF530
 9222 0167 05       		.byte	0x5
 9223 0168 FA02     		.uleb128 0x17a
 9224 016a 2B060000 		.4byte	.LASF531
 9225 016e 05       		.byte	0x5
 9226 016f FD02     		.uleb128 0x17d
 9227 0171 28650000 		.4byte	.LASF532
 9228 0175 05       		.byte	0x5
 9229 0176 FE02     		.uleb128 0x17e
 9230 0178 F9540000 		.4byte	.LASF533
 9231 017c 05       		.byte	0x5
 9232 017d 9403     		.uleb128 0x194
 9233 017f 322A0000 		.4byte	.LASF534
 9234 0183 05       		.byte	0x5
 9235 0184 9503     		.uleb128 0x195
 9236 0186 616B0000 		.4byte	.LASF535
 9237 018a 05       		.byte	0x5
 9238 018b 9703     		.uleb128 0x197
ARM GAS  /tmp/ccXTVNcx.s 			page 182


 9239 018d F20A0000 		.4byte	.LASF536
 9240 0191 05       		.byte	0x5
 9241 0192 9803     		.uleb128 0x198
 9242 0194 31050000 		.4byte	.LASF537
 9243 0198 05       		.byte	0x5
 9244 0199 9A03     		.uleb128 0x19a
 9245 019b B4110000 		.4byte	.LASF538
 9246 019f 05       		.byte	0x5
 9247 01a0 9B03     		.uleb128 0x19b
 9248 01a2 795C0000 		.4byte	.LASF539
 9249 01a6 05       		.byte	0x5
 9250 01a7 9D03     		.uleb128 0x19d
 9251 01a9 A11A0000 		.4byte	.LASF540
 9252 01ad 05       		.byte	0x5
 9253 01ae 9E03     		.uleb128 0x19e
 9254 01b0 78620000 		.4byte	.LASF541
 9255 01b4 05       		.byte	0x5
 9256 01b5 A103     		.uleb128 0x1a1
 9257 01b7 29690000 		.4byte	.LASF542
 9258 01bb 05       		.byte	0x5
 9259 01bc A203     		.uleb128 0x1a2
 9260 01be 08610000 		.4byte	.LASF543
 9261 01c2 05       		.byte	0x5
 9262 01c3 A503     		.uleb128 0x1a5
 9263 01c5 BC530000 		.4byte	.LASF544
 9264 01c9 05       		.byte	0x5
 9265 01ca A603     		.uleb128 0x1a6
 9266 01cc 5A480000 		.4byte	.LASF545
 9267 01d0 05       		.byte	0x5
 9268 01d1 A903     		.uleb128 0x1a9
 9269 01d3 C8610000 		.4byte	.LASF546
 9270 01d7 05       		.byte	0x5
 9271 01d8 AA03     		.uleb128 0x1aa
 9272 01da 731F0000 		.4byte	.LASF547
 9273 01de 05       		.byte	0x5
 9274 01df AC03     		.uleb128 0x1ac
 9275 01e1 470E0000 		.4byte	.LASF548
 9276 01e5 05       		.byte	0x5
 9277 01e6 AD03     		.uleb128 0x1ad
 9278 01e8 52700000 		.4byte	.LASF549
 9279 01ec 05       		.byte	0x5
 9280 01ed AF03     		.uleb128 0x1af
 9281 01ef 78360000 		.4byte	.LASF550
 9282 01f3 05       		.byte	0x5
 9283 01f4 B003     		.uleb128 0x1b0
 9284 01f6 4D540000 		.4byte	.LASF551
 9285 01fa 05       		.byte	0x5
 9286 01fb C603     		.uleb128 0x1c6
 9287 01fd 6E510000 		.4byte	.LASF552
 9288 0201 05       		.byte	0x5
 9289 0202 C703     		.uleb128 0x1c7
 9290 0204 D6360000 		.4byte	.LASF553
 9291 0208 05       		.byte	0x5
 9292 0209 C803     		.uleb128 0x1c8
 9293 020b BF4D0000 		.4byte	.LASF554
 9294 020f 05       		.byte	0x5
 9295 0210 C903     		.uleb128 0x1c9
ARM GAS  /tmp/ccXTVNcx.s 			page 183


 9296 0212 5A210000 		.4byte	.LASF555
 9297 0216 05       		.byte	0x5
 9298 0217 CB03     		.uleb128 0x1cb
 9299 0219 EE5C0000 		.4byte	.LASF556
 9300 021d 05       		.byte	0x5
 9301 021e CC03     		.uleb128 0x1cc
 9302 0220 BC670000 		.4byte	.LASF557
 9303 0224 05       		.byte	0x5
 9304 0225 CD03     		.uleb128 0x1cd
 9305 0227 25450000 		.4byte	.LASF558
 9306 022b 05       		.byte	0x5
 9307 022c E903     		.uleb128 0x1e9
 9308 022e 2E400000 		.4byte	.LASF559
 9309 0232 05       		.byte	0x5
 9310 0233 EA03     		.uleb128 0x1ea
 9311 0235 F75B0000 		.4byte	.LASF560
 9312 0239 05       		.byte	0x5
 9313 023a EB03     		.uleb128 0x1eb
 9314 023c B1440000 		.4byte	.LASF561
 9315 0240 00       		.byte	0
 9316              		.section	.debug_macro,"G",%progbits,wm4.chip.h.116.cf332ff1fd7689c827f4f040aaad9bfe,comdat
 9317              	.Ldebug_macro12:
 9318 0000 0400     		.2byte	0x4
 9319 0002 00       		.byte	0
 9320 0003 05       		.byte	0x5
 9321 0004 74       		.uleb128 0x74
 9322 0005 A7740000 		.4byte	.LASF562
 9323 0009 05       		.byte	0x5
 9324 000a 75       		.uleb128 0x75
 9325 000b A5010000 		.4byte	.LASF563
 9326 000f 05       		.byte	0x5
 9327 0010 76       		.uleb128 0x76
 9328 0011 596A0000 		.4byte	.LASF564
 9329 0015 05       		.byte	0x5
 9330 0016 77       		.uleb128 0x77
 9331 0017 845E0000 		.4byte	.LASF565
 9332 001b 05       		.byte	0x5
 9333 001c 78       		.uleb128 0x78
 9334 001d E8260000 		.4byte	.LASF566
 9335 0021 05       		.byte	0x5
 9336 0022 79       		.uleb128 0x79
 9337 0023 64080000 		.4byte	.LASF567
 9338 0027 05       		.byte	0x5
 9339 0028 7A       		.uleb128 0x7a
 9340 0029 B3050000 		.4byte	.LASF568
 9341 002d 05       		.byte	0x5
 9342 002e 7B       		.uleb128 0x7b
 9343 002f A46D0000 		.4byte	.LASF569
 9344 0033 05       		.byte	0x5
 9345 0034 7C       		.uleb128 0x7c
 9346 0035 906C0000 		.4byte	.LASF570
 9347 0039 05       		.byte	0x5
 9348 003a 7D       		.uleb128 0x7d
 9349 003b 0F150000 		.4byte	.LASF571
 9350 003f 05       		.byte	0x5
 9351 0040 7E       		.uleb128 0x7e
 9352 0041 983C0000 		.4byte	.LASF572
ARM GAS  /tmp/ccXTVNcx.s 			page 184


 9353 0045 05       		.byte	0x5
 9354 0046 7F       		.uleb128 0x7f
 9355 0047 C9410000 		.4byte	.LASF573
 9356 004b 05       		.byte	0x5
 9357 004c 8001     		.uleb128 0x80
 9358 004e EF4C0000 		.4byte	.LASF574
 9359 0052 05       		.byte	0x5
 9360 0053 8101     		.uleb128 0x81
 9361 0055 BE000000 		.4byte	.LASF575
 9362 0059 05       		.byte	0x5
 9363 005a 8201     		.uleb128 0x82
 9364 005c E82D0000 		.4byte	.LASF576
 9365 0060 05       		.byte	0x5
 9366 0061 8301     		.uleb128 0x83
 9367 0063 91750000 		.4byte	.LASF577
 9368 0067 05       		.byte	0x5
 9369 0068 8401     		.uleb128 0x84
 9370 006a 2E2D0000 		.4byte	.LASF578
 9371 006e 05       		.byte	0x5
 9372 006f 8501     		.uleb128 0x85
 9373 0071 660A0000 		.4byte	.LASF579
 9374 0075 05       		.byte	0x5
 9375 0076 9001     		.uleb128 0x90
 9376 0078 8B5D0000 		.4byte	.LASF580
 9377 007c 05       		.byte	0x5
 9378 007d 9101     		.uleb128 0x91
 9379 007f AD2F0000 		.4byte	.LASF581
 9380 0083 05       		.byte	0x5
 9381 0084 9301     		.uleb128 0x93
 9382 0086 4F3B0000 		.4byte	.LASF582
 9383 008a 05       		.byte	0x5
 9384 008b 9401     		.uleb128 0x94
 9385 008d E4310000 		.4byte	.LASF583
 9386 0091 05       		.byte	0x5
 9387 0092 9701     		.uleb128 0x97
 9388 0094 096C0000 		.4byte	.LASF584
 9389 0098 05       		.byte	0x5
 9390 0099 9801     		.uleb128 0x98
 9391 009b 9E200000 		.4byte	.LASF585
 9392 009f 05       		.byte	0x5
 9393 00a0 9B01     		.uleb128 0x9b
 9394 00a2 AF290000 		.4byte	.LASF586
 9395 00a6 05       		.byte	0x5
 9396 00a7 9E01     		.uleb128 0x9e
 9397 00a9 515C0000 		.4byte	.LASF587
 9398 00ad 05       		.byte	0x5
 9399 00ae 9F01     		.uleb128 0x9f
 9400 00b0 F5760000 		.4byte	.LASF588
 9401 00b4 05       		.byte	0x5
 9402 00b5 A001     		.uleb128 0xa0
 9403 00b7 0C350000 		.4byte	.LASF589
 9404 00bb 05       		.byte	0x5
 9405 00bc A101     		.uleb128 0xa1
 9406 00be 74380000 		.4byte	.LASF590
 9407 00c2 05       		.byte	0x5
 9408 00c3 A201     		.uleb128 0xa2
 9409 00c5 0C160000 		.4byte	.LASF591
ARM GAS  /tmp/ccXTVNcx.s 			page 185


 9410 00c9 05       		.byte	0x5
 9411 00ca A301     		.uleb128 0xa3
 9412 00cc 294C0000 		.4byte	.LASF592
 9413 00d0 05       		.byte	0x5
 9414 00d1 A401     		.uleb128 0xa4
 9415 00d3 9A2A0000 		.4byte	.LASF593
 9416 00d7 05       		.byte	0x5
 9417 00d8 B101     		.uleb128 0xb1
 9418 00da D3780000 		.4byte	.LASF594
 9419 00de 05       		.byte	0x5
 9420 00df B201     		.uleb128 0xb2
 9421 00e1 8A1C0000 		.4byte	.LASF595
 9422 00e5 05       		.byte	0x5
 9423 00e6 B301     		.uleb128 0xb3
 9424 00e8 07310000 		.4byte	.LASF596
 9425 00ec 05       		.byte	0x5
 9426 00ed B401     		.uleb128 0xb4
 9427 00ef 15530000 		.4byte	.LASF597
 9428 00f3 05       		.byte	0x5
 9429 00f4 B501     		.uleb128 0xb5
 9430 00f6 CC230000 		.4byte	.LASF598
 9431 00fa 05       		.byte	0x5
 9432 00fb B701     		.uleb128 0xb7
 9433 00fd 203C0000 		.4byte	.LASF599
 9434 0101 05       		.byte	0x5
 9435 0102 B901     		.uleb128 0xb9
 9436 0104 A46F0000 		.4byte	.LASF600
 9437 0108 05       		.byte	0x5
 9438 0109 C001     		.uleb128 0xc0
 9439 010b 79210000 		.4byte	.LASF601
 9440 010f 05       		.byte	0x5
 9441 0110 C301     		.uleb128 0xc3
 9442 0112 793A0000 		.4byte	.LASF602
 9443 0116 00       		.byte	0
 9444              		.section	.debug_macro,"G",%progbits,wm4.pmu_11xx.h.33.1d6b708881441cb98d19b8bab3caa180,comdat
 9445              	.Ldebug_macro13:
 9446 0000 0400     		.2byte	0x4
 9447 0002 00       		.byte	0
 9448 0003 05       		.byte	0x5
 9449 0004 21       		.uleb128 0x21
 9450 0005 FD4B0000 		.4byte	.LASF603
 9451 0009 05       		.byte	0x5
 9452 000a 4D       		.uleb128 0x4d
 9453 000b 105E0000 		.4byte	.LASF604
 9454 000f 05       		.byte	0x5
 9455 0010 53       		.uleb128 0x53
 9456 0011 0C330000 		.4byte	.LASF605
 9457 0015 05       		.byte	0x5
 9458 0016 55       		.uleb128 0x55
 9459 0017 7F6F0000 		.4byte	.LASF606
 9460 001b 05       		.byte	0x5
 9461 001c 56       		.uleb128 0x56
 9462 001d 466B0000 		.4byte	.LASF607
 9463 0021 00       		.byte	0
 9464              		.section	.debug_macro,"G",%progbits,wm4.sysctl_11xx.h.33.ae61a1181e608f8409883008e291930c,comdat
 9465              	.Ldebug_macro14:
 9466 0000 0400     		.2byte	0x4
ARM GAS  /tmp/ccXTVNcx.s 			page 186


 9467 0002 00       		.byte	0
 9468 0003 05       		.byte	0x5
 9469 0004 21       		.uleb128 0x21
 9470 0005 116D0000 		.4byte	.LASF609
 9471 0009 05       		.byte	0x5
 9472 000a BC01     		.uleb128 0xbc
 9473 000c C8010000 		.4byte	.LASF610
 9474 0010 05       		.byte	0x5
 9475 0011 BD01     		.uleb128 0xbd
 9476 0013 64070000 		.4byte	.LASF611
 9477 0017 05       		.byte	0x5
 9478 0018 BE01     		.uleb128 0xbe
 9479 001a B42D0000 		.4byte	.LASF612
 9480 001e 05       		.byte	0x5
 9481 001f BF01     		.uleb128 0xbf
 9482 0021 F96C0000 		.4byte	.LASF613
 9483 0025 05       		.byte	0x5
 9484 0026 C001     		.uleb128 0xc0
 9485 0028 D45F0000 		.4byte	.LASF614
 9486 002c 05       		.byte	0x5
 9487 002d C501     		.uleb128 0xc5
 9488 002f E8160000 		.4byte	.LASF615
 9489 0033 05       		.byte	0x5
 9490 0034 A904     		.uleb128 0x229
 9491 0036 A0260000 		.4byte	.LASF616
 9492 003a 05       		.byte	0x5
 9493 003b AA04     		.uleb128 0x22a
 9494 003d 1A5B0000 		.4byte	.LASF617
 9495 0041 05       		.byte	0x5
 9496 0042 C904     		.uleb128 0x249
 9497 0044 4D6E0000 		.4byte	.LASF618
 9498 0048 05       		.byte	0x5
 9499 0049 CA04     		.uleb128 0x24a
 9500 004b AE720000 		.4byte	.LASF619
 9501 004f 05       		.byte	0x5
 9502 0050 CB04     		.uleb128 0x24b
 9503 0052 B5360000 		.4byte	.LASF620
 9504 0056 05       		.byte	0x5
 9505 0057 CC04     		.uleb128 0x24c
 9506 0059 320F0000 		.4byte	.LASF621
 9507 005d 05       		.byte	0x5
 9508 005e CD04     		.uleb128 0x24d
 9509 0060 A9570000 		.4byte	.LASF622
 9510 0064 05       		.byte	0x5
 9511 0065 CE04     		.uleb128 0x24e
 9512 0067 6F3F0000 		.4byte	.LASF623
 9513 006b 05       		.byte	0x5
 9514 006c CF04     		.uleb128 0x24f
 9515 006e C2680000 		.4byte	.LASF624
 9516 0072 05       		.byte	0x5
 9517 0073 D004     		.uleb128 0x250
 9518 0075 C65A0000 		.4byte	.LASF625
 9519 0079 05       		.byte	0x5
 9520 007a F104     		.uleb128 0x271
 9521 007c BC6D0000 		.4byte	.LASF626
 9522 0080 05       		.byte	0x5
 9523 0081 F204     		.uleb128 0x272
ARM GAS  /tmp/ccXTVNcx.s 			page 187


 9524 0083 884B0000 		.4byte	.LASF627
 9525 0087 05       		.byte	0x5
 9526 0088 F304     		.uleb128 0x273
 9527 008a FB1B0000 		.4byte	.LASF628
 9528 008e 05       		.byte	0x5
 9529 008f F504     		.uleb128 0x275
 9530 0091 5A440000 		.4byte	.LASF629
 9531 0095 05       		.byte	0x5
 9532 0096 F704     		.uleb128 0x277
 9533 0098 CB0F0000 		.4byte	.LASF630
 9534 009c 05       		.byte	0x5
 9535 009d F804     		.uleb128 0x278
 9536 009f 260A0000 		.4byte	.LASF631
 9537 00a3 05       		.byte	0x5
 9538 00a4 F904     		.uleb128 0x279
 9539 00a6 80450000 		.4byte	.LASF632
 9540 00aa 05       		.byte	0x5
 9541 00ab FA04     		.uleb128 0x27a
 9542 00ad A64A0000 		.4byte	.LASF633
 9543 00b1 00       		.byte	0
 9544              		.section	.debug_macro,"G",%progbits,wm4.clock_11xx.h.33.23290a9e2ed919e3a6958d25130bc848,comdat
 9545              	.Ldebug_macro15:
 9546 0000 0400     		.2byte	0x4
 9547 0002 00       		.byte	0
 9548 0003 05       		.byte	0x5
 9549 0004 21       		.uleb128 0x21
 9550 0005 72690000 		.4byte	.LASF634
 9551 0009 05       		.byte	0x5
 9552 000a 2D       		.uleb128 0x2d
 9553 000b 5B610000 		.4byte	.LASF635
 9554 000f 00       		.byte	0
 9555              		.section	.debug_macro,"G",%progbits,wm4.iocon_11xx.h.33.25e2b3cde122df23fb07b984cb4f3a93,comdat
 9556              	.Ldebug_macro16:
 9557 0000 0400     		.2byte	0x4
 9558 0002 00       		.byte	0
 9559 0003 05       		.byte	0x5
 9560 0004 21       		.uleb128 0x21
 9561 0005 402C0000 		.4byte	.LASF636
 9562 0009 05       		.byte	0x5
 9563 000a A601     		.uleb128 0xa6
 9564 000c 0E340000 		.4byte	.LASF637
 9565 0010 05       		.byte	0x5
 9566 0011 A701     		.uleb128 0xa7
 9567 0013 20090000 		.4byte	.LASF638
 9568 0017 05       		.byte	0x5
 9569 0018 A801     		.uleb128 0xa8
 9570 001a 60180000 		.4byte	.LASF639
 9571 001e 05       		.byte	0x5
 9572 001f A901     		.uleb128 0xa9
 9573 0021 005E0000 		.4byte	.LASF640
 9574 0025 05       		.byte	0x5
 9575 0026 AA01     		.uleb128 0xaa
 9576 0028 294B0000 		.4byte	.LASF641
 9577 002c 05       		.byte	0x5
 9578 002d AB01     		.uleb128 0xab
 9579 002f 4B390000 		.4byte	.LASF642
 9580 0033 05       		.byte	0x5
ARM GAS  /tmp/ccXTVNcx.s 			page 188


 9581 0034 AC01     		.uleb128 0xac
 9582 0036 D3250000 		.4byte	.LASF643
 9583 003a 05       		.byte	0x5
 9584 003b AD01     		.uleb128 0xad
 9585 003d 80110000 		.4byte	.LASF644
 9586 0041 05       		.byte	0x5
 9587 0042 AE01     		.uleb128 0xae
 9588 0044 85240000 		.4byte	.LASF645
 9589 0048 05       		.byte	0x5
 9590 0049 AF01     		.uleb128 0xaf
 9591 004b C14C0000 		.4byte	.LASF646
 9592 004f 05       		.byte	0x5
 9593 0050 B001     		.uleb128 0xb0
 9594 0052 11600000 		.4byte	.LASF647
 9595 0056 05       		.byte	0x5
 9596 0057 B101     		.uleb128 0xb1
 9597 0059 B7710000 		.4byte	.LASF648
 9598 005d 05       		.byte	0x5
 9599 005e B201     		.uleb128 0xb2
 9600 0060 DE4E0000 		.4byte	.LASF649
 9601 0064 05       		.byte	0x5
 9602 0065 B301     		.uleb128 0xb3
 9603 0067 FB210000 		.4byte	.LASF650
 9604 006b 05       		.byte	0x5
 9605 006c B401     		.uleb128 0xb4
 9606 006e 76530000 		.4byte	.LASF651
 9607 0072 05       		.byte	0x5
 9608 0073 B501     		.uleb128 0xb5
 9609 0075 A7070000 		.4byte	.LASF652
 9610 0079 05       		.byte	0x5
 9611 007a B601     		.uleb128 0xb6
 9612 007c EC0F0000 		.4byte	.LASF653
 9613 0080 05       		.byte	0x5
 9614 0081 B701     		.uleb128 0xb7
 9615 0083 45640000 		.4byte	.LASF654
 9616 0087 05       		.byte	0x5
 9617 0088 B801     		.uleb128 0xb8
 9618 008a 0C650000 		.4byte	.LASF655
 9619 008e 05       		.byte	0x5
 9620 008f B901     		.uleb128 0xb9
 9621 0091 80230000 		.4byte	.LASF656
 9622 0095 05       		.byte	0x5
 9623 0096 BA01     		.uleb128 0xba
 9624 0098 E1130000 		.4byte	.LASF657
 9625 009c 05       		.byte	0x5
 9626 009d C001     		.uleb128 0xc0
 9627 009f 0F0B0000 		.4byte	.LASF658
 9628 00a3 05       		.byte	0x5
 9629 00a4 C101     		.uleb128 0xc1
 9630 00a6 52670000 		.4byte	.LASF659
 9631 00aa 05       		.byte	0x5
 9632 00ab C201     		.uleb128 0xc2
 9633 00ad 54600000 		.4byte	.LASF660
 9634 00b1 05       		.byte	0x5
 9635 00b2 C301     		.uleb128 0xc3
 9636 00b4 4A770000 		.4byte	.LASF661
 9637 00b8 05       		.byte	0x5
ARM GAS  /tmp/ccXTVNcx.s 			page 189


 9638 00b9 C401     		.uleb128 0xc4
 9639 00bb 231F0000 		.4byte	.LASF662
 9640 00bf 05       		.byte	0x5
 9641 00c0 C501     		.uleb128 0xc5
 9642 00c2 12170000 		.4byte	.LASF663
 9643 00c6 05       		.byte	0x5
 9644 00c7 C601     		.uleb128 0xc6
 9645 00c9 E1170000 		.4byte	.LASF664
 9646 00cd 05       		.byte	0x5
 9647 00ce C701     		.uleb128 0xc7
 9648 00d0 AC460000 		.4byte	.LASF665
 9649 00d4 05       		.byte	0x5
 9650 00d5 C801     		.uleb128 0xc8
 9651 00d7 E6150000 		.4byte	.LASF666
 9652 00db 05       		.byte	0x5
 9653 00dc C901     		.uleb128 0xc9
 9654 00de E5540000 		.4byte	.LASF667
 9655 00e2 05       		.byte	0x5
 9656 00e3 CA01     		.uleb128 0xca
 9657 00e5 27470000 		.4byte	.LASF668
 9658 00e9 05       		.byte	0x5
 9659 00ea CB01     		.uleb128 0xcb
 9660 00ec F8220000 		.4byte	.LASF669
 9661 00f0 05       		.byte	0x5
 9662 00f1 CC01     		.uleb128 0xcc
 9663 00f3 EC430000 		.4byte	.LASF670
 9664 00f7 05       		.byte	0x5
 9665 00f8 CD01     		.uleb128 0xcd
 9666 00fa 366C0000 		.4byte	.LASF671
 9667 00fe 05       		.byte	0x5
 9668 00ff CE01     		.uleb128 0xce
 9669 0101 E06D0000 		.4byte	.LASF672
 9670 0105 05       		.byte	0x5
 9671 0106 CF01     		.uleb128 0xcf
 9672 0108 40530000 		.4byte	.LASF673
 9673 010c 05       		.byte	0x5
 9674 010d D001     		.uleb128 0xd0
 9675 010f 775D0000 		.4byte	.LASF674
 9676 0113 05       		.byte	0x5
 9677 0114 D101     		.uleb128 0xd1
 9678 0116 734A0000 		.4byte	.LASF675
 9679 011a 05       		.byte	0x5
 9680 011b D201     		.uleb128 0xd2
 9681 011d 2A3E0000 		.4byte	.LASF676
 9682 0121 05       		.byte	0x5
 9683 0122 D301     		.uleb128 0xd3
 9684 0124 60250000 		.4byte	.LASF677
 9685 0128 05       		.byte	0x5
 9686 0129 D401     		.uleb128 0xd4
 9687 012b 85310000 		.4byte	.LASF678
 9688 012f 05       		.byte	0x5
 9689 0130 D501     		.uleb128 0xd5
 9690 0132 C9780000 		.4byte	.LASF679
 9691 0136 00       		.byte	0
 9692              		.section	.debug_macro,"G",%progbits,wm4.timer_11xx.h.33.c92f50a9325789ee6a8ffd6248980d70,comdat
 9693              	.Ldebug_macro17:
 9694 0000 0400     		.2byte	0x4
ARM GAS  /tmp/ccXTVNcx.s 			page 190


 9695 0002 00       		.byte	0
 9696 0003 05       		.byte	0x5
 9697 0004 21       		.uleb128 0x21
 9698 0005 936D0000 		.4byte	.LASF680
 9699 0009 05       		.byte	0x5
 9700 000a 40       		.uleb128 0x40
 9701 000b D0080000 		.4byte	.LASF681
 9702 000f 05       		.byte	0x5
 9703 0010 43       		.uleb128 0x43
 9704 0011 E5350000 		.4byte	.LASF682
 9705 0015 05       		.byte	0x5
 9706 0016 45       		.uleb128 0x45
 9707 0017 6F2C0000 		.4byte	.LASF683
 9708 001b 05       		.byte	0x5
 9709 001c 48       		.uleb128 0x48
 9710 001d 720F0000 		.4byte	.LASF684
 9711 0021 05       		.byte	0x5
 9712 0022 4A       		.uleb128 0x4a
 9713 0023 494B0000 		.4byte	.LASF685
 9714 0027 05       		.byte	0x5
 9715 0028 4D       		.uleb128 0x4d
 9716 0029 3F200000 		.4byte	.LASF686
 9717 002d 05       		.byte	0x5
 9718 002e 4F       		.uleb128 0x4f
 9719 002f E12B0000 		.4byte	.LASF687
 9720 0033 05       		.byte	0x5
 9721 0034 51       		.uleb128 0x51
 9722 0035 D0580000 		.4byte	.LASF688
 9723 0039 05       		.byte	0x5
 9724 003a 54       		.uleb128 0x54
 9725 003b 02440000 		.4byte	.LASF689
 9726 003f 05       		.byte	0x5
 9727 0040 56       		.uleb128 0x56
 9728 0041 CF420000 		.4byte	.LASF690
 9729 0045 05       		.byte	0x5
 9730 0046 58       		.uleb128 0x58
 9731 0047 7A760000 		.4byte	.LASF691
 9732 004b 00       		.byte	0
 9733              		.section	.debug_macro,"G",%progbits,wm4.ring_buffer.h.33.ffd8153954783612f9c626df1ed9e770,comdat
 9734              	.Ldebug_macro18:
 9735 0000 0400     		.2byte	0x4
 9736 0002 00       		.byte	0
 9737 0003 05       		.byte	0x5
 9738 0004 21       		.uleb128 0x21
 9739 0005 21500000 		.4byte	.LASF693
 9740 0009 05       		.byte	0x5
 9741 000a 39       		.uleb128 0x39
 9742 000b 72140000 		.4byte	.LASF694
 9743 000f 05       		.byte	0x5
 9744 0010 3F       		.uleb128 0x3f
 9745 0011 1D3F0000 		.4byte	.LASF695
 9746 0015 00       		.byte	0
 9747              		.section	.debug_macro,"G",%progbits,wm4.uart_11xx.h.98.fe68b709973730a4fba3f3ce60c5c312,comdat
 9748              	.Ldebug_macro19:
 9749 0000 0400     		.2byte	0x4
 9750 0002 00       		.byte	0
 9751 0003 05       		.byte	0x5
ARM GAS  /tmp/ccXTVNcx.s 			page 191


 9752 0004 62       		.uleb128 0x62
 9753 0005 472D0000 		.4byte	.LASF696
 9754 0009 05       		.byte	0x5
 9755 000a 67       		.uleb128 0x67
 9756 000b D9510000 		.4byte	.LASF697
 9757 000f 05       		.byte	0x5
 9758 0010 68       		.uleb128 0x68
 9759 0011 D16F0000 		.4byte	.LASF698
 9760 0015 05       		.byte	0x5
 9761 0016 6D       		.uleb128 0x6d
 9762 0017 D6530000 		.4byte	.LASF699
 9763 001b 05       		.byte	0x5
 9764 001c 6E       		.uleb128 0x6e
 9765 001d 022B0000 		.4byte	.LASF700
 9766 0021 05       		.byte	0x5
 9767 0022 73       		.uleb128 0x73
 9768 0023 FF530000 		.4byte	.LASF701
 9769 0027 05       		.byte	0x5
 9770 0028 74       		.uleb128 0x74
 9771 0029 DF480000 		.4byte	.LASF702
 9772 002d 05       		.byte	0x5
 9773 002e 75       		.uleb128 0x75
 9774 002f F4440000 		.4byte	.LASF703
 9775 0033 05       		.byte	0x5
 9776 0034 76       		.uleb128 0x76
 9777 0035 12570000 		.4byte	.LASF704
 9778 0039 05       		.byte	0x5
 9779 003a 77       		.uleb128 0x77
 9780 003b 6B660000 		.4byte	.LASF705
 9781 003f 05       		.byte	0x5
 9782 0040 78       		.uleb128 0x78
 9783 0041 A6180000 		.4byte	.LASF706
 9784 0045 05       		.byte	0x5
 9785 0046 79       		.uleb128 0x79
 9786 0047 64670000 		.4byte	.LASF707
 9787 004b 05       		.byte	0x5
 9788 004c 7A       		.uleb128 0x7a
 9789 004d 66590000 		.4byte	.LASF708
 9790 0051 05       		.byte	0x5
 9791 0052 7B       		.uleb128 0x7b
 9792 0053 87190000 		.4byte	.LASF709
 9793 0057 05       		.byte	0x5
 9794 0058 7C       		.uleb128 0x7c
 9795 0059 8A090000 		.4byte	.LASF710
 9796 005d 05       		.byte	0x5
 9797 005e 8101     		.uleb128 0x81
 9798 0060 8A280000 		.4byte	.LASF711
 9799 0064 05       		.byte	0x5
 9800 0065 8201     		.uleb128 0x82
 9801 0067 6B310000 		.4byte	.LASF712
 9802 006b 05       		.byte	0x5
 9803 006c 8301     		.uleb128 0x83
 9804 006e 30090000 		.4byte	.LASF713
 9805 0072 05       		.byte	0x5
 9806 0073 8401     		.uleb128 0x84
 9807 0075 FB790000 		.4byte	.LASF714
 9808 0079 05       		.byte	0x5
ARM GAS  /tmp/ccXTVNcx.s 			page 192


 9809 007a 8501     		.uleb128 0x85
 9810 007c FD250000 		.4byte	.LASF715
 9811 0080 05       		.byte	0x5
 9812 0081 8801     		.uleb128 0x88
 9813 0083 331A0000 		.4byte	.LASF716
 9814 0087 05       		.byte	0x5
 9815 0088 8901     		.uleb128 0x89
 9816 008a 3C5B0000 		.4byte	.LASF717
 9817 008e 05       		.byte	0x5
 9818 008f 8A01     		.uleb128 0x8a
 9819 0091 64450000 		.4byte	.LASF718
 9820 0095 05       		.byte	0x5
 9821 0096 8B01     		.uleb128 0x8b
 9822 0098 2C330000 		.4byte	.LASF719
 9823 009c 05       		.byte	0x5
 9824 009d 8C01     		.uleb128 0x8c
 9825 009f 090A0000 		.4byte	.LASF720
 9826 00a3 05       		.byte	0x5
 9827 00a4 8D01     		.uleb128 0x8d
 9828 00a6 370B0000 		.4byte	.LASF721
 9829 00aa 05       		.byte	0x5
 9830 00ab 9201     		.uleb128 0x92
 9831 00ad 46180000 		.4byte	.LASF722
 9832 00b1 05       		.byte	0x5
 9833 00b2 9301     		.uleb128 0x93
 9834 00b4 44660000 		.4byte	.LASF723
 9835 00b8 05       		.byte	0x5
 9836 00b9 9401     		.uleb128 0x94
 9837 00bb F6330000 		.4byte	.LASF724
 9838 00bf 05       		.byte	0x5
 9839 00c0 9501     		.uleb128 0x95
 9840 00c2 62650000 		.4byte	.LASF725
 9841 00c6 05       		.byte	0x5
 9842 00c7 9601     		.uleb128 0x96
 9843 00c9 42210000 		.4byte	.LASF726
 9844 00cd 05       		.byte	0x5
 9845 00ce 9801     		.uleb128 0x98
 9846 00d0 E60D0000 		.4byte	.LASF727
 9847 00d4 05       		.byte	0x5
 9848 00d5 9B01     		.uleb128 0x9b
 9849 00d7 770B0000 		.4byte	.LASF728
 9850 00db 05       		.byte	0x5
 9851 00dc 9C01     		.uleb128 0x9c
 9852 00de 8D100000 		.4byte	.LASF729
 9853 00e2 05       		.byte	0x5
 9854 00e3 9D01     		.uleb128 0x9d
 9855 00e5 F5290000 		.4byte	.LASF730
 9856 00e9 05       		.byte	0x5
 9857 00ea 9E01     		.uleb128 0x9e
 9858 00ec E63B0000 		.4byte	.LASF731
 9859 00f0 05       		.byte	0x5
 9860 00f1 A401     		.uleb128 0xa4
 9861 00f3 06270000 		.4byte	.LASF732
 9862 00f7 05       		.byte	0x5
 9863 00f8 A501     		.uleb128 0xa5
 9864 00fa 3C600000 		.4byte	.LASF733
 9865 00fe 05       		.byte	0x5
ARM GAS  /tmp/ccXTVNcx.s 			page 193


 9866 00ff A601     		.uleb128 0xa6
 9867 0101 11510000 		.4byte	.LASF734
 9868 0105 05       		.byte	0x5
 9869 0106 A701     		.uleb128 0xa7
 9870 0108 0F290000 		.4byte	.LASF735
 9871 010c 05       		.byte	0x5
 9872 010d A801     		.uleb128 0xa8
 9873 010f 23320000 		.4byte	.LASF736
 9874 0113 05       		.byte	0x5
 9875 0114 AB01     		.uleb128 0xab
 9876 0116 41220000 		.4byte	.LASF737
 9877 011a 05       		.byte	0x5
 9878 011b AC01     		.uleb128 0xac
 9879 011d A8790000 		.4byte	.LASF738
 9880 0121 05       		.byte	0x5
 9881 0122 AD01     		.uleb128 0xad
 9882 0124 023F0000 		.4byte	.LASF739
 9883 0128 05       		.byte	0x5
 9884 0129 B001     		.uleb128 0xb0
 9885 012b 59410000 		.4byte	.LASF740
 9886 012f 05       		.byte	0x5
 9887 0130 B101     		.uleb128 0xb1
 9888 0132 6B4B0000 		.4byte	.LASF741
 9889 0136 05       		.byte	0x5
 9890 0137 B201     		.uleb128 0xb2
 9891 0139 6D4D0000 		.4byte	.LASF742
 9892 013d 05       		.byte	0x5
 9893 013e B301     		.uleb128 0xb3
 9894 0140 12670000 		.4byte	.LASF743
 9895 0144 05       		.byte	0x5
 9896 0145 B401     		.uleb128 0xb4
 9897 0147 3C410000 		.4byte	.LASF744
 9898 014b 05       		.byte	0x5
 9899 014c B501     		.uleb128 0xb5
 9900 014e 561F0000 		.4byte	.LASF745
 9901 0152 05       		.byte	0x5
 9902 0153 B601     		.uleb128 0xb6
 9903 0155 E7020000 		.4byte	.LASF746
 9904 0159 05       		.byte	0x5
 9905 015a B701     		.uleb128 0xb7
 9906 015c EE1C0000 		.4byte	.LASF747
 9907 0160 05       		.byte	0x5
 9908 0161 B801     		.uleb128 0xb8
 9909 0163 343E0000 		.4byte	.LASF748
 9910 0167 05       		.byte	0x5
 9911 0168 BD01     		.uleb128 0xbd
 9912 016a CF040000 		.4byte	.LASF749
 9913 016e 05       		.byte	0x5
 9914 016f BE01     		.uleb128 0xbe
 9915 0171 D5370000 		.4byte	.LASF750
 9916 0175 05       		.byte	0x5
 9917 0176 BF01     		.uleb128 0xbf
 9918 0178 A5170000 		.4byte	.LASF751
 9919 017c 05       		.byte	0x5
 9920 017d C001     		.uleb128 0xc0
 9921 017f A8100000 		.4byte	.LASF752
 9922 0183 05       		.byte	0x5
ARM GAS  /tmp/ccXTVNcx.s 			page 194


 9923 0184 C101     		.uleb128 0xc1
 9924 0186 01040000 		.4byte	.LASF753
 9925 018a 05       		.byte	0x5
 9926 018b C201     		.uleb128 0xc2
 9927 018d 980A0000 		.4byte	.LASF754
 9928 0191 05       		.byte	0x5
 9929 0192 C701     		.uleb128 0xc7
 9930 0194 A4470000 		.4byte	.LASF755
 9931 0198 05       		.byte	0x5
 9932 0199 C801     		.uleb128 0xc8
 9933 019b 4F710000 		.4byte	.LASF756
 9934 019f 05       		.byte	0x5
 9935 01a0 C901     		.uleb128 0xc9
 9936 01a2 1E1C0000 		.4byte	.LASF757
 9937 01a6 05       		.byte	0x5
 9938 01a7 CA01     		.uleb128 0xca
 9939 01a9 50340000 		.4byte	.LASF758
 9940 01ad 05       		.byte	0x5
 9941 01ae CB01     		.uleb128 0xcb
 9942 01b0 2C220000 		.4byte	.LASF759
 9943 01b4 05       		.byte	0x5
 9944 01b5 CC01     		.uleb128 0xcc
 9945 01b7 F6170000 		.4byte	.LASF760
 9946 01bb 05       		.byte	0x5
 9947 01bc CD01     		.uleb128 0xcd
 9948 01be 43440000 		.4byte	.LASF761
 9949 01c2 05       		.byte	0x5
 9950 01c3 CE01     		.uleb128 0xce
 9951 01c5 156A0000 		.4byte	.LASF762
 9952 01c9 05       		.byte	0x5
 9953 01ca CF01     		.uleb128 0xcf
 9954 01cc FB060000 		.4byte	.LASF763
 9955 01d0 05       		.byte	0x5
 9956 01d1 D001     		.uleb128 0xd0
 9957 01d3 CC0C0000 		.4byte	.LASF764
 9958 01d7 05       		.byte	0x5
 9959 01d8 D101     		.uleb128 0xd1
 9960 01da CC3B0000 		.4byte	.LASF765
 9961 01de 05       		.byte	0x5
 9962 01df D601     		.uleb128 0xd6
 9963 01e1 D0430000 		.4byte	.LASF766
 9964 01e5 05       		.byte	0x5
 9965 01e6 D701     		.uleb128 0xd7
 9966 01e8 0C6E0000 		.4byte	.LASF767
 9967 01ec 05       		.byte	0x5
 9968 01ed D801     		.uleb128 0xd8
 9969 01ef E6030000 		.4byte	.LASF768
 9970 01f3 05       		.byte	0x5
 9971 01f4 D901     		.uleb128 0xd9
 9972 01f6 9A400000 		.4byte	.LASF769
 9973 01fa 05       		.byte	0x5
 9974 01fb DA01     		.uleb128 0xda
 9975 01fd 877A0000 		.4byte	.LASF770
 9976 0201 05       		.byte	0x5
 9977 0202 DB01     		.uleb128 0xdb
 9978 0204 E8520000 		.4byte	.LASF771
 9979 0208 05       		.byte	0x5
ARM GAS  /tmp/ccXTVNcx.s 			page 195


 9980 0209 DC01     		.uleb128 0xdc
 9981 020b B45C0000 		.4byte	.LASF772
 9982 020f 05       		.byte	0x5
 9983 0210 DD01     		.uleb128 0xdd
 9984 0212 1A790000 		.4byte	.LASF773
 9985 0216 05       		.byte	0x5
 9986 0217 DE01     		.uleb128 0xde
 9987 0219 431D0000 		.4byte	.LASF774
 9988 021d 05       		.byte	0x5
 9989 021e E301     		.uleb128 0xe3
 9990 0220 952F0000 		.4byte	.LASF775
 9991 0224 05       		.byte	0x5
 9992 0225 E401     		.uleb128 0xe4
 9993 0227 13420000 		.4byte	.LASF776
 9994 022b 05       		.byte	0x5
 9995 022c E501     		.uleb128 0xe5
 9996 022e AA5D0000 		.4byte	.LASF777
 9997 0232 05       		.byte	0x5
 9998 0233 E601     		.uleb128 0xe6
 9999 0235 BA470000 		.4byte	.LASF778
 10000 0239 05       		.byte	0x5
 10001 023a E701     		.uleb128 0xe7
 10002 023c 6A250000 		.4byte	.LASF779
 10003 0240 05       		.byte	0x5
 10004 0241 E801     		.uleb128 0xe8
 10005 0243 B6040000 		.4byte	.LASF780
 10006 0247 05       		.byte	0x5
 10007 0248 ED01     		.uleb128 0xed
 10008 024a 013C0000 		.4byte	.LASF781
 10009 024e 05       		.byte	0x5
 10010 024f EE01     		.uleb128 0xee
 10011 0251 0D0E0000 		.4byte	.LASF782
 10012 0255 05       		.byte	0x5
 10013 0256 EF01     		.uleb128 0xef
 10014 0258 432F0000 		.4byte	.LASF783
 10015 025c 05       		.byte	0x5
 10016 025d F001     		.uleb128 0xf0
 10017 025f 71170000 		.4byte	.LASF784
 10018 0263 05       		.byte	0x5
 10019 0264 F201     		.uleb128 0xf2
 10020 0266 2E360000 		.4byte	.LASF785
 10021 026a 05       		.byte	0x5
 10022 026b F301     		.uleb128 0xf3
 10023 026d B34B0000 		.4byte	.LASF786
 10024 0271 05       		.byte	0x5
 10025 0272 F601     		.uleb128 0xf6
 10026 0274 3C480000 		.4byte	.LASF787
 10027 0278 05       		.byte	0x5
 10028 0279 FB01     		.uleb128 0xfb
 10029 027b 641D0000 		.4byte	.LASF788
 10030 027f 05       		.byte	0x5
 10031 0280 FC01     		.uleb128 0xfc
 10032 0282 EB340000 		.4byte	.LASF789
 10033 0286 05       		.byte	0x5
 10034 0287 FD01     		.uleb128 0xfd
 10035 0289 BF740000 		.4byte	.LASF790
 10036 028d 05       		.byte	0x5
ARM GAS  /tmp/ccXTVNcx.s 			page 196


 10037 028e FE01     		.uleb128 0xfe
 10038 0290 302E0000 		.4byte	.LASF791
 10039 0294 05       		.byte	0x5
 10040 0295 FF01     		.uleb128 0xff
 10041 0297 610E0000 		.4byte	.LASF792
 10042 029b 05       		.byte	0x5
 10043 029c 8402     		.uleb128 0x104
 10044 029e 473C0000 		.4byte	.LASF793
 10045 02a2 05       		.byte	0x5
 10046 02a3 8902     		.uleb128 0x109
 10047 02a5 B6400000 		.4byte	.LASF794
 10048 02a9 05       		.byte	0x5
 10049 02aa 8A02     		.uleb128 0x10a
 10050 02ac 2B6F0000 		.4byte	.LASF795
 10051 02b0 05       		.byte	0x5
 10052 02b1 8B02     		.uleb128 0x10b
 10053 02b3 CC2F0000 		.4byte	.LASF796
 10054 02b7 05       		.byte	0x5
 10055 02b8 8C02     		.uleb128 0x10c
 10056 02ba 59550000 		.4byte	.LASF797
 10057 02be 05       		.byte	0x5
 10058 02bf 8D02     		.uleb128 0x10d
 10059 02c1 3F300000 		.4byte	.LASF798
 10060 02c5 05       		.byte	0x5
 10061 02c6 9202     		.uleb128 0x112
 10062 02c8 D4290000 		.4byte	.LASF799
 10063 02cc 05       		.byte	0x5
 10064 02cd 9302     		.uleb128 0x113
 10065 02cf 53620000 		.4byte	.LASF800
 10066 02d3 05       		.byte	0x5
 10067 02d4 9402     		.uleb128 0x114
 10068 02d6 4B090000 		.4byte	.LASF801
 10069 02da 05       		.byte	0x5
 10070 02db 9902     		.uleb128 0x119
 10071 02dd 1A0F0000 		.4byte	.LASF802
 10072 02e1 05       		.byte	0x5
 10073 02e2 9A02     		.uleb128 0x11a
 10074 02e4 A9060000 		.4byte	.LASF803
 10075 02e8 05       		.byte	0x5
 10076 02e9 9F02     		.uleb128 0x11f
 10077 02eb DF590000 		.4byte	.LASF804
 10078 02ef 05       		.byte	0x5
 10079 02f0 A002     		.uleb128 0x120
 10080 02f2 92360000 		.4byte	.LASF805
 10081 02f6 05       		.byte	0x5
 10082 02f7 A102     		.uleb128 0x121
 10083 02f9 BC1E0000 		.4byte	.LASF806
 10084 02fd 05       		.byte	0x5
 10085 02fe A202     		.uleb128 0x122
 10086 0300 FC4D0000 		.4byte	.LASF807
 10087 0304 05       		.byte	0x5
 10088 0305 A302     		.uleb128 0x123
 10089 0307 87470000 		.4byte	.LASF808
 10090 030b 05       		.byte	0x5
 10091 030c A402     		.uleb128 0x124
 10092 030e F4750000 		.4byte	.LASF809
 10093 0312 05       		.byte	0x5
ARM GAS  /tmp/ccXTVNcx.s 			page 197


 10094 0313 A502     		.uleb128 0x125
 10095 0315 8E520000 		.4byte	.LASF810
 10096 0319 00       		.byte	0
 10097              		.section	.debug_macro,"G",%progbits,wm4.wwdt_11xx.h.33.5768344983cb842df69cc91ea86cabb0,comdat
 10098              	.Ldebug_macro20:
 10099 0000 0400     		.2byte	0x4
 10100 0002 00       		.byte	0
 10101 0003 05       		.byte	0x5
 10102 0004 21       		.uleb128 0x21
 10103 0005 2B100000 		.4byte	.LASF811
 10104 0009 05       		.byte	0x5
 10105 000a 4B       		.uleb128 0x4b
 10106 000b 84630000 		.4byte	.LASF812
 10107 000f 05       		.byte	0x5
 10108 0010 4D       		.uleb128 0x4d
 10109 0011 2B010000 		.4byte	.LASF813
 10110 0015 05       		.byte	0x5
 10111 0016 4F       		.uleb128 0x4f
 10112 0017 D7550000 		.4byte	.LASF814
 10113 001b 05       		.byte	0x5
 10114 001c 51       		.uleb128 0x51
 10115 001d D73A0000 		.4byte	.LASF815
 10116 0021 05       		.byte	0x5
 10117 0022 53       		.uleb128 0x53
 10118 0023 23750000 		.4byte	.LASF816
 10119 0027 05       		.byte	0x5
 10120 0028 55       		.uleb128 0x55
 10121 0029 11410000 		.4byte	.LASF817
 10122 002d 00       		.byte	0
 10123              		.section	.debug_macro,"G",%progbits,wm4.ssp_11xx.h.33.af054d3d65f4cb0c078be40bb872ec37,comdat
 10124              	.Ldebug_macro21:
 10125 0000 0400     		.2byte	0x4
 10126 0002 00       		.byte	0
 10127 0003 05       		.byte	0x5
 10128 0004 21       		.uleb128 0x21
 10129 0005 1A2B0000 		.4byte	.LASF818
 10130 0009 05       		.byte	0x5
 10131 000a 40       		.uleb128 0x40
 10132 000b 014A0000 		.4byte	.LASF819
 10133 000f 05       		.byte	0x5
 10134 0010 42       		.uleb128 0x42
 10135 0011 D5060000 		.4byte	.LASF820
 10136 0015 05       		.byte	0x5
 10137 0016 44       		.uleb128 0x44
 10138 0017 65280000 		.4byte	.LASF821
 10139 001b 05       		.byte	0x5
 10140 001c 46       		.uleb128 0x46
 10141 001d 74260000 		.4byte	.LASF822
 10142 0021 05       		.byte	0x5
 10143 0022 49       		.uleb128 0x49
 10144 0023 7E560000 		.4byte	.LASF823
 10145 0027 05       		.byte	0x5
 10146 0028 4A       		.uleb128 0x4a
 10147 0029 E8080000 		.4byte	.LASF824
 10148 002d 05       		.byte	0x5
 10149 002e 4D       		.uleb128 0x4d
 10150 002f F0200000 		.4byte	.LASF825
ARM GAS  /tmp/ccXTVNcx.s 			page 198


 10151 0033 05       		.byte	0x5
 10152 0034 4E       		.uleb128 0x4e
 10153 0035 696D0000 		.4byte	.LASF826
 10154 0039 05       		.byte	0x5
 10155 003a 51       		.uleb128 0x51
 10156 003b 5C1A0000 		.4byte	.LASF827
 10157 003f 05       		.byte	0x5
 10158 0040 53       		.uleb128 0x53
 10159 0041 1B110000 		.4byte	.LASF828
 10160 0045 05       		.byte	0x5
 10161 0046 55       		.uleb128 0x55
 10162 0047 1B110000 		.4byte	.LASF828
 10163 004b 05       		.byte	0x5
 10164 004c 58       		.uleb128 0x58
 10165 004d 5C1A0000 		.4byte	.LASF827
 10166 0051 05       		.byte	0x5
 10167 0052 5F       		.uleb128 0x5f
 10168 0053 884F0000 		.4byte	.LASF829
 10169 0057 05       		.byte	0x5
 10170 0058 61       		.uleb128 0x61
 10171 0059 D71A0000 		.4byte	.LASF830
 10172 005d 05       		.byte	0x5
 10173 005e 63       		.uleb128 0x63
 10174 005f 41110000 		.4byte	.LASF831
 10175 0063 05       		.byte	0x5
 10176 0064 64       		.uleb128 0x64
 10177 0065 F0370000 		.4byte	.LASF832
 10178 0069 05       		.byte	0x5
 10179 006a 67       		.uleb128 0x67
 10180 006b 7D4A0000 		.4byte	.LASF833
 10181 006f 05       		.byte	0x5
 10182 0070 69       		.uleb128 0x69
 10183 0071 C2760000 		.4byte	.LASF834
 10184 0075 05       		.byte	0x5
 10185 0076 6C       		.uleb128 0x6c
 10186 0077 B4750000 		.4byte	.LASF835
 10187 007b 05       		.byte	0x5
 10188 007c 72       		.uleb128 0x72
 10189 007d 351F0000 		.4byte	.LASF836
 10190 0081 05       		.byte	0x5
 10191 0082 79       		.uleb128 0x79
 10192 0083 4F690000 		.4byte	.LASF837
 10193 0087 05       		.byte	0x5
 10194 0088 7C       		.uleb128 0x7c
 10195 0089 40070000 		.4byte	.LASF838
 10196 008d 05       		.byte	0x5
 10197 008e C503     		.uleb128 0x1c5
 10198 0090 A86C0000 		.4byte	.LASF839
 10199 0094 05       		.byte	0x5
 10200 0095 C603     		.uleb128 0x1c6
 10201 0097 C0310000 		.4byte	.LASF840
 10202 009b 05       		.byte	0x5
 10203 009c CF03     		.uleb128 0x1cf
 10204 009e 52190000 		.4byte	.LASF841
 10205 00a2 05       		.byte	0x5
 10206 00a3 D003     		.uleb128 0x1d0
 10207 00a5 4F1C0000 		.4byte	.LASF842
ARM GAS  /tmp/ccXTVNcx.s 			page 199


 10208 00a9 05       		.byte	0x5
 10209 00aa D303     		.uleb128 0x1d3
 10210 00ac 5A780000 		.4byte	.LASF843
 10211 00b0 05       		.byte	0x5
 10212 00b1 D403     		.uleb128 0x1d4
 10213 00b3 083E0000 		.4byte	.LASF844
 10214 00b7 00       		.byte	0
 10215              		.section	.debug_macro,"G",%progbits,wm4.error.h.38.ae74fe1dd9d19c80c505f1fda144fce8,comdat
 10216              	.Ldebug_macro22:
 10217 0000 0400     		.2byte	0x4
 10218 0002 00       		.byte	0
 10219 0003 05       		.byte	0x5
 10220 0004 26       		.uleb128 0x26
 10221 0005 054F0000 		.4byte	.LASF846
 10222 0009 05       		.byte	0x5
 10223 000a 8401     		.uleb128 0x84
 10224 000c C9070000 		.4byte	.LASF847
 10225 0010 00       		.byte	0
 10226              		.section	.debug_macro,"G",%progbits,wm4.adc_11xx.h.33.6ce7433ac6b30df70a6993d01dbd513f,comdat
 10227              	.Ldebug_macro23:
 10228 0000 0400     		.2byte	0x4
 10229 0002 00       		.byte	0
 10230 0003 05       		.byte	0x5
 10231 0004 21       		.uleb128 0x21
 10232 0005 8A1A0000 		.4byte	.LASF848
 10233 0009 05       		.byte	0x5
 10234 000a 2F       		.uleb128 0x2f
 10235 000b 106F0000 		.4byte	.LASF849
 10236 000f 05       		.byte	0x5
 10237 0010 40       		.uleb128 0x40
 10238 0011 08700000 		.4byte	.LASF850
 10239 0015 05       		.byte	0x5
 10240 0016 41       		.uleb128 0x41
 10241 0017 06480000 		.4byte	.LASF851
 10242 001b 05       		.byte	0x5
 10243 001c 43       		.uleb128 0x43
 10244 001d AD3F0000 		.4byte	.LASF852
 10245 0021 05       		.byte	0x5
 10246 0022 44       		.uleb128 0x44
 10247 0023 CA3F0000 		.4byte	.LASF853
 10248 0027 05       		.byte	0x5
 10249 0028 45       		.uleb128 0x45
 10250 0029 2F3A0000 		.4byte	.LASF854
 10251 002d 05       		.byte	0x5
 10252 002e 46       		.uleb128 0x46
 10253 002f 167A0000 		.4byte	.LASF855
 10254 0033 05       		.byte	0x5
 10255 0034 47       		.uleb128 0x47
 10256 0035 46760000 		.4byte	.LASF856
 10257 0039 05       		.byte	0x5
 10258 003a 48       		.uleb128 0x48
 10259 003b 6F730000 		.4byte	.LASF857
 10260 003f 05       		.byte	0x5
 10261 0040 49       		.uleb128 0x49
 10262 0041 645E0000 		.4byte	.LASF858
 10263 0045 05       		.byte	0x5
 10264 0046 4A       		.uleb128 0x4a
ARM GAS  /tmp/ccXTVNcx.s 			page 200


 10265 0047 A1190000 		.4byte	.LASF859
 10266 004b 05       		.byte	0x5
 10267 004c 4B       		.uleb128 0x4b
 10268 004d 20200000 		.4byte	.LASF860
 10269 0051 05       		.byte	0x5
 10270 0052 4C       		.uleb128 0x4c
 10271 0053 53420000 		.4byte	.LASF861
 10272 0057 05       		.byte	0x5
 10273 0058 4D       		.uleb128 0x4d
 10274 0059 61160000 		.4byte	.LASF862
 10275 005d 05       		.byte	0x5
 10276 005e 4E       		.uleb128 0x4e
 10277 005f E2500000 		.4byte	.LASF863
 10278 0063 05       		.byte	0x5
 10279 0064 4F       		.uleb128 0x4f
 10280 0065 FE3A0000 		.4byte	.LASF864
 10281 0069 05       		.byte	0x5
 10282 006a 50       		.uleb128 0x50
 10283 006b 435E0000 		.4byte	.LASF865
 10284 006f 05       		.byte	0x5
 10285 0070 51       		.uleb128 0x51
 10286 0071 A6510000 		.4byte	.LASF866
 10287 0075 05       		.byte	0x5
 10288 0076 52       		.uleb128 0x52
 10289 0077 1A580000 		.4byte	.LASF867
 10290 007b 00       		.byte	0
 10291              		.section	.debug_macro,"G",%progbits,wm4.i2c_11xx.h.33.2b506d1350e00a8c26e8bf006a5f9390,comdat
 10292              	.Ldebug_macro24:
 10293 0000 0400     		.2byte	0x4
 10294 0002 00       		.byte	0
 10295 0003 05       		.byte	0x5
 10296 0004 21       		.uleb128 0x21
 10297 0005 066A0000 		.4byte	.LASF869
 10298 0009 05       		.byte	0x5
 10299 000a 46       		.uleb128 0x46
 10300 000b B30D0000 		.4byte	.LASF870
 10301 000f 05       		.byte	0x5
 10302 0010 47       		.uleb128 0x47
 10303 0011 A7550000 		.4byte	.LASF871
 10304 0015 05       		.byte	0x5
 10305 0016 48       		.uleb128 0x48
 10306 0017 2E1B0000 		.4byte	.LASF872
 10307 001b 05       		.byte	0x5
 10308 001c 49       		.uleb128 0x49
 10309 001d FC0B0000 		.4byte	.LASF873
 10310 0021 05       		.byte	0x5
 10311 0022 4E       		.uleb128 0x4e
 10312 0023 FC660000 		.4byte	.LASF874
 10313 0027 05       		.byte	0x5
 10314 0028 53       		.uleb128 0x53
 10315 0029 26300000 		.4byte	.LASF875
 10316 002d 05       		.byte	0x5
 10317 002e 54       		.uleb128 0x54
 10318 002f 7F0A0000 		.4byte	.LASF876
 10319 0033 05       		.byte	0x5
 10320 0034 55       		.uleb128 0x55
 10321 0035 00000000 		.4byte	.LASF877
ARM GAS  /tmp/ccXTVNcx.s 			page 201


 10322 0039 05       		.byte	0x5
 10323 003a 56       		.uleb128 0x56
 10324 003b 7E2D0000 		.4byte	.LASF878
 10325 003f 05       		.byte	0x5
 10326 0040 57       		.uleb128 0x57
 10327 0041 2C0E0000 		.4byte	.LASF879
 10328 0045 05       		.byte	0x5
 10329 0046 5C       		.uleb128 0x5c
 10330 0047 4A750000 		.4byte	.LASF880
 10331 004b 05       		.byte	0x5
 10332 004c 5D       		.uleb128 0x5d
 10333 004d 8D0B0000 		.4byte	.LASF881
 10334 0051 05       		.byte	0x5
 10335 0052 5E       		.uleb128 0x5e
 10336 0053 51510000 		.4byte	.LASF882
 10337 0057 05       		.byte	0x5
 10338 0058 5F       		.uleb128 0x5f
 10339 0059 DF0B0000 		.4byte	.LASF883
 10340 005d 05       		.byte	0x5
 10341 005e 60       		.uleb128 0x60
 10342 005f 2B250000 		.4byte	.LASF884
 10343 0063 05       		.byte	0x5
 10344 0064 65       		.uleb128 0x65
 10345 0065 EB490000 		.4byte	.LASF885
 10346 0069 05       		.byte	0x5
 10347 006a 66       		.uleb128 0x66
 10348 006b 29510000 		.4byte	.LASF886
 10349 006f 05       		.byte	0x5
 10350 0070 67       		.uleb128 0x67
 10351 0071 C80B0000 		.4byte	.LASF887
 10352 0075 05       		.byte	0x5
 10353 0076 68       		.uleb128 0x68
 10354 0077 085A0000 		.4byte	.LASF888
 10355 007b 05       		.byte	0x5
 10356 007c 69       		.uleb128 0x69
 10357 007d 0A4B0000 		.4byte	.LASF889
 10358 0081 05       		.byte	0x5
 10359 0082 6E       		.uleb128 0x6e
 10360 0083 3D7A0000 		.4byte	.LASF890
 10361 0087 05       		.byte	0x5
 10362 0088 6F       		.uleb128 0x6f
 10363 0089 DF4D0000 		.4byte	.LASF891
 10364 008d 05       		.byte	0x5
 10365 008e 74       		.uleb128 0x74
 10366 008f 143A0000 		.4byte	.LASF892
 10367 0093 05       		.byte	0x5
 10368 0094 75       		.uleb128 0x75
 10369 0095 70180000 		.4byte	.LASF893
 10370 0099 05       		.byte	0x5
 10371 009a 7A       		.uleb128 0x7a
 10372 009b C0480000 		.4byte	.LASF894
 10373 009f 05       		.byte	0x5
 10374 00a0 7B       		.uleb128 0x7b
 10375 00a1 31190000 		.4byte	.LASF895
 10376 00a5 05       		.byte	0x5
 10377 00a6 7C       		.uleb128 0x7c
 10378 00a7 A1240000 		.4byte	.LASF896
ARM GAS  /tmp/ccXTVNcx.s 			page 202


 10379 00ab 05       		.byte	0x5
 10380 00ac 7D       		.uleb128 0x7d
 10381 00ad 1A000000 		.4byte	.LASF897
 10382 00b1 05       		.byte	0x5
 10383 00b2 7E       		.uleb128 0x7e
 10384 00b3 222F0000 		.4byte	.LASF898
 10385 00b7 05       		.byte	0x5
 10386 00b8 7F       		.uleb128 0x7f
 10387 00b9 96390000 		.4byte	.LASF899
 10388 00bd 05       		.byte	0x5
 10389 00be 8001     		.uleb128 0x80
 10390 00c0 0C1B0000 		.4byte	.LASF900
 10391 00c4 05       		.byte	0x5
 10392 00c5 8501     		.uleb128 0x85
 10393 00c7 1A020000 		.4byte	.LASF901
 10394 00cb 05       		.byte	0x5
 10395 00cc 8601     		.uleb128 0x86
 10396 00ce AD4F0000 		.4byte	.LASF902
 10397 00d2 05       		.byte	0x5
 10398 00d3 8701     		.uleb128 0x87
 10399 00d5 802B0000 		.4byte	.LASF903
 10400 00d9 05       		.byte	0x5
 10401 00da 8801     		.uleb128 0x88
 10402 00dc EF5F0000 		.4byte	.LASF904
 10403 00e0 05       		.byte	0x5
 10404 00e1 8901     		.uleb128 0x89
 10405 00e3 3E140000 		.4byte	.LASF905
 10406 00e7 05       		.byte	0x5
 10407 00e8 8A01     		.uleb128 0x8a
 10408 00ea 4B0C0000 		.4byte	.LASF906
 10409 00ee 05       		.byte	0x5
 10410 00ef 8B01     		.uleb128 0x8b
 10411 00f1 3B100000 		.4byte	.LASF907
 10412 00f5 05       		.byte	0x5
 10413 00f6 9001     		.uleb128 0x90
 10414 00f8 2F5C0000 		.4byte	.LASF908
 10415 00fc 05       		.byte	0x5
 10416 00fd 9101     		.uleb128 0x91
 10417 00ff 09740000 		.4byte	.LASF909
 10418 0103 05       		.byte	0x5
 10419 0104 9301     		.uleb128 0x93
 10420 0106 ED650000 		.4byte	.LASF910
 10421 010a 05       		.byte	0x5
 10422 010b 9401     		.uleb128 0x94
 10423 010d 354D0000 		.4byte	.LASF911
 10424 0111 05       		.byte	0x5
 10425 0112 9601     		.uleb128 0x96
 10426 0114 A20F0000 		.4byte	.LASF912
 10427 0118 05       		.byte	0x5
 10428 0119 9701     		.uleb128 0x97
 10429 011b 210C0000 		.4byte	.LASF913
 10430 011f 05       		.byte	0x5
 10431 0120 9801     		.uleb128 0x98
 10432 0122 E4120000 		.4byte	.LASF914
 10433 0126 05       		.byte	0x5
 10434 0127 9901     		.uleb128 0x99
 10435 0129 08120000 		.4byte	.LASF915
ARM GAS  /tmp/ccXTVNcx.s 			page 203


 10436 012d 05       		.byte	0x5
 10437 012e 9A01     		.uleb128 0x9a
 10438 0130 C72E0000 		.4byte	.LASF916
 10439 0134 05       		.byte	0x5
 10440 0135 A001     		.uleb128 0xa0
 10441 0137 FC0C0000 		.4byte	.LASF917
 10442 013b 05       		.byte	0x5
 10443 013c A101     		.uleb128 0xa1
 10444 013e 0D4D0000 		.4byte	.LASF918
 10445 0142 05       		.byte	0x5
 10446 0143 A301     		.uleb128 0xa3
 10447 0145 C0170000 		.4byte	.LASF919
 10448 0149 05       		.byte	0x5
 10449 014a A401     		.uleb128 0xa4
 10450 014c 8D4E0000 		.4byte	.LASF920
 10451 0150 05       		.byte	0x5
 10452 0151 A501     		.uleb128 0xa5
 10453 0153 CD6E0000 		.4byte	.LASF921
 10454 0157 05       		.byte	0x5
 10455 0158 A601     		.uleb128 0xa6
 10456 015a 752F0000 		.4byte	.LASF922
 10457 015e 05       		.byte	0x5
 10458 015f AB01     		.uleb128 0xab
 10459 0161 F7560000 		.4byte	.LASF923
 10460 0165 05       		.byte	0x5
 10461 0166 AC01     		.uleb128 0xac
 10462 0168 C6690000 		.4byte	.LASF924
 10463 016c 05       		.byte	0x5
 10464 016d B201     		.uleb128 0xb2
 10465 016f 50000000 		.4byte	.LASF925
 10466 0173 05       		.byte	0x5
 10467 0174 B301     		.uleb128 0xb3
 10468 0176 64710000 		.4byte	.LASF926
 10469 017a 05       		.byte	0x5
 10470 017b B401     		.uleb128 0xb4
 10471 017d AD420000 		.4byte	.LASF927
 10472 0181 05       		.byte	0x5
 10473 0182 B501     		.uleb128 0xb5
 10474 0184 512C0000 		.4byte	.LASF928
 10475 0188 05       		.byte	0x5
 10476 0189 BA01     		.uleb128 0xba
 10477 018b 4F740000 		.4byte	.LASF929
 10478 018f 05       		.byte	0x5
 10479 0190 BF01     		.uleb128 0xbf
 10480 0192 74640000 		.4byte	.LASF930
 10481 0196 05       		.byte	0x5
 10482 0197 C001     		.uleb128 0xc0
 10483 0199 7C340000 		.4byte	.LASF931
 10484 019d 05       		.byte	0x5
 10485 019e C501     		.uleb128 0xc5
 10486 01a0 33560000 		.4byte	.LASF932
 10487 01a4 05       		.byte	0x5
 10488 01a5 CA01     		.uleb128 0xca
 10489 01a7 98700000 		.4byte	.LASF933
 10490 01ab 05       		.byte	0x5
 10491 01ac CF01     		.uleb128 0xcf
 10492 01ae D2400000 		.4byte	.LASF934
ARM GAS  /tmp/ccXTVNcx.s 			page 204


 10493 01b2 05       		.byte	0x5
 10494 01b3 D401     		.uleb128 0xd4
 10495 01b5 11590000 		.4byte	.LASF935
 10496 01b9 05       		.byte	0x5
 10497 01ba D501     		.uleb128 0xd5
 10498 01bc 9D7A0000 		.4byte	.LASF936
 10499 01c0 05       		.byte	0x5
 10500 01c1 D601     		.uleb128 0xd6
 10501 01c3 4F3F0000 		.4byte	.LASF937
 10502 01c7 05       		.byte	0x5
 10503 01c8 DB01     		.uleb128 0xdb
 10504 01ca 55520000 		.4byte	.LASF938
 10505 01ce 05       		.byte	0x5
 10506 01cf DC01     		.uleb128 0xdc
 10507 01d1 1F5A0000 		.4byte	.LASF939
 10508 01d5 05       		.byte	0x5
 10509 01d6 DD01     		.uleb128 0xdd
 10510 01d8 18010000 		.4byte	.LASF940
 10511 01dc 05       		.byte	0x5
 10512 01dd DE01     		.uleb128 0xde
 10513 01df 13380000 		.4byte	.LASF941
 10514 01e3 05       		.byte	0x5
 10515 01e4 DF01     		.uleb128 0xdf
 10516 01e6 FF580000 		.4byte	.LASF942
 10517 01ea 05       		.byte	0x5
 10518 01eb E001     		.uleb128 0xe0
 10519 01ed 4F270000 		.4byte	.LASF943
 10520 01f1 05       		.byte	0x5
 10521 01f2 E101     		.uleb128 0xe1
 10522 01f4 FC660000 		.4byte	.LASF874
 10523 01f8 05       		.byte	0x5
 10524 01f9 E301     		.uleb128 0xe3
 10525 01fb B1690000 		.4byte	.LASF944
 10526 01ff 05       		.byte	0x5
 10527 0200 E401     		.uleb128 0xe4
 10528 0202 C5150000 		.4byte	.LASF945
 10529 0206 05       		.byte	0x5
 10530 0207 E601     		.uleb128 0xe6
 10531 0209 7C290000 		.4byte	.LASF946
 10532 020d 05       		.byte	0x5
 10533 020e EB01     		.uleb128 0xeb
 10534 0210 584F0000 		.4byte	.LASF947
 10535 0214 05       		.byte	0x5
 10536 0215 EC01     		.uleb128 0xec
 10537 0217 AC1F0000 		.4byte	.LASF948
 10538 021b 00       		.byte	0
 10539              		.section	.debug_macro,"G",%progbits,wm4.ccand_11xx.h.33.638098819df345271d3dfae587baa456,comdat
 10540              	.Ldebug_macro25:
 10541 0000 0400     		.2byte	0x4
 10542 0002 00       		.byte	0
 10543 0003 05       		.byte	0x5
 10544 0004 21       		.uleb128 0x21
 10545 0005 7E000000 		.4byte	.LASF949
 10546 0009 05       		.byte	0x5
 10547 000a 2F       		.uleb128 0x2f
 10548 000b 242C0000 		.4byte	.LASF950
 10549 000f 05       		.byte	0x5
ARM GAS  /tmp/ccXTVNcx.s 			page 205


 10550 0010 30       		.uleb128 0x30
 10551 0011 56240000 		.4byte	.LASF951
 10552 0015 05       		.byte	0x5
 10553 0016 31       		.uleb128 0x31
 10554 0017 913F0000 		.4byte	.LASF952
 10555 001b 05       		.byte	0x5
 10556 001c 32       		.uleb128 0x32
 10557 001d A6760000 		.4byte	.LASF953
 10558 0021 05       		.byte	0x5
 10559 0022 33       		.uleb128 0x33
 10560 0023 2A180000 		.4byte	.LASF954
 10561 0027 05       		.byte	0x5
 10562 0028 34       		.uleb128 0x34
 10563 0029 A40E0000 		.4byte	.LASF955
 10564 002d 05       		.byte	0x5
 10565 002e 35       		.uleb128 0x35
 10566 002f 2F770000 		.4byte	.LASF956
 10567 0033 05       		.byte	0x5
 10568 0034 36       		.uleb128 0x36
 10569 0035 982D0000 		.4byte	.LASF957
 10570 0039 05       		.byte	0x5
 10571 003a 37       		.uleb128 0x37
 10572 003b 2D720000 		.4byte	.LASF958
 10573 003f 05       		.byte	0x5
 10574 0040 38       		.uleb128 0x38
 10575 0041 28440000 		.4byte	.LASF959
 10576 0045 05       		.byte	0x5
 10577 0046 3D       		.uleb128 0x3d
 10578 0047 E0190000 		.4byte	.LASF960
 10579 004b 05       		.byte	0x5
 10580 004c 3E       		.uleb128 0x3e
 10581 004d 29260000 		.4byte	.LASF961
 10582 0051 05       		.byte	0x5
 10583 0052 3F       		.uleb128 0x3f
 10584 0053 46650000 		.4byte	.LASF962
 10585 0057 05       		.byte	0x5
 10586 0058 40       		.uleb128 0x40
 10587 0059 5C770000 		.4byte	.LASF963
 10588 005d 05       		.byte	0x5
 10589 005e 4D       		.uleb128 0x4d
 10590 005f 67200000 		.4byte	.LASF964
 10591 0063 05       		.byte	0x5
 10592 0064 4E       		.uleb128 0x4e
 10593 0065 EA6D0000 		.4byte	.LASF965
 10594 0069 05       		.byte	0x5
 10595 006a 4F       		.uleb128 0x4f
 10596 006b 2E040000 		.4byte	.LASF966
 10597 006f 05       		.byte	0x5
 10598 0070 50       		.uleb128 0x50
 10599 0071 850C0000 		.4byte	.LASF967
 10600 0075 05       		.byte	0x5
 10601 0076 51       		.uleb128 0x51
 10602 0077 B6550000 		.4byte	.LASF968
 10603 007b 05       		.byte	0x5
 10604 007c 52       		.uleb128 0x52
 10605 007d 88250000 		.4byte	.LASF969
 10606 0081 05       		.byte	0x5
ARM GAS  /tmp/ccXTVNcx.s 			page 206


 10607 0082 53       		.uleb128 0x53
 10608 0083 80740000 		.4byte	.LASF970
 10609 0087 05       		.byte	0x5
 10610 0088 54       		.uleb128 0x54
 10611 0089 102A0000 		.4byte	.LASF971
 10612 008d 05       		.byte	0x5
 10613 008e 55       		.uleb128 0x55
 10614 008f 38550000 		.4byte	.LASF972
 10615 0093 05       		.byte	0x5
 10616 0094 56       		.uleb128 0x56
 10617 0095 25130000 		.4byte	.LASF973
 10618 0099 05       		.byte	0x5
 10619 009a 57       		.uleb128 0x57
 10620 009b 9B330000 		.4byte	.LASF974
 10621 009f 05       		.byte	0x5
 10622 00a0 58       		.uleb128 0x58
 10623 00a1 991E0000 		.4byte	.LASF975
 10624 00a5 05       		.byte	0x5
 10625 00a6 59       		.uleb128 0x59
 10626 00a7 26760000 		.4byte	.LASF976
 10627 00ab 05       		.byte	0x5
 10628 00ac 5A       		.uleb128 0x5a
 10629 00ad 04500000 		.4byte	.LASF977
 10630 00b1 05       		.byte	0x5
 10631 00b2 5B       		.uleb128 0x5b
 10632 00b3 45450000 		.4byte	.LASF978
 10633 00b7 05       		.byte	0x5
 10634 00b8 65       		.uleb128 0x65
 10635 00b9 285E0000 		.4byte	.LASF979
 10636 00bd 05       		.byte	0x5
 10637 00be 66       		.uleb128 0x66
 10638 00bf FB510000 		.4byte	.LASF980
 10639 00c3 05       		.byte	0x5
 10640 00c4 67       		.uleb128 0x67
 10641 00c5 D4210000 		.4byte	.LASF981
 10642 00c9 05       		.byte	0x5
 10643 00ca 68       		.uleb128 0x68
 10644 00cb E04C0000 		.4byte	.LASF982
 10645 00cf 05       		.byte	0x5
 10646 00d0 69       		.uleb128 0x69
 10647 00d1 78130000 		.4byte	.LASF983
 10648 00d5 05       		.byte	0x5
 10649 00d6 6A       		.uleb128 0x6a
 10650 00d7 3C390000 		.4byte	.LASF984
 10651 00db 05       		.byte	0x5
 10652 00dc 6B       		.uleb128 0x6b
 10653 00dd D5460000 		.4byte	.LASF985
 10654 00e1 05       		.byte	0x5
 10655 00e2 8001     		.uleb128 0x80
 10656 00e4 8E180000 		.4byte	.LASF986
 10657 00e8 05       		.byte	0x5
 10658 00e9 8101     		.uleb128 0x81
 10659 00eb 34630000 		.4byte	.LASF987
 10660 00ef 05       		.byte	0x5
 10661 00f0 8201     		.uleb128 0x82
 10662 00f2 4A0A0000 		.4byte	.LASF988
 10663 00f6 05       		.byte	0x5
ARM GAS  /tmp/ccXTVNcx.s 			page 207


 10664 00f7 8501     		.uleb128 0x85
 10665 00f9 3A430000 		.4byte	.LASF989
 10666 00fd 05       		.byte	0x5
 10667 00fe 8601     		.uleb128 0x86
 10668 0100 193D0000 		.4byte	.LASF990
 10669 0104 05       		.byte	0x5
 10670 0105 8701     		.uleb128 0x87
 10671 0107 72240000 		.4byte	.LASF991
 10672 010b 05       		.byte	0x5
 10673 010c A101     		.uleb128 0xa1
 10674 010e BE5B0000 		.4byte	.LASF992
 10675 0112 00       		.byte	0
 10676              		.section	.debug_line,"",%progbits
 10677              	.Ldebug_line0:
 10678 0000 5D060000 		.section	.debug_str,"MS",%progbits,1
 10678      0200BA02 
 10678      00000201 
 10678      FB0E0D00 
 10678      01010101 
 10679              	.LASF877:
 10680 0000 4932435F 		.ascii	"I2C_I2CONSET_STO ((0x10))\000"
 10680      4932434F 
 10680      4E534554 
 10680      5F53544F 
 10680      20282830 
 10681              	.LASF897:
 10682 001a 4932435F 		.ascii	"I2C_I2STAT_M_TX_SLAW_NACK ((0x20))\000"
 10682      49325354 
 10682      41545F4D 
 10682      5F54585F 
 10682      534C4157 
 10683              	.LASF158:
 10684 003d 5F5F4445 		.ascii	"__DECIMAL_DIG__ 17\000"
 10684      43494D41 
 10684      4C5F4449 
 10684      475F5F20 
 10684      313700
 10685              	.LASF925:
 10686 0050 4932435F 		.ascii	"I2C_I2MMCTRL_MM_ENA ((1 << 0))\000"
 10686      49324D4D 
 10686      4354524C 
 10686      5F4D4D5F 
 10686      454E4120 
 10687              	.LASF295:
 10688 006f 5F5F5548 		.ascii	"__UHA_FBIT__ 8\000"
 10688      415F4642 
 10688      49545F5F 
 10688      203800
 10689              	.LASF949:
 10690 007e 5F5F4343 		.ascii	"__CCAND_11XX_H_ \000"
 10690      414E445F 
 10690      31315858 
 10690      5F485F20 
 10690      00
 10691              	.LASF1076:
 10692 008f 53595343 		.ascii	"SYSCTL_CLOCK_SYS\000"
 10692      544C5F43 
ARM GAS  /tmp/ccXTVNcx.s 			page 208


 10692      4C4F434B 
 10692      5F535953 
 10692      00
 10693              	.LASF111:
 10694 00a0 5F5F494E 		.ascii	"__INT_FAST32_MAX__ 2147483647\000"
 10694      545F4641 
 10694      53543332 
 10694      5F4D4158 
 10694      5F5F2032 
 10695              	.LASF575:
 10696 00be 4C50435F 		.ascii	"LPC_IOCON_BASE 0x40044000\000"
 10696      494F434F 
 10696      4E5F4241 
 10696      53452030 
 10696      78343030 
 10697              	.LASF349:
 10698 00d8 5F535953 		.ascii	"_SYS_FEATURES_H \000"
 10698      5F464541 
 10698      54555245 
 10698      535F4820 
 10698      00
 10699              	.LASF311:
 10700 00e9 5F5F4743 		.ascii	"__GCC_ATOMIC_WCHAR_T_LOCK_FREE 1\000"
 10700      435F4154 
 10700      4F4D4943 
 10700      5F574348 
 10700      41525F54 
 10701              	.LASF1165:
 10702 010a 69734D61 		.ascii	"isMasterState\000"
 10702      73746572 
 10702      53746174 
 10702      6500
 10703              	.LASF940:
 10704 0118 4932435F 		.ascii	"I2C_BYTE_RECV 0x02\000"
 10704      42595445 
 10704      5F524543 
 10704      56203078 
 10704      303200
 10705              	.LASF813:
 10706 012b 57574454 		.ascii	"WWDT_WDMOD_WDEN ((uint32_t) (1 << 0))\000"
 10706      5F57444D 
 10706      4F445F57 
 10706      44454E20 
 10706      28287569 
 10707              	.LASF1078:
 10708 0151 53595343 		.ascii	"SYSCTL_CLOCK_RAM\000"
 10708      544C5F43 
 10708      4C4F434B 
 10708      5F52414D 
 10708      00
 10709              	.LASF187:
 10710 0162 5F5F5346 		.ascii	"__SFRACT_FBIT__ 7\000"
 10710      52414354 
 10710      5F464249 
 10710      545F5F20 
 10710      3700
 10711              	.LASF1011:
ARM GAS  /tmp/ccXTVNcx.s 			page 209


 10712 0174 73697A65 		.ascii	"sizetype\000"
 10712      74797065 
 10712      00
 10713              	.LASF72:
 10714 017d 5F5F4C4F 		.ascii	"__LONG_LONG_MAX__ 9223372036854775807LL\000"
 10714      4E475F4C 
 10714      4F4E475F 
 10714      4D41585F 
 10714      5F203932 
 10715              	.LASF563:
 10716 01a5 4C50435F 		.ascii	"LPC_WWDT_BASE 0x40004000\000"
 10716      57574454 
 10716      5F424153 
 10716      45203078 
 10716      34303030 
 10717              	.LASF1099:
 10718 01be 53434C48 		.ascii	"SCLH\000"
 10718      00
 10719              	.LASF1100:
 10720 01c3 53434C4C 		.ascii	"SCLL\000"
 10720      00
 10721              	.LASF610:
 10722 01c8 53595343 		.ascii	"SYSCTL_RST_POR (1 << 0)\000"
 10722      544C5F52 
 10722      53545F50 
 10722      4F522028 
 10722      31203C3C 
 10723              	.LASF184:
 10724 01e0 5F5F4445 		.ascii	"__DEC128_MAX__ 9.999999999999999999999999999999999E"
 10724      43313238 
 10724      5F4D4158 
 10724      5F5F2039 
 10724      2E393939 
 10725 0213 36313434 		.ascii	"6144DL\000"
 10725      444C00
 10726              	.LASF901:
 10727 021a 4932435F 		.ascii	"I2C_I2STAT_M_RX_START ((0x08))\000"
 10727      49325354 
 10727      41545F4D 
 10727      5F52585F 
 10727      53544152 
 10728              	.LASF1154:
 10729 0239 67657443 		.ascii	"getCurState\000"
 10729      75725374 
 10729      61746500 
 10730              	.LASF503:
 10731 0245 5343425F 		.ascii	"SCB_ICSR_PENDSTCLR_Msk (1UL << SCB_ICSR_PENDSTCLR_P"
 10731      49435352 
 10731      5F50454E 
 10731      44535443 
 10731      4C525F4D 
 10732 0278 6F732900 		.ascii	"os)\000"
 10733              	.LASF245:
 10734 027c 5F5F5541 		.ascii	"__UACCUM_MAX__ 0XFFFFFFFFP-16UK\000"
 10734      4343554D 
 10734      5F4D4158 
 10734      5F5F2030 
ARM GAS  /tmp/ccXTVNcx.s 			page 210


 10734      58464646 
 10735              	.LASF172:
 10736 029c 5F5F4445 		.ascii	"__DEC32_SUBNORMAL_MIN__ 0.000001E-95DF\000"
 10736      4333325F 
 10736      5355424E 
 10736      4F524D41 
 10736      4C5F4D49 
 10737              	.LASF276:
 10738 02c3 5F5F5451 		.ascii	"__TQ_IBIT__ 0\000"
 10738      5F494249 
 10738      545F5F20 
 10738      3000
 10739              	.LASF430:
 10740 02d1 57494E54 		.ascii	"WINT_MIN __WINT_MIN__\000"
 10740      5F4D494E 
 10740      205F5F57 
 10740      494E545F 
 10740      4D494E5F 
 10741              	.LASF746:
 10742 02e7 55415254 		.ascii	"UART_LCR_BREAK_EN (1 << 6)\000"
 10742      5F4C4352 
 10742      5F425245 
 10742      414B5F45 
 10742      4E202831 
 10743              	.LASF521:
 10744 0302 5343425F 		.ascii	"SCB_AIRCR_VECTCLRACTIVE_Msk (1UL << SCB_AIRCR_VECTC"
 10744      41495243 
 10744      525F5645 
 10744      4354434C 
 10744      52414354 
 10745 0335 4C524143 		.ascii	"LRACTIVE_Pos)\000"
 10745      54495645 
 10745      5F506F73 
 10745      2900
 10746              	.LASF1162:
 10747 0343 73746172 		.ascii	"startMasterXfer\000"
 10747      744D6173 
 10747      74657258 
 10747      66657200 
 10748              	.LASF11:
 10749 0353 5F5F4154 		.ascii	"__ATOMIC_CONSUME 1\000"
 10749      4F4D4943 
 10749      5F434F4E 
 10749      53554D45 
 10749      203100
 10750              	.LASF209:
 10751 0366 5F5F4C46 		.ascii	"__LFRACT_MIN__ (-0.5LR-0.5LR)\000"
 10751      52414354 
 10751      5F4D494E 
 10751      5F5F2028 
 10751      2D302E35 
 10752              	.LASF489:
 10753 0384 5343425F 		.ascii	"SCB_CPUID_ARCHITECTURE_Msk (0xFUL << SCB_CPUID_ARCH"
 10753      43505549 
 10753      445F4152 
 10753      43484954 
 10753      45435455 
ARM GAS  /tmp/ccXTVNcx.s 			page 211


 10754 03b7 49544543 		.ascii	"ITECTURE_Pos)\000"
 10754      54555245 
 10754      5F506F73 
 10754      2900
 10755              	.LASF239:
 10756 03c5 5F5F4143 		.ascii	"__ACCUM_MIN__ (-0X1P15K-0X1P15K)\000"
 10756      43554D5F 
 10756      4D494E5F 
 10756      5F20282D 
 10756      30583150 
 10757              	.LASF768:
 10758 03e6 55415254 		.ascii	"UART_MSR_LO2HI_RI (1 << 2)\000"
 10758      5F4D5352 
 10758      5F4C4F32 
 10758      48495F52 
 10758      49202831 
 10759              	.LASF753:
 10760 0401 55415254 		.ascii	"UART_MCR_AUTO_CTS_EN (1 << 7)\000"
 10760      5F4D4352 
 10760      5F415554 
 10760      4F5F4354 
 10760      535F454E 
 10761              	.LASF139:
 10762 041f 5F5F4442 		.ascii	"__DBL_DIG__ 15\000"
 10762      4C5F4449 
 10762      475F5F20 
 10762      313500
 10763              	.LASF966:
 10764 042e 53444F5F 		.ascii	"SDO_ABORT_UNKNOWN_COMMAND 0x05040001UL\000"
 10764      41424F52 
 10764      545F554E 
 10764      4B4E4F57 
 10764      4E5F434F 
 10765              	.LASF506:
 10766 0455 5343425F 		.ascii	"SCB_ICSR_ISRPENDING_Pos 22\000"
 10766      49435352 
 10766      5F495352 
 10766      50454E44 
 10766      494E475F 
 10767              	.LASF402:
 10768 0470 494E5436 		.ascii	"INT64_MAX __INT64_MAX__\000"
 10768      345F4D41 
 10768      58205F5F 
 10768      494E5436 
 10768      345F4D41 
 10769              	.LASF16:
 10770 0488 5F5F5349 		.ascii	"__SIZEOF_LONG_LONG__ 8\000"
 10770      5A454F46 
 10770      5F4C4F4E 
 10770      475F4C4F 
 10770      4E475F5F 
 10771              	.LASF143:
 10772 049f 5F5F4442 		.ascii	"__DBL_MAX_10_EXP__ 308\000"
 10772      4C5F4D41 
 10772      585F3130 
 10772      5F455850 
 10772      5F5F2033 
ARM GAS  /tmp/ccXTVNcx.s 			page 212


 10773              	.LASF780:
 10774 04b6 55415254 		.ascii	"UART_ACR_BITMASK (0x307)\000"
 10774      5F414352 
 10774      5F424954 
 10774      4D41534B 
 10774      20283078 
 10775              	.LASF749:
 10776 04cf 55415254 		.ascii	"UART_MCR_DTR_CTRL (1 << 0)\000"
 10776      5F4D4352 
 10776      5F445452 
 10776      5F435452 
 10776      4C202831 
 10777              	.LASF199:
 10778 04ea 5F5F4652 		.ascii	"__FRACT_MIN__ (-0.5R-0.5R)\000"
 10778      4143545F 
 10778      4D494E5F 
 10778      5F20282D 
 10778      302E3552 
 10779              	.LASF265:
 10780 0505 5F5F554C 		.ascii	"__ULLACCUM_MAX__ 0XFFFFFFFFFFFFFFFFP-32ULLK\000"
 10780      4C414343 
 10780      554D5F4D 
 10780      41585F5F 
 10780      20305846 
 10781              	.LASF537:
 10782 0531 53797354 		.ascii	"SysTick_CTRL_CLKSOURCE_Msk (1UL << SysTick_CTRL_CLK"
 10782      69636B5F 
 10782      4354524C 
 10782      5F434C4B 
 10782      534F5552 
 10783 0564 534F5552 		.ascii	"SOURCE_Pos)\000"
 10783      43455F50 
 10783      6F732900 
 10784              	.LASF235:
 10785 0570 5F5F5553 		.ascii	"__USACCUM_MAX__ 0XFFFFP-8UHK\000"
 10785      41434355 
 10785      4D5F4D41 
 10785      585F5F20 
 10785      30584646 
 10786              	.LASF169:
 10787 058d 5F5F4445 		.ascii	"__DEC32_MIN__ 1E-95DF\000"
 10787      4333325F 
 10787      4D494E5F 
 10787      5F203145 
 10787      2D393544 
 10788              	.LASF336:
 10789 05a3 5F5F4152 		.ascii	"__ARM_NEON_FP 4\000"
 10789      4D5F4E45 
 10789      4F4E5F46 
 10789      50203400 
 10790              	.LASF568:
 10791 05b3 4C50435F 		.ascii	"LPC_TIMER32_1_BASE 0x40018000\000"
 10791      54494D45 
 10791      5233325F 
 10791      315F4241 
 10791      53452030 
 10792              	.LASF272:
ARM GAS  /tmp/ccXTVNcx.s 			page 213


 10793 05d1 5F5F5351 		.ascii	"__SQ_IBIT__ 0\000"
 10793      5F494249 
 10793      545F5F20 
 10793      3000
 10794              	.LASF26:
 10795 05df 5F5F4F52 		.ascii	"__ORDER_PDP_ENDIAN__ 3412\000"
 10795      4445525F 
 10795      5044505F 
 10795      454E4449 
 10795      414E5F5F 
 10796              	.LASF1095:
 10797 05f9 43484950 		.ascii	"CHIP_SYSCTL_CLOCK_T\000"
 10797      5F535953 
 10797      43544C5F 
 10797      434C4F43 
 10797      4B5F5400 
 10798              	.LASF175:
 10799 060d 5F5F4445 		.ascii	"__DEC64_MAX_EXP__ 385\000"
 10799      4336345F 
 10799      4D41585F 
 10799      4558505F 
 10799      5F203338 
 10800              	.LASF1054:
 10801 0623 424F4443 		.ascii	"BODCTRL\000"
 10801      54524C00 
 10802              	.LASF531:
 10803 062b 5343425F 		.ascii	"SCB_CCR_UNALIGN_TRP_Msk (1UL << SCB_CCR_UNALIGN_TRP"
 10803      4343525F 
 10803      554E414C 
 10803      49474E5F 
 10803      5452505F 
 10804 065e 5F506F73 		.ascii	"_Pos)\000"
 10804      2900
 10805              	.LASF135:
 10806 0664 5F5F464C 		.ascii	"__FLT_HAS_DENORM__ 1\000"
 10806      545F4841 
 10806      535F4445 
 10806      4E4F524D 
 10806      5F5F2031 
 10807              	.LASF39:
 10808 0679 5F5F494E 		.ascii	"__INT8_TYPE__ signed char\000"
 10808      54385F54 
 10808      5950455F 
 10808      5F207369 
 10808      676E6564 
 10809              	.LASF325:
 10810 0693 5F5F4152 		.ascii	"__ARM_ARCH_PROFILE 77\000"
 10810      4D5F4152 
 10810      43485F50 
 10810      524F4649 
 10810      4C452037 
 10811              	.LASF803:
 10812 06a9 55415254 		.ascii	"UART_TER2_TXEN (1 << 0)\000"
 10812      5F544552 
 10812      325F5458 
 10812      454E2028 
 10812      31203C3C 
ARM GAS  /tmp/ccXTVNcx.s 			page 214


 10813              	.LASF1084:
 10814 06c1 53595343 		.ascii	"SYSCTL_CLOCK_CT16B1\000"
 10814      544C5F43 
 10814      4C4F434B 
 10814      5F435431 
 10814      36423100 
 10815              	.LASF820:
 10816 06d5 5353505F 		.ascii	"SSP_CR0_FRF_SPI ((uint32_t) (0 << 4))\000"
 10816      4352305F 
 10816      4652465F 
 10816      53504920 
 10816      28287569 
 10817              	.LASF763:
 10818 06fb 55415254 		.ascii	"UART_LSR_TXFE (1 << 8)\000"
 10818      5F4C5352 
 10818      5F545846 
 10818      45202831 
 10818      203C3C20 
 10819              	.LASF154:
 10820 0712 5F5F4C44 		.ascii	"__LDBL_MIN_EXP__ (-1021)\000"
 10820      424C5F4D 
 10820      494E5F45 
 10820      58505F5F 
 10820      20282D31 
 10821              	.LASF152:
 10822 072b 5F5F4C44 		.ascii	"__LDBL_MANT_DIG__ 53\000"
 10822      424C5F4D 
 10822      414E545F 
 10822      4449475F 
 10822      5F203533 
 10823              	.LASF838:
 10824 0740 5353505F 		.ascii	"SSP_ICR_BITMASK ((uint32_t) (0x03))\000"
 10824      4943525F 
 10824      4249544D 
 10824      41534B20 
 10824      28287569 
 10825              	.LASF611:
 10826 0764 53595343 		.ascii	"SYSCTL_RST_EXTRST (1 << 1)\000"
 10826      544C5F52 
 10826      53545F45 
 10826      58545253 
 10826      54202831 
 10827              	.LASF102:
 10828 077f 5F5F5549 		.ascii	"__UINT8_C(c) c\000"
 10828      4E54385F 
 10828      43286329 
 10828      206300
 10829              	.LASF40:
 10830 078e 5F5F494E 		.ascii	"__INT16_TYPE__ short int\000"
 10830      5431365F 
 10830      54595045 
 10830      5F5F2073 
 10830      686F7274 
 10831              	.LASF652:
 10832 07a7 494F434F 		.ascii	"IOCON_DIGMODE_EN (0x1 << 7)\000"
 10832      4E5F4449 
 10832      474D4F44 
ARM GAS  /tmp/ccXTVNcx.s 			page 215


 10832      455F454E 
 10832      20283078 
 10833              	.LASF1144:
 10834 07c3 6D586665 		.ascii	"mXfer\000"
 10834      7200
 10835              	.LASF847:
 10836 07c9 434F4D50 		.ascii	"COMPILE_TIME_ASSERT(pred) switch(0){case 0:case pre"
 10836      494C455F 
 10836      54494D45 
 10836      5F415353 
 10836      45525428 
 10837 07fc 643A3B7D 		.ascii	"d:;}\000"
 10837      00
 10838              	.LASF447:
 10839 0801 50415241 		.ascii	"PARAM_SETSTATE(State) ((State == RESET) || (State ="
 10839      4D5F5345 
 10839      54535441 
 10839      54452853 
 10839      74617465 
 10840 0834 3D205345 		.ascii	"= SET))\000"
 10840      54292900 
 10841              	.LASF250:
 10842 083c 5F5F4C41 		.ascii	"__LACCUM_MAX__ 0X7FFFFFFFFFFFFFFFP-31LK\000"
 10842      4343554D 
 10842      5F4D4158 
 10842      5F5F2030 
 10842      58374646 
 10843              	.LASF567:
 10844 0864 4C50435F 		.ascii	"LPC_TIMER32_0_BASE 0x40014000\000"
 10844      54494D45 
 10844      5233325F 
 10844      305F4241 
 10844      53452030 
 10845              	.LASF1143:
 10846 0882 73457665 		.ascii	"sEvent\000"
 10846      6E7400
 10847              	.LASF448:
 10848 0889 50415241 		.ascii	"PARAM_FUNCTIONALSTATE(State) ((State == DISABLE) ||"
 10848      4D5F4655 
 10848      4E435449 
 10848      4F4E414C 
 10848      53544154 
 10849 08bc 20285374 		.ascii	" (State == ENABLE))\000"
 10849      61746520 
 10849      3D3D2045 
 10849      4E41424C 
 10849      45292900 
 10850              	.LASF681:
 10851 08d0 54494D45 		.ascii	"TIMER_IR_CLR(n) _BIT(n)\000"
 10851      525F4952 
 10851      5F434C52 
 10851      286E2920 
 10851      5F424954 
 10852              	.LASF824:
 10853 08e8 5353505F 		.ascii	"SSP_CR0_CPOL_HI ((uint32_t) (1 << 6))\000"
 10853      4352305F 
 10853      43504F4C 
ARM GAS  /tmp/ccXTVNcx.s 			page 216


 10853      5F484920 
 10853      28287569 
 10854              	.LASF1109:
 10855 090e 4932435F 		.ascii	"I2C_SLAVE_GENERAL\000"
 10855      534C4156 
 10855      455F4745 
 10855      4E455241 
 10855      4C00
 10856              	.LASF638:
 10857 0920 494F434F 		.ascii	"IOCON_FUNC1 0x1\000"
 10857      4E5F4655 
 10857      4E433120 
 10857      30783100 
 10858              	.LASF713:
 10859 0930 55415254 		.ascii	"UART_IIR_ABEO_INT (1 << 8)\000"
 10859      5F494952 
 10859      5F414245 
 10859      4F5F494E 
 10859      54202831 
 10860              	.LASF801:
 10861 094b 55415254 		.ascii	"UART_FDR_BITMASK (0xFF)\000"
 10861      5F464452 
 10861      5F424954 
 10861      4D41534B 
 10861      20283078 
 10862              	.LASF1:
 10863 0963 5F5F5354 		.ascii	"__STDC_HOSTED__ 1\000"
 10863      44435F48 
 10863      4F535445 
 10863      445F5F20 
 10863      3100
 10864              	.LASF222:
 10865 0975 5F5F554C 		.ascii	"__ULLFRACT_FBIT__ 64\000"
 10865      4C465241 
 10865      43545F46 
 10865      4249545F 
 10865      5F203634 
 10866              	.LASF710:
 10867 098a 55415254 		.ascii	"UART2_IER_BITMASK (0x38F)\000"
 10867      325F4945 
 10867      525F4249 
 10867      544D4153 
 10867      4B202830 
 10868              	.LASF1042:
 10869 09a4 55534243 		.ascii	"USBCLKDIV\000"
 10869      4C4B4449 
 10869      5600
 10870              	.LASF58:
 10871 09ae 5F5F494E 		.ascii	"__INT_FAST64_TYPE__ long long int\000"
 10871      545F4641 
 10871      53543634 
 10871      5F545950 
 10871      455F5F20 
 10872              	.LASF1185:
 10873 09d0 43686970 		.ascii	"Chip_I2C_GetMasterEventHandler\000"
 10873      5F493243 
 10873      5F476574 
ARM GAS  /tmp/ccXTVNcx.s 			page 217


 10873      4D617374 
 10873      65724576 
 10874              	.LASF500:
 10875 09ef 5343425F 		.ascii	"SCB_ICSR_PENDSTSET_Pos 26\000"
 10875      49435352 
 10875      5F50454E 
 10875      44535453 
 10875      45545F50 
 10876              	.LASF720:
 10877 0a09 55415254 		.ascii	"UART_IIR_INTID_THRE (1 << 1)\000"
 10877      5F494952 
 10877      5F494E54 
 10877      49445F54 
 10877      48524520 
 10878              	.LASF631:
 10879 0a26 53595343 		.ascii	"SYSCTL_POWERDOWN_SYSOSC_PD (1 << 5)\000"
 10879      544C5F50 
 10879      4F574552 
 10879      444F574E 
 10879      5F535953 
 10880              	.LASF988:
 10881 0a4a 43414E5F 		.ascii	"CAN_SDOREQ_HANDLED_NOSEND 2\000"
 10881      53444F52 
 10881      45515F48 
 10881      414E444C 
 10881      45445F4E 
 10882              	.LASF579:
 10883 0a66 4C50435F 		.ascii	"LPC_SSP1_BASE 0x40058000\000"
 10883      53535031 
 10883      5F424153 
 10883      45203078 
 10883      34303035 
 10884              	.LASF876:
 10885 0a7f 4932435F 		.ascii	"I2C_I2CONSET_SI ((0x08))\000"
 10885      4932434F 
 10885      4E534554 
 10885      5F534920 
 10885      28283078 
 10886              	.LASF754:
 10887 0a98 55415254 		.ascii	"UART_MCR_BITMASK (0xD3)\000"
 10887      5F4D4352 
 10887      5F424954 
 10887      4D41534B 
 10887      20283078 
 10888              	.LASF92:
 10889 0ab0 5F5F5549 		.ascii	"__UINT64_MAX__ 18446744073709551615ULL\000"
 10889      4E543634 
 10889      5F4D4158 
 10889      5F5F2031 
 10889      38343436 
 10890              	.LASF195:
 10891 0ad7 5F5F5553 		.ascii	"__USFRACT_MAX__ 0XFFP-8UHR\000"
 10891      46524143 
 10891      545F4D41 
 10891      585F5F20 
 10891      30584646 
 10892              	.LASF536:
ARM GAS  /tmp/ccXTVNcx.s 			page 218


 10893 0af2 53797354 		.ascii	"SysTick_CTRL_CLKSOURCE_Pos 2\000"
 10893      69636B5F 
 10893      4354524C 
 10893      5F434C4B 
 10893      534F5552 
 10894              	.LASF658:
 10895 0b0f 4D445F50 		.ascii	"MD_PLN (0x0 << 3)\000"
 10895      4C4E2028 
 10895      30783020 
 10895      3C3C2033 
 10895      2900
 10896              	.LASF1177:
 10897 0b21 43686970 		.ascii	"Chip_I2C_EventHandler\000"
 10897      5F493243 
 10897      5F457665 
 10897      6E744861 
 10897      6E646C65 
 10898              	.LASF721:
 10899 0b37 55415254 		.ascii	"UART_IIR_INTID_MODEM (0 << 1)\000"
 10899      5F494952 
 10899      5F494E54 
 10899      49445F4D 
 10899      4F44454D 
 10900              	.LASF1097:
 10901 0b55 53544154 		.ascii	"STAT\000"
 10901      00
 10902              	.LASF514:
 10903 0b5a 5343425F 		.ascii	"SCB_AIRCR_VECTKEYSTAT_Pos 16\000"
 10903      41495243 
 10903      525F5645 
 10903      43544B45 
 10903      59535441 
 10904              	.LASF728:
 10905 0b77 55415254 		.ascii	"UART_FCR_TRG_LEV0 (0)\000"
 10905      5F464352 
 10905      5F545247 
 10905      5F4C4556 
 10905      30202830 
 10906              	.LASF881:
 10907 0b8d 4932435F 		.ascii	"I2C_I2CONCLR_SIC ((1 << 3))\000"
 10907      4932434F 
 10907      4E434C52 
 10907      5F534943 
 10907      20282831 
 10908              	.LASF397:
 10909 0ba9 55494E54 		.ascii	"UINT32_MAX __UINT32_MAX__\000"
 10909      33325F4D 
 10909      4158205F 
 10909      5F55494E 
 10909      5433325F 
 10910              	.LASF1172:
 10911 0bc3 73746174 		.ascii	"stat\000"
 10911      00
 10912              	.LASF887:
 10913 0bc8 4932435F 		.ascii	"I2C_CON_STO (1UL << 4)\000"
 10913      434F4E5F 
 10913      53544F20 
ARM GAS  /tmp/ccXTVNcx.s 			page 219


 10913      2831554C 
 10913      203C3C20 
 10914              	.LASF883:
 10915 0bdf 4932435F 		.ascii	"I2C_I2CONCLR_STAC ((1 << 5))\000"
 10915      4932434F 
 10915      4E434C52 
 10915      5F535441 
 10915      43202828 
 10916              	.LASF873:
 10917 0bfc 5245545F 		.ascii	"RET_SLAVE_BUSY 0\000"
 10917      534C4156 
 10917      455F4255 
 10917      53592030 
 10917      00
 10918              	.LASF212:
 10919 0c0d 5F5F554C 		.ascii	"__ULFRACT_FBIT__ 32\000"
 10919      46524143 
 10919      545F4642 
 10919      49545F5F 
 10919      20333200 
 10920              	.LASF913:
 10921 0c21 4932435F 		.ascii	"I2C_I2STAT_S_RX_PRE_SLA_DAT_NACK ((0x88))\000"
 10921      49325354 
 10921      41545F53 
 10921      5F52585F 
 10921      5052455F 
 10922              	.LASF906:
 10923 0c4b 4932435F 		.ascii	"I2C_I2STAT_M_RX_DAT_ACK ((0x50))\000"
 10923      49325354 
 10923      41545F4D 
 10923      5F52585F 
 10923      4441545F 
 10924              	.LASF378:
 10925 0c6c 5F5F696E 		.ascii	"__int_fast32_t_defined 1\000"
 10925      745F6661 
 10925      73743332 
 10925      5F745F64 
 10925      6566696E 
 10926              	.LASF967:
 10927 0c85 53444F5F 		.ascii	"SDO_ABORT_UNSUPPORTED 0x06010000UL\000"
 10927      41424F52 
 10927      545F554E 
 10927      53555050 
 10927      4F525445 
 10928              	.LASF405:
 10929 0ca8 494E545F 		.ascii	"INT_LEAST64_MAX __INT_LEAST64_MAX__\000"
 10929      4C454153 
 10929      5436345F 
 10929      4D415820 
 10929      5F5F494E 
 10930              	.LASF764:
 10931 0ccc 55415254 		.ascii	"UART_LSR_BITMASK (0xFF)\000"
 10931      5F4C5352 
 10931      5F424954 
 10931      4D41534B 
 10931      20283078 
 10932              	.LASF433:
ARM GAS  /tmp/ccXTVNcx.s 			page 220


 10933 0ce4 494E5431 		.ascii	"INT16_C(x) __INT16_C(x)\000"
 10933      365F4328 
 10933      7829205F 
 10933      5F494E54 
 10933      31365F43 
 10934              	.LASF917:
 10935 0cfc 4932435F 		.ascii	"I2C_I2STAT_S_TX_SLAR_ACK ((0xA8))\000"
 10935      49325354 
 10935      41545F53 
 10935      5F54585F 
 10935      534C4152 
 10936              	.LASF191:
 10937 0d1e 5F5F5346 		.ascii	"__SFRACT_EPSILON__ 0x1P-7HR\000"
 10937      52414354 
 10937      5F455053 
 10937      494C4F4E 
 10937      5F5F2030 
 10938              	.LASF1114:
 10939 0d3a 4932435F 		.ascii	"I2C_SLAVE_NUM_INTERFACE\000"
 10939      534C4156 
 10939      455F4E55 
 10939      4D5F494E 
 10939      54455246 
 10940              	.LASF281:
 10941 0d52 5F5F5553 		.ascii	"__USQ_FBIT__ 32\000"
 10941      515F4642 
 10941      49545F5F 
 10941      20333200 
 10942              	.LASF25:
 10943 0d62 5F5F4F52 		.ascii	"__ORDER_BIG_ENDIAN__ 4321\000"
 10943      4445525F 
 10943      4249475F 
 10943      454E4449 
 10943      414E5F5F 
 10944              	.LASF1085:
 10945 0d7c 53595343 		.ascii	"SYSCTL_CLOCK_CT32B0\000"
 10945      544C5F43 
 10945      4C4F434B 
 10945      5F435433 
 10945      32423000 
 10946              	.LASF1086:
 10947 0d90 53595343 		.ascii	"SYSCTL_CLOCK_CT32B1\000"
 10947      544C5F43 
 10947      4C4F434B 
 10947      5F435433 
 10947      32423100 
 10948              	.LASF271:
 10949 0da4 5F5F5351 		.ascii	"__SQ_FBIT__ 31\000"
 10949      5F464249 
 10949      545F5F20 
 10949      333100
 10950              	.LASF870:
 10951 0db3 5245545F 		.ascii	"RET_SLAVE_TX 6\000"
 10951      534C4156 
 10951      455F5458 
 10951      203600
 10952              	.LASF301:
ARM GAS  /tmp/ccXTVNcx.s 			page 221


 10953 0dc2 5F5F5554 		.ascii	"__UTA_FBIT__ 64\000"
 10953      415F4642 
 10953      49545F5F 
 10953      20363400 
 10954              	.LASF138:
 10955 0dd2 5F5F4442 		.ascii	"__DBL_MANT_DIG__ 53\000"
 10955      4C5F4D41 
 10955      4E545F44 
 10955      49475F5F 
 10955      20353300 
 10956              	.LASF727:
 10957 0de6 55415254 		.ascii	"UART_TX_FIFO_SIZE (16)\000"
 10957      5F54585F 
 10957      4649464F 
 10957      5F53495A 
 10957      45202831 
 10958              	.LASF279:
 10959 0dfd 5F5F5548 		.ascii	"__UHQ_FBIT__ 16\000"
 10959      515F4642 
 10959      49545F5F 
 10959      20313600 
 10960              	.LASF782:
 10961 0e0d 55415254 		.ascii	"UART_RS485CTRL_RX_DIS (1 << 1)\000"
 10961      5F525334 
 10961      38354354 
 10961      524C5F52 
 10961      585F4449 
 10962              	.LASF879:
 10963 0e2c 4932435F 		.ascii	"I2C_I2CONSET_I2EN ((0x40))\000"
 10963      4932434F 
 10963      4E534554 
 10963      5F493245 
 10963      4E202828 
 10964              	.LASF548:
 10965 0e47 53797354 		.ascii	"SysTick_CALIB_SKEW_Pos 30\000"
 10965      69636B5F 
 10965      43414C49 
 10965      425F534B 
 10965      45575F50 
 10966              	.LASF792:
 10967 0e61 55415254 		.ascii	"UART_ICR_BITMASK (0x3F)\000"
 10967      5F494352 
 10967      5F424954 
 10967      4D41534B 
 10967      20283078 
 10968              	.LASF68:
 10969 0e79 5F5F5343 		.ascii	"__SCHAR_MAX__ 127\000"
 10969      4841525F 
 10969      4D41585F 
 10969      5F203132 
 10969      3700
 10970              	.LASF171:
 10971 0e8b 5F5F4445 		.ascii	"__DEC32_EPSILON__ 1E-6DF\000"
 10971      4333325F 
 10971      45505349 
 10971      4C4F4E5F 
 10971      5F203145 
ARM GAS  /tmp/ccXTVNcx.s 			page 222


 10972              	.LASF955:
 10973 0ea4 43414E5F 		.ascii	"CAN_ERROR_FORM 0x00000010UL\000"
 10973      4552524F 
 10973      525F464F 
 10973      524D2030 
 10973      78303030 
 10974              	.LASF1091:
 10975 0ec0 53595343 		.ascii	"SYSCTL_CLOCK_WDT\000"
 10975      544C5F43 
 10975      4C4F434B 
 10975      5F574454 
 10975      00
 10976              	.LASF529:
 10977 0ed1 5343425F 		.ascii	"SCB_CCR_STKALIGN_Msk (1UL << SCB_CCR_STKALIGN_Pos)\000"
 10977      4343525F 
 10977      53544B41 
 10977      4C49474E 
 10977      5F4D736B 
 10978              	.LASF474:
 10979 0f04 5F5F4153 		.ascii	"__ASM __asm\000"
 10979      4D205F5F 
 10979      61736D00 
 10980              	.LASF1001:
 10981 0f10 5F5F7569 		.ascii	"__uint8_t\000"
 10981      6E74385F 
 10981      7400
 10982              	.LASF802:
 10983 0f1a 55415254 		.ascii	"UART_TER1_TXEN (1 << 7)\000"
 10983      5F544552 
 10983      315F5458 
 10983      454E2028 
 10983      31203C3C 
 10984              	.LASF621:
 10985 0f32 53595343 		.ascii	"SYSCTL_SLPWAKE_BOD_PD (1 << 3)\000"
 10985      544C5F53 
 10985      4C505741 
 10985      4B455F42 
 10985      4F445F50 
 10986              	.LASF86:
 10987 0f51 5F5F494E 		.ascii	"__INT16_MAX__ 32767\000"
 10987      5431365F 
 10987      4D41585F 
 10987      5F203332 
 10987      37363700 
 10988              	.LASF1075:
 10989 0f65 4C50435F 		.ascii	"LPC_SYSCTL_T\000"
 10989      53595343 
 10989      544C5F54 
 10989      00
 10990              	.LASF684:
 10991 0f72 54494D45 		.ascii	"TIMER_ENABLE ((uint32_t) (1 << 0))\000"
 10991      525F454E 
 10991      41424C45 
 10991      20282875 
 10991      696E7433 
 10992              	.LASF334:
 10993 0f95 5F5F5646 		.ascii	"__VFP_FP__ 1\000"
ARM GAS  /tmp/ccXTVNcx.s 			page 223


 10993      505F4650 
 10993      5F5F2031 
 10993      00
 10994              	.LASF912:
 10995 0fa2 4932435F 		.ascii	"I2C_I2STAT_S_RX_PRE_SLA_DAT_ACK ((0x80))\000"
 10995      49325354 
 10995      41545F53 
 10995      5F52585F 
 10995      5052455F 
 10996              	.LASF630:
 10997 0fcb 53595343 		.ascii	"SYSCTL_POWERDOWN_ADC_PD (1 << 4)\000"
 10997      544C5F50 
 10997      4F574552 
 10997      444F574E 
 10997      5F414443 
 10998              	.LASF653:
 10999 0fec 494F434F 		.ascii	"IOCON_SFI2C_EN (0x0 << 8)\000"
 10999      4E5F5346 
 10999      4932435F 
 10999      454E2028 
 10999      30783020 
 11000              	.LASF79:
 11001 1006 5F5F494E 		.ascii	"__INTMAX_MAX__ 9223372036854775807LL\000"
 11001      544D4158 
 11001      5F4D4158 
 11001      5F5F2039 
 11001      32323333 
 11002              	.LASF811:
 11003 102b 5F5F5757 		.ascii	"__WWDT_11XX_H_ \000"
 11003      44545F31 
 11003      3158585F 
 11003      485F2000 
 11004              	.LASF907:
 11005 103b 4932435F 		.ascii	"I2C_I2STAT_M_RX_DAT_NACK ((0x58))\000"
 11005      49325354 
 11005      41545F4D 
 11005      5F52585F 
 11005      4441545F 
 11006              	.LASF1110:
 11007 105d 4932435F 		.ascii	"I2C_SLAVE_0\000"
 11007      534C4156 
 11007      455F3000 
 11008              	.LASF1111:
 11009 1069 4932435F 		.ascii	"I2C_SLAVE_1\000"
 11009      534C4156 
 11009      455F3100 
 11010              	.LASF1112:
 11011 1075 4932435F 		.ascii	"I2C_SLAVE_2\000"
 11011      534C4156 
 11011      455F3200 
 11012              	.LASF1113:
 11013 1081 4932435F 		.ascii	"I2C_SLAVE_3\000"
 11013      534C4156 
 11013      455F3300 
 11014              	.LASF729:
 11015 108d 55415254 		.ascii	"UART_FCR_TRG_LEV1 (1 << 6)\000"
 11015      5F464352 
ARM GAS  /tmp/ccXTVNcx.s 			page 224


 11015      5F545247 
 11015      5F4C4556 
 11015      31202831 
 11016              	.LASF752:
 11017 10a8 55415254 		.ascii	"UART_MCR_AUTO_RTS_EN (1 << 6)\000"
 11017      5F4D4352 
 11017      5F415554 
 11017      4F5F5254 
 11017      535F454E 
 11018              	.LASF1059:
 11019 10c6 50494E54 		.ascii	"PINTSEL\000"
 11019      53454C00 
 11020              	.LASF120:
 11021 10ce 5F5F4743 		.ascii	"__GCC_IEC_559_COMPLEX 0\000"
 11021      435F4945 
 11021      435F3535 
 11021      395F434F 
 11021      4D504C45 
 11022              	.LASF170:
 11023 10e6 5F5F4445 		.ascii	"__DEC32_MAX__ 9.999999E96DF\000"
 11023      4333325F 
 11023      4D41585F 
 11023      5F20392E 
 11023      39393939 
 11024              	.LASF165:
 11025 1102 5F5F4C44 		.ascii	"__LDBL_HAS_QUIET_NAN__ 1\000"
 11025      424C5F48 
 11025      41535F51 
 11025      55494554 
 11025      5F4E414E 
 11026              	.LASF828:
 11027 111b 5353505F 		.ascii	"SSP_CR0_BITMASK ((uint32_t) (0xFFFF))\000"
 11027      4352305F 
 11027      4249544D 
 11027      41534B20 
 11027      28287569 
 11028              	.LASF831:
 11029 1141 5353505F 		.ascii	"SSP_CR1_SLAVE_EN ((uint32_t) (1 << 2))\000"
 11029      4352315F 
 11029      534C4156 
 11029      455F454E 
 11029      20282875 
 11030              	.LASF428:
 11031 1168 57434841 		.ascii	"WCHAR_MAX __WCHAR_MAX__\000"
 11031      525F4D41 
 11031      58205F5F 
 11031      57434841 
 11031      525F4D41 
 11032              	.LASF644:
 11033 1180 494F434F 		.ascii	"IOCON_FUNC7 0x7\000"
 11033      4E5F4655 
 11033      4E433720 
 11033      30783700 
 11034              	.LASF412:
 11035 1190 55494E54 		.ascii	"UINT_FAST16_MAX __UINT_FAST16_MAX__\000"
 11035      5F464153 
 11035      5431365F 
ARM GAS  /tmp/ccXTVNcx.s 			page 225


 11035      4D415820 
 11035      5F5F5549 
 11036              	.LASF538:
 11037 11b4 53797354 		.ascii	"SysTick_CTRL_TICKINT_Pos 1\000"
 11037      69636B5F 
 11037      4354524C 
 11037      5F544943 
 11037      4B494E54 
 11038              	.LASF469:
 11039 11cf 5F5F434F 		.ascii	"__CORE_CM0_H_GENERIC \000"
 11039      52455F43 
 11039      4D305F48 
 11039      5F47454E 
 11039      45524943 
 11040              	.LASF51:
 11041 11e5 5F5F5549 		.ascii	"__UINT_LEAST8_TYPE__ unsigned char\000"
 11041      4E545F4C 
 11041      45415354 
 11041      385F5459 
 11041      50455F5F 
 11042              	.LASF915:
 11043 1208 4932435F 		.ascii	"I2C_I2STAT_S_RX_PRE_GENCALL_DAT_NACK ((0x98))\000"
 11043      49325354 
 11043      41545F53 
 11043      5F52585F 
 11043      5052455F 
 11044              	.LASF237:
 11045 1236 5F5F4143 		.ascii	"__ACCUM_FBIT__ 15\000"
 11045      43554D5F 
 11045      46424954 
 11045      5F5F2031 
 11045      3500
 11046              	.LASF352:
 11047 1248 5F5F474E 		.ascii	"__GNUC_PREREQ(maj,min) ((__GNUC__ << 16) + __GNUC_M"
 11047      55435F50 
 11047      52455245 
 11047      51286D61 
 11047      6A2C6D69 
 11048 127b 494E4F52 		.ascii	"INOR__ >= ((maj) << 16) + (min))\000"
 11048      5F5F203E 
 11048      3D202828 
 11048      6D616A29 
 11048      203C3C20 
 11049              	.LASF243:
 11050 129c 5F5F5541 		.ascii	"__UACCUM_IBIT__ 16\000"
 11050      4343554D 
 11050      5F494249 
 11050      545F5F20 
 11050      313600
 11051              	.LASF1000:
 11052 12af 6C6F6E67 		.ascii	"long int\000"
 11052      20696E74 
 11052      00
 11053              	.LASF116:
 11054 12b8 5F5F5549 		.ascii	"__UINT_FAST64_MAX__ 18446744073709551615ULL\000"
 11054      4E545F46 
 11054      41535436 
ARM GAS  /tmp/ccXTVNcx.s 			page 226


 11054      345F4D41 
 11054      585F5F20 
 11055              	.LASF914:
 11056 12e4 4932435F 		.ascii	"I2C_I2STAT_S_RX_PRE_GENCALL_DAT_ACK ((0x90))\000"
 11056      49325354 
 11056      41545F53 
 11056      5F52585F 
 11056      5052455F 
 11057              	.LASF372:
 11058 1311 5F5F696E 		.ascii	"__int32_t_defined 1\000"
 11058      7433325F 
 11058      745F6465 
 11058      66696E65 
 11058      64203100 
 11059              	.LASF973:
 11060 1325 53444F5F 		.ascii	"SDO_ABORT_TYPEMISMATCH 0x06070010UL\000"
 11060      41424F52 
 11060      545F5459 
 11060      50454D49 
 11060      534D4154 
 11061              	.LASF146:
 11062 1349 5F5F4442 		.ascii	"__DBL_MIN__ ((double)2.2250738585072014e-308L)\000"
 11062      4C5F4D49 
 11062      4E5F5F20 
 11062      2828646F 
 11062      75626C65 
 11063              	.LASF983:
 11064 1378 4F445F53 		.ascii	"OD_SEG_RO 0x40\000"
 11064      45475F52 
 11064      4F203078 
 11064      343000
 11065              	.LASF1052:
 11066 1387 50494F50 		.ascii	"PIOPORCAP\000"
 11066      4F524341 
 11066      5000
 11067              	.LASF360:
 11068 1391 5F5F5F69 		.ascii	"___int_least16_t_defined 1\000"
 11068      6E745F6C 
 11068      65617374 
 11068      31365F74 
 11068      5F646566 
 11069              	.LASF73:
 11070 13ac 5F5F5743 		.ascii	"__WCHAR_MAX__ 4294967295U\000"
 11070      4841525F 
 11070      4D41585F 
 11070      5F203432 
 11070      39343936 
 11071              	.LASF181:
 11072 13c6 5F5F4445 		.ascii	"__DEC128_MIN_EXP__ (-6142)\000"
 11072      43313238 
 11072      5F4D494E 
 11072      5F455850 
 11072      5F5F2028 
 11073              	.LASF657:
 11074 13e1 494F434F 		.ascii	"IOCON_OPENDRAIN_EN (0x1 << 10)\000"
 11074      4E5F4F50 
 11074      454E4452 
ARM GAS  /tmp/ccXTVNcx.s 			page 227


 11074      41494E5F 
 11074      454E2028 
 11075              	.LASF55:
 11076 1400 5F5F494E 		.ascii	"__INT_FAST8_TYPE__ int\000"
 11076      545F4641 
 11076      5354385F 
 11076      54595045 
 11076      5F5F2069 
 11077              	.LASF1025:
 11078 1417 53595350 		.ascii	"SYSPLLCLKSEL\000"
 11078      4C4C434C 
 11078      4B53454C 
 11078      00
 11079              	.LASF299:
 11080 1424 5F5F5544 		.ascii	"__UDA_FBIT__ 32\000"
 11080      415F4642 
 11080      49545F5F 
 11080      20333200 
 11081              	.LASF1045:
 11082 1434 57445443 		.ascii	"WDTCLKUEN\000"
 11082      4C4B5545 
 11082      4E00
 11083              	.LASF905:
 11084 143e 4932435F 		.ascii	"I2C_I2STAT_M_RX_SLAR_NACK ((0x48))\000"
 11084      49325354 
 11084      41545F4D 
 11084      5F52585F 
 11084      534C4152 
 11085              	.LASF1137:
 11086 1461 4932435F 		.ascii	"I2C_EVENT_UNLOCK\000"
 11086      4556454E 
 11086      545F554E 
 11086      4C4F434B 
 11086      00
 11087              	.LASF694:
 11088 1472 52425F56 		.ascii	"RB_VHEAD(rb) (*(volatile uint32_t *) &(rb)->head)\000"
 11088      48454144 
 11088      28726229 
 11088      20282A28 
 11088      766F6C61 
 11089              	.LASF82:
 11090 14a4 5F5F5549 		.ascii	"__UINTMAX_C(c) c ## ULL\000"
 11090      4E544D41 
 11090      585F4328 
 11090      63292063 
 11090      20232320 
 11091              	.LASF29:
 11092 14bc 5F5F5349 		.ascii	"__SIZEOF_POINTER__ 4\000"
 11092      5A454F46 
 11092      5F504F49 
 11092      4E544552 
 11092      5F5F2034 
 11093              	.LASF47:
 11094 14d1 5F5F494E 		.ascii	"__INT_LEAST8_TYPE__ signed char\000"
 11094      545F4C45 
 11094      41535438 
 11094      5F545950 
ARM GAS  /tmp/ccXTVNcx.s 			page 228


 11094      455F5F20 
 11095              	.LASF307:
 11096 14f1 5F5F4743 		.ascii	"__GCC_ATOMIC_BOOL_LOCK_FREE 1\000"
 11096      435F4154 
 11096      4F4D4943 
 11096      5F424F4F 
 11096      4C5F4C4F 
 11097              	.LASF571:
 11098 150f 4C50435F 		.ascii	"LPC_ACMP_BASE 0x40028000\000"
 11098      41434D50 
 11098      5F424153 
 11098      45203078 
 11098      34303032 
 11099              	.LASF512:
 11100 1528 5343425F 		.ascii	"SCB_AIRCR_VECTKEY_Pos 16\000"
 11100      41495243 
 11100      525F5645 
 11100      43544B45 
 11100      595F506F 
 11101              	.LASF110:
 11102 1541 5F5F494E 		.ascii	"__INT_FAST16_MAX__ 2147483647\000"
 11102      545F4641 
 11102      53543136 
 11102      5F4D4158 
 11102      5F5F2032 
 11103              	.LASF388:
 11104 155f 55494E54 		.ascii	"UINT_LEAST8_MAX __UINT_LEAST8_MAX__\000"
 11104      5F4C4541 
 11104      5354385F 
 11104      4D415820 
 11104      5F5F5549 
 11105              	.LASF337:
 11106 1583 5F5F5448 		.ascii	"__THUMB_INTERWORK__ 1\000"
 11106      554D425F 
 11106      494E5445 
 11106      52574F52 
 11106      4B5F5F20 
 11107              	.LASF225:
 11108 1599 5F5F554C 		.ascii	"__ULLFRACT_MAX__ 0XFFFFFFFFFFFFFFFFP-64ULLR\000"
 11108      4C465241 
 11108      43545F4D 
 11108      41585F5F 
 11108      20305846 
 11109              	.LASF945:
 11110 15c5 4932435F 		.ascii	"I2C_NAK_RECV (0x10000000 | 0x01)\000"
 11110      4E414B5F 
 11110      52454356 
 11110      20283078 
 11110      31303030 
 11111              	.LASF666:
 11112 15e6 4D445F44 		.ascii	"MD_DISFIL (0x0 << 8)\000"
 11112      49534649 
 11112      4C202830 
 11112      7830203C 
 11112      3C203829 
 11113              	.LASF85:
 11114 15fb 5F5F494E 		.ascii	"__INT8_MAX__ 127\000"
ARM GAS  /tmp/ccXTVNcx.s 			page 229


 11114      54385F4D 
 11114      41585F5F 
 11114      20313237 
 11114      00
 11115              	.LASF591:
 11116 160c 4C50435F 		.ascii	"LPC_TIMER32_0 ((LPC_TIMER_T *) LPC_TIMER32_0_BASE)\000"
 11116      54494D45 
 11116      5233325F 
 11116      30202828 
 11116      4C50435F 
 11117              	.LASF409:
 11118 163f 55494E54 		.ascii	"UINT_FAST8_MAX __UINT_FAST8_MAX__\000"
 11118      5F464153 
 11118      54385F4D 
 11118      4158205F 
 11118      5F55494E 
 11119              	.LASF862:
 11120 1661 4144435F 		.ascii	"ADC_CR_START_CTOUT8 ((3UL << 24))\000"
 11120      43525F53 
 11120      54415254 
 11120      5F43544F 
 11120      55543820 
 11121              	.LASF385:
 11122 1683 55494E54 		.ascii	"UINT8_MAX __UINT8_MAX__\000"
 11122      385F4D41 
 11122      58205F5F 
 11122      55494E54 
 11122      385F4D41 
 11123              	.LASF37:
 11124 169b 5F5F4348 		.ascii	"__CHAR32_TYPE__ long unsigned int\000"
 11124      41523332 
 11124      5F545950 
 11124      455F5F20 
 11124      6C6F6E67 
 11125              	.LASF404:
 11126 16bd 494E545F 		.ascii	"INT_LEAST64_MIN (-__INT_LEAST64_MAX__ - 1)\000"
 11126      4C454153 
 11126      5436345F 
 11126      4D494E20 
 11126      282D5F5F 
 11127              	.LASF615:
 11128 16e8 53595343 		.ascii	"SYSCTL_NMISRC_ENABLE ((uint32_t) 1 << 31)\000"
 11128      544C5F4E 
 11128      4D495352 
 11128      435F454E 
 11128      41424C45 
 11129              	.LASF663:
 11130 1712 4D445F49 		.ascii	"MD_INV (0x1 << 6)\000"
 11130      4E562028 
 11130      30783120 
 11130      3C3C2036 
 11130      2900
 11131              	.LASF128:
 11132 1724 5F5F464C 		.ascii	"__FLT_MAX_EXP__ 128\000"
 11132      545F4D41 
 11132      585F4558 
 11132      505F5F20 
ARM GAS  /tmp/ccXTVNcx.s 			page 230


 11132      31323800 
 11133              	.LASF15:
 11134 1738 5F5F5349 		.ascii	"__SIZEOF_LONG__ 4\000"
 11134      5A454F46 
 11134      5F4C4F4E 
 11134      475F5F20 
 11134      3400
 11135              	.LASF355:
 11136 174a 5F5F5F69 		.ascii	"___int8_t_defined 1\000"
 11136      6E74385F 
 11136      745F6465 
 11136      66696E65 
 11136      64203100 
 11137              	.LASF351:
 11138 175e 5F5F4E45 		.ascii	"__NEWLIB_MINOR__ 2\000"
 11138      574C4942 
 11138      5F4D494E 
 11138      4F525F5F 
 11138      203200
 11139              	.LASF784:
 11140 1771 55415254 		.ascii	"UART_RS485CTRL_SEL_DTR (1 << 3)\000"
 11140      5F525334 
 11140      38354354 
 11140      524C5F53 
 11140      454C5F44 
 11141              	.LASF19:
 11142 1791 5F5F5349 		.ascii	"__SIZEOF_DOUBLE__ 8\000"
 11142      5A454F46 
 11142      5F444F55 
 11142      424C455F 
 11142      5F203800 
 11143              	.LASF751:
 11144 17a5 55415254 		.ascii	"UART_MCR_LOOPB_EN (1 << 4)\000"
 11144      5F4D4352 
 11144      5F4C4F4F 
 11144      50425F45 
 11144      4E202831 
 11145              	.LASF919:
 11146 17c0 4932435F 		.ascii	"I2C_I2STAT_S_TX_DAT_ACK ((0xB8))\000"
 11146      49325354 
 11146      41545F53 
 11146      5F54585F 
 11146      4441545F 
 11147              	.LASF664:
 11148 17e1 4D445F41 		.ascii	"MD_ADMODE (0x0 << 7)\000"
 11148      444D4F44 
 11148      45202830 
 11148      7830203C 
 11148      3C203729 
 11149              	.LASF760:
 11150 17f6 55415254 		.ascii	"UART_LSR_THRE (1 << 5)\000"
 11150      5F4C5352 
 11150      5F544852 
 11150      45202831 
 11150      203C3C20 
 11151              	.LASF1193:
 11152 180d 43686970 		.ascii	"Chip_I2C_EventHandlerPolling\000"
ARM GAS  /tmp/ccXTVNcx.s 			page 231


 11152      5F493243 
 11152      5F457665 
 11152      6E744861 
 11152      6E646C65 
 11153              	.LASF954:
 11154 182a 43414E5F 		.ascii	"CAN_ERROR_STUF 0x00000008UL\000"
 11154      4552524F 
 11154      525F5354 
 11154      55462030 
 11154      78303030 
 11155              	.LASF722:
 11156 1846 55415254 		.ascii	"UART_FCR_FIFO_EN (1 << 0)\000"
 11156      5F464352 
 11156      5F464946 
 11156      4F5F454E 
 11156      20283120 
 11157              	.LASF639:
 11158 1860 494F434F 		.ascii	"IOCON_FUNC2 0x2\000"
 11158      4E5F4655 
 11158      4E433220 
 11158      30783200 
 11159              	.LASF893:
 11160 1870 4932435F 		.ascii	"I2C_I2STAT_BUS_ERROR ((0x00))\000"
 11160      49325354 
 11160      41545F42 
 11160      55535F45 
 11160      52524F52 
 11161              	.LASF986:
 11162 188e 43414E5F 		.ascii	"CAN_SDOREQ_NOTHANDLED 0\000"
 11162      53444F52 
 11162      45515F4E 
 11162      4F544841 
 11162      4E444C45 
 11163              	.LASF706:
 11164 18a6 55415254 		.ascii	"UART_IER_ABEOINT (1 << 8)\000"
 11164      5F494552 
 11164      5F414245 
 11164      4F494E54 
 11164      20283120 
 11165              	.LASF177:
 11166 18c0 5F5F4445 		.ascii	"__DEC64_MAX__ 9.999999999999999E384DD\000"
 11166      4336345F 
 11166      4D41585F 
 11166      5F20392E 
 11166      39393939 
 11167              	.LASF350:
 11168 18e6 5F5F4E45 		.ascii	"__NEWLIB__ 2\000"
 11168      574C4942 
 11168      5F5F2032 
 11168      00
 11169              	.LASF1072:
 11170 18f3 50445255 		.ascii	"PDRUNCFG\000"
 11170      4E434647 
 11170      00
 11171              	.LASF525:
 11172 18fc 5343425F 		.ascii	"SCB_SCR_SLEEPDEEP_Msk (1UL << SCB_SCR_SLEEPDEEP_Pos"
 11172      5343525F 
ARM GAS  /tmp/ccXTVNcx.s 			page 232


 11172      534C4545 
 11172      50444545 
 11172      505F4D73 
 11173 192f 2900     		.ascii	")\000"
 11174              	.LASF895:
 11175 1931 4932435F 		.ascii	"I2C_I2STAT_M_TX_RESTART ((0x10))\000"
 11175      49325354 
 11175      41545F4D 
 11175      5F54585F 
 11175      52455354 
 11176              	.LASF841:
 11177 1952 5353505F 		.ascii	"SSP_CPOL_HI SSP_CR0_CPOL_LO\000"
 11177      43504F4C 
 11177      5F484920 
 11177      5353505F 
 11177      4352305F 
 11178              	.LASF127:
 11179 196e 5F5F464C 		.ascii	"__FLT_MIN_10_EXP__ (-37)\000"
 11179      545F4D49 
 11179      4E5F3130 
 11179      5F455850 
 11179      5F5F2028 
 11180              	.LASF709:
 11181 1987 55415254 		.ascii	"UART1_IER_BITMASK (0x30F)\000"
 11181      315F4945 
 11181      525F4249 
 11181      544D4153 
 11181      4B202830 
 11182              	.LASF859:
 11183 19a1 4144435F 		.ascii	"ADC_CR_START_MODE_SEL(SEL) ((SEL << 24))\000"
 11183      43525F53 
 11183      54415254 
 11183      5F4D4F44 
 11183      455F5345 
 11184              	.LASF130:
 11185 19ca 5F5F464C 		.ascii	"__FLT_DECIMAL_DIG__ 9\000"
 11185      545F4445 
 11185      43494D41 
 11185      4C5F4449 
 11185      475F5F20 
 11186              	.LASF960:
 11187 19e0 43414E5F 		.ascii	"CAN_MSGOBJ_STD 0x00000000UL\000"
 11187      4D53474F 
 11187      424A5F53 
 11187      54442030 
 11187      78303030 
 11188              	.LASF491:
 11189 19fc 5343425F 		.ascii	"SCB_CPUID_PARTNO_Msk (0xFFFUL << SCB_CPUID_PARTNO_P"
 11189      43505549 
 11189      445F5041 
 11189      52544E4F 
 11189      5F4D736B 
 11190 1a2f 6F732900 		.ascii	"os)\000"
 11191              	.LASF716:
 11192 1a33 55415254 		.ascii	"UART_IIR_INTID_MASK (7 << 1)\000"
 11192      5F494952 
 11192      5F494E54 
ARM GAS  /tmp/ccXTVNcx.s 			page 233


 11192      49445F4D 
 11192      41534B20 
 11193              	.LASF996:
 11194 1a50 7369676E 		.ascii	"signed char\000"
 11194      65642063 
 11194      68617200 
 11195              	.LASF827:
 11196 1a5c 5353505F 		.ascii	"SSP_CR0_SCR(n) ((uint32_t) ((n & 0xFF) << 8))\000"
 11196      4352305F 
 11196      53435228 
 11196      6E292028 
 11196      2875696E 
 11197              	.LASF848:
 11198 1a8a 5F5F4144 		.ascii	"__ADC_11XX_H_ \000"
 11198      435F3131 
 11198      58585F48 
 11198      5F2000
 11199              	.LASF1007:
 11200 1a99 75696E74 		.ascii	"uint8_t\000"
 11200      385F7400 
 11201              	.LASF540:
 11202 1aa1 53797354 		.ascii	"SysTick_CTRL_ENABLE_Pos 0\000"
 11202      69636B5F 
 11202      4354524C 
 11202      5F454E41 
 11202      424C455F 
 11203              	.LASF1027:
 11204 1abb 55534250 		.ascii	"USBPLLCLKSEL\000"
 11204      4C4C434C 
 11204      4B53454C 
 11204      00
 11205              	.LASF463:
 11206 1ac8 43484950 		.ascii	"CHIP_LPC11CXX \000"
 11206      5F4C5043 
 11206      31314358 
 11206      582000
 11207              	.LASF830:
 11208 1ad7 5353505F 		.ascii	"SSP_CR1_SSP_EN ((uint32_t) (1 << 1))\000"
 11208      4352315F 
 11208      5353505F 
 11208      454E2028 
 11208      2875696E 
 11209              	.LASF1179:
 11210 1afc 43686970 		.ascii	"Chip_I2C_DeInit\000"
 11210      5F493243 
 11210      5F446549 
 11210      6E697400 
 11211              	.LASF900:
 11212 1b0c 4932435F 		.ascii	"I2C_I2STAT_M_TX_ARB_LOST ((0x38))\000"
 11212      49325354 
 11212      41545F4D 
 11212      5F54585F 
 11212      4152425F 
 11213              	.LASF872:
 11214 1b2e 5245545F 		.ascii	"RET_SLAVE_IDLE 2\000"
 11214      534C4156 
 11214      455F4944 
ARM GAS  /tmp/ccXTVNcx.s 			page 234


 11214      4C452032 
 11214      00
 11215              	.LASF197:
 11216 1b3f 5F5F4652 		.ascii	"__FRACT_FBIT__ 15\000"
 11216      4143545F 
 11216      46424954 
 11216      5F5F2031 
 11216      3500
 11217              	.LASF1049:
 11218 1b51 434C4B4F 		.ascii	"CLKOUTUEN\000"
 11218      55545545 
 11218      4E00
 11219              	.LASF137:
 11220 1b5b 5F5F464C 		.ascii	"__FLT_HAS_QUIET_NAN__ 1\000"
 11220      545F4841 
 11220      535F5155 
 11220      4945545F 
 11220      4E414E5F 
 11221              	.LASF452:
 11222 1b73 5F534246 		.ascii	"_SBF(f,v) ((v) << (f))\000"
 11222      28662C76 
 11222      29202828 
 11222      7629203C 
 11222      3C202866 
 11223              	.LASF310:
 11224 1b8a 5F5F4743 		.ascii	"__GCC_ATOMIC_CHAR32_T_LOCK_FREE 1\000"
 11224      435F4154 
 11224      4F4D4943 
 11224      5F434841 
 11224      5233325F 
 11225              	.LASF517:
 11226 1bac 5343425F 		.ascii	"SCB_AIRCR_ENDIANESS_Msk (1UL << SCB_AIRCR_ENDIANESS"
 11226      41495243 
 11226      525F454E 
 11226      4449414E 
 11226      4553535F 
 11227 1bdf 5F506F73 		.ascii	"_Pos)\000"
 11227      2900
 11228              	.LASF4:
 11229 1be5 5F5F474E 		.ascii	"__GNUC_PATCHLEVEL__ 3\000"
 11229      55435F50 
 11229      41544348 
 11229      4C455645 
 11229      4C5F5F20 
 11230              	.LASF628:
 11231 1bfb 53595343 		.ascii	"SYSCTL_POWERDOWN_FLASH_PD (1 << 2)\000"
 11231      544C5F50 
 11231      4F574552 
 11231      444F574E 
 11231      5F464C41 
 11232              	.LASF757:
 11233 1c1e 55415254 		.ascii	"UART_LSR_PE (1 << 2)\000"
 11233      5F4C5352 
 11233      5F504520 
 11233      2831203C 
 11233      3C203229 
 11234              	.LASF382:
ARM GAS  /tmp/ccXTVNcx.s 			page 235


 11235 1c33 55494E54 		.ascii	"UINTPTR_MAX __UINTPTR_MAX__\000"
 11235      5054525F 
 11235      4D415820 
 11235      5F5F5549 
 11235      4E545054 
 11236              	.LASF842:
 11237 1c4f 5353505F 		.ascii	"SSP_CPOL_LO SSP_CR0_CPOL_HI\000"
 11237      43504F4C 
 11237      5F4C4F20 
 11237      5353505F 
 11237      4352305F 
 11238              	.LASF1155:
 11239 1c6b 6973536C 		.ascii	"isSlaveAddrMatching\000"
 11239      61766541 
 11239      6464724D 
 11239      61746368 
 11239      696E6700 
 11240              	.LASF347:
 11241 1c7f 5F535444 		.ascii	"_STDINT_H \000"
 11241      494E545F 
 11241      482000
 11242              	.LASF595:
 11243 1c8a 4C50435F 		.ascii	"LPC_FMC ((LPC_FMC_T *) LPC_FLASH_BASE)\000"
 11243      464D4320 
 11243      28284C50 
 11243      435F464D 
 11243      435F5420 
 11244              	.LASF511:
 11245 1cb1 5343425F 		.ascii	"SCB_ICSR_VECTACTIVE_Msk (0x1FFUL << SCB_ICSR_VECTAC"
 11245      49435352 
 11245      5F564543 
 11245      54414354 
 11245      4956455F 
 11246 1ce4 54495645 		.ascii	"TIVE_Pos)\000"
 11246      5F506F73 
 11246      2900
 11247              	.LASF747:
 11248 1cee 55415254 		.ascii	"UART_LCR_DLAB_EN (1 << 7)\000"
 11248      5F4C4352 
 11248      5F444C41 
 11248      425F454E 
 11248      20283120 
 11249              	.LASF478:
 11250 1d08 5F5F434F 		.ascii	"__CORE_CMINSTR_H \000"
 11250      52455F43 
 11250      4D494E53 
 11250      54525F48 
 11250      2000
 11251              	.LASF410:
 11252 1d1a 494E545F 		.ascii	"INT_FAST16_MIN (-__INT_FAST16_MAX__ - 1)\000"
 11252      46415354 
 11252      31365F4D 
 11252      494E2028 
 11252      2D5F5F49 
 11253              	.LASF774:
 11254 1d43 55415254 		.ascii	"UART_MSR_BITMASK (0xFF)\000"
 11254      5F4D5352 
ARM GAS  /tmp/ccXTVNcx.s 			page 236


 11254      5F424954 
 11254      4D41534B 
 11254      20283078 
 11255              	.LASF1133:
 11256 1d5b 4932435F 		.ascii	"I2C_ID_T\000"
 11256      49445F54 
 11256      00
 11257              	.LASF788:
 11258 1d64 55415254 		.ascii	"UART_ICR_IRDAEN (1 << 0)\000"
 11258      5F494352 
 11258      5F495244 
 11258      41454E20 
 11258      2831203C 
 11259              	.LASF357:
 11260 1d7d 5F5F5F69 		.ascii	"___int32_t_defined 1\000"
 11260      6E743332 
 11260      5F745F64 
 11260      6566696E 
 11260      65642031 
 11261              	.LASF1018:
 11262 1d92 52455345 		.ascii	"RESERVED1\000"
 11262      52564544 
 11262      3100
 11263              	.LASF997:
 11264 1d9c 756E7369 		.ascii	"unsigned char\000"
 11264      676E6564 
 11264      20636861 
 11264      7200
 11265              	.LASF1029:
 11266 1daa 52455345 		.ascii	"RESERVED3\000"
 11266      52564544 
 11266      3300
 11267              	.LASF1033:
 11268 1db4 52455345 		.ascii	"RESERVED4\000"
 11268      52564544 
 11268      3400
 11269              	.LASF1035:
 11270 1dbe 52455345 		.ascii	"RESERVED5\000"
 11270      52564544 
 11270      3500
 11271              	.LASF1039:
 11272 1dc8 52455345 		.ascii	"RESERVED6\000"
 11272      52564544 
 11272      3600
 11273              	.LASF1043:
 11274 1dd2 52455345 		.ascii	"RESERVED7\000"
 11274      52564544 
 11274      3700
 11275              	.LASF1047:
 11276 1ddc 52455345 		.ascii	"RESERVED8\000"
 11276      52564544 
 11276      3800
 11277              	.LASF1051:
 11278 1de6 52455345 		.ascii	"RESERVED9\000"
 11278      52564544 
 11278      3900
 11279              	.LASF182:
ARM GAS  /tmp/ccXTVNcx.s 			page 237


 11280 1df0 5F5F4445 		.ascii	"__DEC128_MAX_EXP__ 6145\000"
 11280      43313238 
 11280      5F4D4158 
 11280      5F455850 
 11280      5F5F2036 
 11281              	.LASF119:
 11282 1e08 5F5F4743 		.ascii	"__GCC_IEC_559 0\000"
 11282      435F4945 
 11282      435F3535 
 11282      39203000 
 11283              	.LASF1030:
 11284 1e18 4D41494E 		.ascii	"MAINCLKSEL\000"
 11284      434C4B53 
 11284      454C00
 11285              	.LASF399:
 11286 1e23 494E545F 		.ascii	"INT_LEAST32_MAX __INT_LEAST32_MAX__\000"
 11286      4C454153 
 11286      5433325F 
 11286      4D415820 
 11286      5F5F494E 
 11287              	.LASF472:
 11288 1e47 5F5F434D 		.ascii	"__CM0_CMSIS_VERSION ((__CM0_CMSIS_VERSION_MAIN << 1"
 11288      305F434D 
 11288      5349535F 
 11288      56455253 
 11288      494F4E20 
 11289 1e7a 3629207C 		.ascii	"6) | __CM0_CMSIS_VERSION_SUB )\000"
 11289      205F5F43 
 11289      4D305F43 
 11289      4D534953 
 11289      5F564552 
 11290              	.LASF975:
 11291 1e99 53444F5F 		.ascii	"SDO_ABORT_VALUE_RANGE 0x06090030UL\000"
 11291      41424F52 
 11291      545F5641 
 11291      4C55455F 
 11291      52414E47 
 11292              	.LASF806:
 11293 1ebc 55415254 		.ascii	"UART_SYNCCTRL_FES (1 << 2)\000"
 11293      5F53594E 
 11293      43435452 
 11293      4C5F4645 
 11293      53202831 
 11294              	.LASF7:
 11295 1ed7 5F5F4154 		.ascii	"__ATOMIC_SEQ_CST 5\000"
 11295      4F4D4943 
 11295      5F534551 
 11295      5F435354 
 11295      203500
 11296              	.LASF527:
 11297 1eea 5343425F 		.ascii	"SCB_SCR_SLEEPONEXIT_Msk (1UL << SCB_SCR_SLEEPONEXIT"
 11297      5343525F 
 11297      534C4545 
 11297      504F4E45 
 11297      5849545F 
 11298 1f1d 5F506F73 		.ascii	"_Pos)\000"
 11298      2900
ARM GAS  /tmp/ccXTVNcx.s 			page 238


 11299              	.LASF662:
 11300 1f23 4D445F48 		.ascii	"MD_HYS (0x1 << 5)\000"
 11300      59532028 
 11300      30783120 
 11300      3C3C2035 
 11300      2900
 11301              	.LASF836:
 11302 1f35 5353505F 		.ascii	"SSP_DR_BITMASK(n) ((n) & 0xFFFF)\000"
 11302      44525F42 
 11302      49544D41 
 11302      534B286E 
 11302      29202828 
 11303              	.LASF745:
 11304 1f56 55415254 		.ascii	"UART_LCR_PARITY_F_0 (3 << 4)\000"
 11304      5F4C4352 
 11304      5F504152 
 11304      4954595F 
 11304      465F3020 
 11305              	.LASF547:
 11306 1f73 53797354 		.ascii	"SysTick_CALIB_NOREF_Msk (1UL << SysTick_CALIB_NOREF"
 11306      69636B5F 
 11306      43414C49 
 11306      425F4E4F 
 11306      5245465F 
 11307 1fa6 5F506F73 		.ascii	"_Pos)\000"
 11307      2900
 11308              	.LASF948:
 11309 1fac 4932435F 		.ascii	"I2C_MONITOR_CFG_MATCHALL I2C_I2MMCTRL_MATCH_ALL\000"
 11309      4D4F4E49 
 11309      544F525F 
 11309      4346475F 
 11309      4D415443 
 11310              	.LASF142:
 11311 1fdc 5F5F4442 		.ascii	"__DBL_MAX_EXP__ 1024\000"
 11311      4C5F4D41 
 11311      585F4558 
 11311      505F5F20 
 11311      31303234 
 11312              	.LASF113:
 11313 1ff1 5F5F5549 		.ascii	"__UINT_FAST8_MAX__ 4294967295U\000"
 11313      4E545F46 
 11313      41535438 
 11313      5F4D4158 
 11313      5F5F2034 
 11314              	.LASF275:
 11315 2010 5F5F5451 		.ascii	"__TQ_FBIT__ 127\000"
 11315      5F464249 
 11315      545F5F20 
 11315      31323700 
 11316              	.LASF860:
 11317 2020 4144435F 		.ascii	"ADC_CR_START_NOW ((1UL << 24))\000"
 11317      43525F53 
 11317      54415254 
 11317      5F4E4F57 
 11317      20282831 
 11318              	.LASF686:
 11319 203f 54494D45 		.ascii	"TIMER_INT_ON_MATCH(n) (_BIT(((n) * 3)))\000"
ARM GAS  /tmp/ccXTVNcx.s 			page 239


 11319      525F494E 
 11319      545F4F4E 
 11319      5F4D4154 
 11319      4348286E 
 11320              	.LASF964:
 11321 2067 53444F5F 		.ascii	"SDO_ABORT_TOGGLE 0x05030000UL\000"
 11321      41424F52 
 11321      545F544F 
 11321      47474C45 
 11321      20307830 
 11322              	.LASF379:
 11323 2085 5F5F696E 		.ascii	"__int_fast64_t_defined 1\000"
 11323      745F6661 
 11323      73743634 
 11323      5F745F64 
 11323      6566696E 
 11324              	.LASF585:
 11325 209e 4C50435F 		.ascii	"LPC_ROM_API_BASE_LOC 0x1FFF1FF8\000"
 11325      524F4D5F 
 11325      4150495F 
 11325      42415345 
 11325      5F4C4F43 
 11326              	.LASF343:
 11327 20be 5F5F5553 		.ascii	"__USES_INITFINI__ 1\000"
 11327      45535F49 
 11327      4E495446 
 11327      494E495F 
 11327      5F203100 
 11328              	.LASF488:
 11329 20d2 5343425F 		.ascii	"SCB_CPUID_ARCHITECTURE_Pos 16\000"
 11329      43505549 
 11329      445F4152 
 11329      43484954 
 11329      45435455 
 11330              	.LASF825:
 11331 20f0 5353505F 		.ascii	"SSP_CR0_CPHA_FIRST ((uint32_t) (0))\000"
 11331      4352305F 
 11331      43504841 
 11331      5F464952 
 11331      53542028 
 11332              	.LASF1118:
 11333 2114 4932435F 		.ascii	"I2C_STATUS_ARBLOST\000"
 11333      53544154 
 11333      55535F41 
 11333      52424C4F 
 11333      535400
 11334              	.LASF262:
 11335 2127 5F5F554C 		.ascii	"__ULLACCUM_FBIT__ 32\000"
 11335      4C414343 
 11335      554D5F46 
 11335      4249545F 
 11335      5F203332 
 11336              	.LASF1010:
 11337 213c 5F426F6F 		.ascii	"_Bool\000"
 11337      6C00
 11338              	.LASF726:
 11339 2142 55415254 		.ascii	"UART_FCR_BITMASK (0xCF)\000"
ARM GAS  /tmp/ccXTVNcx.s 			page 240


 11339      5F464352 
 11339      5F424954 
 11339      4D41534B 
 11339      20283078 
 11340              	.LASF555:
 11341 215a 5343425F 		.ascii	"SCB_BASE (SCS_BASE + 0x0D00UL)\000"
 11341      42415345 
 11341      20285343 
 11341      535F4241 
 11341      5345202B 
 11342              	.LASF601:
 11343 2179 4C50435F 		.ascii	"LPC_GPIO ((LPC_GPIO_T *) LPC_GPIO_PORT0_BASE)\000"
 11343      4750494F 
 11343      2028284C 
 11343      50435F47 
 11343      50494F5F 
 11344              	.LASF346:
 11345 21a7 5F5F4C50 		.ascii	"__LPC_TYPES_H_ \000"
 11345      435F5459 
 11345      5045535F 
 11345      485F2000 
 11346              	.LASF251:
 11347 21b7 5F5F4C41 		.ascii	"__LACCUM_EPSILON__ 0x1P-31LK\000"
 11347      4343554D 
 11347      5F455053 
 11347      494C4F4E 
 11347      5F5F2030 
 11348              	.LASF981:
 11349 21d4 4F445F45 		.ascii	"OD_EXP_WO 0x20\000"
 11349      58505F57 
 11349      4F203078 
 11349      323000
 11350              	.LASF457:
 11351 21e3 53544154 		.ascii	"STATIC static\000"
 11351      49432073 
 11351      74617469 
 11351      6300
 11352              	.LASF1024:
 11353 21f1 52455345 		.ascii	"RESERVED2\000"
 11353      52564544 
 11353      3200
 11354              	.LASF650:
 11355 21fb 494F434F 		.ascii	"IOCON_INV_EN (0x1 << 6)\000"
 11355      4E5F494E 
 11355      565F454E 
 11355      20283078 
 11355      31203C3C 
 11356              	.LASF20:
 11357 2213 5F5F5349 		.ascii	"__SIZEOF_LONG_DOUBLE__ 8\000"
 11357      5A454F46 
 11357      5F4C4F4E 
 11357      475F444F 
 11357      55424C45 
 11358              	.LASF759:
 11359 222c 55415254 		.ascii	"UART_LSR_BI (1 << 4)\000"
 11359      5F4C5352 
 11359      5F424920 
ARM GAS  /tmp/ccXTVNcx.s 			page 241


 11359      2831203C 
 11359      3C203429 
 11360              	.LASF737:
 11361 2241 55415254 		.ascii	"UART_LCR_SBS_MASK (1 << 2)\000"
 11361      5F4C4352 
 11361      5F534253 
 11361      5F4D4153 
 11361      4B202831 
 11362              	.LASF319:
 11363 225c 5F5F5052 		.ascii	"__PRAGMA_REDEFINE_EXTNAME 1\000"
 11363      41474D41 
 11363      5F524544 
 11363      4546494E 
 11363      455F4558 
 11364              	.LASF32:
 11365 2278 5F5F5743 		.ascii	"__WCHAR_TYPE__ unsigned int\000"
 11365      4841525F 
 11365      54595045 
 11365      5F5F2075 
 11365      6E736967 
 11366              	.LASF429:
 11367 2294 57494E54 		.ascii	"WINT_MAX __WINT_MAX__\000"
 11367      5F4D4158 
 11367      205F5F57 
 11367      494E545F 
 11367      4D41585F 
 11368              	.LASF1009:
 11369 22aa 63686172 		.ascii	"char\000"
 11369      00
 11370              	.LASF298:
 11371 22af 5F5F5553 		.ascii	"__USA_IBIT__ 16\000"
 11371      415F4942 
 11371      49545F5F 
 11371      20313600 
 11372              	.LASF439:
 11373 22bf 494E544D 		.ascii	"INTMAX_C(x) __INTMAX_C(x)\000"
 11373      41585F43 
 11373      28782920 
 11373      5F5F494E 
 11373      544D4158 
 11374              	.LASF426:
 11375 22d9 50545244 		.ascii	"PTRDIFF_MIN (-PTRDIFF_MAX - 1)\000"
 11375      4946465F 
 11375      4D494E20 
 11375      282D5054 
 11375      52444946 
 11376              	.LASF669:
 11377 22f8 4D445F53 		.ascii	"MD_STDI2C (0x1 << 8)\000"
 11377      54444932 
 11377      43202830 
 11377      7831203C 
 11377      3C203829 
 11378              	.LASF1037:
 11379 230d 55534152 		.ascii	"USARTCLKDIV\000"
 11379      54434C4B 
 11379      44495600 
 11380              	.LASF67:
ARM GAS  /tmp/ccXTVNcx.s 			page 242


 11381 2319 5F5F4758 		.ascii	"__GXX_ABI_VERSION 1002\000"
 11381      585F4142 
 11381      495F5645 
 11381      5253494F 
 11381      4E203130 
 11382              	.LASF62:
 11383 2330 5F5F5549 		.ascii	"__UINT_FAST64_TYPE__ long long unsigned int\000"
 11383      4E545F46 
 11383      41535436 
 11383      345F5459 
 11383      50455F5F 
 11384              	.LASF1087:
 11385 235c 53595343 		.ascii	"SYSCTL_CLOCK_SSP0\000"
 11385      544C5F43 
 11385      4C4F434B 
 11385      5F535350 
 11385      3000
 11386              	.LASF1094:
 11387 236e 53595343 		.ascii	"SYSCTL_CLOCK_SSP1\000"
 11387      544C5F43 
 11387      4C4F434B 
 11387      5F535350 
 11387      3100
 11388              	.LASF656:
 11389 2380 494F434F 		.ascii	"IOCON_FILT_DIS (0x1 << 8)\000"
 11389      4E5F4649 
 11389      4C545F44 
 11389      49532028 
 11389      30783120 
 11390              	.LASF132:
 11391 239a 5F5F464C 		.ascii	"__FLT_MIN__ 1.1754943508222875e-38F\000"
 11391      545F4D49 
 11391      4E5F5F20 
 11391      312E3137 
 11391      35343934 
 11392              	.LASF287:
 11393 23be 5F5F4841 		.ascii	"__HA_FBIT__ 7\000"
 11393      5F464249 
 11393      545F5F20 
 11393      3700
 11394              	.LASF598:
 11395 23cc 4C50435F 		.ascii	"LPC_SYSCTL ((LPC_SYSCTL_T *) LPC_SYSCTL_BASE)\000"
 11395      53595343 
 11395      544C2028 
 11395      284C5043 
 11395      5F535953 
 11396              	.LASF28:
 11397 23fa 5F5F464C 		.ascii	"__FLOAT_WORD_ORDER__ __ORDER_LITTLE_ENDIAN__\000"
 11397      4F41545F 
 11397      574F5244 
 11397      5F4F5244 
 11397      45525F5F 
 11398              	.LASF315:
 11399 2427 5F5F4743 		.ascii	"__GCC_ATOMIC_LLONG_LOCK_FREE 1\000"
 11399      435F4154 
 11399      4F4D4943 
 11399      5F4C4C4F 
ARM GAS  /tmp/ccXTVNcx.s 			page 243


 11399      4E475F4C 
 11400              	.LASF692:
 11401 2446 5F5F5541 		.ascii	"__UART_11XX_H_ \000"
 11401      52545F31 
 11401      3158585F 
 11401      485F2000 
 11402              	.LASF951:
 11403 2456 43414E5F 		.ascii	"CAN_ERROR_PASS 0x00000001UL\000"
 11403      4552524F 
 11403      525F5041 
 11403      53532030 
 11403      78303030 
 11404              	.LASF991:
 11405 2472 43414E5F 		.ascii	"CAN_SDOSEG_CLOSE 2\000"
 11405      53444F53 
 11405      45475F43 
 11405      4C4F5345 
 11405      203200
 11406              	.LASF645:
 11407 2485 494F434F 		.ascii	"IOCON_MODE_INACT (0x0 << 3)\000"
 11407      4E5F4D4F 
 11407      44455F49 
 11407      4E414354 
 11407      20283078 
 11408              	.LASF896:
 11409 24a1 4932435F 		.ascii	"I2C_I2STAT_M_TX_SLAW_ACK ((0x18))\000"
 11409      49325354 
 11409      41545F4D 
 11409      5F54585F 
 11409      534C4157 
 11410              	.LASF167:
 11411 24c3 5F5F4445 		.ascii	"__DEC32_MIN_EXP__ (-94)\000"
 11411      4333325F 
 11411      4D494E5F 
 11411      4558505F 
 11411      5F20282D 
 11412              	.LASF193:
 11413 24db 5F5F5553 		.ascii	"__USFRACT_IBIT__ 0\000"
 11413      46524143 
 11413      545F4942 
 11413      49545F5F 
 11413      203000
 11414              	.LASF98:
 11415 24ee 5F5F494E 		.ascii	"__INT32_C(c) c ## L\000"
 11415      5433325F 
 11415      43286329 
 11415      20632023 
 11415      23204C00 
 11416              	.LASF161:
 11417 2502 5F5F4C44 		.ascii	"__LDBL_EPSILON__ 2.2204460492503131e-16L\000"
 11417      424C5F45 
 11417      5053494C 
 11417      4F4E5F5F 
 11417      20322E32 
 11418              	.LASF884:
 11419 252b 4932435F 		.ascii	"I2C_I2CONCLR_I2ENC ((1 << 6))\000"
 11419      4932434F 
ARM GAS  /tmp/ccXTVNcx.s 			page 244


 11419      4E434C52 
 11419      5F493245 
 11419      4E432028 
 11420              	.LASF194:
 11421 2549 5F5F5553 		.ascii	"__USFRACT_MIN__ 0.0UHR\000"
 11421      46524143 
 11421      545F4D49 
 11421      4E5F5F20 
 11421      302E3055 
 11422              	.LASF677:
 11423 2560 46554E43 		.ascii	"FUNC5 0x5\000"
 11423      35203078 
 11423      3500
 11424              	.LASF779:
 11425 256a 55415254 		.ascii	"UART_ACR_ABTOINT_CLR (1 << 9)\000"
 11425      5F414352 
 11425      5F414254 
 11425      4F494E54 
 11425      5F434C52 
 11426              	.LASF969:
 11427 2588 53444F5F 		.ascii	"SDO_ABORT_READONLY 0x06010002UL\000"
 11427      41424F52 
 11427      545F5245 
 11427      41444F4E 
 11427      4C592030 
 11428              	.LASF356:
 11429 25a8 5F5F5F69 		.ascii	"___int16_t_defined 1\000"
 11429      6E743136 
 11429      5F745F64 
 11429      6566696E 
 11429      65642031 
 11430              	.LASF156:
 11431 25bd 5F5F4C44 		.ascii	"__LDBL_MAX_EXP__ 1024\000"
 11431      424C5F4D 
 11431      41585F45 
 11431      58505F5F 
 11431      20313032 
 11432              	.LASF643:
 11433 25d3 494F434F 		.ascii	"IOCON_FUNC6 0x6\000"
 11433      4E5F4655 
 11433      4E433620 
 11433      30783600 
 11434              	.LASF526:
 11435 25e3 5343425F 		.ascii	"SCB_SCR_SLEEPONEXIT_Pos 1\000"
 11435      5343525F 
 11435      534C4545 
 11435      504F4E45 
 11435      5849545F 
 11436              	.LASF715:
 11437 25fd 55415254 		.ascii	"UART_IIR_BITMASK (0x3CF)\000"
 11437      5F494952 
 11437      5F424954 
 11437      4D41534B 
 11437      20283078 
 11438              	.LASF368:
 11439 2616 5F5F696E 		.ascii	"__int8_t_defined 1\000"
 11439      74385F74 
ARM GAS  /tmp/ccXTVNcx.s 			page 245


 11439      5F646566 
 11439      696E6564 
 11439      203100
 11440              	.LASF961:
 11441 2629 43414E5F 		.ascii	"CAN_MSGOBJ_EXT 0x20000000UL\000"
 11441      4D53474F 
 11441      424A5F45 
 11441      58542030 
 11441      78323030 
 11442              	.LASF149:
 11443 2645 5F5F4442 		.ascii	"__DBL_HAS_DENORM__ 1\000"
 11443      4C5F4841 
 11443      535F4445 
 11443      4E4F524D 
 11443      5F5F2031 
 11444              	.LASF510:
 11445 265a 5343425F 		.ascii	"SCB_ICSR_VECTACTIVE_Pos 0\000"
 11445      49435352 
 11445      5F564543 
 11445      54414354 
 11445      4956455F 
 11446              	.LASF822:
 11447 2674 5353505F 		.ascii	"SSP_CR0_FRF_MICROWIRE ((uint32_t) (2 << 4))\000"
 11447      4352305F 
 11447      4652465F 
 11447      4D494352 
 11447      4F574952 
 11448              	.LASF616:
 11449 26a0 53595343 		.ascii	"SYSCTL_DEEPSLP_BOD_PD (1 << 3)\000"
 11449      544C5F44 
 11449      45455053 
 11449      4C505F42 
 11449      4F445F50 
 11450              	.LASF413:
 11451 26bf 494E545F 		.ascii	"INT_FAST32_MIN (-__INT_FAST32_MAX__ - 1)\000"
 11451      46415354 
 11451      33325F4D 
 11451      494E2028 
 11451      2D5F5F49 
 11452              	.LASF566:
 11453 26e8 4C50435F 		.ascii	"LPC_TIMER16_1_BASE 0x40010000\000"
 11453      54494D45 
 11453      5231365F 
 11453      315F4241 
 11453      53452030 
 11454              	.LASF732:
 11455 2706 55415254 		.ascii	"UART_LCR_WLEN_MASK (3 << 0)\000"
 11455      5F4C4352 
 11455      5F574C45 
 11455      4E5F4D41 
 11455      534B2028 
 11456              	.LASF1191:
 11457 2722 43686970 		.ascii	"Chip_I2C_IsMasterActive\000"
 11457      5F493243 
 11457      5F49734D 
 11457      61737465 
 11457      72416374 
ARM GAS  /tmp/ccXTVNcx.s 			page 246


 11458              	.LASF291:
 11459 273a 5F5F4441 		.ascii	"__DA_FBIT__ 31\000"
 11459      5F464249 
 11459      545F5F20 
 11459      333100
 11460              	.LASF1146:
 11461 2749 666C6167 		.ascii	"flags\000"
 11461      7300
 11462              	.LASF943:
 11463 274f 4932435F 		.ascii	"I2C_RECV_END 0x10\000"
 11463      52454356 
 11463      5F454E44 
 11463      20307831 
 11463      3000
 11464              	.LASF524:
 11465 2761 5343425F 		.ascii	"SCB_SCR_SLEEPDEEP_Pos 2\000"
 11465      5343525F 
 11465      534C4545 
 11465      50444545 
 11465      505F506F 
 11466              	.LASF1096:
 11467 2779 434F4E53 		.ascii	"CONSET\000"
 11467      455400
 11468              	.LASF499:
 11469 2780 5343425F 		.ascii	"SCB_ICSR_PENDSVCLR_Msk (1UL << SCB_ICSR_PENDSVCLR_P"
 11469      49435352 
 11469      5F50454E 
 11469      44535643 
 11469      4C525F4D 
 11470 27b3 6F732900 		.ascii	"os)\000"
 11471              	.LASF134:
 11472 27b7 5F5F464C 		.ascii	"__FLT_DENORM_MIN__ 1.4012984643248171e-45F\000"
 11472      545F4445 
 11472      4E4F524D 
 11472      5F4D494E 
 11472      5F5F2031 
 11473              	.LASF1098:
 11474 27e2 41445230 		.ascii	"ADR0\000"
 11474      00
 11475              	.LASF1103:
 11476 27e7 41445231 		.ascii	"ADR1\000"
 11476      00
 11477              	.LASF1104:
 11478 27ec 41445232 		.ascii	"ADR2\000"
 11478      00
 11479              	.LASF1105:
 11480 27f1 41445233 		.ascii	"ADR3\000"
 11480      00
 11481              	.LASF1197:
 11482 27f6 43686970 		.ascii	"Chip_I2C_SlaveStateHandler\000"
 11482      5F493243 
 11482      5F536C61 
 11482      76655374 
 11482      61746548 
 11483              	.LASF387:
 11484 2811 494E545F 		.ascii	"INT_LEAST8_MAX __INT_LEAST8_MAX__\000"
 11484      4C454153 
ARM GAS  /tmp/ccXTVNcx.s 			page 247


 11484      54385F4D 
 11484      4158205F 
 11484      5F494E54 
 11485              	.LASF66:
 11486 2833 5F5F6861 		.ascii	"__has_include_next(STR) __has_include_next__(STR)\000"
 11486      735F696E 
 11486      636C7564 
 11486      655F6E65 
 11486      78742853 
 11487              	.LASF821:
 11488 2865 5353505F 		.ascii	"SSP_CR0_FRF_TI ((uint32_t) (1 << 4))\000"
 11488      4352305F 
 11488      4652465F 
 11488      54492028 
 11488      2875696E 
 11489              	.LASF711:
 11490 288a 55415254 		.ascii	"UART_IIR_INTSTAT_PEND (1 << 0)\000"
 11490      5F494952 
 11490      5F494E54 
 11490      53544154 
 11490      5F50454E 
 11491              	.LASF106:
 11492 28a9 5F5F5549 		.ascii	"__UINT32_C(c) c ## UL\000"
 11492      4E543332 
 11492      5F432863 
 11492      29206320 
 11492      23232055 
 11493              	.LASF490:
 11494 28bf 5343425F 		.ascii	"SCB_CPUID_PARTNO_Pos 4\000"
 11494      43505549 
 11494      445F5041 
 11494      52544E4F 
 11494      5F506F73 
 11495              	.LASF495:
 11496 28d6 5343425F 		.ascii	"SCB_ICSR_NMIPENDSET_Msk (1UL << SCB_ICSR_NMIPENDSET"
 11496      49435352 
 11496      5F4E4D49 
 11496      50454E44 
 11496      5345545F 
 11497 2909 5F506F73 		.ascii	"_Pos)\000"
 11497      2900
 11498              	.LASF735:
 11499 290f 55415254 		.ascii	"UART_LCR_WLEN7 (2 << 0)\000"
 11499      5F4C4352 
 11499      5F574C45 
 11499      4E372028 
 11499      32203C3C 
 11500              	.LASF451:
 11501 2927 5F534246 		.ascii	"_SBF\000"
 11501      00
 11502              	.LASF88:
 11503 292c 5F5F494E 		.ascii	"__INT64_MAX__ 9223372036854775807LL\000"
 11503      5436345F 
 11503      4D41585F 
 11503      5F203932 
 11503      32333337 
 11504              	.LASF133:
ARM GAS  /tmp/ccXTVNcx.s 			page 248


 11505 2950 5F5F464C 		.ascii	"__FLT_EPSILON__ 1.1920928955078125e-7F\000"
 11505      545F4550 
 11505      53494C4F 
 11505      4E5F5F20 
 11505      312E3139 
 11506              	.LASF1196:
 11507 2977 73693263 		.ascii	"si2c\000"
 11507      00
 11508              	.LASF946:
 11509 297c 4932435F 		.ascii	"I2C_CheckError(ErrorCode) (ErrorCode & 0x10000000)\000"
 11509      43686563 
 11509      6B457272 
 11509      6F722845 
 11509      72726F72 
 11510              	.LASF586:
 11511 29af 4C50435F 		.ascii	"LPC_I2C ((LPC_I2C_T *) LPC_I2C_BASE)\000"
 11511      49324320 
 11511      28284C50 
 11511      435F4932 
 11511      435F5420 
 11512              	.LASF799:
 11513 29d4 55415254 		.ascii	"UART_FDR_DIVADDVAL(n) (n & 0x0F)\000"
 11513      5F464452 
 11513      5F444956 
 11513      41444456 
 11513      414C286E 
 11514              	.LASF730:
 11515 29f5 55415254 		.ascii	"UART_FCR_TRG_LEV2 (2 << 6)\000"
 11515      5F464352 
 11515      5F545247 
 11515      5F4C4556 
 11515      32202832 
 11516              	.LASF971:
 11517 2a10 53444F5F 		.ascii	"SDO_ABORT_PARAINCOMP 0x06040043UL\000"
 11517      41424F52 
 11517      545F5041 
 11517      5241494E 
 11517      434F4D50 
 11518              	.LASF534:
 11519 2a32 53797354 		.ascii	"SysTick_CTRL_COUNTFLAG_Pos 16\000"
 11519      69636B5F 
 11519      4354524C 
 11519      5F434F55 
 11519      4E54464C 
 11520              	.LASF371:
 11521 2a50 5F5F696E 		.ascii	"__int_least16_t_defined 1\000"
 11521      745F6C65 
 11521      61737431 
 11521      365F745F 
 11521      64656669 
 11522              	.LASF246:
 11523 2a6a 5F5F5541 		.ascii	"__UACCUM_EPSILON__ 0x1P-16UK\000"
 11523      4343554D 
 11523      5F455053 
 11523      494C4F4E 
 11523      5F5F2030 
 11524              	.LASF450:
ARM GAS  /tmp/ccXTVNcx.s 			page 249


 11525 2a87 5F424954 		.ascii	"_BIT(n) (1 << (n))\000"
 11525      286E2920 
 11525      2831203C 
 11525      3C20286E 
 11525      292900
 11526              	.LASF593:
 11527 2a9a 4C50435F 		.ascii	"LPC_ADC ((LPC_ADC_T *) LPC_ADC_BASE)\000"
 11527      41444320 
 11527      28284C50 
 11527      435F4144 
 11527      435F5420 
 11528              	.LASF312:
 11529 2abf 5F5F4743 		.ascii	"__GCC_ATOMIC_SHORT_LOCK_FREE 1\000"
 11529      435F4154 
 11529      4F4D4943 
 11529      5F53484F 
 11529      52545F4C 
 11530              	.LASF445:
 11531 2ade 66616C73 		.ascii	"false 0\000"
 11531      65203000 
 11532              	.LASF508:
 11533 2ae6 5343425F 		.ascii	"SCB_ICSR_VECTPENDING_Pos 12\000"
 11533      49435352 
 11533      5F564543 
 11533      5450454E 
 11533      44494E47 
 11534              	.LASF700:
 11535 2b02 55415254 		.ascii	"UART_DLM_MASKBIT (0xFF)\000"
 11535      5F444C4D 
 11535      5F4D4153 
 11535      4B424954 
 11535      20283078 
 11536              	.LASF818:
 11537 2b1a 5F5F5353 		.ascii	"__SSP_11XX_H_ \000"
 11537      505F3131 
 11537      58585F48 
 11537      5F2000
 11538              	.LASF270:
 11539 2b29 5F5F4851 		.ascii	"__HQ_IBIT__ 0\000"
 11539      5F494249 
 11539      545F5F20 
 11539      3000
 11540              	.LASF473:
 11541 2b37 5F5F434F 		.ascii	"__CORTEX_M (0x00)\000"
 11541      52544558 
 11541      5F4D2028 
 11541      30783030 
 11541      2900
 11542              	.LASF232:
 11543 2b49 5F5F5553 		.ascii	"__USACCUM_FBIT__ 8\000"
 11543      41434355 
 11543      4D5F4642 
 11543      49545F5F 
 11543      203800
 11544              	.LASF316:
 11545 2b5c 5F5F4743 		.ascii	"__GCC_ATOMIC_TEST_AND_SET_TRUEVAL 1\000"
 11545      435F4154 
ARM GAS  /tmp/ccXTVNcx.s 			page 250


 11545      4F4D4943 
 11545      5F544553 
 11545      545F414E 
 11546              	.LASF903:
 11547 2b80 4932435F 		.ascii	"I2C_I2STAT_M_RX_ARB_LOST ((0x38))\000"
 11547      49325354 
 11547      41545F4D 
 11547      5F52585F 
 11547      4152425F 
 11548              	.LASF509:
 11549 2ba2 5343425F 		.ascii	"SCB_ICSR_VECTPENDING_Msk (0x1FFUL << SCB_ICSR_VECTP"
 11549      49435352 
 11549      5F564543 
 11549      5450454E 
 11549      44494E47 
 11550 2bd5 454E4449 		.ascii	"ENDING_Pos)\000"
 11550      4E475F50 
 11550      6F732900 
 11551              	.LASF687:
 11552 2be1 54494D45 		.ascii	"TIMER_RESET_ON_MATCH(n) (_BIT((((n) * 3) + 1)))\000"
 11552      525F5245 
 11552      5345545F 
 11552      4F4E5F4D 
 11552      41544348 
 11553              	.LASF247:
 11554 2c11 5F5F4C41 		.ascii	"__LACCUM_FBIT__ 31\000"
 11554      4343554D 
 11554      5F464249 
 11554      545F5F20 
 11554      333100
 11555              	.LASF950:
 11556 2c24 43414E5F 		.ascii	"CAN_ERROR_NONE 0x00000000UL\000"
 11556      4552524F 
 11556      525F4E4F 
 11556      4E452030 
 11556      78303030 
 11557              	.LASF636:
 11558 2c40 5F5F494F 		.ascii	"__IOCON_11XX_H_ \000"
 11558      434F4E5F 
 11558      31315858 
 11558      5F485F20 
 11558      00
 11559              	.LASF928:
 11560 2c51 4932435F 		.ascii	"I2C_I2MMCTRL_BITMASK ((0x07))\000"
 11560      49324D4D 
 11560      4354524C 
 11560      5F424954 
 11560      4D41534B 
 11561              	.LASF683:
 11562 2c6f 54494D45 		.ascii	"TIMER_CAP_INT(n) (_BIT((((n) & 0x0F) + 4)))\000"
 11562      525F4341 
 11562      505F494E 
 11562      54286E29 
 11562      20285F42 
 11563              	.LASF845:
 11564 2c9b 5F5F524F 		.ascii	"__ROMAPI_11XX_H_ \000"
 11564      4D415049 
ARM GAS  /tmp/ccXTVNcx.s 			page 251


 11564      5F313158 
 11564      585F485F 
 11564      2000
 11565              	.LASF1014:
 11566 2cad 53595350 		.ascii	"SYSPLLCTRL\000"
 11566      4C4C4354 
 11566      524C00
 11567              	.LASF293:
 11568 2cb8 5F5F5441 		.ascii	"__TA_FBIT__ 63\000"
 11568      5F464249 
 11568      545F5F20 
 11568      363300
 11569              	.LASF391:
 11570 2cc7 55494E54 		.ascii	"UINT16_MAX __UINT16_MAX__\000"
 11570      31365F4D 
 11570      4158205F 
 11570      5F55494E 
 11570      5431365F 
 11571              	.LASF470:
 11572 2ce1 5F5F434D 		.ascii	"__CM0_CMSIS_VERSION_MAIN (0x03)\000"
 11572      305F434D 
 11572      5349535F 
 11572      56455253 
 11572      494F4E5F 
 11573              	.LASF380:
 11574 2d01 494E5450 		.ascii	"INTPTR_MIN (-__INTPTR_MAX__ - 1)\000"
 11574      54525F4D 
 11574      494E2028 
 11574      2D5F5F49 
 11574      4E545054 
 11575              	.LASF1012:
 11576 2d22 5359534D 		.ascii	"SYSMEMREMAP\000"
 11576      454D5245 
 11576      4D415000 
 11577              	.LASF578:
 11578 2d2e 4C50435F 		.ascii	"LPC_CAN0_BASE 0x40050000\000"
 11578      43414E30 
 11578      5F424153 
 11578      45203078 
 11578      34303035 
 11579              	.LASF696:
 11580 2d47 55415254 		.ascii	"UART_RBR_MASKBIT (0xFF)\000"
 11580      5F524252 
 11580      5F4D4153 
 11580      4B424954 
 11580      20283078 
 11581              	.LASF339:
 11582 2d5f 5F5F4152 		.ascii	"__ARM_PCS 1\000"
 11582      4D5F5043 
 11582      53203100 
 11583              	.LASF1138:
 11584 2d6b 4932435F 		.ascii	"I2C_EVENT_SLAVE_RX\000"
 11584      4556454E 
 11584      545F534C 
 11584      4156455F 
 11584      525800
 11585              	.LASF878:
ARM GAS  /tmp/ccXTVNcx.s 			page 252


 11586 2d7e 4932435F 		.ascii	"I2C_I2CONSET_STA ((0x20))\000"
 11586      4932434F 
 11586      4E534554 
 11586      5F535441 
 11586      20282830 
 11587              	.LASF957:
 11588 2d98 43414E5F 		.ascii	"CAN_ERROR_BIT1 0x00000040UL\000"
 11588      4552524F 
 11588      525F4249 
 11588      54312030 
 11588      78303030 
 11589              	.LASF612:
 11590 2db4 53595343 		.ascii	"SYSCTL_RST_WDT (1 << 2)\000"
 11590      544C5F52 
 11590      53545F57 
 11590      44542028 
 11590      31203C3C 
 11591              	.LASF421:
 11592 2dcc 55494E54 		.ascii	"UINTMAX_MAX __UINTMAX_MAX__\000"
 11592      4D41585F 
 11592      4D415820 
 11592      5F5F5549 
 11592      4E544D41 
 11593              	.LASF576:
 11594 2de8 4C50435F 		.ascii	"LPC_SYSCTL_BASE 0x40048000\000"
 11594      53595343 
 11594      544C5F42 
 11594      41534520 
 11594      30783430 
 11595              	.LASF84:
 11596 2e03 5F5F5349 		.ascii	"__SIG_ATOMIC_MIN__ (-__SIG_ATOMIC_MAX__ - 1)\000"
 11596      475F4154 
 11596      4F4D4943 
 11596      5F4D494E 
 11596      5F5F2028 
 11597              	.LASF791:
 11598 2e30 55415254 		.ascii	"UART_ICR_PULSEDIV(n) ((n & 0x07) << 3)\000"
 11598      5F494352 
 11598      5F50554C 
 11598      53454449 
 11598      56286E29 
 11599              	.LASF244:
 11600 2e57 5F5F5541 		.ascii	"__UACCUM_MIN__ 0.0UK\000"
 11600      4343554D 
 11600      5F4D494E 
 11600      5F5F2030 
 11600      2E30554B 
 11601              	.LASF496:
 11602 2e6c 5343425F 		.ascii	"SCB_ICSR_PENDSVSET_Pos 28\000"
 11602      49435352 
 11602      5F50454E 
 11602      44535653 
 11602      45545F50 
 11603              	.LASF518:
 11604 2e86 5343425F 		.ascii	"SCB_AIRCR_SYSRESETREQ_Pos 2\000"
 11604      41495243 
 11604      525F5359 
ARM GAS  /tmp/ccXTVNcx.s 			page 253


 11604      53524553 
 11604      45545245 
 11605              	.LASF482:
 11606 2ea2 5F5F4F20 		.ascii	"__O volatile\000"
 11606      766F6C61 
 11606      74696C65 
 11606      00
 11607              	.LASF390:
 11608 2eaf 494E5431 		.ascii	"INT16_MAX __INT16_MAX__\000"
 11608      365F4D41 
 11608      58205F5F 
 11608      494E5431 
 11608      365F4D41 
 11609              	.LASF916:
 11610 2ec7 4932435F 		.ascii	"I2C_I2STAT_S_RX_STA_STO_SLVREC_SLVTRX ((0xA0))\000"
 11610      49325354 
 11610      41545F53 
 11610      5F52585F 
 11610      5354415F 
 11611              	.LASF423:
 11612 2ef6 5349475F 		.ascii	"SIG_ATOMIC_MIN (-__STDINT_EXP(INT_MAX) - 1)\000"
 11612      41544F4D 
 11612      49435F4D 
 11612      494E2028 
 11612      2D5F5F53 
 11613              	.LASF898:
 11614 2f22 4932435F 		.ascii	"I2C_I2STAT_M_TX_DAT_ACK ((0x28))\000"
 11614      49325354 
 11614      41545F4D 
 11614      5F54585F 
 11614      4441545F 
 11615              	.LASF783:
 11616 2f43 55415254 		.ascii	"UART_RS485CTRL_AADEN (1 << 2)\000"
 11616      5F525334 
 11616      38354354 
 11616      524C5F41 
 11616      4144454E 
 11617              	.LASF1041:
 11618 2f61 55534243 		.ascii	"USBCLKUEN\000"
 11618      4C4B5545 
 11618      4E00
 11619              	.LASF1181:
 11620 2f6b 636C6F63 		.ascii	"clockrate\000"
 11620      6B726174 
 11620      6500
 11621              	.LASF922:
 11622 2f75 4932435F 		.ascii	"I2C_SLAVE_TIME_OUT 0x10000000UL\000"
 11622      534C4156 
 11622      455F5449 
 11622      4D455F4F 
 11622      55542030 
 11623              	.LASF775:
 11624 2f95 55415254 		.ascii	"UART_ACR_START (1 << 0)\000"
 11624      5F414352 
 11624      5F535441 
 11624      52542028 
 11624      31203C3C 
ARM GAS  /tmp/ccXTVNcx.s 			page 254


 11625              	.LASF581:
 11626 2fad 4C50435F 		.ascii	"LPC_GPIO_PORT1_BASE 0x50010000\000"
 11626      4750494F 
 11626      5F504F52 
 11626      54315F42 
 11626      41534520 
 11627              	.LASF796:
 11628 2fcc 55415254 		.ascii	"UART_SCICTRL_PROTSEL_T1 (1 << 2)\000"
 11628      5F534349 
 11628      4354524C 
 11628      5F50524F 
 11628      5453454C 
 11629              	.LASF93:
 11630 2fed 5F5F494E 		.ascii	"__INT_LEAST8_MAX__ 127\000"
 11630      545F4C45 
 11630      41535438 
 11630      5F4D4158 
 11630      5F5F2031 
 11631              	.LASF411:
 11632 3004 494E545F 		.ascii	"INT_FAST16_MAX __INT_FAST16_MAX__\000"
 11632      46415354 
 11632      31365F4D 
 11632      4158205F 
 11632      5F494E54 
 11633              	.LASF875:
 11634 3026 4932435F 		.ascii	"I2C_I2CONSET_AA ((0x04))\000"
 11634      4932434F 
 11634      4E534554 
 11634      5F414120 
 11634      28283078 
 11635              	.LASF798:
 11636 303f 55415254 		.ascii	"UART_SCICTRL_GUARDTIME(n) ((n & 0xFF) << 8)\000"
 11636      5F534349 
 11636      4354524C 
 11636      5F475541 
 11636      52445449 
 11637              	.LASF1060:
 11638 306b 55534243 		.ascii	"USBCLKCTRL\000"
 11638      4C4B4354 
 11638      524C00
 11639              	.LASF179:
 11640 3076 5F5F4445 		.ascii	"__DEC64_SUBNORMAL_MIN__ 0.000000000000001E-383DD\000"
 11640      4336345F 
 11640      5355424E 
 11640      4F524D41 
 11640      4C5F4D49 
 11641              	.LASF196:
 11642 30a7 5F5F5553 		.ascii	"__USFRACT_EPSILON__ 0x1P-8UHR\000"
 11642      46524143 
 11642      545F4550 
 11642      53494C4F 
 11642      4E5F5F20 
 11643              	.LASF1164:
 11644 30c5 73746172 		.ascii	"startSlaverXfer\000"
 11644      74536C61 
 11644      76657258 
 11644      66657200 
ARM GAS  /tmp/ccXTVNcx.s 			page 255


 11645              	.LASF453:
 11646 30d5 5F424954 		.ascii	"_BITMASK\000"
 11646      4D41534B 
 11646      00
 11647              	.LASF112:
 11648 30de 5F5F494E 		.ascii	"__INT_FAST64_MAX__ 9223372036854775807LL\000"
 11648      545F4641 
 11648      53543634 
 11648      5F4D4158 
 11648      5F5F2039 
 11649              	.LASF596:
 11650 3107 4C50435F 		.ascii	"LPC_SSP0 ((LPC_SSP_T *) LPC_SSP0_BASE)\000"
 11650      53535030 
 11650      2028284C 
 11650      50435F53 
 11650      53505F54 
 11651              	.LASF192:
 11652 312e 5F5F5553 		.ascii	"__USFRACT_FBIT__ 8\000"
 11652      46524143 
 11652      545F4642 
 11652      49545F5F 
 11652      203800
 11653              	.LASF260:
 11654 3141 5F5F4C4C 		.ascii	"__LLACCUM_MAX__ 0X7FFFFFFFFFFFFFFFP-31LLK\000"
 11654      41434355 
 11654      4D5F4D41 
 11654      585F5F20 
 11654      30583746 
 11655              	.LASF712:
 11656 316b 55415254 		.ascii	"UART_IIR_FIFO_EN (3 << 6)\000"
 11656      5F494952 
 11656      5F464946 
 11656      4F5F454E 
 11656      20283320 
 11657              	.LASF678:
 11658 3185 46554E43 		.ascii	"FUNC6 0x6\000"
 11658      36203078 
 11658      3600
 11659              	.LASF373:
 11660 318f 5F5F696E 		.ascii	"__int_least32_t_defined 1\000"
 11660      745F6C65 
 11660      61737433 
 11660      325F745F 
 11660      64656669 
 11661              	.LASF304:
 11662 31a9 5F5F5553 		.ascii	"__USER_LABEL_PREFIX__ \000"
 11662      45525F4C 
 11662      4142454C 
 11662      5F505245 
 11662      4649585F 
 11663              	.LASF840:
 11664 31c0 5353505F 		.ascii	"SSP_CPHA_SECOND SSP_CR0_CPHA_SECOND\000"
 11664      43504841 
 11664      5F534543 
 11664      4F4E4420 
 11664      5353505F 
 11665              	.LASF583:
ARM GAS  /tmp/ccXTVNcx.s 			page 256


 11666 31e4 4C50435F 		.ascii	"LPC_GPIO_PORT3_BASE 0x50030000\000"
 11666      4750494F 
 11666      5F504F52 
 11666      54335F42 
 11666      41534520 
 11667              	.LASF408:
 11668 3203 494E545F 		.ascii	"INT_FAST8_MAX __INT_FAST8_MAX__\000"
 11668      46415354 
 11668      385F4D41 
 11668      58205F5F 
 11668      494E545F 
 11669              	.LASF736:
 11670 3223 55415254 		.ascii	"UART_LCR_WLEN8 (3 << 0)\000"
 11670      5F4C4352 
 11670      5F574C45 
 11670      4E382028 
 11670      33203C3C 
 11671              	.LASF1080:
 11672 323b 53595343 		.ascii	"SYSCTL_CLOCK_FLASHARRAY\000"
 11672      544C5F43 
 11672      4C4F434B 
 11672      5F464C41 
 11672      53484152 
 11673              	.LASF437:
 11674 3253 494E5436 		.ascii	"INT64_C(x) __INT64_C(x)\000"
 11674      345F4328 
 11674      7829205F 
 11674      5F494E54 
 11674      36345F43 
 11675              	.LASF383:
 11676 326b 494E5438 		.ascii	"INT8_MIN (-__INT8_MAX__ - 1)\000"
 11676      5F4D494E 
 11676      20282D5F 
 11676      5F494E54 
 11676      385F4D41 
 11677              	.LASF1168:
 11678 3288 696E6465 		.ascii	"index\000"
 11678      7800
 11679              	.LASF1082:
 11680 328e 53595343 		.ascii	"SYSCTL_CLOCK_GPIO\000"
 11680      544C5F43 
 11680      4C4F434B 
 11680      5F475049 
 11680      4F00
 11681              	.LASF513:
 11682 32a0 5343425F 		.ascii	"SCB_AIRCR_VECTKEY_Msk (0xFFFFUL << SCB_AIRCR_VECTKE"
 11682      41495243 
 11682      525F5645 
 11682      43544B45 
 11682      595F4D73 
 11683 32d3 595F506F 		.ascii	"Y_Pos)\000"
 11683      732900
 11684              	.LASF1187:
 11685 32da 43686970 		.ascii	"Chip_I2C_MasterSend\000"
 11685      5F493243 
 11685      5F4D6173 
 11685      74657253 
ARM GAS  /tmp/ccXTVNcx.s 			page 257


 11685      656E6400 
 11686              	.LASF1152:
 11687 32ee 43686970 		.ascii	"Chip_Clock_DisablePeriphClock\000"
 11687      5F436C6F 
 11687      636B5F44 
 11687      69736162 
 11687      6C655065 
 11688              	.LASF605:
 11689 330c 504D555F 		.ascii	"PMU_PCON_PM_DEEPPOWERDOWN (0x2)\000"
 11689      50434F4E 
 11689      5F504D5F 
 11689      44454550 
 11689      504F5745 
 11690              	.LASF719:
 11691 332c 55415254 		.ascii	"UART_IIR_INTID_CTI (6 << 1)\000"
 11691      5F494952 
 11691      5F494E54 
 11691      49445F43 
 11691      54492028 
 11692              	.LASF1017:
 11693 3348 55534250 		.ascii	"USBPLLSTAT\000"
 11693      4C4C5354 
 11693      415400
 11694              	.LASF1195:
 11695 3353 61646472 		.ascii	"addrMask\000"
 11695      4D61736B 
 11695      00
 11696              	.LASF324:
 11697 335c 5F5F4152 		.ascii	"__ARM_SIZEOF_WCHAR_T 4\000"
 11697      4D5F5349 
 11697      5A454F46 
 11697      5F574348 
 11697      41525F54 
 11698              	.LASF65:
 11699 3373 5F5F6861 		.ascii	"__has_include(STR) __has_include__(STR)\000"
 11699      735F696E 
 11699      636C7564 
 11699      65285354 
 11699      5229205F 
 11700              	.LASF974:
 11701 339b 53444F5F 		.ascii	"SDO_ABORT_UNKNOWNSUB 0x06090011UL\000"
 11701      41424F52 
 11701      545F554E 
 11701      4B4E4F57 
 11701      4E535542 
 11702              	.LASF493:
 11703 33bd 5343425F 		.ascii	"SCB_CPUID_REVISION_Msk (0xFUL << SCB_CPUID_REVISION"
 11703      43505549 
 11703      445F5245 
 11703      56495349 
 11703      4F4E5F4D 
 11704 33f0 5F506F73 		.ascii	"_Pos)\000"
 11704      2900
 11705              	.LASF724:
 11706 33f6 55415254 		.ascii	"UART_FCR_TX_RS (1 << 2)\000"
 11706      5F464352 
 11706      5F54585F 
ARM GAS  /tmp/ccXTVNcx.s 			page 258


 11706      52532028 
 11706      31203C3C 
 11707              	.LASF637:
 11708 340e 494F434F 		.ascii	"IOCON_FUNC0 0x0\000"
 11708      4E5F4655 
 11708      4E433020 
 11708      30783000 
 11709              	.LASF147:
 11710 341e 5F5F4442 		.ascii	"__DBL_EPSILON__ ((double)2.2204460492503131e-16L)\000"
 11710      4C5F4550 
 11710      53494C4F 
 11710      4E5F5F20 
 11710      2828646F 
 11711              	.LASF758:
 11712 3450 55415254 		.ascii	"UART_LSR_FE (1 << 3)\000"
 11712      5F4C5352 
 11712      5F464520 
 11712      2831203C 
 11712      3C203329 
 11713              	.LASF136:
 11714 3465 5F5F464C 		.ascii	"__FLT_HAS_INFINITY__ 1\000"
 11714      545F4841 
 11714      535F494E 
 11714      46494E49 
 11714      54595F5F 
 11715              	.LASF931:
 11716 347c 4932435F 		.ascii	"I2C_I2ADR_BITMASK ((0xFF))\000"
 11716      49324144 
 11716      525F4249 
 11716      544D4153 
 11716      4B202828 
 11717              	.LASF507:
 11718 3497 5343425F 		.ascii	"SCB_ICSR_ISRPENDING_Msk (1UL << SCB_ICSR_ISRPENDING"
 11718      49435352 
 11718      5F495352 
 11718      50454E44 
 11718      494E475F 
 11719 34ca 5F506F73 		.ascii	"_Pos)\000"
 11719      2900
 11720              	.LASF155:
 11721 34d0 5F5F4C44 		.ascii	"__LDBL_MIN_10_EXP__ (-307)\000"
 11721      424C5F4D 
 11721      494E5F31 
 11721      305F4558 
 11721      505F5F20 
 11722              	.LASF789:
 11723 34eb 55415254 		.ascii	"UART_ICR_IRDAINV (1 << 1)\000"
 11723      5F494352 
 11723      5F495244 
 11723      41494E56 
 11723      20283120 
 11724              	.LASF1102:
 11725 3505 4D4D4354 		.ascii	"MMCTRL\000"
 11725      524C00
 11726              	.LASF589:
 11727 350c 4C50435F 		.ascii	"LPC_TIMER16_0 ((LPC_TIMER_T *) LPC_TIMER16_0_BASE)\000"
 11727      54494D45 
ARM GAS  /tmp/ccXTVNcx.s 			page 259


 11727      5231365F 
 11727      30202828 
 11727      4C50435F 
 11728              	.LASF318:
 11729 353f 5F5F4743 		.ascii	"__GCC_HAVE_DWARF2_CFI_ASM 1\000"
 11729      435F4841 
 11729      56455F44 
 11729      57415246 
 11729      325F4346 
 11730              	.LASF1160:
 11731 355b 656E6162 		.ascii	"enableClk\000"
 11731      6C65436C 
 11731      6B00
 11732              	.LASF189:
 11733 3565 5F5F5346 		.ascii	"__SFRACT_MIN__ (-0.5HR-0.5HR)\000"
 11733      52414354 
 11733      5F4D494E 
 11733      5F5F2028 
 11733      2D302E35 
 11734              	.LASF1003:
 11735 3583 6C6F6E67 		.ascii	"long unsigned int\000"
 11735      20756E73 
 11735      69676E65 
 11735      6420696E 
 11735      7400
 11736              	.LASF290:
 11737 3595 5F5F5341 		.ascii	"__SA_IBIT__ 16\000"
 11737      5F494249 
 11737      545F5F20 
 11737      313600
 11738              	.LASF1169:
 11739 35a4 61626173 		.ascii	"abase\000"
 11739      6500
 11740              	.LASF2:
 11741 35aa 5F5F474E 		.ascii	"__GNUC__ 4\000"
 11741      55435F5F 
 11741      203400
 11742              	.LASF1119:
 11743 35b5 4932435F 		.ascii	"I2C_STATUS_BUSERR\000"
 11743      53544154 
 11743      55535F42 
 11743      55534552 
 11743      5200
 11744              	.LASF1128:
 11745 35c7 4932435F 		.ascii	"I2C_XFER_T\000"
 11745      58464552 
 11745      5F5400
 11746              	.LASF1139:
 11747 35d2 4932435F 		.ascii	"I2C_EVENT_SLAVE_TX\000"
 11747      4556454E 
 11747      545F534C 
 11747      4156455F 
 11747      545800
 11748              	.LASF682:
 11749 35e5 54494D45 		.ascii	"TIMER_MATCH_INT(n) (_BIT((n) & 0x0F))\000"
 11749      525F4D41 
 11749      5443485F 
ARM GAS  /tmp/ccXTVNcx.s 			page 260


 11749      494E5428 
 11749      6E292028 
 11750              	.LASF44:
 11751 360b 5F5F5549 		.ascii	"__UINT16_TYPE__ short unsigned int\000"
 11751      4E543136 
 11751      5F545950 
 11751      455F5F20 
 11751      73686F72 
 11752              	.LASF785:
 11753 362e 55415254 		.ascii	"UART_RS485CTRL_DCTRL_EN (1 << 4)\000"
 11753      5F525334 
 11753      38354354 
 11753      524C5F44 
 11753      4354524C 
 11754              	.LASF333:
 11755 364f 5F5F534F 		.ascii	"__SOFTFP__ 1\000"
 11755      46544650 
 11755      5F5F2031 
 11755      00
 11756              	.LASF1127:
 11757 365c 73746174 		.ascii	"status\000"
 11757      757300
 11758              	.LASF168:
 11759 3663 5F5F4445 		.ascii	"__DEC32_MAX_EXP__ 97\000"
 11759      4333325F 
 11759      4D41585F 
 11759      4558505F 
 11759      5F203937 
 11760              	.LASF550:
 11761 3678 53797354 		.ascii	"SysTick_CALIB_TENMS_Pos 0\000"
 11761      69636B5F 
 11761      43414C49 
 11761      425F5445 
 11761      4E4D535F 
 11762              	.LASF805:
 11763 3692 55415254 		.ascii	"UART_SYNCCTRL_CSRC_MASTER (1 << 1)\000"
 11763      5F53594E 
 11763      43435452 
 11763      4C5F4353 
 11763      52435F4D 
 11764              	.LASF620:
 11765 36b5 53595343 		.ascii	"SYSCTL_SLPWAKE_FLASH_PD (1 << 2)\000"
 11765      544C5F53 
 11765      4C505741 
 11765      4B455F46 
 11765      4C415348 
 11766              	.LASF553:
 11767 36d6 53797354 		.ascii	"SysTick_BASE (SCS_BASE + 0x0010UL)\000"
 11767      69636B5F 
 11767      42415345 
 11767      20285343 
 11767      535F4241 
 11768              	.LASF1116:
 11769 36f9 4932435F 		.ascii	"I2C_STATUS_DONE\000"
 11769      53544154 
 11769      55535F44 
 11769      4F4E4500 
ARM GAS  /tmp/ccXTVNcx.s 			page 261


 11770              	.LASF868:
 11771 3709 5F5F4750 		.ascii	"__GPIO_11XX_2_H_ \000"
 11771      494F5F31 
 11771      3158585F 
 11771      325F485F 
 11771      2000
 11772              	.LASF431:
 11773 371b 494E5438 		.ascii	"INT8_C(x) __INT8_C(x)\000"
 11773      5F432878 
 11773      29205F5F 
 11773      494E5438 
 11773      5F432878 
 11774              	.LASF59:
 11775 3731 5F5F5549 		.ascii	"__UINT_FAST8_TYPE__ unsigned int\000"
 11775      4E545F46 
 11775      41535438 
 11775      5F545950 
 11775      455F5F20 
 11776              	.LASF258:
 11777 3752 5F5F4C4C 		.ascii	"__LLACCUM_IBIT__ 32\000"
 11777      41434355 
 11777      4D5F4942 
 11777      49545F5F 
 11777      20333200 
 11778              	.LASF1115:
 11779 3766 4932435F 		.ascii	"I2C_SLAVE_ID\000"
 11779      534C4156 
 11779      455F4944 
 11779      00
 11780              	.LASF201:
 11781 3773 5F5F4652 		.ascii	"__FRACT_EPSILON__ 0x1P-15R\000"
 11781      4143545F 
 11781      45505349 
 11781      4C4F4E5F 
 11781      5F203078 
 11782              	.LASF458:
 11783 378e 45585445 		.ascii	"EXTERN extern\000"
 11783      524E2065 
 11783      78746572 
 11783      6E00
 11784              	.LASF505:
 11785 379c 5343425F 		.ascii	"SCB_ICSR_ISRPREEMPT_Msk (1UL << SCB_ICSR_ISRPREEMPT"
 11785      49435352 
 11785      5F495352 
 11785      50524545 
 11785      4D50545F 
 11786 37cf 5F506F73 		.ascii	"_Pos)\000"
 11786      2900
 11787              	.LASF750:
 11788 37d5 55415254 		.ascii	"UART_MCR_RTS_CTRL (1 << 1)\000"
 11788      5F4D4352 
 11788      5F525453 
 11788      5F435452 
 11788      4C202831 
 11789              	.LASF832:
 11790 37f0 5353505F 		.ascii	"SSP_CR1_MASTER_EN ((uint32_t) (0))\000"
 11790      4352315F 
ARM GAS  /tmp/ccXTVNcx.s 			page 262


 11790      4D415354 
 11790      45525F45 
 11790      4E202828 
 11791              	.LASF941:
 11792 3813 4932435F 		.ascii	"I2C_LAST_BYTE_RECV 0x04\000"
 11792      4C415354 
 11792      5F425954 
 11792      455F5245 
 11792      43562030 
 11793              	.LASF341:
 11794 382b 5F5F4758 		.ascii	"__GXX_TYPEINFO_EQUALITY_INLINE 0\000"
 11794      585F5459 
 11794      5045494E 
 11794      464F5F45 
 11794      5155414C 
 11795              	.LASF466:
 11796 384c 5F5F4D50 		.ascii	"__MPU_PRESENT 0\000"
 11796      555F5052 
 11796      4553454E 
 11796      54203000 
 11797              	.LASF38:
 11798 385c 5F5F5349 		.ascii	"__SIG_ATOMIC_TYPE__ int\000"
 11798      475F4154 
 11798      4F4D4943 
 11798      5F545950 
 11798      455F5F20 
 11799              	.LASF590:
 11800 3874 4C50435F 		.ascii	"LPC_TIMER16_1 ((LPC_TIMER_T *) LPC_TIMER16_1_BASE)\000"
 11800      54494D45 
 11800      5231365F 
 11800      31202828 
 11800      4C50435F 
 11801              	.LASF70:
 11802 38a7 5F5F494E 		.ascii	"__INT_MAX__ 2147483647\000"
 11802      545F4D41 
 11802      585F5F20 
 11802      32313437 
 11802      34383336 
 11803              	.LASF54:
 11804 38be 5F5F5549 		.ascii	"__UINT_LEAST64_TYPE__ long long unsigned int\000"
 11804      4E545F4C 
 11804      45415354 
 11804      36345F54 
 11804      5950455F 
 11805              	.LASF185:
 11806 38eb 5F5F4445 		.ascii	"__DEC128_EPSILON__ 1E-33DL\000"
 11806      43313238 
 11806      5F455053 
 11806      494C4F4E 
 11806      5F5F2031 
 11807              	.LASF1192:
 11808 3906 43686970 		.ascii	"Chip_I2C_MasterStateHandler\000"
 11808      5F493243 
 11808      5F4D6173 
 11808      74657253 
 11808      74617465 
 11809              	.LASF87:
ARM GAS  /tmp/ccXTVNcx.s 			page 263


 11810 3922 5F5F494E 		.ascii	"__INT32_MAX__ 2147483647L\000"
 11810      5433325F 
 11810      4D41585F 
 11810      5F203231 
 11810      34373438 
 11811              	.LASF984:
 11812 393c 4F445F53 		.ascii	"OD_SEG_WO 0x50\000"
 11812      45475F57 
 11812      4F203078 
 11812      353000
 11813              	.LASF642:
 11814 394b 494F434F 		.ascii	"IOCON_FUNC5 0x5\000"
 11814      4E5F4655 
 11814      4E433520 
 11814      30783500 
 11815              	.LASF309:
 11816 395b 5F5F4743 		.ascii	"__GCC_ATOMIC_CHAR16_T_LOCK_FREE 1\000"
 11816      435F4154 
 11816      4F4D4943 
 11816      5F434841 
 11816      5231365F 
 11817              	.LASF1145:
 11818 397d 73586665 		.ascii	"sXfer\000"
 11818      7200
 11819              	.LASF9:
 11820 3983 5F5F4154 		.ascii	"__ATOMIC_RELEASE 3\000"
 11820      4F4D4943 
 11820      5F52454C 
 11820      45415345 
 11820      203300
 11821              	.LASF899:
 11822 3996 4932435F 		.ascii	"I2C_I2STAT_M_TX_DAT_NACK ((0x30))\000"
 11822      49325354 
 11822      41545F4D 
 11822      5F54585F 
 11822      4441545F 
 11823              	.LASF124:
 11824 39b8 5F5F464C 		.ascii	"__FLT_MANT_DIG__ 24\000"
 11824      545F4D41 
 11824      4E545F44 
 11824      49475F5F 
 11824      20323400 
 11825              	.LASF1129:
 11826 39cc 43484950 		.ascii	"CHIP_SYSCTL_CLOCK\000"
 11826      5F535953 
 11826      43544C5F 
 11826      434C4F43 
 11826      4B00
 11827              	.LASF1057:
 11828 39de 4952514C 		.ascii	"IRQLATENCY\000"
 11828      4154454E 
 11828      435900
 11829              	.LASF57:
 11830 39e9 5F5F494E 		.ascii	"__INT_FAST32_TYPE__ int\000"
 11830      545F4641 
 11830      53543332 
 11830      5F545950 
ARM GAS  /tmp/ccXTVNcx.s 			page 264


 11830      455F5F20 
 11831              	.LASF1092:
 11832 3a01 53595343 		.ascii	"SYSCTL_CLOCK_IOCON\000"
 11832      544C5F43 
 11832      4C4F434B 
 11832      5F494F43 
 11832      4F4E00
 11833              	.LASF892:
 11834 3a14 4932435F 		.ascii	"I2C_I2STAT_NO_INF ((0xF8))\000"
 11834      49325354 
 11834      41545F4E 
 11834      4F5F494E 
 11834      46202828 
 11835              	.LASF854:
 11836 3a2f 4144435F 		.ascii	"ADC_CR_CH_SEL(n) ((1UL << (n)))\000"
 11836      43525F43 
 11836      485F5345 
 11836      4C286E29 
 11836      20282831 
 11837              	.LASF12:
 11838 3a4f 5F5F4F50 		.ascii	"__OPTIMIZE__ 1\000"
 11838      54494D49 
 11838      5A455F5F 
 11838      203100
 11839              	.LASF1123:
 11840 3a5e 74784275 		.ascii	"txBuff\000"
 11840      666600
 11841              	.LASF1190:
 11842 3a65 43686970 		.ascii	"Chip_I2C_MasterRead\000"
 11842      5F493243 
 11842      5F4D6173 
 11842      74657252 
 11842      65616400 
 11843              	.LASF602:
 11844 3a79 4C50435F 		.ascii	"LPC_ROM_API (*((LPC_ROM_API_T * *) LPC_ROM_API_BASE"
 11844      524F4D5F 
 11844      41504920 
 11844      282A2828 
 11844      4C50435F 
 11845 3aac 5F4C4F43 		.ascii	"_LOC))\000"
 11845      292900
 11846              	.LASF462:
 11847 3ab3 5F5F5359 		.ascii	"__SYS_CONFIG_H_ \000"
 11847      535F434F 
 11847      4E464947 
 11847      5F485F20 
 11847      00
 11848              	.LASF481:
 11849 3ac4 5F5F4920 		.ascii	"__I volatile const\000"
 11849      766F6C61 
 11849      74696C65 
 11849      20636F6E 
 11849      737400
 11850              	.LASF815:
 11851 3ad7 57574454 		.ascii	"WWDT_WDMOD_WDTOF ((uint32_t) (1 << 2))\000"
 11851      5F57444D 
 11851      4F445F57 
ARM GAS  /tmp/ccXTVNcx.s 			page 265


 11851      44544F46 
 11851      20282875 
 11852              	.LASF864:
 11853 3afe 4144435F 		.ascii	"ADC_CR_START_ADCTRIG1 ((5UL << 24))\000"
 11853      43525F53 
 11853      54415254 
 11853      5F414443 
 11853      54524947 
 11854              	.LASF162:
 11855 3b22 5F5F4C44 		.ascii	"__LDBL_DENORM_MIN__ 4.9406564584124654e-324L\000"
 11855      424C5F44 
 11855      454E4F52 
 11855      4D5F4D49 
 11855      4E5F5F20 
 11856              	.LASF582:
 11857 3b4f 4C50435F 		.ascii	"LPC_GPIO_PORT2_BASE 0x50020000\000"
 11857      4750494F 
 11857      5F504F52 
 11857      54325F42 
 11857      41534520 
 11858              	.LASF1161:
 11859 3b6e 64697361 		.ascii	"disableClk\000"
 11859      626C6543 
 11859      6C6B00
 11860              	.LASF370:
 11861 3b79 5F5F696E 		.ascii	"__int16_t_defined 1\000"
 11861      7431365F 
 11861      745F6465 
 11861      66696E65 
 11861      64203100 
 11862              	.LASF223:
 11863 3b8d 5F5F554C 		.ascii	"__ULLFRACT_IBIT__ 0\000"
 11863      4C465241 
 11863      43545F49 
 11863      4249545F 
 11863      5F203000 
 11864              	.LASF1077:
 11865 3ba1 53595343 		.ascii	"SYSCTL_CLOCK_ROM\000"
 11865      544C5F43 
 11865      4C4F434B 
 11865      5F524F4D 
 11865      00
 11866              	.LASF502:
 11867 3bb2 5343425F 		.ascii	"SCB_ICSR_PENDSTCLR_Pos 25\000"
 11867      49435352 
 11867      5F50454E 
 11867      44535443 
 11867      4C525F50 
 11868              	.LASF765:
 11869 3bcc 55415254 		.ascii	"UART1_LSR_BITMASK (0x1FF)\000"
 11869      315F4C53 
 11869      525F4249 
 11869      544D4153 
 11869      4B202830 
 11870              	.LASF731:
 11871 3be6 55415254 		.ascii	"UART_FCR_TRG_LEV3 (3 << 6)\000"
 11871      5F464352 
ARM GAS  /tmp/ccXTVNcx.s 			page 266


 11871      5F545247 
 11871      5F4C4556 
 11871      33202833 
 11872              	.LASF781:
 11873 3c01 55415254 		.ascii	"UART_RS485CTRL_NMM_EN (1 << 0)\000"
 11873      5F525334 
 11873      38354354 
 11873      524C5F4E 
 11873      4D4D5F45 
 11874              	.LASF599:
 11875 3c20 4C50435F 		.ascii	"LPC_SSP1 ((LPC_SSP_T *) LPC_SSP1_BASE)\000"
 11875      53535031 
 11875      2028284C 
 11875      50435F53 
 11875      53505F54 
 11876              	.LASF793:
 11877 3c47 55415254 		.ascii	"UART_HDEN_HDEN ((1 << 0))\000"
 11877      5F484445 
 11877      4E5F4844 
 11877      454E2028 
 11877      2831203C 
 11878              	.LASF492:
 11879 3c61 5343425F 		.ascii	"SCB_CPUID_REVISION_Pos 0\000"
 11879      43505549 
 11879      445F5245 
 11879      56495349 
 11879      4F4E5F50 
 11880              	.LASF476:
 11881 3c7a 5F5F5354 		.ascii	"__STATIC_INLINE static inline\000"
 11881      41544943 
 11881      5F494E4C 
 11881      494E4520 
 11881      73746174 
 11882              	.LASF572:
 11883 3c98 4C50435F 		.ascii	"LPC_PMU_BASE 0x40038000\000"
 11883      504D555F 
 11883      42415345 
 11883      20307834 
 11883      30303338 
 11884              	.LASF375:
 11885 3cb0 5F5F696E 		.ascii	"__int_least64_t_defined 1\000"
 11885      745F6C65 
 11885      61737436 
 11885      345F745F 
 11885      64656669 
 11886              	.LASF131:
 11887 3cca 5F5F464C 		.ascii	"__FLT_MAX__ 3.4028234663852886e+38F\000"
 11887      545F4D41 
 11887      585F5F20 
 11887      332E3430 
 11887      32383233 
 11888              	.LASF396:
 11889 3cee 494E5433 		.ascii	"INT32_MAX __INT32_MAX__\000"
 11889      325F4D41 
 11889      58205F5F 
 11889      494E5433 
 11889      325F4D41 
ARM GAS  /tmp/ccXTVNcx.s 			page 267


 11890              	.LASF242:
 11891 3d06 5F5F5541 		.ascii	"__UACCUM_FBIT__ 16\000"
 11891      4343554D 
 11891      5F464249 
 11891      545F5F20 
 11891      313600
 11892              	.LASF990:
 11893 3d19 43414E5F 		.ascii	"CAN_SDOSEG_OPEN 1\000"
 11893      53444F53 
 11893      45475F4F 
 11893      50454E20 
 11893      3100
 11894              	.LASF206:
 11895 3d2b 5F5F5546 		.ascii	"__UFRACT_EPSILON__ 0x1P-16UR\000"
 11895      52414354 
 11895      5F455053 
 11895      494C4F4E 
 11895      5F5F2030 
 11896              	.LASF74:
 11897 3d48 5F5F5743 		.ascii	"__WCHAR_MIN__ 0U\000"
 11897      4841525F 
 11897      4D494E5F 
 11897      5F203055 
 11897      00
 11898              	.LASF91:
 11899 3d59 5F5F5549 		.ascii	"__UINT32_MAX__ 4294967295UL\000"
 11899      4E543332 
 11899      5F4D4158 
 11899      5F5F2034 
 11899      32393439 
 11900              	.LASF278:
 11901 3d75 5F5F5551 		.ascii	"__UQQ_IBIT__ 0\000"
 11901      515F4942 
 11901      49545F5F 
 11901      203000
 11902              	.LASF314:
 11903 3d84 5F5F4743 		.ascii	"__GCC_ATOMIC_LONG_LOCK_FREE 1\000"
 11903      435F4154 
 11903      4F4D4943 
 11903      5F4C4F4E 
 11903      475F4C4F 
 11904              	.LASF254:
 11905 3da2 5F5F554C 		.ascii	"__ULACCUM_MIN__ 0.0ULK\000"
 11905      41434355 
 11905      4D5F4D49 
 11905      4E5F5F20 
 11905      302E3055 
 11906              	.LASF1002:
 11907 3db9 5F5F7569 		.ascii	"__uint32_t\000"
 11907      6E743332 
 11907      5F7400
 11908              	.LASF159:
 11909 3dc4 5F5F4C44 		.ascii	"__LDBL_MAX__ 1.7976931348623157e+308L\000"
 11909      424C5F4D 
 11909      41585F5F 
 11909      20312E37 
 11909      39373639 
ARM GAS  /tmp/ccXTVNcx.s 			page 268


 11910              	.LASF123:
 11911 3dea 5F5F464C 		.ascii	"__FLT_RADIX__ 2\000"
 11911      545F5241 
 11911      4449585F 
 11911      5F203200 
 11912              	.LASF1004:
 11913 3dfa 6C6F6E67 		.ascii	"long long int\000"
 11913      206C6F6E 
 11913      6720696E 
 11913      7400
 11914              	.LASF844:
 11915 3e08 5353505F 		.ascii	"SSP_MASTER_MODE SSP_CR1_MASTER_EN\000"
 11915      4D415354 
 11915      45525F4D 
 11915      4F444520 
 11915      5353505F 
 11916              	.LASF676:
 11917 3e2a 46554E43 		.ascii	"FUNC4 0x4\000"
 11917      34203078 
 11917      3400
 11918              	.LASF748:
 11919 3e34 55415254 		.ascii	"UART_LCR_BITMASK (0xFF)\000"
 11919      5F4C4352 
 11919      5F424954 
 11919      4D41534B 
 11919      20283078 
 11920              	.LASF1200:
 11921 3e4c 474E5520 		.ascii	"GNU C 4.9.3 20150303 (release) [ARM/embedded-4_9-br"
 11921      4320342E 
 11921      392E3320 
 11921      32303135 
 11921      30333033 
 11922 3e7f 616E6368 		.ascii	"anch revision 221220] -mcpu=cortex-m0 -mthumb -g -g"
 11922      20726576 
 11922      6973696F 
 11922      6E203232 
 11922      31323230 
 11923 3eb2 67646233 		.ascii	"gdb3 -O2 -std=gnu90 -ffunction-sections -fdata-sect"
 11923      202D4F32 
 11923      202D7374 
 11923      643D676E 
 11923      75393020 
 11924 3ee5 696F6E73 		.ascii	"ions\000"
 11924      00
 11925              	.LASF1186:
 11926 3eea 43686970 		.ascii	"Chip_I2C_MasterTransfer\000"
 11926      5F493243 
 11926      5F4D6173 
 11926      74657254 
 11926      72616E73 
 11927              	.LASF739:
 11928 3f02 55415254 		.ascii	"UART_LCR_SBS_2BIT (1 << 2)\000"
 11928      5F4C4352 
 11928      5F534253 
 11928      5F324249 
 11928      54202831 
 11929              	.LASF695:
ARM GAS  /tmp/ccXTVNcx.s 			page 269


 11930 3f1d 52425F56 		.ascii	"RB_VTAIL(rb) (*(volatile uint32_t *) &(rb)->tail)\000"
 11930      5441494C 
 11930      28726229 
 11930      20282A28 
 11930      766F6C61 
 11931              	.LASF937:
 11932 3f4f 4932435F 		.ascii	"I2C_SETUP_STATUS_DONE (1 << 10)\000"
 11932      53455455 
 11932      505F5354 
 11932      41545553 
 11932      5F444F4E 
 11933              	.LASF623:
 11934 3f6f 53595343 		.ascii	"SYSCTL_SLPWAKE_SYSOSC_PD (1 << 5)\000"
 11934      544C5F53 
 11934      4C505741 
 11934      4B455F53 
 11934      59534F53 
 11935              	.LASF952:
 11936 3f91 43414E5F 		.ascii	"CAN_ERROR_WARN 0x00000002UL\000"
 11936      4552524F 
 11936      525F5741 
 11936      524E2030 
 11936      78303030 
 11937              	.LASF852:
 11938 3fad 4144435F 		.ascii	"ADC_DR_DONE(n) (((n) >> 31))\000"
 11938      44525F44 
 11938      4F4E4528 
 11938      6E292028 
 11938      28286E29 
 11939              	.LASF853:
 11940 3fca 4144435F 		.ascii	"ADC_DR_OVERRUN(n) ((((n) >> 30) & (1UL)))\000"
 11940      44525F4F 
 11940      56455252 
 11940      554E286E 
 11940      29202828 
 11941              	.LASF288:
 11942 3ff4 5F5F4841 		.ascii	"__HA_IBIT__ 8\000"
 11942      5F494249 
 11942      545F5F20 
 11942      3800
 11943              	.LASF305:
 11944 4002 5F5F474E 		.ascii	"__GNUC_GNU_INLINE__ 1\000"
 11944      55435F47 
 11944      4E555F49 
 11944      4E4C494E 
 11944      455F5F20 
 11945              	.LASF1183:
 11946 4018 43686970 		.ascii	"Chip_I2C_GetClockRate\000"
 11946      5F493243 
 11946      5F476574 
 11946      436C6F63 
 11946      6B526174 
 11947              	.LASF559:
 11948 402e 5F424954 		.ascii	"_BIT_SHIFT(IRQn) ( (((uint32_t)(IRQn) ) & 0x03) * 8"
 11948      5F534849 
 11948      46542849 
 11948      52516E29 
ARM GAS  /tmp/ccXTVNcx.s 			page 270


 11948      20282028 
 11949 4061 202900   		.ascii	" )\000"
 11950              	.LASF419:
 11951 4064 494E544D 		.ascii	"INTMAX_MAX __INTMAX_MAX__\000"
 11951      41585F4D 
 11951      4158205F 
 11951      5F494E54 
 11951      4D41585F 
 11952              	.LASF1204:
 11953 407e 43686970 		.ascii	"Chip_Clock_GetMainClockRate\000"
 11953      5F436C6F 
 11953      636B5F47 
 11953      65744D61 
 11953      696E436C 
 11954              	.LASF769:
 11955 409a 55415254 		.ascii	"UART_MSR_DELTA_DCD (1 << 3)\000"
 11955      5F4D5352 
 11955      5F44454C 
 11955      54415F44 
 11955      43442028 
 11956              	.LASF794:
 11957 40b6 55415254 		.ascii	"UART_SCICTRL_SCIEN (1 << 0)\000"
 11957      5F534349 
 11957      4354524C 
 11957      5F534349 
 11957      454E2028 
 11958              	.LASF934:
 11959 40d2 4932435F 		.ascii	"I2C_I2SCLL_BITMASK ((0xFFFF))\000"
 11959      49325343 
 11959      4C4C5F42 
 11959      49544D41 
 11959      534B2028 
 11960              	.LASF1023:
 11961 40f0 53595352 		.ascii	"SYSRSTSTAT\000"
 11961      53545354 
 11961      415400
 11962              	.LASF80:
 11963 40fb 5F5F494E 		.ascii	"__INTMAX_C(c) c ## LL\000"
 11963      544D4158 
 11963      5F432863 
 11963      29206320 
 11963      2323204C 
 11964              	.LASF817:
 11965 4111 57574454 		.ascii	"WWDT_WDMOD_WDPROTECT ((uint32_t) (1 << 4))\000"
 11965      5F57444D 
 11965      4F445F57 
 11965      4450524F 
 11965      54454354 
 11966              	.LASF744:
 11967 413c 55415254 		.ascii	"UART_LCR_PARITY_F_1 (2 << 4)\000"
 11967      5F4C4352 
 11967      5F504152 
 11967      4954595F 
 11967      465F3120 
 11968              	.LASF740:
 11969 4159 55415254 		.ascii	"UART_LCR_PARITY_EN (1 << 3)\000"
 11969      5F4C4352 
ARM GAS  /tmp/ccXTVNcx.s 			page 271


 11969      5F504152 
 11969      4954595F 
 11969      454E2028 
 11970              	.LASF42:
 11971 4175 5F5F494E 		.ascii	"__INT64_TYPE__ long long int\000"
 11971      5436345F 
 11971      54595045 
 11971      5F5F206C 
 11971      6F6E6720 
 11972              	.LASF207:
 11973 4192 5F5F4C46 		.ascii	"__LFRACT_FBIT__ 31\000"
 11973      52414354 
 11973      5F464249 
 11973      545F5F20 
 11973      333100
 11974              	.LASF22:
 11975 41a5 5F5F4348 		.ascii	"__CHAR_BIT__ 8\000"
 11975      41525F42 
 11975      49545F5F 
 11975      203800
 11976              	.LASF320:
 11977 41b4 5F5F5349 		.ascii	"__SIZEOF_WCHAR_T__ 4\000"
 11977      5A454F46 
 11977      5F574348 
 11977      41525F54 
 11977      5F5F2034 
 11978              	.LASF573:
 11979 41c9 4C50435F 		.ascii	"LPC_FLASH_BASE 0x4003C000\000"
 11979      464C4153 
 11979      485F4241 
 11979      53452030 
 11979      78343030 
 11980              	.LASF392:
 11981 41e3 494E545F 		.ascii	"INT_LEAST16_MIN (-__INT_LEAST16_MAX__ - 1)\000"
 11981      4C454153 
 11981      5431365F 
 11981      4D494E20 
 11981      282D5F5F 
 11982              	.LASF1158:
 11983 420e 6D61736B 		.ascii	"mask\000"
 11983      00
 11984              	.LASF776:
 11985 4213 55415254 		.ascii	"UART_ACR_MODE (1 << 1)\000"
 11985      5F414352 
 11985      5F4D4F44 
 11985      45202831 
 11985      203C3C20 
 11986              	.LASF1134:
 11987 422a 4932435F 		.ascii	"I2C_EVENT_WAIT\000"
 11987      4556454E 
 11987      545F5741 
 11987      495400
 11988              	.LASF1135:
 11989 4239 4932435F 		.ascii	"I2C_EVENT_DONE\000"
 11989      4556454E 
 11989      545F444F 
 11989      4E4500
ARM GAS  /tmp/ccXTVNcx.s 			page 272


 11990              	.LASF1159:
 11991 4248 67657443 		.ascii	"getClkRate\000"
 11991      6C6B5261 
 11991      746500
 11992              	.LASF861:
 11993 4253 4144435F 		.ascii	"ADC_CR_START_CTOUT15 ((2UL << 24))\000"
 11993      43525F53 
 11993      54415254 
 11993      5F43544F 
 11993      55543135 
 11994              	.LASF205:
 11995 4276 5F5F5546 		.ascii	"__UFRACT_MAX__ 0XFFFFP-16UR\000"
 11995      52414354 
 11995      5F4D4158 
 11995      5F5F2030 
 11995      58464646 
 11996              	.LASF362:
 11997 4292 5F5F5F69 		.ascii	"___int_least64_t_defined 1\000"
 11997      6E745F6C 
 11997      65617374 
 11997      36345F74 
 11997      5F646566 
 11998              	.LASF927:
 11999 42ad 4932435F 		.ascii	"I2C_I2MMCTRL_MATCH_ALL ((1 << 2))\000"
 11999      49324D4D 
 11999      4354524C 
 11999      5F4D4154 
 11999      43485F41 
 12000              	.LASF690:
 12001 42cf 54494D45 		.ascii	"TIMER_CAP_FALLING(n) (_BIT((((n) * 3) + 1)))\000"
 12001      525F4341 
 12001      505F4641 
 12001      4C4C494E 
 12001      47286E29 
 12002              	.LASF1121:
 12003 42fc 4932435F 		.ascii	"I2C_STATUS_T\000"
 12003      53544154 
 12003      55535F54 
 12003      00
 12004              	.LASF1148:
 12005 4309 6932635F 		.ascii	"i2c_slave_interface\000"
 12005      736C6176 
 12005      655F696E 
 12005      74657266 
 12005      61636500 
 12006              	.LASF484:
 12007 431d 5343425F 		.ascii	"SCB_CPUID_IMPLEMENTER_Pos 24\000"
 12007      43505549 
 12007      445F494D 
 12007      504C454D 
 12007      454E5445 
 12008              	.LASF989:
 12009 433a 43414E5F 		.ascii	"CAN_SDOSEG_SEGMENT 0\000"
 12009      53444F53 
 12009      45475F53 
 12009      45474D45 
 12009      4E542030 
ARM GAS  /tmp/ccXTVNcx.s 			page 273


 12010              	.LASF365:
 12011 434f 5F5F5354 		.ascii	"__STDINT_EXP(x) __ ##x ##__\000"
 12011      44494E54 
 12011      5F455850 
 12011      28782920 
 12011      5F5F2023 
 12012              	.LASF354:
 12013 436b 5F5F4558 		.ascii	"__EXP(x) __ ##x ##__\000"
 12013      50287829 
 12013      205F5F20 
 12013      23237820 
 12013      23235F5F 
 12014              	.LASF27:
 12015 4380 5F5F4259 		.ascii	"__BYTE_ORDER__ __ORDER_LITTLE_ENDIAN__\000"
 12015      54455F4F 
 12015      52444552 
 12015      5F5F205F 
 12015      5F4F5244 
 12016              	.LASF1188:
 12017 43a7 62756666 		.ascii	"buff\000"
 12017      00
 12018              	.LASF418:
 12019 43ac 55494E54 		.ascii	"UINT_FAST64_MAX __UINT_FAST64_MAX__\000"
 12019      5F464153 
 12019      5436345F 
 12019      4D415820 
 12019      5F5F5549 
 12020              	.LASF766:
 12021 43d0 55415254 		.ascii	"UART_MSR_DELTA_CTS (1 << 0)\000"
 12021      5F4D5352 
 12021      5F44454C 
 12021      54415F43 
 12021      54532028 
 12022              	.LASF670:
 12023 43ec 4D445F46 		.ascii	"MD_FASTI2C (0x2 << 8)\000"
 12023      41535449 
 12023      32432028 
 12023      30783220 
 12023      3C3C2038 
 12024              	.LASF689:
 12025 4402 54494D45 		.ascii	"TIMER_CAP_RISING(n) (_BIT(((n) * 3)))\000"
 12025      525F4341 
 12025      505F5249 
 12025      53494E47 
 12025      286E2920 
 12026              	.LASF959:
 12027 4428 43414E5F 		.ascii	"CAN_ERROR_CRC 0x00000100UL\000"
 12027      4552524F 
 12027      525F4352 
 12027      43203078 
 12027      30303030 
 12028              	.LASF761:
 12029 4443 55415254 		.ascii	"UART_LSR_TEMT (1 << 6)\000"
 12029      5F4C5352 
 12029      5F54454D 
 12029      54202831 
 12029      203C3C20 
ARM GAS  /tmp/ccXTVNcx.s 			page 274


 12030              	.LASF629:
 12031 445a 53595343 		.ascii	"SYSCTL_POWERDOWN_BOD_PD (1 << 3)\000"
 12031      544C5F50 
 12031      4F574552 
 12031      444F574E 
 12031      5F424F44 
 12032              	.LASF1150:
 12033 447b 6576656E 		.ascii	"event\000"
 12033      7400
 12034              	.LASF33:
 12035 4481 5F5F5749 		.ascii	"__WINT_TYPE__ unsigned int\000"
 12035      4E545F54 
 12035      5950455F 
 12035      5F20756E 
 12035      7369676E 
 12036              	.LASF1167:
 12037 449c 61646472 		.ascii	"addr\000"
 12037      00
 12038              	.LASF283:
 12039 44a1 5F5F5544 		.ascii	"__UDQ_FBIT__ 64\000"
 12039      515F4642 
 12039      49545F5F 
 12039      20363400 
 12040              	.LASF561:
 12041 44b1 5F49505F 		.ascii	"_IP_IDX(IRQn) ( ((uint32_t)(IRQn) >> 2) )\000"
 12041      49445828 
 12041      4952516E 
 12041      29202820 
 12041      28287569 
 12042              	.LASF377:
 12043 44db 5F5F696E 		.ascii	"__int_fast16_t_defined 1\000"
 12043      745F6661 
 12043      73743136 
 12043      5F745F64 
 12043      6566696E 
 12044              	.LASF703:
 12045 44f4 55415254 		.ascii	"UART_IER_RLSINT (1 << 2)\000"
 12045      5F494552 
 12045      5F524C53 
 12045      494E5420 
 12045      2831203C 
 12046              	.LASF157:
 12047 450d 5F5F4C44 		.ascii	"__LDBL_MAX_10_EXP__ 308\000"
 12047      424C5F4D 
 12047      41585F31 
 12047      305F4558 
 12047      505F5F20 
 12048              	.LASF558:
 12049 4525 4E564943 		.ascii	"NVIC ((NVIC_Type *) NVIC_BASE )\000"
 12049      2028284E 
 12049      5649435F 
 12049      54797065 
 12049      202A2920 
 12050              	.LASF978:
 12051 4545 53444F5F 		.ascii	"SDO_ABORT_DEVSTAT 0x08000022UL\000"
 12051      41424F52 
 12051      545F4445 
ARM GAS  /tmp/ccXTVNcx.s 			page 275


 12051      56535441 
 12051      54203078 
 12052              	.LASF718:
 12053 4564 55415254 		.ascii	"UART_IIR_INTID_RDA (2 << 1)\000"
 12053      5F494952 
 12053      5F494E54 
 12053      49445F52 
 12053      44412028 
 12054              	.LASF632:
 12055 4580 53595343 		.ascii	"SYSCTL_POWERDOWN_WDTOSC_PD (1 << 6)\000"
 12055      544C5F50 
 12055      4F574552 
 12055      444F574E 
 12055      5F574454 
 12056              	.LASF164:
 12057 45a4 5F5F4C44 		.ascii	"__LDBL_HAS_INFINITY__ 1\000"
 12057      424C5F48 
 12057      41535F49 
 12057      4E46494E 
 12057      4954595F 
 12058              	.LASF417:
 12059 45bc 494E545F 		.ascii	"INT_FAST64_MAX __INT_FAST64_MAX__\000"
 12059      46415354 
 12059      36345F4D 
 12059      4158205F 
 12059      5F494E54 
 12060              	.LASF1006:
 12061 45de 756E7369 		.ascii	"unsigned int\000"
 12061      676E6564 
 12061      20696E74 
 12061      00
 12062              	.LASF200:
 12063 45eb 5F5F4652 		.ascii	"__FRACT_MAX__ 0X7FFFP-15R\000"
 12063      4143545F 
 12063      4D41585F 
 12063      5F203058 
 12063      37464646 
 12064              	.LASF1026:
 12065 4605 53595350 		.ascii	"SYSPLLCLKUEN\000"
 12065      4C4C434C 
 12065      4B55454E 
 12065      00
 12066              	.LASF126:
 12067 4612 5F5F464C 		.ascii	"__FLT_MIN_EXP__ (-125)\000"
 12067      545F4D49 
 12067      4E5F4558 
 12067      505F5F20 
 12067      282D3132 
 12068              	.LASF122:
 12069 4629 5F5F4445 		.ascii	"__DEC_EVAL_METHOD__ 2\000"
 12069      435F4556 
 12069      414C5F4D 
 12069      4554484F 
 12069      445F5F20 
 12070              	.LASF436:
 12071 463f 55494E54 		.ascii	"UINT32_C(x) __UINT32_C(x)\000"
 12071      33325F43 
ARM GAS  /tmp/ccXTVNcx.s 			page 276


 12071      28782920 
 12071      5F5F5549 
 12071      4E543332 
 12072              	.LASF487:
 12073 4659 5343425F 		.ascii	"SCB_CPUID_VARIANT_Msk (0xFUL << SCB_CPUID_VARIANT_P"
 12073      43505549 
 12073      445F5641 
 12073      5249414E 
 12073      545F4D73 
 12074 468c 6F732900 		.ascii	"os)\000"
 12075              	.LASF994:
 12076 4690 4C50435F 		.ascii	"LPC_I2Cx(id) ((i2c[id].ip))\000"
 12076      49324378 
 12076      28696429 
 12076      20282869 
 12076      32635B69 
 12077              	.LASF665:
 12078 46ac 4D445F44 		.ascii	"MD_DIGMODE (0x1 << 7)\000"
 12078      49474D4F 
 12078      44452028 
 12078      30783120 
 12078      3C3C2037 
 12079              	.LASF233:
 12080 46c2 5F5F5553 		.ascii	"__USACCUM_IBIT__ 8\000"
 12080      41434355 
 12080      4D5F4942 
 12080      49545F5F 
 12080      203800
 12081              	.LASF985:
 12082 46d5 4F445F53 		.ascii	"OD_SEG_RW 0x60\000"
 12082      45475F52 
 12082      57203078 
 12082      363000
 12083              	.LASF407:
 12084 46e4 494E545F 		.ascii	"INT_FAST8_MIN (-__INT_FAST8_MAX__ - 1)\000"
 12084      46415354 
 12084      385F4D49 
 12084      4E20282D 
 12084      5F5F494E 
 12085              	.LASF118:
 12086 470b 5F5F5549 		.ascii	"__UINTPTR_MAX__ 4294967295U\000"
 12086      4E545054 
 12086      525F4D41 
 12086      585F5F20 
 12086      34323934 
 12087              	.LASF668:
 12088 4727 4D445F53 		.ascii	"MD_SFI2C (0x0 << 8)\000"
 12088      46493243 
 12088      20283078 
 12088      30203C3C 
 12088      20382900 
 12089              	.LASF125:
 12090 473b 5F5F464C 		.ascii	"__FLT_DIG__ 6\000"
 12090      545F4449 
 12090      475F5F20 
 12090      3600
 12091              	.LASF35:
ARM GAS  /tmp/ccXTVNcx.s 			page 277


 12092 4749 5F5F5549 		.ascii	"__UINTMAX_TYPE__ long long unsigned int\000"
 12092      4E544D41 
 12092      585F5459 
 12092      50455F5F 
 12092      206C6F6E 
 12093              	.LASF121:
 12094 4771 5F5F464C 		.ascii	"__FLT_EVAL_METHOD__ 0\000"
 12094      545F4556 
 12094      414C5F4D 
 12094      4554484F 
 12094      445F5F20 
 12095              	.LASF808:
 12096 4787 55415254 		.ascii	"UART_SYNCCTRL_CSCEN (1 << 4)\000"
 12096      5F53594E 
 12096      43435452 
 12096      4C5F4353 
 12096      43454E20 
 12097              	.LASF755:
 12098 47a4 55415254 		.ascii	"UART_LSR_RDR (1 << 0)\000"
 12098      5F4C5352 
 12098      5F524452 
 12098      20283120 
 12098      3C3C2030 
 12099              	.LASF778:
 12100 47ba 55415254 		.ascii	"UART_ACR_ABEOINT_CLR (1 << 8)\000"
 12100      5F414352 
 12100      5F414245 
 12100      4F494E54 
 12100      5F434C52 
 12101              	.LASF117:
 12102 47d8 5F5F494E 		.ascii	"__INTPTR_MAX__ 2147483647\000"
 12102      54505452 
 12102      5F4D4158 
 12102      5F5F2032 
 12102      31343734 
 12103              	.LASF1194:
 12104 47f2 43686970 		.ascii	"Chip_I2C_SlaveSetup\000"
 12104      5F493243 
 12104      5F536C61 
 12104      76655365 
 12104      74757000 
 12105              	.LASF851:
 12106 4806 4144435F 		.ascii	"ADC_CR_BITACC(n) ((((n) & 0x7) << 17))\000"
 12106      43525F42 
 12106      49544143 
 12106      43286E29 
 12106      20282828 
 12107              	.LASF277:
 12108 482d 5F5F5551 		.ascii	"__UQQ_FBIT__ 8\000"
 12108      515F4642 
 12108      49545F5F 
 12108      203800
 12109              	.LASF787:
 12110 483c 55415254 		.ascii	"UART_RS485CTRL_BITMASK (0x3F)\000"
 12110      5F525334 
 12110      38354354 
 12110      524C5F42 
ARM GAS  /tmp/ccXTVNcx.s 			page 278


 12110      49544D41 
 12111              	.LASF545:
 12112 485a 53797354 		.ascii	"SysTick_VAL_CURRENT_Msk (0xFFFFFFUL << SysTick_VAL_"
 12112      69636B5F 
 12112      56414C5F 
 12112      43555252 
 12112      454E545F 
 12113 488d 43555252 		.ascii	"CURRENT_Pos)\000"
 12113      454E545F 
 12113      506F7329 
 12113      00
 12114              	.LASF174:
 12115 489a 5F5F4445 		.ascii	"__DEC64_MIN_EXP__ (-382)\000"
 12115      4336345F 
 12115      4D494E5F 
 12115      4558505F 
 12115      5F20282D 
 12116              	.LASF1032:
 12117 48b3 53595341 		.ascii	"SYSAHBCLKDIV\000"
 12117      4842434C 
 12117      4B444956 
 12117      00
 12118              	.LASF894:
 12119 48c0 4932435F 		.ascii	"I2C_I2STAT_M_TX_START ((0x08))\000"
 12119      49325354 
 12119      41545F4D 
 12119      5F54585F 
 12119      53544152 
 12120              	.LASF702:
 12121 48df 55415254 		.ascii	"UART_IER_THREINT (1 << 1)\000"
 12121      5F494552 
 12121      5F544852 
 12121      45494E54 
 12121      20283120 
 12122              	.LASF393:
 12123 48f9 494E545F 		.ascii	"INT_LEAST16_MAX __INT_LEAST16_MAX__\000"
 12123      4C454153 
 12123      5431365F 
 12123      4D415820 
 12123      5F5F494E 
 12124              	.LASF210:
 12125 491d 5F5F4C46 		.ascii	"__LFRACT_MAX__ 0X7FFFFFFFP-31LR\000"
 12125      52414354 
 12125      5F4D4158 
 12125      5F5F2030 
 12125      58374646 
 12126              	.LASF1132:
 12127 493d 4932435F 		.ascii	"I2C_NUM_INTERFACE\000"
 12127      4E554D5F 
 12127      494E5445 
 12127      52464143 
 12127      4500
 12128              	.LASF460:
 12129 494f 4D494E28 		.ascii	"MIN(a,b) (((a) < (b)) ? (a) : (b))\000"
 12129      612C6229 
 12129      20282828 
 12129      6129203C 
ARM GAS  /tmp/ccXTVNcx.s 			page 279


 12129      20286229 
 12130              	.LASF0:
 12131 4972 5F5F5354 		.ascii	"__STDC__ 1\000"
 12131      44435F5F 
 12131      203100
 12132              	.LASF1070:
 12133 497d 5044534C 		.ascii	"PDSLEEPCFG\000"
 12133      45455043 
 12133      464700
 12134              	.LASF359:
 12135 4988 5F5F5F69 		.ascii	"___int_least8_t_defined 1\000"
 12135      6E745F6C 
 12135      65617374 
 12135      385F745F 
 12135      64656669 
 12136              	.LASF1136:
 12137 49a2 4932435F 		.ascii	"I2C_EVENT_LOCK\000"
 12137      4556454E 
 12137      545F4C4F 
 12137      434B00
 12138              	.LASF420:
 12139 49b1 494E544D 		.ascii	"INTMAX_MIN (-INTMAX_MAX - 1)\000"
 12139      41585F4D 
 12139      494E2028 
 12139      2D494E54 
 12139      4D41585F 
 12140              	.LASF43:
 12141 49ce 5F5F5549 		.ascii	"__UINT8_TYPE__ unsigned char\000"
 12141      4E54385F 
 12141      54595045 
 12141      5F5F2075 
 12141      6E736967 
 12142              	.LASF885:
 12143 49eb 4932435F 		.ascii	"I2C_CON_AA (1UL << 2)\000"
 12143      434F4E5F 
 12143      41412028 
 12143      31554C20 
 12143      3C3C2032 
 12144              	.LASF819:
 12145 4a01 5353505F 		.ascii	"SSP_CR0_DSS(n) ((uint32_t) ((n) & 0xF))\000"
 12145      4352305F 
 12145      44535328 
 12145      6E292028 
 12145      2875696E 
 12146              	.LASF376:
 12147 4a29 5F5F696E 		.ascii	"__int_fast8_t_defined 1\000"
 12147      745F6661 
 12147      7374385F 
 12147      745F6465 
 12147      66696E65 
 12148              	.LASF1171:
 12149 4a41 43686970 		.ascii	"Chip_I2C_IsStateChanged\000"
 12149      5F493243 
 12149      5F497353 
 12149      74617465 
 12149      4368616E 
 12150              	.LASF403:
ARM GAS  /tmp/ccXTVNcx.s 			page 280


 12151 4a59 55494E54 		.ascii	"UINT64_MAX __UINT64_MAX__\000"
 12151      36345F4D 
 12151      4158205F 
 12151      5F55494E 
 12151      5436345F 
 12152              	.LASF675:
 12153 4a73 46554E43 		.ascii	"FUNC3 0x3\000"
 12153      33203078 
 12153      3300
 12154              	.LASF833:
 12155 4a7d 5353505F 		.ascii	"SSP_CR1_SO_DISABLE ((uint32_t) (1 << 3))\000"
 12155      4352315F 
 12155      534F5F44 
 12155      49534142 
 12155      4C452028 
 12156              	.LASF633:
 12157 4aa6 53595343 		.ascii	"SYSCTL_POWERDOWN_SYSPLL_PD (1 << 7)\000"
 12157      544C5F50 
 12157      4F574552 
 12157      444F574E 
 12157      5F535953 
 12158              	.LASF1063:
 12159 4aca 53544152 		.ascii	"STARTAPRP0\000"
 12159      54415052 
 12159      503000
 12160              	.LASF180:
 12161 4ad5 5F5F4445 		.ascii	"__DEC128_MANT_DIG__ 34\000"
 12161      43313238 
 12161      5F4D414E 
 12161      545F4449 
 12161      475F5F20 
 12162              	.LASF83:
 12163 4aec 5F5F5349 		.ascii	"__SIG_ATOMIC_MAX__ 2147483647\000"
 12163      475F4154 
 12163      4F4D4943 
 12163      5F4D4158 
 12163      5F5F2032 
 12164              	.LASF889:
 12165 4b0a 4932435F 		.ascii	"I2C_CON_I2EN (1UL << 6)\000"
 12165      434F4E5F 
 12165      4932454E 
 12165      20283155 
 12165      4C203C3C 
 12166              	.LASF444:
 12167 4b22 74727565 		.ascii	"true 1\000"
 12167      203100
 12168              	.LASF641:
 12169 4b29 494F434F 		.ascii	"IOCON_FUNC4 0x4\000"
 12169      4E5F4655 
 12169      4E433420 
 12169      30783400 
 12170              	.LASF297:
 12171 4b39 5F5F5553 		.ascii	"__USA_FBIT__ 16\000"
 12171      415F4642 
 12171      49545F5F 
 12171      20313600 
 12172              	.LASF685:
ARM GAS  /tmp/ccXTVNcx.s 			page 281


 12173 4b49 54494D45 		.ascii	"TIMER_RESET ((uint32_t) (1 << 1))\000"
 12173      525F5245 
 12173      53455420 
 12173      28287569 
 12173      6E743332 
 12174              	.LASF741:
 12175 4b6b 55415254 		.ascii	"UART_LCR_PARITY_DIS (0 << 3)\000"
 12175      5F4C4352 
 12175      5F504152 
 12175      4954595F 
 12175      44495320 
 12176              	.LASF627:
 12177 4b88 53595343 		.ascii	"SYSCTL_POWERDOWN_IRC_PD (1 << 1)\000"
 12177      544C5F50 
 12177      4F574552 
 12177      444F574E 
 12177      5F495243 
 12178              	.LASF1199:
 12179 4ba9 6932635F 		.ascii	"i2c_slave\000"
 12179      736C6176 
 12179      6500
 12180              	.LASF786:
 12181 4bb3 55415254 		.ascii	"UART_RS485CTRL_OINV_1 (1 << 5)\000"
 12181      5F525334 
 12181      38354354 
 12181      524C5F4F 
 12181      494E565F 
 12182              	.LASF308:
 12183 4bd2 5F5F4743 		.ascii	"__GCC_ATOMIC_CHAR_LOCK_FREE 1\000"
 12183      435F4154 
 12183      4F4D4943 
 12183      5F434841 
 12183      525F4C4F 
 12184              	.LASF1028:
 12185 4bf0 55534250 		.ascii	"USBPLLCLKUEN\000"
 12185      4C4C434C 
 12185      4B55454E 
 12185      00
 12186              	.LASF603:
 12187 4bfd 5F5F504D 		.ascii	"__PMU_11XX_H_ \000"
 12187      555F3131 
 12187      58585F48 
 12187      5F2000
 12188              	.LASF211:
 12189 4c0c 5F5F4C46 		.ascii	"__LFRACT_EPSILON__ 0x1P-31LR\000"
 12189      52414354 
 12189      5F455053 
 12189      494C4F4E 
 12189      5F5F2030 
 12190              	.LASF592:
 12191 4c29 4C50435F 		.ascii	"LPC_TIMER32_1 ((LPC_TIMER_T *) LPC_TIMER32_1_BASE)\000"
 12191      54494D45 
 12191      5233325F 
 12191      31202828 
 12191      4C50435F 
 12192              	.LASF424:
 12193 4c5c 5349475F 		.ascii	"SIG_ATOMIC_MAX __STDINT_EXP(INT_MAX)\000"
ARM GAS  /tmp/ccXTVNcx.s 			page 282


 12193      41544F4D 
 12193      49435F4D 
 12193      4158205F 
 12193      5F535444 
 12194              	.LASF323:
 12195 4c81 5F5F4152 		.ascii	"__ARM_SIZEOF_MINIMAL_ENUM 1\000"
 12195      4D5F5349 
 12195      5A454F46 
 12195      5F4D494E 
 12195      494D414C 
 12196              	.LASF1147:
 12197 4c9d 6932635F 		.ascii	"i2c_interface\000"
 12197      696E7465 
 12197      72666163 
 12197      6500
 12198              	.LASF1140:
 12199 4cab 4932435F 		.ascii	"I2C_EVENT_T\000"
 12199      4556454E 
 12199      545F5400 
 12200              	.LASF326:
 12201 4cb7 5F5F6172 		.ascii	"__arm__ 1\000"
 12201      6D5F5F20 
 12201      3100
 12202              	.LASF646:
 12203 4cc1 494F434F 		.ascii	"IOCON_MODE_PULLDOWN (0x1 << 3)\000"
 12203      4E5F4D4F 
 12203      44455F50 
 12203      554C4C44 
 12203      4F574E20 
 12204              	.LASF982:
 12205 4ce0 4F445F45 		.ascii	"OD_EXP_RW 0x30\000"
 12205      58505F52 
 12205      57203078 
 12205      333000
 12206              	.LASF574:
 12207 4cef 4C50435F 		.ascii	"LPC_SSP0_BASE 0x40040000\000"
 12207      53535030 
 12207      5F424153 
 12207      45203078 
 12207      34303034 
 12208              	.LASF1173:
 12209 4d08 63636C72 		.ascii	"cclr\000"
 12209      00
 12210              	.LASF918:
 12211 4d0d 4932435F 		.ascii	"I2C_I2STAT_S_TX_ARB_LOST_M_SLA ((0xB0))\000"
 12211      49325354 
 12211      41545F53 
 12211      5F54585F 
 12211      4152425F 
 12212              	.LASF911:
 12213 4d35 4932435F 		.ascii	"I2C_I2STAT_S_RX_ARB_LOST_M_GENCALL ((0x78))\000"
 12213      49325354 
 12213      41545F53 
 12213      5F52585F 
 12213      4152425F 
 12214              	.LASF464:
 12215 4d61 5F5F434D 		.ascii	"__CMSIS_H_ \000"
ARM GAS  /tmp/ccXTVNcx.s 			page 283


 12215      5349535F 
 12215      485F2000 
 12216              	.LASF742:
 12217 4d6d 55415254 		.ascii	"UART_LCR_PARITY_ODD (0 << 4)\000"
 12217      5F4C4352 
 12217      5F504152 
 12217      4954595F 
 12217      4F444420 
 12218              	.LASF389:
 12219 4d8a 494E5431 		.ascii	"INT16_MIN (-__INT16_MAX__ - 1)\000"
 12219      365F4D49 
 12219      4E20282D 
 12219      5F5F494E 
 12219      5431365F 
 12220              	.LASF384:
 12221 4da9 494E5438 		.ascii	"INT8_MAX __INT8_MAX__\000"
 12221      5F4D4158 
 12221      205F5F49 
 12221      4E54385F 
 12221      4D41585F 
 12222              	.LASF554:
 12223 4dbf 4E564943 		.ascii	"NVIC_BASE (SCS_BASE + 0x0100UL)\000"
 12223      5F424153 
 12223      45202853 
 12223      43535F42 
 12223      41534520 
 12224              	.LASF891:
 12225 4ddf 4932435F 		.ascii	"I2C_STAT_CODE_ERROR ((0xFF))\000"
 12225      53544154 
 12225      5F434F44 
 12225      455F4552 
 12225      524F5220 
 12226              	.LASF807:
 12227 4dfc 55415254 		.ascii	"UART_SYNCCTRL_TSBYPASS (1 << 3)\000"
 12227      5F53594E 
 12227      43435452 
 12227      4C5F5453 
 12227      42595041 
 12228              	.LASF166:
 12229 4e1c 5F5F4445 		.ascii	"__DEC32_MANT_DIG__ 7\000"
 12229      4333325F 
 12229      4D414E54 
 12229      5F444947 
 12229      5F5F2037 
 12230              	.LASF416:
 12231 4e31 494E545F 		.ascii	"INT_FAST64_MIN (-__INT_FAST64_MAX__ - 1)\000"
 12231      46415354 
 12231      36345F4D 
 12231      494E2028 
 12231      2D5F5F49 
 12232              	.LASF348:
 12233 4e5a 5F4D4143 		.ascii	"_MACHINE__DEFAULT_TYPES_H \000"
 12233      48494E45 
 12233      5F5F4445 
 12233      4641554C 
 12233      545F5459 
 12234              	.LASF23:
ARM GAS  /tmp/ccXTVNcx.s 			page 284


 12235 4e75 5F5F4249 		.ascii	"__BIGGEST_ALIGNMENT__ 8\000"
 12235      47474553 
 12235      545F414C 
 12235      49474E4D 
 12235      454E545F 
 12236              	.LASF920:
 12237 4e8d 4932435F 		.ascii	"I2C_I2STAT_S_TX_DAT_NACK ((0xC0))\000"
 12237      49325354 
 12237      41545F53 
 12237      5F54585F 
 12237      4441545F 
 12238              	.LASF234:
 12239 4eaf 5F5F5553 		.ascii	"__USACCUM_MIN__ 0.0UHK\000"
 12239      41434355 
 12239      4D5F4D49 
 12239      4E5F5F20 
 12239      302E3055 
 12240              	.LASF522:
 12241 4ec6 5343425F 		.ascii	"SCB_SCR_SEVONPEND_Pos 4\000"
 12241      5343525F 
 12241      5345564F 
 12241      4E50454E 
 12241      445F506F 
 12242              	.LASF649:
 12243 4ede 494F434F 		.ascii	"IOCON_HYS_EN (0x1 << 5)\000"
 12243      4E5F4859 
 12243      535F454E 
 12243      20283078 
 12243      31203C3C 
 12244              	.LASF294:
 12245 4ef6 5F5F5441 		.ascii	"__TA_IBIT__ 64\000"
 12245      5F494249 
 12245      545F5F20 
 12245      363400
 12246              	.LASF846:
 12247 4f05 5F5F4C50 		.ascii	"__LPC_ERROR_H__ \000"
 12247      435F4552 
 12247      524F525F 
 12247      485F5F20 
 12247      00
 12248              	.LASF501:
 12249 4f16 5343425F 		.ascii	"SCB_ICSR_PENDSTSET_Msk (1UL << SCB_ICSR_PENDSTSET_P"
 12249      49435352 
 12249      5F50454E 
 12249      44535453 
 12249      45545F4D 
 12250 4f49 6F732900 		.ascii	"os)\000"
 12251              	.LASF1031:
 12252 4f4d 4D41494E 		.ascii	"MAINCLKUEN\000"
 12252      434C4B55 
 12252      454E00
 12253              	.LASF947:
 12254 4f58 4932435F 		.ascii	"I2C_MONITOR_CFG_SCL_OUTPUT I2C_I2MMCTRL_ENA_SCL\000"
 12254      4D4F4E49 
 12254      544F525F 
 12254      4346475F 
 12254      53434C5F 
ARM GAS  /tmp/ccXTVNcx.s 			page 285


 12255              	.LASF829:
 12256 4f88 5353505F 		.ascii	"SSP_CR1_LBM_EN ((uint32_t) (1 << 0))\000"
 12256      4352315F 
 12256      4C424D5F 
 12256      454E2028 
 12256      2875696E 
 12257              	.LASF902:
 12258 4fad 4932435F 		.ascii	"I2C_I2STAT_M_RX_RESTART ((0x10))\000"
 12258      49325354 
 12258      41545F4D 
 12258      5F52585F 
 12258      52455354 
 12259              	.LASF504:
 12260 4fce 5343425F 		.ascii	"SCB_ICSR_ISRPREEMPT_Pos 23\000"
 12260      49435352 
 12260      5F495352 
 12260      50524545 
 12260      4D50545F 
 12261              	.LASF494:
 12262 4fe9 5343425F 		.ascii	"SCB_ICSR_NMIPENDSET_Pos 31\000"
 12262      49435352 
 12262      5F4E4D49 
 12262      50454E44 
 12262      5345545F 
 12263              	.LASF977:
 12264 5004 53444F5F 		.ascii	"SDO_ABORT_LOCAL 0x08000021UL\000"
 12264      41424F52 
 12264      545F4C4F 
 12264      43414C20 
 12264      30783038 
 12265              	.LASF693:
 12266 5021 5F5F5249 		.ascii	"__RING_BUFFER_H_ \000"
 12266      4E475F42 
 12266      55464645 
 12266      525F485F 
 12266      2000
 12267              	.LASF330:
 12268 5033 5F5F4152 		.ascii	"__ARM_ARCH_ISA_THUMB 1\000"
 12268      4D5F4152 
 12268      43485F49 
 12268      53415F54 
 12268      48554D42 
 12269              	.LASF107:
 12270 504a 5F5F5549 		.ascii	"__UINT_LEAST64_MAX__ 18446744073709551615ULL\000"
 12270      4E545F4C 
 12270      45415354 
 12270      36345F4D 
 12270      41585F5F 
 12271              	.LASF1201:
 12272 5077 2E2E2F6C 		.ascii	"../lpc11cx4-library/lpc_chip_11cxx_lib/src/i2c_11xx"
 12272      70633131 
 12272      6378342D 
 12272      6C696272 
 12272      6172792F 
 12273 50aa 2E6300   		.ascii	".c\000"
 12274              	.LASF427:
 12275 50ad 57434841 		.ascii	"WCHAR_MIN __WCHAR_MIN__\000"
ARM GAS  /tmp/ccXTVNcx.s 			page 286


 12275      525F4D49 
 12275      4E205F5F 
 12275      57434841 
 12275      525F4D49 
 12276              	.LASF109:
 12277 50c5 5F5F494E 		.ascii	"__INT_FAST8_MAX__ 2147483647\000"
 12277      545F4641 
 12277      5354385F 
 12277      4D41585F 
 12277      5F203231 
 12278              	.LASF863:
 12279 50e2 4144435F 		.ascii	"ADC_CR_START_ADCTRIG0 ((4UL << 24))\000"
 12279      43525F53 
 12279      54415254 
 12279      5F414443 
 12279      54524947 
 12280              	.LASF1019:
 12281 5106 5359534F 		.ascii	"SYSOSCCTRL\000"
 12281      53434354 
 12281      524C00
 12282              	.LASF734:
 12283 5111 55415254 		.ascii	"UART_LCR_WLEN6 (1 << 0)\000"
 12283      5F4C4352 
 12283      5F574C45 
 12283      4E362028 
 12283      31203C3C 
 12284              	.LASF886:
 12285 5129 4932435F 		.ascii	"I2C_CON_SI (1UL << 3)\000"
 12285      434F4E5F 
 12285      53492028 
 12285      31554C20 
 12285      3C3C2033 
 12286              	.LASF203:
 12287 513f 5F5F5546 		.ascii	"__UFRACT_IBIT__ 0\000"
 12287      52414354 
 12287      5F494249 
 12287      545F5F20 
 12287      3000
 12288              	.LASF882:
 12289 5151 4932435F 		.ascii	"I2C_I2CONCLR_STOC ((1 << 4))\000"
 12289      4932434F 
 12289      4E434C52 
 12289      5F53544F 
 12289      43202828 
 12290              	.LASF552:
 12291 516e 5343535F 		.ascii	"SCS_BASE (0xE000E000UL)\000"
 12291      42415345 
 12291      20283078 
 12291      45303030 
 12291      45303030 
 12292              	.LASF94:
 12293 5186 5F5F494E 		.ascii	"__INT8_C(c) c\000"
 12293      54385F43 
 12293      28632920 
 12293      6300
 12294              	.LASF208:
 12295 5194 5F5F4C46 		.ascii	"__LFRACT_IBIT__ 0\000"
ARM GAS  /tmp/ccXTVNcx.s 			page 287


 12295      52414354 
 12295      5F494249 
 12295      545F5F20 
 12295      3000
 12296              	.LASF866:
 12297 51a6 4144435F 		.ascii	"ADC_CR_EDGE ((1UL << 27))\000"
 12297      43525F45 
 12297      44474520 
 12297      28283155 
 12297      4C203C3C 
 12298              	.LASF468:
 12299 51c0 5F5F5665 		.ascii	"__Vendor_SysTickConfig 0\000"
 12299      6E646F72 
 12299      5F537973 
 12299      5469636B 
 12299      436F6E66 
 12300              	.LASF697:
 12301 51d9 55415254 		.ascii	"UART_LOAD_DLL(div) ((div) & 0xFF)\000"
 12301      5F4C4F41 
 12301      445F444C 
 12301      4C286469 
 12301      76292028 
 12302              	.LASF980:
 12303 51fb 4F445F45 		.ascii	"OD_EXP_RO 0x10\000"
 12303      58505F52 
 12303      4F203078 
 12303      313000
 12304              	.LASF317:
 12305 520a 5F5F4743 		.ascii	"__GCC_ATOMIC_POINTER_LOCK_FREE 1\000"
 12305      435F4154 
 12305      4F4D4943 
 12305      5F504F49 
 12305      4E544552 
 12306              	.LASF140:
 12307 522b 5F5F4442 		.ascii	"__DBL_MIN_EXP__ (-1021)\000"
 12307      4C5F4D49 
 12307      4E5F4558 
 12307      505F5F20 
 12307      282D3130 
 12308              	.LASF455:
 12309 5243 4E554C4C 		.ascii	"NULL ((void *) 0)\000"
 12309      20282876 
 12309      6F696420 
 12309      2A292030 
 12309      2900
 12310              	.LASF938:
 12311 5255 4932435F 		.ascii	"I2C_OK 0x00\000"
 12311      4F4B2030 
 12311      78303000 
 12312              	.LASF173:
 12313 5261 5F5F4445 		.ascii	"__DEC64_MANT_DIG__ 16\000"
 12313      4336345F 
 12313      4D414E54 
 12313      5F444947 
 12313      5F5F2031 
 12314              	.LASF1189:
 12315 5277 43686970 		.ascii	"Chip_I2C_MasterCmdRead\000"
ARM GAS  /tmp/ccXTVNcx.s 			page 288


 12315      5F493243 
 12315      5F4D6173 
 12315      74657243 
 12315      6D645265 
 12316              	.LASF810:
 12317 528e 55415254 		.ascii	"UART_SYNCCTRL_CCCLR (1 << 6)\000"
 12317      5F53594E 
 12317      43435452 
 12317      4C5F4343 
 12317      434C5220 
 12318              	.LASF1079:
 12319 52ab 53595343 		.ascii	"SYSCTL_CLOCK_FLASHREG\000"
 12319      544C5F43 
 12319      4C4F434B 
 12319      5F464C41 
 12319      53485245 
 12320              	.LASF259:
 12321 52c1 5F5F4C4C 		.ascii	"__LLACCUM_MIN__ (-0X1P31LLK-0X1P31LLK)\000"
 12321      41434355 
 12321      4D5F4D49 
 12321      4E5F5F20 
 12321      282D3058 
 12322              	.LASF771:
 12323 52e8 55415254 		.ascii	"UART_MSR_DSR (1 << 5)\000"
 12323      5F4D5352 
 12323      5F445352 
 12323      20283120 
 12323      3C3C2035 
 12324              	.LASF176:
 12325 52fe 5F5F4445 		.ascii	"__DEC64_MIN__ 1E-383DD\000"
 12325      4336345F 
 12325      4D494E5F 
 12325      5F203145 
 12325      2D333833 
 12326              	.LASF597:
 12327 5315 4C50435F 		.ascii	"LPC_IOCON ((LPC_IOCON_T *) LPC_IOCON_BASE)\000"
 12327      494F434F 
 12327      4E202828 
 12327      4C50435F 
 12327      494F434F 
 12328              	.LASF673:
 12329 5340 46554E43 		.ascii	"FUNC1 0x1\000"
 12329      31203078 
 12329      3100
 12330              	.LASF440:
 12331 534a 55494E54 		.ascii	"UINTMAX_C(x) __UINTMAX_C(x)\000"
 12331      4D41585F 
 12331      43287829 
 12331      205F5F55 
 12331      494E544D 
 12332              	.LASF1203:
 12333 5366 4F736352 		.ascii	"OscRateIn\000"
 12333      61746549 
 12333      6E00
 12334              	.LASF363:
 12335 5370 5F5F4558 		.ascii	"__EXP\000"
 12335      5000
ARM GAS  /tmp/ccXTVNcx.s 			page 289


 12336              	.LASF651:
 12337 5376 494F434F 		.ascii	"IOCON_ADMODE_EN (0x0 << 7)\000"
 12337      4E5F4144 
 12337      4D4F4445 
 12337      5F454E20 
 12337      28307830 
 12338              	.LASF358:
 12339 5391 5F5F5F69 		.ascii	"___int64_t_defined 1\000"
 12339      6E743634 
 12339      5F745F64 
 12339      6566696E 
 12339      65642031 
 12340              	.LASF163:
 12341 53a6 5F5F4C44 		.ascii	"__LDBL_HAS_DENORM__ 1\000"
 12341      424C5F48 
 12341      41535F44 
 12341      454E4F52 
 12341      4D5F5F20 
 12342              	.LASF544:
 12343 53bc 53797354 		.ascii	"SysTick_VAL_CURRENT_Pos 0\000"
 12343      69636B5F 
 12343      56414C5F 
 12343      43555252 
 12343      454E545F 
 12344              	.LASF699:
 12345 53d6 55415254 		.ascii	"UART_LOAD_DLM(div) (((div) >> 8) & 0xFF)\000"
 12345      5F4C4F41 
 12345      445F444C 
 12345      4D286469 
 12345      76292028 
 12346              	.LASF701:
 12347 53ff 55415254 		.ascii	"UART_IER_RBRINT (1 << 0)\000"
 12347      5F494552 
 12347      5F524252 
 12347      494E5420 
 12347      2831203C 
 12348              	.LASF108:
 12349 5418 5F5F5549 		.ascii	"__UINT64_C(c) c ## ULL\000"
 12349      4E543634 
 12349      5F432863 
 12349      29206320 
 12349      23232055 
 12350              	.LASF240:
 12351 542f 5F5F4143 		.ascii	"__ACCUM_MAX__ 0X7FFFFFFFP-15K\000"
 12351      43554D5F 
 12351      4D41585F 
 12351      5F203058 
 12351      37464646 
 12352              	.LASF551:
 12353 544d 53797354 		.ascii	"SysTick_CALIB_TENMS_Msk (0xFFFFFFUL << SysTick_VAL_"
 12353      69636B5F 
 12353      43414C49 
 12353      425F5445 
 12353      4E4D535F 
 12354 5480 43555252 		.ascii	"CURRENT_Pos)\000"
 12354      454E545F 
 12354      506F7329 
ARM GAS  /tmp/ccXTVNcx.s 			page 290


 12354      00
 12355              	.LASF415:
 12356 548d 55494E54 		.ascii	"UINT_FAST32_MAX __UINT_FAST32_MAX__\000"
 12356      5F464153 
 12356      5433325F 
 12356      4D415820 
 12356      5F5F5549 
 12357              	.LASF49:
 12358 54b1 5F5F494E 		.ascii	"__INT_LEAST32_TYPE__ long int\000"
 12358      545F4C45 
 12358      41535433 
 12358      325F5459 
 12358      50455F5F 
 12359              	.LASF1131:
 12360 54cf 49324330 		.ascii	"I2C0\000"
 12360      00
 12361              	.LASF1089:
 12362 54d4 53595343 		.ascii	"SYSCTL_CLOCK_ADC\000"
 12362      544C5F43 
 12362      4C4F434B 
 12362      5F414443 
 12362      00
 12363              	.LASF667:
 12364 54e5 4D445F45 		.ascii	"MD_ENFIL (0x1 << 8)\000"
 12364      4E46494C 
 12364      20283078 
 12364      31203C3C 
 12364      20382900 
 12365              	.LASF533:
 12366 54f9 5343425F 		.ascii	"SCB_SHCSR_SVCALLPENDED_Msk (1UL << SCB_SHCSR_SVCALL"
 12366      53484353 
 12366      525F5356 
 12366      43414C4C 
 12366      50454E44 
 12367 552c 50454E44 		.ascii	"PENDED_Pos)\000"
 12367      45445F50 
 12367      6F732900 
 12368              	.LASF972:
 12369 5538 53444F5F 		.ascii	"SDO_ABORT_ACCINCOMP 0x06040047UL\000"
 12369      41424F52 
 12369      545F4143 
 12369      43494E43 
 12369      4F4D5020 
 12370              	.LASF797:
 12371 5559 55415254 		.ascii	"UART_SCICTRL_TXRETRY(n) ((n & 0x07) << 5)\000"
 12371      5F534349 
 12371      4354524C 
 12371      5F545852 
 12371      45545259 
 12372              	.LASF198:
 12373 5583 5F5F4652 		.ascii	"__FRACT_IBIT__ 0\000"
 12373      4143545F 
 12373      49424954 
 12373      5F5F2030 
 12373      00
 12374              	.LASF8:
 12375 5594 5F5F4154 		.ascii	"__ATOMIC_ACQUIRE 2\000"
ARM GAS  /tmp/ccXTVNcx.s 			page 291


 12375      4F4D4943 
 12375      5F414351 
 12375      55495245 
 12375      203200
 12376              	.LASF871:
 12377 55a7 5245545F 		.ascii	"RET_SLAVE_RX 5\000"
 12377      534C4156 
 12377      455F5258 
 12377      203500
 12378              	.LASF968:
 12379 55b6 53444F5F 		.ascii	"SDO_ABORT_WRITEONLY 0x06010001UL\000"
 12379      41424F52 
 12379      545F5752 
 12379      4954454F 
 12379      4E4C5920 
 12380              	.LASF814:
 12381 55d7 57574454 		.ascii	"WWDT_WDMOD_WDRESET ((uint32_t) (1 << 1))\000"
 12381      5F57444D 
 12381      4F445F57 
 12381      44524553 
 12381      45542028 
 12382              	.LASF24:
 12383 5600 5F5F4F52 		.ascii	"__ORDER_LITTLE_ENDIAN__ 1234\000"
 12383      4445525F 
 12383      4C495454 
 12383      4C455F45 
 12383      4E444941 
 12384              	.LASF422:
 12385 561d 53495A45 		.ascii	"SIZE_MAX __SIZE_MAX__\000"
 12385      5F4D4158 
 12385      205F5F53 
 12385      495A455F 
 12385      4D41585F 
 12386              	.LASF932:
 12387 5633 4932435F 		.ascii	"I2C_I2MASK_MASK(n) ((n & 0xFE))\000"
 12387      49324D41 
 12387      534B5F4D 
 12387      41534B28 
 12387      6E292028 
 12388              	.LASF1005:
 12389 5653 6C6F6E67 		.ascii	"long long unsigned int\000"
 12389      206C6F6E 
 12389      6720756E 
 12389      7369676E 
 12389      65642069 
 12390              	.LASF253:
 12391 566a 5F5F554C 		.ascii	"__ULACCUM_IBIT__ 32\000"
 12391      41434355 
 12391      4D5F4942 
 12391      49545F5F 
 12391      20333200 
 12392              	.LASF823:
 12393 567e 5353505F 		.ascii	"SSP_CR0_CPOL_LO ((uint32_t) (0))\000"
 12393      4352305F 
 12393      43504F4C 
 12393      5F4C4F20 
 12393      28287569 
ARM GAS  /tmp/ccXTVNcx.s 			page 292


 12394              	.LASF1090:
 12395 569f 53595343 		.ascii	"SYSCTL_CLOCK_RESERVED14\000"
 12395      544C5F43 
 12395      4C4F434B 
 12395      5F524553 
 12395      45525645 
 12396              	.LASF31:
 12397 56b7 5F5F5054 		.ascii	"__PTRDIFF_TYPE__ int\000"
 12397      52444946 
 12397      465F5459 
 12397      50455F5F 
 12397      20696E74 
 12398              	.LASF328:
 12399 56cc 5F5F4150 		.ascii	"__APCS_32__ 1\000"
 12399      43535F33 
 12399      325F5F20 
 12399      3100
 12400              	.LASF1151:
 12401 56da 43686970 		.ascii	"Chip_Clock_EnablePeriphClock\000"
 12401      5F436C6F 
 12401      636B5F45 
 12401      6E61626C 
 12401      65506572 
 12402              	.LASF923:
 12403 56f7 4932435F 		.ascii	"I2C_I2DAT_BITMASK ((0xFF))\000"
 12403      49324441 
 12403      545F4249 
 12403      544D4153 
 12403      4B202828 
 12404              	.LASF704:
 12405 5712 55415254 		.ascii	"UART_IER_MSINT (1 << 3)\000"
 12405      5F494552 
 12405      5F4D5349 
 12405      4E542028 
 12405      31203C3C 
 12406              	.LASF228:
 12407 572a 5F5F5341 		.ascii	"__SACCUM_IBIT__ 8\000"
 12407      4343554D 
 12407      5F494249 
 12407      545F5F20 
 12407      3800
 12408              	.LASF273:
 12409 573c 5F5F4451 		.ascii	"__DQ_FBIT__ 63\000"
 12409      5F464249 
 12409      545F5F20 
 12409      363300
 12410              	.LASF1088:
 12411 574b 53595343 		.ascii	"SYSCTL_CLOCK_UART0\000"
 12411      544C5F43 
 12411      4C4F434B 
 12411      5F554152 
 12411      543000
 12412              	.LASF1081:
 12413 575e 53595343 		.ascii	"SYSCTL_CLOCK_I2C\000"
 12413      544C5F43 
 12413      4C4F434B 
 12413      5F493243 
ARM GAS  /tmp/ccXTVNcx.s 			page 293


 12413      00
 12414              	.LASF61:
 12415 576f 5F5F5549 		.ascii	"__UINT_FAST32_TYPE__ unsigned int\000"
 12415      4E545F46 
 12415      41535433 
 12415      325F5459 
 12415      50455F5F 
 12416              	.LASF56:
 12417 5791 5F5F494E 		.ascii	"__INT_FAST16_TYPE__ int\000"
 12417      545F4641 
 12417      53543136 
 12417      5F545950 
 12417      455F5F20 
 12418              	.LASF622:
 12419 57a9 53595343 		.ascii	"SYSCTL_SLPWAKE_ADC_PD (1 << 4)\000"
 12419      544C5F53 
 12419      4C505741 
 12419      4B455F41 
 12419      44435F50 
 12420              	.LASF229:
 12421 57c8 5F5F5341 		.ascii	"__SACCUM_MIN__ (-0X1P7HK-0X1P7HK)\000"
 12421      4343554D 
 12421      5F4D494E 
 12421      5F5F2028 
 12421      2D305831 
 12422              	.LASF1125:
 12423 57ea 72784275 		.ascii	"rxBuff\000"
 12423      666600
 12424              	.LASF52:
 12425 57f1 5F5F5549 		.ascii	"__UINT_LEAST16_TYPE__ short unsigned int\000"
 12425      4E545F4C 
 12425      45415354 
 12425      31365F54 
 12425      5950455F 
 12426              	.LASF867:
 12427 581a 4144435F 		.ascii	"ADC_SAMPLE_RATE_CONFIG_MASK (ADC_CR_CLKDIV(0xFF) | "
 12427      53414D50 
 12427      4C455F52 
 12427      4154455F 
 12427      434F4E46 
 12428 584d 4144435F 		.ascii	"ADC_CR_BITACC(0x07))\000"
 12428      43525F42 
 12428      49544143 
 12428      43283078 
 12428      30372929 
 12429              	.LASF1053:
 12430 5862 52455345 		.ascii	"RESERVED10\000"
 12430      52564544 
 12430      313000
 12431              	.LASF1056:
 12432 586d 52455345 		.ascii	"RESERVED11\000"
 12432      52564544 
 12432      313100
 12433              	.LASF1062:
 12434 5878 52455345 		.ascii	"RESERVED12\000"
 12434      52564544 
 12434      313200
ARM GAS  /tmp/ccXTVNcx.s 			page 294


 12435              	.LASF1067:
 12436 5883 52455345 		.ascii	"RESERVED13\000"
 12436      52564544 
 12436      313300
 12437              	.LASF1069:
 12438 588e 52455345 		.ascii	"RESERVED14\000"
 12438      52564544 
 12438      313400
 12439              	.LASF1073:
 12440 5899 52455345 		.ascii	"RESERVED15\000"
 12440      52564544 
 12440      313500
 12441              	.LASF103:
 12442 58a4 5F5F5549 		.ascii	"__UINT_LEAST16_MAX__ 65535\000"
 12442      4E545F4C 
 12442      45415354 
 12442      31365F4D 
 12442      41585F5F 
 12443              	.LASF285:
 12444 58bf 5F5F5554 		.ascii	"__UTQ_FBIT__ 128\000"
 12444      515F4642 
 12444      49545F5F 
 12444      20313238 
 12444      00
 12445              	.LASF688:
 12446 58d0 54494D45 		.ascii	"TIMER_STOP_ON_MATCH(n) (_BIT((((n) * 3) + 2)))\000"
 12446      525F5354 
 12446      4F505F4F 
 12446      4E5F4D41 
 12446      54434828 
 12447              	.LASF942:
 12448 58ff 4932435F 		.ascii	"I2C_SEND_END 0x08\000"
 12448      53454E44 
 12448      5F454E44 
 12448      20307830 
 12448      3800
 12449              	.LASF935:
 12450 5911 4932435F 		.ascii	"I2C_SETUP_STATUS_ARBF (1 << 8)\000"
 12450      53455455 
 12450      505F5354 
 12450      41545553 
 12450      5F415242 
 12451              	.LASF261:
 12452 5930 5F5F4C4C 		.ascii	"__LLACCUM_EPSILON__ 0x1P-31LLK\000"
 12452      41434355 
 12452      4D5F4550 
 12452      53494C4F 
 12452      4E5F5F20 
 12453              	.LASF13:
 12454 594f 5F5F4649 		.ascii	"__FINITE_MATH_ONLY__ 0\000"
 12454      4E495445 
 12454      5F4D4154 
 12454      485F4F4E 
 12454      4C595F5F 
 12455              	.LASF708:
 12456 5966 55415254 		.ascii	"UART_IER_BITMASK (0x307)\000"
 12456      5F494552 
ARM GAS  /tmp/ccXTVNcx.s 			page 295


 12456      5F424954 
 12456      4D41534B 
 12456      20283078 
 12457              	.LASF366:
 12458 597f 5F5F6861 		.ascii	"__have_longlong64 1\000"
 12458      76655F6C 
 12458      6F6E676C 
 12458      6F6E6736 
 12458      34203100 
 12459              	.LASF1034:
 12460 5993 53595341 		.ascii	"SYSAHBCLKCTRL\000"
 12460      4842434C 
 12460      4B435452 
 12460      4C00
 12461              	.LASF1142:
 12462 59a1 6D457665 		.ascii	"mEvent\000"
 12462      6E7400
 12463              	.LASF425:
 12464 59a8 50545244 		.ascii	"PTRDIFF_MAX __PTRDIFF_MAX__\000"
 12464      4946465F 
 12464      4D415820 
 12464      5F5F5054 
 12464      52444946 
 12465              	.LASF17:
 12466 59c4 5F5F5349 		.ascii	"__SIZEOF_SHORT__ 2\000"
 12466      5A454F46 
 12466      5F53484F 
 12466      52545F5F 
 12466      203200
 12467              	.LASF1021:
 12468 59d7 49524343 		.ascii	"IRCCTRL\000"
 12468      54524C00 
 12469              	.LASF804:
 12470 59df 55415254 		.ascii	"UART_SYNCCTRL_SYNC (1 << 0)\000"
 12470      5F53594E 
 12470      43435452 
 12470      4C5F5359 
 12470      4E432028 
 12471              	.LASF327:
 12472 59fb 5F5F4152 		.ascii	"__ARM_ARCH 6\000"
 12472      4D5F4152 
 12472      43482036 
 12472      00
 12473              	.LASF888:
 12474 5a08 4932435F 		.ascii	"I2C_CON_STA (1UL << 5)\000"
 12474      434F4E5F 
 12474      53544120 
 12474      2831554C 
 12474      203C3C20 
 12475              	.LASF939:
 12476 5a1f 4932435F 		.ascii	"I2C_BYTE_SENT 0x01\000"
 12476      42595445 
 12476      5F53454E 
 12476      54203078 
 12476      303100
 12477              	.LASF255:
 12478 5a32 5F5F554C 		.ascii	"__ULACCUM_MAX__ 0XFFFFFFFFFFFFFFFFP-32ULK\000"
ARM GAS  /tmp/ccXTVNcx.s 			page 296


 12478      41434355 
 12478      4D5F4D41 
 12478      585F5F20 
 12478      30584646 
 12479              	.LASF1130:
 12480 5a5c 4932435F 		.ascii	"I2C_ID\000"
 12480      494400
 12481              	.LASF1180:
 12482 5a63 43686970 		.ascii	"Chip_I2C_SetClockRate\000"
 12482      5F493243 
 12482      5F536574 
 12482      436C6F63 
 12482      6B526174 
 12483              	.LASF214:
 12484 5a79 5F5F554C 		.ascii	"__ULFRACT_MIN__ 0.0ULR\000"
 12484      46524143 
 12484      545F4D49 
 12484      4E5F5F20 
 12484      302E3055 
 12485              	.LASF1071:
 12486 5a90 50445741 		.ascii	"PDWAKECFG\000"
 12486      4B454346 
 12486      4700
 12487              	.LASF1108:
 12488 5a9a 4C50435F 		.ascii	"LPC_I2C_T\000"
 12488      4932435F 
 12488      5400
 12489              	.LASF274:
 12490 5aa4 5F5F4451 		.ascii	"__DQ_IBIT__ 0\000"
 12490      5F494249 
 12490      545F5F20 
 12490      3000
 12491              	.LASF1061:
 12492 5ab2 55534243 		.ascii	"USBCLKST\000"
 12492      4C4B5354 
 12492      00
 12493              	.LASF1013:
 12494 5abb 50524553 		.ascii	"PRESETCTRL\000"
 12494      45544354 
 12494      524C00
 12495              	.LASF625:
 12496 5ac6 53595343 		.ascii	"SYSCTL_SLPWAKE_SYSPLL_PD (1 << 7)\000"
 12496      544C5F53 
 12496      4C505741 
 12496      4B455F53 
 12496      5953504C 
 12497              	.LASF486:
 12498 5ae8 5343425F 		.ascii	"SCB_CPUID_VARIANT_Pos 20\000"
 12498      43505549 
 12498      445F5641 
 12498      5249414E 
 12498      545F506F 
 12499              	.LASF75:
 12500 5b01 5F5F5749 		.ascii	"__WINT_MAX__ 4294967295U\000"
 12500      4E545F4D 
 12500      41585F5F 
 12500      20343239 
ARM GAS  /tmp/ccXTVNcx.s 			page 297


 12500      34393637 
 12501              	.LASF617:
 12502 5b1a 53595343 		.ascii	"SYSCTL_DEEPSLP_WDTOSC_PD (1 << 6)\000"
 12502      544C5F44 
 12502      45455053 
 12502      4C505F57 
 12502      44544F53 
 12503              	.LASF717:
 12504 5b3c 55415254 		.ascii	"UART_IIR_INTID_RLS (3 << 1)\000"
 12504      5F494952 
 12504      5F494E54 
 12504      49445F52 
 12504      4C532028 
 12505              	.LASF1175:
 12506 5b58 68616E64 		.ascii	"handleMasterXferState\000"
 12506      6C654D61 
 12506      73746572 
 12506      58666572 
 12506      53746174 
 12507              	.LASF99:
 12508 5b6e 5F5F494E 		.ascii	"__INT_LEAST64_MAX__ 9223372036854775807LL\000"
 12508      545F4C45 
 12508      41535436 
 12508      345F4D41 
 12508      585F5F20 
 12509              	.LASF394:
 12510 5b98 55494E54 		.ascii	"UINT_LEAST16_MAX __UINT_LEAST16_MAX__\000"
 12510      5F4C4541 
 12510      53543136 
 12510      5F4D4158 
 12510      205F5F55 
 12511              	.LASF992:
 12512 5bbe 4C50435F 		.ascii	"LPC_CCAN_API ((CCAN_API_T *) (LPC_ROM_API->candApiB"
 12512      4343414E 
 12512      5F415049 
 12512      20282843 
 12512      43414E5F 
 12513 5bf1 61736529 		.ascii	"ase))\000"
 12513      2900
 12514              	.LASF560:
 12515 5bf7 5F534850 		.ascii	"_SHP_IDX(IRQn) ( ((((uint32_t)(IRQn) & 0x0F)-8) >> "
 12515      5F494458 
 12515      28495251 
 12515      6E292028 
 12515      20282828 
 12516 5c2a 32292029 		.ascii	"2) )\000"
 12516      00
 12517              	.LASF908:
 12518 5c2f 4932435F 		.ascii	"I2C_I2STAT_S_RX_SLAW_ACK ((0x60))\000"
 12518      49325354 
 12518      41545F53 
 12518      5F52585F 
 12518      534C4157 
 12519              	.LASF587:
 12520 5c51 4C50435F 		.ascii	"LPC_WWDT ((LPC_WWDT_T *) LPC_WWDT_BASE)\000"
 12520      57574454 
 12520      2028284C 
ARM GAS  /tmp/ccXTVNcx.s 			page 298


 12520      50435F57 
 12520      5744545F 
 12521              	.LASF539:
 12522 5c79 53797354 		.ascii	"SysTick_CTRL_TICKINT_Msk (1UL << SysTick_CTRL_TICKI"
 12522      69636B5F 
 12522      4354524C 
 12522      5F544943 
 12522      4B494E54 
 12523 5cac 4E545F50 		.ascii	"NT_Pos)\000"
 12523      6F732900 
 12524              	.LASF772:
 12525 5cb4 55415254 		.ascii	"UART_MSR_RI (1 << 6)\000"
 12525      5F4D5352 
 12525      5F524920 
 12525      2831203C 
 12525      3C203629 
 12526              	.LASF335:
 12527 5cc9 5F5F4152 		.ascii	"__ARM_FP 12\000"
 12527      4D5F4650 
 12527      20313200 
 12528              	.LASF78:
 12529 5cd5 5F5F5349 		.ascii	"__SIZE_MAX__ 4294967295U\000"
 12529      5A455F4D 
 12529      41585F5F 
 12529      20343239 
 12529      34393637 
 12530              	.LASF556:
 12531 5cee 53434220 		.ascii	"SCB ((SCB_Type *) SCB_BASE )\000"
 12531      28285343 
 12531      425F5479 
 12531      7065202A 
 12531      29205343 
 12532              	.LASF286:
 12533 5d0b 5F5F5554 		.ascii	"__UTQ_IBIT__ 0\000"
 12533      515F4942 
 12533      49545F5F 
 12533      203000
 12534              	.LASF414:
 12535 5d1a 494E545F 		.ascii	"INT_FAST32_MAX __INT_FAST32_MAX__\000"
 12535      46415354 
 12535      33325F4D 
 12535      4158205F 
 12535      5F494E54 
 12536              	.LASF289:
 12537 5d3c 5F5F5341 		.ascii	"__SA_FBIT__ 15\000"
 12537      5F464249 
 12537      545F5F20 
 12537      313500
 12538              	.LASF221:
 12539 5d4b 5F5F4C4C 		.ascii	"__LLFRACT_EPSILON__ 0x1P-63LLR\000"
 12539      46524143 
 12539      545F4550 
 12539      53494C4F 
 12539      4E5F5F20 
 12540              	.LASF1163:
 12541 5d6a 69734932 		.ascii	"isI2CBusFree\000"
 12541      43427573 
ARM GAS  /tmp/ccXTVNcx.s 			page 299


 12541      46726565 
 12541      00
 12542              	.LASF674:
 12543 5d77 46554E43 		.ascii	"FUNC2 0x2\000"
 12543      32203078 
 12543      3200
 12544              	.LASF1044:
 12545 5d81 57445443 		.ascii	"WDTCLKSEL\000"
 12545      4C4B5345 
 12545      4C00
 12546              	.LASF580:
 12547 5d8b 4C50435F 		.ascii	"LPC_GPIO_PORT0_BASE 0x50000000\000"
 12547      4750494F 
 12547      5F504F52 
 12547      54305F42 
 12547      41534520 
 12548              	.LASF777:
 12549 5daa 55415254 		.ascii	"UART_ACR_AUTO_RESTART (1 << 2)\000"
 12549      5F414352 
 12549      5F415554 
 12549      4F5F5245 
 12549      53544152 
 12550              	.LASF342:
 12551 5dc9 5F5F454C 		.ascii	"__ELF__ 1\000"
 12551      465F5F20 
 12551      3100
 12552              	.LASF395:
 12553 5dd3 494E5433 		.ascii	"INT32_MIN (-__INT32_MAX__ - 1)\000"
 12553      325F4D49 
 12553      4E20282D 
 12553      5F5F494E 
 12553      5433325F 
 12554              	.LASF332:
 12555 5df2 5F5F5448 		.ascii	"__THUMBEL__ 1\000"
 12555      554D4245 
 12555      4C5F5F20 
 12555      3100
 12556              	.LASF640:
 12557 5e00 494F434F 		.ascii	"IOCON_FUNC3 0x3\000"
 12557      4E5F4655 
 12557      4E433320 
 12557      30783300 
 12558              	.LASF604:
 12559 5e10 504D555F 		.ascii	"PMU_PCON_PM_SLEEP (0x0)\000"
 12559      50434F4E 
 12559      5F504D5F 
 12559      534C4545 
 12559      50202830 
 12560              	.LASF979:
 12561 5e28 4F445F4E 		.ascii	"OD_NONE 0x00\000"
 12561      4F4E4520 
 12561      30783030 
 12561      00
 12562              	.LASF268:
 12563 5e35 5F5F5151 		.ascii	"__QQ_IBIT__ 0\000"
 12563      5F494249 
 12563      545F5F20 
ARM GAS  /tmp/ccXTVNcx.s 			page 300


 12563      3000
 12564              	.LASF865:
 12565 5e43 4144435F 		.ascii	"ADC_CR_START_MCOA2 ((6UL << 24))\000"
 12565      43525F53 
 12565      54415254 
 12565      5F4D434F 
 12565      41322028 
 12566              	.LASF858:
 12567 5e64 4144435F 		.ascii	"ADC_CR_START_MASK ((7UL << 24))\000"
 12567      43525F53 
 12567      54415254 
 12567      5F4D4153 
 12567      4B202828 
 12568              	.LASF565:
 12569 5e84 4C50435F 		.ascii	"LPC_TIMER16_0_BASE 0x4000C000\000"
 12569      54494D45 
 12569      5231365F 
 12569      305F4241 
 12569      53452030 
 12570              	.LASF438:
 12571 5ea2 55494E54 		.ascii	"UINT64_C(x) __UINT64_C(x)\000"
 12571      36345F43 
 12571      28782920 
 12571      5F5F5549 
 12571      4E543634 
 12572              	.LASF257:
 12573 5ebc 5F5F4C4C 		.ascii	"__LLACCUM_FBIT__ 31\000"
 12573      41434355 
 12573      4D5F4642 
 12573      49545F5F 
 12573      20333100 
 12574              	.LASF81:
 12575 5ed0 5F5F5549 		.ascii	"__UINTMAX_MAX__ 18446744073709551615ULL\000"
 12575      4E544D41 
 12575      585F4D41 
 12575      585F5F20 
 12575      31383434 
 12576              	.LASF129:
 12577 5ef8 5F5F464C 		.ascii	"__FLT_MAX_10_EXP__ 38\000"
 12577      545F4D41 
 12577      585F3130 
 12577      5F455850 
 12577      5F5F2033 
 12578              	.LASF282:
 12579 5f0e 5F5F5553 		.ascii	"__USQ_IBIT__ 0\000"
 12579      515F4942 
 12579      49545F5F 
 12579      203000
 12580              	.LASF53:
 12581 5f1d 5F5F5549 		.ascii	"__UINT_LEAST32_TYPE__ long unsigned int\000"
 12581      4E545F4C 
 12581      45415354 
 12581      33325F54 
 12581      5950455F 
 12582              	.LASF280:
 12583 5f45 5F5F5548 		.ascii	"__UHQ_IBIT__ 0\000"
 12583      515F4942 
ARM GAS  /tmp/ccXTVNcx.s 			page 301


 12583      49545F5F 
 12583      203000
 12584              	.LASF3:
 12585 5f54 5F5F474E 		.ascii	"__GNUC_MINOR__ 9\000"
 12585      55435F4D 
 12585      494E4F52 
 12585      5F5F2039 
 12585      00
 12586              	.LASF34:
 12587 5f65 5F5F494E 		.ascii	"__INTMAX_TYPE__ long long int\000"
 12587      544D4158 
 12587      5F545950 
 12587      455F5F20 
 12587      6C6F6E67 
 12588              	.LASF313:
 12589 5f83 5F5F4743 		.ascii	"__GCC_ATOMIC_INT_LOCK_FREE 1\000"
 12589      435F4154 
 12589      4F4D4943 
 12589      5F494E54 
 12589      5F4C4F43 
 12590              	.LASF97:
 12591 5fa0 5F5F494E 		.ascii	"__INT_LEAST32_MAX__ 2147483647L\000"
 12591      545F4C45 
 12591      41535433 
 12591      325F4D41 
 12591      585F5F20 
 12592              	.LASF306:
 12593 5fc0 5F5F4348 		.ascii	"__CHAR_UNSIGNED__ 1\000"
 12593      41525F55 
 12593      4E534947 
 12593      4E45445F 
 12593      5F203100 
 12594              	.LASF614:
 12595 5fd4 53595343 		.ascii	"SYSCTL_RST_SYSRST (1 << 4)\000"
 12595      544C5F52 
 12595      53545F53 
 12595      59535253 
 12595      54202831 
 12596              	.LASF904:
 12597 5fef 4932435F 		.ascii	"I2C_I2STAT_M_RX_SLAR_ACK ((0x40))\000"
 12597      49325354 
 12597      41545F4D 
 12597      5F52585F 
 12597      534C4152 
 12598              	.LASF647:
 12599 6011 494F434F 		.ascii	"IOCON_MODE_PULLUP (0x2 << 3)\000"
 12599      4E5F4D4F 
 12599      44455F50 
 12599      554C4C55 
 12599      50202830 
 12600              	.LASF1178:
 12601 602e 43686970 		.ascii	"Chip_I2C_Init\000"
 12601      5F493243 
 12601      5F496E69 
 12601      7400
 12602              	.LASF733:
 12603 603c 55415254 		.ascii	"UART_LCR_WLEN5 (0 << 0)\000"
ARM GAS  /tmp/ccXTVNcx.s 			page 302


 12603      5F4C4352 
 12603      5F574C45 
 12603      4E352028 
 12603      30203C3C 
 12604              	.LASF660:
 12605 6054 4D445F50 		.ascii	"MD_PUP (0x2 << 3)\000"
 12605      55502028 
 12605      30783220 
 12605      3C3C2033 
 12605      2900
 12606              	.LASF361:
 12607 6066 5F5F5F69 		.ascii	"___int_least32_t_defined 1\000"
 12607      6E745F6C 
 12607      65617374 
 12607      33325F74 
 12607      5F646566 
 12608              	.LASF236:
 12609 6081 5F5F5553 		.ascii	"__USACCUM_EPSILON__ 0x1P-8UHK\000"
 12609      41434355 
 12609      4D5F4550 
 12609      53494C4F 
 12609      4E5F5F20 
 12610              	.LASF151:
 12611 609f 5F5F4442 		.ascii	"__DBL_HAS_QUIET_NAN__ 1\000"
 12611      4C5F4841 
 12611      535F5155 
 12611      4945545F 
 12611      4E414E5F 
 12612              	.LASF449:
 12613 60b7 5F424954 		.ascii	"_BIT\000"
 12613      00
 12614              	.LASF435:
 12615 60bc 494E5433 		.ascii	"INT32_C(x) __INT32_C(x)\000"
 12615      325F4328 
 12615      7829205F 
 12615      5F494E54 
 12615      33325F43 
 12616              	.LASF1122:
 12617 60d4 736C6176 		.ascii	"slaveAddr\000"
 12617      65416464 
 12617      7200
 12618              	.LASF220:
 12619 60de 5F5F4C4C 		.ascii	"__LLFRACT_MAX__ 0X7FFFFFFFFFFFFFFFP-63LLR\000"
 12619      46524143 
 12619      545F4D41 
 12619      585F5F20 
 12619      30583746 
 12620              	.LASF543:
 12621 6108 53797354 		.ascii	"SysTick_LOAD_RELOAD_Msk (0xFFFFFFUL << SysTick_LOAD"
 12621      69636B5F 
 12621      4C4F4144 
 12621      5F52454C 
 12621      4F41445F 
 12622 613b 5F52454C 		.ascii	"_RELOAD_Pos)\000"
 12622      4F41445F 
 12622      506F7329 
 12622      00
ARM GAS  /tmp/ccXTVNcx.s 			page 303


 12623              	.LASF1141:
 12624 6148 4932435F 		.ascii	"I2C_EVENTHANDLER_T\000"
 12624      4556454E 
 12624      5448414E 
 12624      444C4552 
 12624      5F5400
 12625              	.LASF635:
 12626 615b 53595343 		.ascii	"SYSCTL_IRC_FREQ (12000000)\000"
 12626      544C5F49 
 12626      52435F46 
 12626      52455120 
 12626      28313230 
 12627              	.LASF77:
 12628 6176 5F5F5054 		.ascii	"__PTRDIFF_MAX__ 2147483647\000"
 12628      52444946 
 12628      465F4D41 
 12628      585F5F20 
 12628      32313437 
 12629              	.LASF497:
 12630 6191 5343425F 		.ascii	"SCB_ICSR_PENDSVSET_Msk (1UL << SCB_ICSR_PENDSVSET_P"
 12630      49435352 
 12630      5F50454E 
 12630      44535653 
 12630      45545F4D 
 12631 61c4 6F732900 		.ascii	"os)\000"
 12632              	.LASF546:
 12633 61c8 53797354 		.ascii	"SysTick_CALIB_NOREF_Pos 31\000"
 12633      69636B5F 
 12633      43414C49 
 12633      425F4E4F 
 12633      5245465F 
 12634              	.LASF230:
 12635 61e3 5F5F5341 		.ascii	"__SACCUM_MAX__ 0X7FFFP-7HK\000"
 12635      4343554D 
 12635      5F4D4158 
 12635      5F5F2030 
 12635      58374646 
 12636              	.LASF63:
 12637 61fe 5F5F494E 		.ascii	"__INTPTR_TYPE__ int\000"
 12637      54505452 
 12637      5F545950 
 12637      455F5F20 
 12637      696E7400 
 12638              	.LASF36:
 12639 6212 5F5F4348 		.ascii	"__CHAR16_TYPE__ short unsigned int\000"
 12639      41523136 
 12639      5F545950 
 12639      455F5F20 
 12639      73686F72 
 12640              	.LASF64:
 12641 6235 5F5F5549 		.ascii	"__UINTPTR_TYPE__ unsigned int\000"
 12641      4E545054 
 12641      525F5459 
 12641      50455F5F 
 12641      20756E73 
 12642              	.LASF800:
 12643 6253 55415254 		.ascii	"UART_FDR_MULVAL(n) ((n << 4) & 0xF0)\000"
ARM GAS  /tmp/ccXTVNcx.s 			page 304


 12643      5F464452 
 12643      5F4D554C 
 12643      56414C28 
 12643      6E292028 
 12644              	.LASF541:
 12645 6278 53797354 		.ascii	"SysTick_CTRL_ENABLE_Msk (1UL << SysTick_CTRL_ENABLE"
 12645      69636B5F 
 12645      4354524C 
 12645      5F454E41 
 12645      424C455F 
 12646 62ab 5F506F73 		.ascii	"_Pos)\000"
 12646      2900
 12647              	.LASF303:
 12648 62b1 5F5F5245 		.ascii	"__REGISTER_PREFIX__ \000"
 12648      47495354 
 12648      45525F50 
 12648      52454649 
 12648      585F5F20 
 12649              	.LASF186:
 12650 62c6 5F5F4445 		.ascii	"__DEC128_SUBNORMAL_MIN__ 0.000000000000000000000000"
 12650      43313238 
 12650      5F535542 
 12650      4E4F524D 
 12650      414C5F4D 
 12651 62f9 30303030 		.ascii	"000000001E-6143DL\000"
 12651      30303030 
 12651      31452D36 
 12651      31343344 
 12651      4C00
 12652              	.LASF1022:
 12653 630b 4C464F53 		.ascii	"LFOSCCTRL\000"
 12653      43435452 
 12653      4C00
 12654              	.LASF216:
 12655 6315 5F5F554C 		.ascii	"__ULFRACT_EPSILON__ 0x1P-32ULR\000"
 12655      46524143 
 12655      545F4550 
 12655      53494C4F 
 12655      4E5F5F20 
 12656              	.LASF987:
 12657 6334 43414E5F 		.ascii	"CAN_SDOREQ_HANDLED_SEND 1\000"
 12657      53444F52 
 12657      45515F48 
 12657      414E444C 
 12657      45445F53 
 12658              	.LASF338:
 12659 634e 5F5F4152 		.ascii	"__ARM_ARCH_6M__ 1\000"
 12659      4D5F4152 
 12659      43485F36 
 12659      4D5F5F20 
 12659      3100
 12660              	.LASF21:
 12661 6360 5F5F5349 		.ascii	"__SIZEOF_SIZE_T__ 4\000"
 12661      5A454F46 
 12661      5F53495A 
 12661      455F545F 
 12661      5F203400 
ARM GAS  /tmp/ccXTVNcx.s 			page 305


 12662              	.LASF1120:
 12663 6374 4932435F 		.ascii	"I2C_STATUS_BUSY\000"
 12663      53544154 
 12663      55535F42 
 12663      55535900 
 12664              	.LASF812:
 12665 6384 57574454 		.ascii	"WWDT_WDMOD_BITMASK ((uint32_t) 0x1F)\000"
 12665      5F57444D 
 12665      4F445F42 
 12665      49544D41 
 12665      534B2028 
 12666              	.LASF46:
 12667 63a9 5F5F5549 		.ascii	"__UINT64_TYPE__ long long unsigned int\000"
 12667      4E543634 
 12667      5F545950 
 12667      455F5F20 
 12667      6C6F6E67 
 12668              	.LASF183:
 12669 63d0 5F5F4445 		.ascii	"__DEC128_MIN__ 1E-6143DL\000"
 12669      43313238 
 12669      5F4D494E 
 12669      5F5F2031 
 12669      452D3631 
 12670              	.LASF100:
 12671 63e9 5F5F494E 		.ascii	"__INT64_C(c) c ## LL\000"
 12671      5436345F 
 12671      43286329 
 12671      20632023 
 12671      23204C4C 
 12672              	.LASF248:
 12673 63fe 5F5F4C41 		.ascii	"__LACCUM_IBIT__ 32\000"
 12673      4343554D 
 12673      5F494249 
 12673      545F5F20 
 12673      333200
 12674              	.LASF1074:
 12675 6411 44455649 		.ascii	"DEVICEID\000"
 12675      43454944 
 12675      00
 12676              	.LASF398:
 12677 641a 494E545F 		.ascii	"INT_LEAST32_MIN (-__INT_LEAST32_MAX__ - 1)\000"
 12677      4C454153 
 12677      5433325F 
 12677      4D494E20 
 12677      282D5F5F 
 12678              	.LASF654:
 12679 6445 494F434F 		.ascii	"IOCON_STDI2C_EN (0x1 << 8)\000"
 12679      4E5F5354 
 12679      44493243 
 12679      5F454E20 
 12679      28307831 
 12680              	.LASF441:
 12681 6460 5F474343 		.ascii	"_GCC_WRAP_STDINT_H \000"
 12681      5F575241 
 12681      505F5354 
 12681      44494E54 
 12681      5F482000 
ARM GAS  /tmp/ccXTVNcx.s 			page 306


 12682              	.LASF930:
 12683 6474 4932435F 		.ascii	"I2C_I2ADR_GC ((1 << 0))\000"
 12683      49324144 
 12683      525F4743 
 12683      20282831 
 12683      203C3C20 
 12684              	.LASF1048:
 12685 648c 434C4B4F 		.ascii	"CLKOUTSEL\000"
 12685      55545345 
 12685      4C00
 12686              	.LASF160:
 12687 6496 5F5F4C44 		.ascii	"__LDBL_MIN__ 2.2250738585072014e-308L\000"
 12687      424C5F4D 
 12687      494E5F5F 
 12687      20322E32 
 12687      32353037 
 12688              	.LASF238:
 12689 64bc 5F5F4143 		.ascii	"__ACCUM_IBIT__ 16\000"
 12689      43554D5F 
 12689      49424954 
 12689      5F5F2031 
 12689      3600
 12690              	.LASF90:
 12691 64ce 5F5F5549 		.ascii	"__UINT16_MAX__ 65535\000"
 12691      4E543136 
 12691      5F4D4158 
 12691      5F5F2036 
 12691      35353335 
 12692              	.LASF1107:
 12693 64e3 4D41534B 		.ascii	"MASK\000"
 12693      00
 12694              	.LASF95:
 12695 64e8 5F5F494E 		.ascii	"__INT_LEAST16_MAX__ 32767\000"
 12695      545F4C45 
 12695      41535431 
 12695      365F4D41 
 12695      585F5F20 
 12696              	.LASF998:
 12697 6502 73686F72 		.ascii	"short int\000"
 12697      7420696E 
 12697      7400
 12698              	.LASF655:
 12699 650c 494F434F 		.ascii	"IOCON_FASTI2C_EN (0x2 << 8)\000"
 12699      4E5F4641 
 12699      53544932 
 12699      435F454E 
 12699      20283078 
 12700              	.LASF532:
 12701 6528 5343425F 		.ascii	"SCB_SHCSR_SVCALLPENDED_Pos 15\000"
 12701      53484353 
 12701      525F5356 
 12701      43414C4C 
 12701      50454E44 
 12702              	.LASF962:
 12703 6546 43414E5F 		.ascii	"CAN_MSGOBJ_DAT 0x00000000UL\000"
 12703      4D53474F 
 12703      424A5F44 
ARM GAS  /tmp/ccXTVNcx.s 			page 307


 12703      41542030 
 12703      78303030 
 12704              	.LASF725:
 12705 6562 55415254 		.ascii	"UART_FCR_DMAMODE_SEL (1 << 3)\000"
 12705      5F464352 
 12705      5F444D41 
 12705      4D4F4445 
 12705      5F53454C 
 12706              	.LASF202:
 12707 6580 5F5F5546 		.ascii	"__UFRACT_FBIT__ 16\000"
 12707      52414354 
 12707      5F464249 
 12707      545F5F20 
 12707      313600
 12708              	.LASF104:
 12709 6593 5F5F5549 		.ascii	"__UINT16_C(c) c\000"
 12709      4E543136 
 12709      5F432863 
 12709      29206300 
 12710              	.LASF459:
 12711 65a3 4D415828 		.ascii	"MAX(a,b) (((a) > (b)) ? (a) : (b))\000"
 12711      612C6229 
 12711      20282828 
 12711      6129203E 
 12711      20286229 
 12712              	.LASF322:
 12713 65c6 5F5F5349 		.ascii	"__SIZEOF_PTRDIFF_T__ 4\000"
 12713      5A454F46 
 12713      5F505452 
 12713      44494646 
 12713      5F545F5F 
 12714              	.LASF300:
 12715 65dd 5F5F5544 		.ascii	"__UDA_IBIT__ 32\000"
 12715      415F4942 
 12715      49545F5F 
 12715      20333200 
 12716              	.LASF910:
 12717 65ed 4932435F 		.ascii	"I2C_I2STAT_S_RX_GENCALL_ACK ((0x70))\000"
 12717      49325354 
 12717      41545F53 
 12717      5F52585F 
 12717      47454E43 
 12718              	.LASF401:
 12719 6612 494E5436 		.ascii	"INT64_MIN (-__INT64_MAX__ - 1)\000"
 12719      345F4D49 
 12719      4E20282D 
 12719      5F5F494E 
 12719      5436345F 
 12720              	.LASF6:
 12721 6631 5F5F4154 		.ascii	"__ATOMIC_RELAXED 0\000"
 12721      4F4D4943 
 12721      5F52454C 
 12721      41584544 
 12721      203000
 12722              	.LASF723:
 12723 6644 55415254 		.ascii	"UART_FCR_RX_RS (1 << 1)\000"
 12723      5F464352 
ARM GAS  /tmp/ccXTVNcx.s 			page 308


 12723      5F52585F 
 12723      52532028 
 12723      31203C3C 
 12724              	.LASF608:
 12725 665c 5F5F464D 		.ascii	"__FMC_11XX_H_ \000"
 12725      435F3131 
 12725      58585F48 
 12725      5F2000
 12726              	.LASF705:
 12727 666b 55415254 		.ascii	"UART_IER_CTSINT (1 << 7)\000"
 12727      5F494552 
 12727      5F435453 
 12727      494E5420 
 12727      2831203C 
 12728              	.LASF1202:
 12729 6684 2F686F6D 		.ascii	"/home/skoppula/evt/a123-battery-integration\000"
 12729      652F736B 
 12729      6F707075 
 12729      6C612F65 
 12729      76742F61 
 12730              	.LASF406:
 12731 66b0 55494E54 		.ascii	"UINT_LEAST64_MAX __UINT_LEAST64_MAX__\000"
 12731      5F4C4541 
 12731      53543634 
 12731      5F4D4158 
 12731      205F5F55 
 12732              	.LASF400:
 12733 66d6 55494E54 		.ascii	"UINT_LEAST32_MAX __UINT_LEAST32_MAX__\000"
 12733      5F4C4541 
 12733      53543332 
 12733      5F4D4158 
 12733      205F5F55 
 12734              	.LASF874:
 12735 66fc 4932435F 		.ascii	"I2C_STA_STO_RECV 0x20\000"
 12735      5354415F 
 12735      53544F5F 
 12735      52454356 
 12735      20307832 
 12736              	.LASF743:
 12737 6712 55415254 		.ascii	"UART_LCR_PARITY_EVEN (1 << 4)\000"
 12737      5F4C4352 
 12737      5F504152 
 12737      4954595F 
 12737      4556454E 
 12738              	.LASF1064:
 12739 6730 53544152 		.ascii	"STARTERP0\000"
 12739      54455250 
 12739      3000
 12740              	.LASF1068:
 12741 673a 53544152 		.ascii	"STARTERP1\000"
 12741      54455250 
 12741      3100
 12742              	.LASF483:
 12743 6744 5F5F494F 		.ascii	"__IO volatile\000"
 12743      20766F6C 
 12743      6174696C 
 12743      6500
ARM GAS  /tmp/ccXTVNcx.s 			page 309


 12744              	.LASF659:
 12745 6752 4D445F50 		.ascii	"MD_PDN (0x1 << 3)\000"
 12745      444E2028 
 12745      30783120 
 12745      3C3C2033 
 12745      2900
 12746              	.LASF707:
 12747 6764 55415254 		.ascii	"UART_IER_ABTOINT (1 << 9)\000"
 12747      5F494552 
 12747      5F414254 
 12747      4F494E54 
 12747      20283120 
 12748              	.LASF18:
 12749 677e 5F5F5349 		.ascii	"__SIZEOF_FLOAT__ 4\000"
 12749      5A454F46 
 12749      5F464C4F 
 12749      41545F5F 
 12749      203400
 12750              	.LASF432:
 12751 6791 55494E54 		.ascii	"UINT8_C(x) __UINT8_C(x)\000"
 12751      385F4328 
 12751      7829205F 
 12751      5F55494E 
 12751      54385F43 
 12752              	.LASF69:
 12753 67a9 5F5F5348 		.ascii	"__SHRT_MAX__ 32767\000"
 12753      52545F4D 
 12753      41585F5F 
 12753      20333237 
 12753      363700
 12754              	.LASF557:
 12755 67bc 53797354 		.ascii	"SysTick ((SysTick_Type *) SysTick_BASE )\000"
 12755      69636B20 
 12755      28285379 
 12755      73546963 
 12755      6B5F5479 
 12756              	.LASF215:
 12757 67e5 5F5F554C 		.ascii	"__ULFRACT_MAX__ 0XFFFFFFFFP-32ULR\000"
 12757      46524143 
 12757      545F4D41 
 12757      585F5F20 
 12757      30584646 
 12758              	.LASF144:
 12759 6807 5F5F4442 		.ascii	"__DBL_DECIMAL_DIG__ 17\000"
 12759      4C5F4445 
 12759      43494D41 
 12759      4C5F4449 
 12759      475F5F20 
 12760              	.LASF498:
 12761 681e 5343425F 		.ascii	"SCB_ICSR_PENDSVCLR_Pos 27\000"
 12761      49435352 
 12761      5F50454E 
 12761      44535643 
 12761      4C525F50 
 12762              	.LASF367:
 12763 6838 5F5F6861 		.ascii	"__have_long32 1\000"
 12763      76655F6C 
ARM GAS  /tmp/ccXTVNcx.s 			page 310


 12763      6F6E6733 
 12763      32203100 
 12764              	.LASF386:
 12765 6848 494E545F 		.ascii	"INT_LEAST8_MIN (-__INT_LEAST8_MAX__ - 1)\000"
 12765      4C454153 
 12765      54385F4D 
 12765      494E2028 
 12765      2D5F5F49 
 12766              	.LASF105:
 12767 6871 5F5F5549 		.ascii	"__UINT_LEAST32_MAX__ 4294967295UL\000"
 12767      4E545F4C 
 12767      45415354 
 12767      33325F4D 
 12767      41585F5F 
 12768              	.LASF252:
 12769 6893 5F5F554C 		.ascii	"__ULACCUM_FBIT__ 32\000"
 12769      41434355 
 12769      4D5F4642 
 12769      49545F5F 
 12769      20333200 
 12770              	.LASF516:
 12771 68a7 5343425F 		.ascii	"SCB_AIRCR_ENDIANESS_Pos 15\000"
 12771      41495243 
 12771      525F454E 
 12771      4449414E 
 12771      4553535F 
 12772              	.LASF624:
 12773 68c2 53595343 		.ascii	"SYSCTL_SLPWAKE_WDTOSC_PD (1 << 6)\000"
 12773      544C5F53 
 12773      4C505741 
 12773      4B455F57 
 12773      44544F53 
 12774              	.LASF995:
 12775 68e4 534C4156 		.ascii	"SLAVE_ACTIVE(iic) (((iic)->flags & 0xFF00) != 0)\000"
 12775      455F4143 
 12775      54495645 
 12775      28696963 
 12775      29202828 
 12776              	.LASF374:
 12777 6915 5F5F696E 		.ascii	"__int64_t_defined 1\000"
 12777      7436345F 
 12777      745F6465 
 12777      66696E65 
 12777      64203100 
 12778              	.LASF542:
 12779 6929 53797354 		.ascii	"SysTick_LOAD_RELOAD_Pos 0\000"
 12779      69636B5F 
 12779      4C4F4144 
 12779      5F52454C 
 12779      4F41445F 
 12780              	.LASF331:
 12781 6943 5F5F4152 		.ascii	"__ARMEL__ 1\000"
 12781      4D454C5F 
 12781      5F203100 
 12782              	.LASF837:
 12783 694f 5353505F 		.ascii	"SSP_SR_BITMASK ((uint32_t) (0x1F))\000"
 12783      53525F42 
ARM GAS  /tmp/ccXTVNcx.s 			page 311


 12783      49544D41 
 12783      534B2028 
 12783      2875696E 
 12784              	.LASF634:
 12785 6972 5F5F434C 		.ascii	"__CLOCK_11XX_H_ \000"
 12785      4F434B5F 
 12785      31315858 
 12785      5F485F20 
 12785      00
 12786              	.LASF1058:
 12787 6983 4E4D4953 		.ascii	"NMISRC\000"
 12787      524300
 12788              	.LASF71:
 12789 698a 5F5F4C4F 		.ascii	"__LONG_MAX__ 2147483647L\000"
 12789      4E475F4D 
 12789      41585F5F 
 12789      20323134 
 12789      37343833 
 12790              	.LASF267:
 12791 69a3 5F5F5151 		.ascii	"__QQ_FBIT__ 7\000"
 12791      5F464249 
 12791      545F5F20 
 12791      3700
 12792              	.LASF944:
 12793 69b1 4932435F 		.ascii	"I2C_ERR (0x10000000)\000"
 12793      45525220 
 12793      28307831 
 12793      30303030 
 12793      30303029 
 12794              	.LASF924:
 12795 69c6 4932435F 		.ascii	"I2C_I2DAT_IDLE_CHAR (0xFF)\000"
 12795      49324441 
 12795      545F4944 
 12795      4C455F43 
 12795      48415220 
 12796              	.LASF461:
 12797 69e1 494E4C49 		.ascii	"INLINE inline\000"
 12797      4E452069 
 12797      6E6C696E 
 12797      6500
 12798              	.LASF528:
 12799 69ef 5343425F 		.ascii	"SCB_CCR_STKALIGN_Pos 9\000"
 12799      4343525F 
 12799      53544B41 
 12799      4C49474E 
 12799      5F506F73 
 12800              	.LASF869:
 12801 6a06 5F5F4932 		.ascii	"__I2C_11XX_H_ \000"
 12801      435F3131 
 12801      58585F48 
 12801      5F2000
 12802              	.LASF762:
 12803 6a15 55415254 		.ascii	"UART_LSR_RXFE (1 << 7)\000"
 12803      5F4C5352 
 12803      5F525846 
 12803      45202831 
 12803      203C3C20 
ARM GAS  /tmp/ccXTVNcx.s 			page 312


 12804              	.LASF353:
 12805 6a2c 5F5F474E 		.ascii	"__GNUC_PREREQ__(ma,mi) __GNUC_PREREQ(ma, mi)\000"
 12805      55435F50 
 12805      52455245 
 12805      515F5F28 
 12805      6D612C6D 
 12806              	.LASF564:
 12807 6a59 4C50435F 		.ascii	"LPC_USART_BASE 0x40008000\000"
 12807      55534152 
 12807      545F4241 
 12807      53452030 
 12807      78343030 
 12808              	.LASF1117:
 12809 6a73 4932435F 		.ascii	"I2C_STATUS_NAK\000"
 12809      53544154 
 12809      55535F4E 
 12809      414B00
 12810              	.LASF302:
 12811 6a82 5F5F5554 		.ascii	"__UTA_IBIT__ 64\000"
 12811      415F4942 
 12811      49545F5F 
 12811      20363400 
 12812              	.LASF263:
 12813 6a92 5F5F554C 		.ascii	"__ULLACCUM_IBIT__ 32\000"
 12813      4C414343 
 12813      554D5F49 
 12813      4249545F 
 12813      5F203332 
 12814              	.LASF477:
 12815 6aa7 5F5F4650 		.ascii	"__FPU_USED 0\000"
 12815      555F5553 
 12815      45442030 
 12815      00
 12816              	.LASF456:
 12817 6ab4 4E454C45 		.ascii	"NELEMENTS(array) (sizeof(array) / sizeof(array[0]))"
 12817      4D454E54 
 12817      53286172 
 12817      72617929 
 12817      20287369 
 12818 6ae7 00       		.ascii	"\000"
 12819              	.LASF226:
 12820 6ae8 5F5F554C 		.ascii	"__ULLFRACT_EPSILON__ 0x1P-64ULLR\000"
 12820      4C465241 
 12820      43545F45 
 12820      5053494C 
 12820      4F4E5F5F 
 12821              	.LASF1046:
 12822 6b09 57445443 		.ascii	"WDTCLKDIV\000"
 12822      4C4B4449 
 12822      5600
 12823              	.LASF471:
 12824 6b13 5F5F434D 		.ascii	"__CM0_CMSIS_VERSION_SUB (0x01)\000"
 12824      305F434D 
 12824      5349535F 
 12824      56455253 
 12824      494F4E5F 
 12825              	.LASF321:
ARM GAS  /tmp/ccXTVNcx.s 			page 313


 12826 6b32 5F5F5349 		.ascii	"__SIZEOF_WINT_T__ 4\000"
 12826      5A454F46 
 12826      5F57494E 
 12826      545F545F 
 12826      5F203400 
 12827              	.LASF607:
 12828 6b46 504D555F 		.ascii	"PMU_PCON_DPDFLAG (1 << 11)\000"
 12828      50434F4E 
 12828      5F445044 
 12828      464C4147 
 12828      20283120 
 12829              	.LASF535:
 12830 6b61 53797354 		.ascii	"SysTick_CTRL_COUNTFLAG_Msk (1UL << SysTick_CTRL_COU"
 12830      69636B5F 
 12830      4354524C 
 12830      5F434F55 
 12830      4E54464C 
 12831 6b94 4E54464C 		.ascii	"NTFLAG_Pos)\000"
 12831      41475F50 
 12831      6F732900 
 12832              	.LASF219:
 12833 6ba0 5F5F4C4C 		.ascii	"__LLFRACT_MIN__ (-0.5LLR-0.5LLR)\000"
 12833      46524143 
 12833      545F4D49 
 12833      4E5F5F20 
 12833      282D302E 
 12834              	.LASF1016:
 12835 6bc1 55534250 		.ascii	"USBPLLCTRL\000"
 12835      4C4C4354 
 12835      524C00
 12836              	.LASF1065:
 12837 6bcc 53544152 		.ascii	"STARTRSRP0CLR\000"
 12837      54525352 
 12837      5030434C 
 12837      5200
 12838              	.LASF1015:
 12839 6bda 53595350 		.ascii	"SYSPLLSTAT\000"
 12839      4C4C5354 
 12839      415400
 12840              	.LASF249:
 12841 6be5 5F5F4C41 		.ascii	"__LACCUM_MIN__ (-0X1P31LK-0X1P31LK)\000"
 12841      4343554D 
 12841      5F4D494E 
 12841      5F5F2028 
 12841      2D305831 
 12842              	.LASF584:
 12843 6c09 4941505F 		.ascii	"IAP_ENTRY_LOCATION 0X1FFF1FF1\000"
 12843      454E5452 
 12843      595F4C4F 
 12843      43415449 
 12843      4F4E2030 
 12844              	.LASF340:
 12845 6c27 5F5F4152 		.ascii	"__ARM_EABI__ 1\000"
 12845      4D5F4541 
 12845      42495F5F 
 12845      203100
 12846              	.LASF671:
ARM GAS  /tmp/ccXTVNcx.s 			page 314


 12847 6c36 4D445F4F 		.ascii	"MD_OPENDRAIN (0x1 << 10)\000"
 12847      50454E44 
 12847      5241494E 
 12847      20283078 
 12847      31203C3C 
 12848              	.LASF148:
 12849 6c4f 5F5F4442 		.ascii	"__DBL_DENORM_MIN__ ((double)4.9406564584124654e-324"
 12849      4C5F4445 
 12849      4E4F524D 
 12849      5F4D494E 
 12849      5F5F2028 
 12850 6c82 4C2900   		.ascii	"L)\000"
 12851              	.LASF1036:
 12852 6c85 53535030 		.ascii	"SSP0CLKDIV\000"
 12852      434C4B44 
 12852      495600
 12853              	.LASF570:
 12854 6c90 4C50435F 		.ascii	"LPC_DAC_BASE 0x40024000\000"
 12854      4441435F 
 12854      42415345 
 12854      20307834 
 12854      30303234 
 12855              	.LASF839:
 12856 6ca8 5353505F 		.ascii	"SSP_CPHA_FIRST SSP_CR0_CPHA_FIRST\000"
 12856      43504841 
 12856      5F464952 
 12856      53542053 
 12856      53505F43 
 12857              	.LASF454:
 12858 6cca 5F424954 		.ascii	"_BITMASK(field_width) ( _BIT(field_width) - 1)\000"
 12858      4D41534B 
 12858      28666965 
 12858      6C645F77 
 12858      69647468 
 12859              	.LASF613:
 12860 6cf9 53595343 		.ascii	"SYSCTL_RST_BOD (1 << 3)\000"
 12860      544C5F52 
 12860      53545F42 
 12860      4F442028 
 12860      31203C3C 
 12861              	.LASF609:
 12862 6d11 5F5F5359 		.ascii	"__SYSCTL_11XX_H_ \000"
 12862      5343544C 
 12862      5F313158 
 12862      585F485F 
 12862      2000
 12863              	.LASF45:
 12864 6d23 5F5F5549 		.ascii	"__UINT32_TYPE__ long unsigned int\000"
 12864      4E543332 
 12864      5F545950 
 12864      455F5F20 
 12864      6C6F6E67 
 12865              	.LASF381:
 12866 6d45 494E5450 		.ascii	"INTPTR_MAX __INTPTR_MAX__\000"
 12866      54525F4D 
 12866      4158205F 
 12866      5F494E54 
ARM GAS  /tmp/ccXTVNcx.s 			page 315


 12866      5054525F 
 12867              	.LASF344:
 12868 6d5f 434F5245 		.ascii	"CORE_M0 1\000"
 12868      5F4D3020 
 12868      3100
 12869              	.LASF826:
 12870 6d69 5353505F 		.ascii	"SSP_CR0_CPHA_SECOND ((uint32_t) (1 << 7))\000"
 12870      4352305F 
 12870      43504841 
 12870      5F534543 
 12870      4F4E4420 
 12871              	.LASF680:
 12872 6d93 5F5F5449 		.ascii	"__TIMER_11XX_H_ \000"
 12872      4D45525F 
 12872      31315858 
 12872      5F485F20 
 12872      00
 12873              	.LASF569:
 12874 6da4 4C50435F 		.ascii	"LPC_ADC_BASE 0x4001C000\000"
 12874      4144435F 
 12874      42415345 
 12874      20307834 
 12874      30303143 
 12875              	.LASF626:
 12876 6dbc 53595343 		.ascii	"SYSCTL_POWERDOWN_IRCOUT_PD (1 << 0)\000"
 12876      544C5F50 
 12876      4F574552 
 12876      444F574E 
 12876      5F495243 
 12877              	.LASF672:
 12878 6de0 46554E43 		.ascii	"FUNC0 0x0\000"
 12878      30203078 
 12878      3000
 12879              	.LASF965:
 12880 6dea 53444F5F 		.ascii	"SDO_ABORT_SDOTIMEOUT 0x05040000UL\000"
 12880      41424F52 
 12880      545F5344 
 12880      4F54494D 
 12880      454F5554 
 12881              	.LASF767:
 12882 6e0c 55415254 		.ascii	"UART_MSR_DELTA_DSR (1 << 1)\000"
 12882      5F4D5352 
 12882      5F44454C 
 12882      54415F44 
 12882      53522028 
 12883              	.LASF224:
 12884 6e28 5F5F554C 		.ascii	"__ULLFRACT_MIN__ 0.0ULLR\000"
 12884      4C465241 
 12884      43545F4D 
 12884      494E5F5F 
 12884      20302E30 
 12885              	.LASF442:
 12886 6e41 5F535444 		.ascii	"_STDBOOL_H \000"
 12886      424F4F4C 
 12886      5F482000 
 12887              	.LASF618:
 12888 6e4d 53595343 		.ascii	"SYSCTL_SLPWAKE_IRCOUT_PD (1 << 0)\000"
ARM GAS  /tmp/ccXTVNcx.s 			page 316


 12888      544C5F53 
 12888      4C505741 
 12888      4B455F49 
 12888      52434F55 
 12889              	.LASF479:
 12890 6e6f 5F5F434F 		.ascii	"__CORE_CMFUNC_H \000"
 12890      52455F43 
 12890      4D46554E 
 12890      435F4820 
 12890      00
 12891              	.LASF284:
 12892 6e80 5F5F5544 		.ascii	"__UDQ_IBIT__ 0\000"
 12892      515F4942 
 12892      49545F5F 
 12892      203000
 12893              	.LASF14:
 12894 6e8f 5F5F5349 		.ascii	"__SIZEOF_INT__ 4\000"
 12894      5A454F46 
 12894      5F494E54 
 12894      5F5F2034 
 12894      00
 12895              	.LASF218:
 12896 6ea0 5F5F4C4C 		.ascii	"__LLFRACT_IBIT__ 0\000"
 12896      46524143 
 12896      545F4942 
 12896      49545F5F 
 12896      203000
 12897              	.LASF434:
 12898 6eb3 55494E54 		.ascii	"UINT16_C(x) __UINT16_C(x)\000"
 12898      31365F43 
 12898      28782920 
 12898      5F5F5549 
 12898      4E543136 
 12899              	.LASF921:
 12900 6ecd 4932435F 		.ascii	"I2C_I2STAT_S_TX_LAST_DAT_ACK ((0xC8))\000"
 12900      49325354 
 12900      41545F53 
 12900      5F54585F 
 12900      4C415354 
 12901              	.LASF1083:
 12902 6ef3 53595343 		.ascii	"SYSCTL_CLOCK_CT16B0\000"
 12902      544C5F43 
 12902      4C4F434B 
 12902      5F435431 
 12902      36423000 
 12903              	.LASF1008:
 12904 6f07 75696E74 		.ascii	"uint32_t\000"
 12904      33325F74 
 12904      00
 12905              	.LASF849:
 12906 6f10 4144435F 		.ascii	"ADC_MAX_SAMPLE_RATE 400000\000"
 12906      4D41585F 
 12906      53414D50 
 12906      4C455F52 
 12906      41544520 
 12907              	.LASF795:
 12908 6f2b 55415254 		.ascii	"UART_SCICTRL_NACKDIS (1 << 1)\000"
ARM GAS  /tmp/ccXTVNcx.s 			page 317


 12908      5F534349 
 12908      4354524C 
 12908      5F4E4143 
 12908      4B444953 
 12909              	.LASF364:
 12910 6f49 5F535953 		.ascii	"_SYS__INTSUP_H \000"
 12910      5F5F494E 
 12910      54535550 
 12910      5F482000 
 12911              	.LASF1066:
 12912 6f59 53544152 		.ascii	"STARTSRP0\000"
 12912      54535250 
 12912      3000
 12913              	.LASF231:
 12914 6f63 5F5F5341 		.ascii	"__SACCUM_EPSILON__ 0x1P-7HK\000"
 12914      4343554D 
 12914      5F455053 
 12914      494C4F4E 
 12914      5F5F2030 
 12915              	.LASF606:
 12916 6f7f 504D555F 		.ascii	"PMU_PCON_SLEEPFLAG (1 << 8)\000"
 12916      50434F4E 
 12916      5F534C45 
 12916      4550464C 
 12916      41472028 
 12917              	.LASF1182:
 12918 6f9b 53434C56 		.ascii	"SCLValue\000"
 12918      616C7565 
 12918      00
 12919              	.LASF600:
 12920 6fa4 4C50435F 		.ascii	"LPC_USB ((LPC_USB_T *) LPC_USB0_BASE)\000"
 12920      55534220 
 12920      28284C50 
 12920      435F5553 
 12920      425F5420 
 12921              	.LASF1101:
 12922 6fca 434F4E43 		.ascii	"CONCLR\000"
 12922      4C5200
 12923              	.LASF698:
 12924 6fd1 55415254 		.ascii	"UART_DLL_MASKBIT (0xFF)\000"
 12924      5F444C4C 
 12924      5F4D4153 
 12924      4B424954 
 12924      20283078 
 12925              	.LASF1106:
 12926 6fe9 44415441 		.ascii	"DATA_BUFFER\000"
 12926      5F425546 
 12926      46455200 
 12927              	.LASF467:
 12928 6ff5 5F5F4E56 		.ascii	"__NVIC_PRIO_BITS 2\000"
 12928      49435F50 
 12928      52494F5F 
 12928      42495453 
 12928      203200
 12929              	.LASF850:
 12930 7008 4144435F 		.ascii	"ADC_DR_RESULT(n) ((((n) >> 6) & 0x3FF))\000"
 12930      44525F52 
ARM GAS  /tmp/ccXTVNcx.s 			page 318


 12930      4553554C 
 12930      54286E29 
 12930      20282828 
 12931              	.LASF60:
 12932 7030 5F5F5549 		.ascii	"__UINT_FAST16_TYPE__ unsigned int\000"
 12932      4E545F46 
 12932      41535431 
 12932      365F5459 
 12932      50455F5F 
 12933              	.LASF549:
 12934 7052 53797354 		.ascii	"SysTick_CALIB_SKEW_Msk (1UL << SysTick_CALIB_SKEW_P"
 12934      69636B5F 
 12934      43414C49 
 12934      425F534B 
 12934      45575F4D 
 12935 7085 6F732900 		.ascii	"os)\000"
 12936              	.LASF296:
 12937 7089 5F5F5548 		.ascii	"__UHA_IBIT__ 8\000"
 12937      415F4942 
 12937      49545F5F 
 12937      203800
 12938              	.LASF933:
 12939 7098 4932435F 		.ascii	"I2C_I2SCLH_BITMASK ((0xFFFF))\000"
 12939      49325343 
 12939      4C485F42 
 12939      49544D41 
 12939      534B2028 
 12940              	.LASF241:
 12941 70b6 5F5F4143 		.ascii	"__ACCUM_EPSILON__ 0x1P-15K\000"
 12941      43554D5F 
 12941      45505349 
 12941      4C4F4E5F 
 12941      5F203078 
 12942              	.LASF256:
 12943 70d1 5F5F554C 		.ascii	"__ULACCUM_EPSILON__ 0x1P-32ULK\000"
 12943      41434355 
 12943      4D5F4550 
 12943      53494C4F 
 12943      4E5F5F20 
 12944              	.LASF993:
 12945 70f0 4932435F 		.ascii	"I2C_CON_FLAGS (I2C_CON_AA | I2C_CON_SI | I2C_CON_ST"
 12945      434F4E5F 
 12945      464C4147 
 12945      53202849 
 12945      32435F43 
 12946 7123 4F207C20 		.ascii	"O | I2C_CON_STA)\000"
 12946      4932435F 
 12946      434F4E5F 
 12946      53544129 
 12946      00
 12947              	.LASF153:
 12948 7134 5F5F4C44 		.ascii	"__LDBL_DIG__ 15\000"
 12948      424C5F44 
 12948      49475F5F 
 12948      20313500 
 12949              	.LASF1020:
 12950 7144 5744544F 		.ascii	"WDTOSCCTRL\000"
ARM GAS  /tmp/ccXTVNcx.s 			page 319


 12950      53434354 
 12950      524C00
 12951              	.LASF756:
 12952 714f 55415254 		.ascii	"UART_LSR_OE (1 << 1)\000"
 12952      5F4C5352 
 12952      5F4F4520 
 12952      2831203C 
 12952      3C203129 
 12953              	.LASF926:
 12954 7164 4932435F 		.ascii	"I2C_I2MMCTRL_ENA_SCL ((1 << 1))\000"
 12954      49324D4D 
 12954      4354524C 
 12954      5F454E41 
 12954      5F53434C 
 12955              	.LASF369:
 12956 7184 5F5F696E 		.ascii	"__int_least8_t_defined 1\000"
 12956      745F6C65 
 12956      61737438 
 12956      5F745F64 
 12956      6566696E 
 12957              	.LASF1050:
 12958 719d 434C4B4F 		.ascii	"CLKOUTDIV\000"
 12958      55544449 
 12958      5600
 12959              	.LASF76:
 12960 71a7 5F5F5749 		.ascii	"__WINT_MIN__ 0U\000"
 12960      4E545F4D 
 12960      494E5F5F 
 12960      20305500 
 12961              	.LASF648:
 12962 71b7 494F434F 		.ascii	"IOCON_MODE_REPEATER (0x3 << 3)\000"
 12962      4E5F4D4F 
 12962      44455F52 
 12962      45504541 
 12962      54455220 
 12963              	.LASF178:
 12964 71d6 5F5F4445 		.ascii	"__DEC64_EPSILON__ 1E-15DD\000"
 12964      4336345F 
 12964      45505349 
 12964      4C4F4E5F 
 12964      5F203145 
 12965              	.LASF519:
 12966 71f0 5343425F 		.ascii	"SCB_AIRCR_SYSRESETREQ_Msk (1UL << SCB_AIRCR_SYSRESE"
 12966      41495243 
 12966      525F5359 
 12966      53524553 
 12966      45545245 
 12967 7223 54524551 		.ascii	"TREQ_Pos)\000"
 12967      5F506F73 
 12967      2900
 12968              	.LASF958:
 12969 722d 43414E5F 		.ascii	"CAN_ERROR_BIT0 0x00000080UL\000"
 12969      4552524F 
 12969      525F4249 
 12969      54302030 
 12969      78303030 
 12970              	.LASF1149:
ARM GAS  /tmp/ccXTVNcx.s 			page 320


 12971 7249 78666572 		.ascii	"xfer\000"
 12971      00
 12972              	.LASF1176:
 12973 724e 68616E64 		.ascii	"handleSlaveXferState\000"
 12973      6C65536C 
 12973      61766558 
 12973      66657253 
 12973      74617465 
 12974              	.LASF48:
 12975 7263 5F5F494E 		.ascii	"__INT_LEAST16_TYPE__ short int\000"
 12975      545F4C45 
 12975      41535431 
 12975      365F5459 
 12975      50455F5F 
 12976              	.LASF1038:
 12977 7282 53535031 		.ascii	"SSP1CLKDIV\000"
 12977      434C4B44 
 12977      495600
 12978              	.LASF266:
 12979 728d 5F5F554C 		.ascii	"__ULLACCUM_EPSILON__ 0x1P-32ULLK\000"
 12979      4C414343 
 12979      554D5F45 
 12979      5053494C 
 12979      4F4E5F5F 
 12980              	.LASF619:
 12981 72ae 53595343 		.ascii	"SYSCTL_SLPWAKE_IRC_PD (1 << 1)\000"
 12981      544C5F53 
 12981      4C505741 
 12981      4B455F49 
 12981      52435F50 
 12982              	.LASF145:
 12983 72cd 5F5F4442 		.ascii	"__DBL_MAX__ ((double)1.7976931348623157e+308L)\000"
 12983      4C5F4D41 
 12983      585F5F20 
 12983      2828646F 
 12983      75626C65 
 12984              	.LASF999:
 12985 72fc 73686F72 		.ascii	"short unsigned int\000"
 12985      7420756E 
 12985      7369676E 
 12985      65642069 
 12985      6E7400
 12986              	.LASF217:
 12987 730f 5F5F4C4C 		.ascii	"__LLFRACT_FBIT__ 63\000"
 12987      46524143 
 12987      545F4642 
 12987      49545F5F 
 12987      20363300 
 12988              	.LASF485:
 12989 7323 5343425F 		.ascii	"SCB_CPUID_IMPLEMENTER_Msk (0xFFUL << SCB_CPUID_IMPL"
 12989      43505549 
 12989      445F494D 
 12989      504C454D 
 12989      454E5445 
 12990 7356 454D454E 		.ascii	"EMENTER_Pos)\000"
 12990      5445525F 
 12990      506F7329 
ARM GAS  /tmp/ccXTVNcx.s 			page 321


 12990      00
 12991              	.LASF329:
 12992 7363 5F5F7468 		.ascii	"__thumb__ 1\000"
 12992      756D625F 
 12992      5F203100 
 12993              	.LASF857:
 12994 736f 4144435F 		.ascii	"ADC_CR_PDN ((1UL << 21))\000"
 12994      43525F50 
 12994      444E2028 
 12994      2831554C 
 12994      203C3C20 
 12995              	.LASF1184:
 12996 7388 43686970 		.ascii	"Chip_I2C_SetMasterEventHandler\000"
 12996      5F493243 
 12996      5F536574 
 12996      4D617374 
 12996      65724576 
 12997              	.LASF1126:
 12998 73a7 7278537A 		.ascii	"rxSz\000"
 12998      00
 12999              	.LASF114:
 13000 73ac 5F5F5549 		.ascii	"__UINT_FAST16_MAX__ 4294967295U\000"
 13000      4E545F46 
 13000      41535431 
 13000      365F4D41 
 13000      585F5F20 
 13001              	.LASF1170:
 13002 73cc 67657453 		.ascii	"getSlaveIndex\000"
 13002      6C617665 
 13002      496E6465 
 13002      7800
 13003              	.LASF269:
 13004 73da 5F5F4851 		.ascii	"__HQ_FBIT__ 15\000"
 13004      5F464249 
 13004      545F5F20 
 13004      313500
 13005              	.LASF446:
 13006 73e9 5F5F626F 		.ascii	"__bool_true_false_are_defined 1\000"
 13006      6F6C5F74 
 13006      7275655F 
 13006      66616C73 
 13006      655F6172 
 13007              	.LASF909:
 13008 7409 4932435F 		.ascii	"I2C_I2STAT_S_RX_ARB_LOST_M_SLA ((0x68))\000"
 13008      49325354 
 13008      41545F53 
 13008      5F52585F 
 13008      4152425F 
 13009              	.LASF520:
 13010 7431 5343425F 		.ascii	"SCB_AIRCR_VECTCLRACTIVE_Pos 1\000"
 13010      41495243 
 13010      525F5645 
 13010      4354434C 
 13010      52414354 
 13011              	.LASF929:
 13012 744f 49324441 		.ascii	"I2DATA_BUFFER_BITMASK ((0xFF))\000"
 13012      54415F42 
ARM GAS  /tmp/ccXTVNcx.s 			page 322


 13012      55464645 
 13012      525F4249 
 13012      544D4153 
 13013              	.LASF465:
 13014 746e 5F5F434D 		.ascii	"__CMSIS_11CXX_H_ \000"
 13014      5349535F 
 13014      31314358 
 13014      585F485F 
 13014      2000
 13015              	.LASF970:
 13016 7480 53444F5F 		.ascii	"SDO_ABORT_NOT_EXISTS 0x06020000UL\000"
 13016      41424F52 
 13016      545F4E4F 
 13016      545F4558 
 13016      49535453 
 13017              	.LASF1124:
 13018 74a2 7478537A 		.ascii	"txSz\000"
 13018      00
 13019              	.LASF562:
 13020 74a7 4C50435F 		.ascii	"LPC_I2C_BASE 0x40000000\000"
 13020      4932435F 
 13020      42415345 
 13020      20307834 
 13020      30303030 
 13021              	.LASF790:
 13022 74bf 55415254 		.ascii	"UART_ICR_FIXPULSE_EN (1 << 2)\000"
 13022      5F494352 
 13022      5F464958 
 13022      50554C53 
 13022      455F454E 
 13023              	.LASF188:
 13024 74dd 5F5F5346 		.ascii	"__SFRACT_IBIT__ 0\000"
 13024      52414354 
 13024      5F494249 
 13024      545F5F20 
 13024      3000
 13025              	.LASF150:
 13026 74ef 5F5F4442 		.ascii	"__DBL_HAS_INFINITY__ 1\000"
 13026      4C5F4841 
 13026      535F494E 
 13026      46494E49 
 13026      54595F5F 
 13027              	.LASF480:
 13028 7506 5F5F434F 		.ascii	"__CORE_CM0_H_DEPENDANT \000"
 13028      52455F43 
 13028      4D305F48 
 13028      5F444550 
 13028      454E4441 
 13029              	.LASF1153:
 13030 751e 70493243 		.ascii	"pI2C\000"
 13030      00
 13031              	.LASF816:
 13032 7523 57574454 		.ascii	"WWDT_WDMOD_WDINT ((uint32_t) (1 << 3))\000"
 13032      5F57444D 
 13032      4F445F57 
 13032      44494E54 
 13032      20282875 
ARM GAS  /tmp/ccXTVNcx.s 			page 323


 13033              	.LASF880:
 13034 754a 4932435F 		.ascii	"I2C_I2CONCLR_AAC ((1 << 2))\000"
 13034      4932434F 
 13034      4E434C52 
 13034      5F414143 
 13034      20282831 
 13035              	.LASF1174:
 13036 7566 6C6F6F6B 		.ascii	"lookupSlaveIndex\000"
 13036      7570536C 
 13036      61766549 
 13036      6E646578 
 13036      00
 13037              	.LASF530:
 13038 7577 5343425F 		.ascii	"SCB_CCR_UNALIGN_TRP_Pos 3\000"
 13038      4343525F 
 13038      554E414C 
 13038      49474E5F 
 13038      5452505F 
 13039              	.LASF577:
 13040 7591 4C50435F 		.ascii	"LPC_USB0_BASE 0x40080000\000"
 13040      55534230 
 13040      5F424153 
 13040      45203078 
 13040      34303038 
 13041              	.LASF1055:
 13042 75aa 53595354 		.ascii	"SYSTCKCAL\000"
 13042      434B4341 
 13042      4C00
 13043              	.LASF835:
 13044 75b4 5353505F 		.ascii	"SSP_CPSR_BITMASK ((uint32_t) (0xFF))\000"
 13044      43505352 
 13044      5F424954 
 13044      4D41534B 
 13044      20282875 
 13045              	.LASF30:
 13046 75d9 5F5F5349 		.ascii	"__SIZE_TYPE__ unsigned int\000"
 13046      5A455F54 
 13046      5950455F 
 13046      5F20756E 
 13046      7369676E 
 13047              	.LASF809:
 13048 75f4 55415254 		.ascii	"UART_SYNCCTRL_STARTSTOPDISABLE (1 << 5)\000"
 13048      5F53594E 
 13048      43435452 
 13048      4C5F5354 
 13048      41525453 
 13049              	.LASF1040:
 13050 761c 55534243 		.ascii	"USBCLKSEL\000"
 13050      4C4B5345 
 13050      4C00
 13051              	.LASF976:
 13052 7626 53444F5F 		.ascii	"SDO_ABORT_TRANSFER 0x08000020UL\000"
 13052      41424F52 
 13052      545F5452 
 13052      414E5346 
 13052      45522030 
 13053              	.LASF856:
ARM GAS  /tmp/ccXTVNcx.s 			page 324


 13054 7646 4144435F 		.ascii	"ADC_CR_BURST ((1UL << 16))\000"
 13054      43525F42 
 13054      55525354 
 13054      20282831 
 13054      554C203C 
 13055              	.LASF190:
 13056 7661 5F5F5346 		.ascii	"__SFRACT_MAX__ 0X7FP-7HR\000"
 13056      52414354 
 13056      5F4D4158 
 13056      5F5F2030 
 13056      58374650 
 13057              	.LASF691:
 13058 767a 54494D45 		.ascii	"TIMER_INT_ON_CAP(n) (_BIT((((n) * 3) + 2)))\000"
 13058      525F494E 
 13058      545F4F4E 
 13058      5F434150 
 13058      286E2920 
 13059              	.LASF953:
 13060 76a6 43414E5F 		.ascii	"CAN_ERROR_BOFF 0x00000004UL\000"
 13060      4552524F 
 13060      525F424F 
 13060      46462030 
 13060      78303030 
 13061              	.LASF834:
 13062 76c2 5353505F 		.ascii	"SSP_CR1_BITMASK ((uint32_t) (0x0F))\000"
 13062      4352315F 
 13062      4249544D 
 13062      41534B20 
 13062      28287569 
 13063              	.LASF96:
 13064 76e6 5F5F494E 		.ascii	"__INT16_C(c) c\000"
 13064      5431365F 
 13064      43286329 
 13064      206300
 13065              	.LASF588:
 13066 76f5 4C50435F 		.ascii	"LPC_USART ((LPC_USART_T *) LPC_USART_BASE)\000"
 13066      55534152 
 13066      54202828 
 13066      4C50435F 
 13066      55534152 
 13067              	.LASF292:
 13068 7720 5F5F4441 		.ascii	"__DA_IBIT__ 32\000"
 13068      5F494249 
 13068      545F5F20 
 13068      333200
 13069              	.LASF956:
 13070 772f 43414E5F 		.ascii	"CAN_ERROR_ACK 0x00000020UL\000"
 13070      4552524F 
 13070      525F4143 
 13070      4B203078 
 13070      30303030 
 13071              	.LASF661:
 13072 774a 4D445F42 		.ascii	"MD_BUK (0x3 << 3)\000"
 13072      554B2028 
 13072      30783320 
 13072      3C3C2033 
 13072      2900
ARM GAS  /tmp/ccXTVNcx.s 			page 325


 13073              	.LASF963:
 13074 775c 43414E5F 		.ascii	"CAN_MSGOBJ_RTR 0x40000000UL\000"
 13074      4D53474F 
 13074      424A5F52 
 13074      54522030 
 13074      78343030 
 13075              	.LASF523:
 13076 7778 5343425F 		.ascii	"SCB_SCR_SEVONPEND_Msk (1UL << SCB_SCR_SEVONPEND_Pos"
 13076      5343525F 
 13076      5345564F 
 13076      4E50454E 
 13076      445F4D73 
 13077 77ab 2900     		.ascii	")\000"
 13078              	.LASF1156:
 13079 77ad 61646472 		.ascii	"addr1\000"
 13079      3100
 13080              	.LASF1157:
 13081 77b3 61646472 		.ascii	"addr2\000"
 13081      3200
 13082              	.LASF10:
 13083 77b9 5F5F4154 		.ascii	"__ATOMIC_ACQ_REL 4\000"
 13083      4F4D4943 
 13083      5F414351 
 13083      5F52454C 
 13083      203400
 13084              	.LASF5:
 13085 77cc 5F5F5645 		.ascii	"__VERSION__ \"4.9.3 20150303 (release) [ARM/embedde"
 13085      5253494F 
 13085      4E5F5F20 
 13085      22342E39 
 13085      2E332032 
 13086 77fe 642D345F 		.ascii	"d-4_9-branch revision 221220]\"\000"
 13086      392D6272 
 13086      616E6368 
 13086      20726576 
 13086      6973696F 
 13087              	.LASF41:
 13088 781d 5F5F494E 		.ascii	"__INT32_TYPE__ long int\000"
 13088      5433325F 
 13088      54595045 
 13088      5F5F206C 
 13088      6F6E6720 
 13089              	.LASF345:
 13090 7835 5F5F4348 		.ascii	"__CHIP_H_ \000"
 13090      49505F48 
 13090      5F2000
 13091              	.LASF141:
 13092 7840 5F5F4442 		.ascii	"__DBL_MIN_10_EXP__ (-307)\000"
 13092      4C5F4D49 
 13092      4E5F3130 
 13092      5F455850 
 13092      5F5F2028 
 13093              	.LASF843:
 13094 785a 5353505F 		.ascii	"SSP_SLAVE_MODE SSP_CR1_SLAVE_EN\000"
 13094      534C4156 
 13094      455F4D4F 
 13094      44452053 
ARM GAS  /tmp/ccXTVNcx.s 			page 326


 13094      53505F43 
 13095              	.LASF515:
 13096 787a 5343425F 		.ascii	"SCB_AIRCR_VECTKEYSTAT_Msk (0xFFFFUL << SCB_AIRCR_VE"
 13096      41495243 
 13096      525F5645 
 13096      43544B45 
 13096      59535441 
 13097 78ad 43544B45 		.ascii	"CTKEYSTAT_Pos)\000"
 13097      59535441 
 13097      545F506F 
 13097      732900
 13098              	.LASF1166:
 13099 78bc 73657453 		.ascii	"setSlaveAddr\000"
 13099      6C617665 
 13099      41646472 
 13099      00
 13100              	.LASF679:
 13101 78c9 46554E43 		.ascii	"FUNC7 0x7\000"
 13101      37203078 
 13101      3700
 13102              	.LASF594:
 13103 78d3 4C50435F 		.ascii	"LPC_PMU ((LPC_PMU_T *) LPC_PMU_BASE)\000"
 13103      504D5520 
 13103      28284C50 
 13103      435F504D 
 13103      555F5420 
 13104              	.LASF475:
 13105 78f8 5F5F494E 		.ascii	"__INLINE inline\000"
 13105      4C494E45 
 13105      20696E6C 
 13105      696E6500 
 13106              	.LASF89:
 13107 7908 5F5F5549 		.ascii	"__UINT8_MAX__ 255\000"
 13107      4E54385F 
 13107      4D41585F 
 13107      5F203235 
 13107      3500
 13108              	.LASF773:
 13109 791a 55415254 		.ascii	"UART_MSR_DCD (1 << 7)\000"
 13109      5F4D5352 
 13109      5F444344 
 13109      20283120 
 13109      3C3C2037 
 13110              	.LASF443:
 13111 7930 626F6F6C 		.ascii	"bool _Bool\000"
 13111      205F426F 
 13111      6F6C00
 13112              	.LASF115:
 13113 793b 5F5F5549 		.ascii	"__UINT_FAST32_MAX__ 4294967295U\000"
 13113      4E545F46 
 13113      41535433 
 13113      325F4D41 
 13113      585F5F20 
 13114              	.LASF101:
 13115 795b 5F5F5549 		.ascii	"__UINT_LEAST8_MAX__ 255\000"
 13115      4E545F4C 
 13115      45415354 
ARM GAS  /tmp/ccXTVNcx.s 			page 327


 13115      385F4D41 
 13115      585F5F20 
 13116              	.LASF1093:
 13117 7973 53595343 		.ascii	"SYSCTL_CLOCK_CAN\000"
 13117      544C5F43 
 13117      4C4F434B 
 13117      5F43414E 
 13117      00
 13118              	.LASF213:
 13119 7984 5F5F554C 		.ascii	"__ULFRACT_IBIT__ 0\000"
 13119      46524143 
 13119      545F4942 
 13119      49545F5F 
 13119      203000
 13120              	.LASF1198:
 13121 7997 43686970 		.ascii	"Chip_I2C_Disable\000"
 13121      5F493243 
 13121      5F446973 
 13121      61626C65 
 13121      00
 13122              	.LASF738:
 13123 79a8 55415254 		.ascii	"UART_LCR_SBS_1BIT (0 << 2)\000"
 13123      5F4C4352 
 13123      5F534253 
 13123      5F314249 
 13123      54202830 
 13124              	.LASF204:
 13125 79c3 5F5F5546 		.ascii	"__UFRACT_MIN__ 0.0UR\000"
 13125      52414354 
 13125      5F4D494E 
 13125      5F5F2030 
 13125      2E305552 
 13126              	.LASF50:
 13127 79d8 5F5F494E 		.ascii	"__INT_LEAST64_TYPE__ long long int\000"
 13127      545F4C45 
 13127      41535436 
 13127      345F5459 
 13127      50455F5F 
 13128              	.LASF714:
 13129 79fb 55415254 		.ascii	"UART_IIR_ABTO_INT (1 << 9)\000"
 13129      5F494952 
 13129      5F414254 
 13129      4F5F494E 
 13129      54202831 
 13130              	.LASF855:
 13131 7a16 4144435F 		.ascii	"ADC_CR_CLKDIV(n) ((((n) & 0xFF) << 8))\000"
 13131      43525F43 
 13131      4C4B4449 
 13131      56286E29 
 13131      20282828 
 13132              	.LASF890:
 13133 7a3d 4932435F 		.ascii	"I2C_STAT_CODE_BITMASK ((0xF8))\000"
 13133      53544154 
 13133      5F434F44 
 13133      455F4249 
 13133      544D4153 
 13134              	.LASF227:
ARM GAS  /tmp/ccXTVNcx.s 			page 328


 13135 7a5c 5F5F5341 		.ascii	"__SACCUM_FBIT__ 7\000"
 13135      4343554D 
 13135      5F464249 
 13135      545F5F20 
 13135      3700
 13136              	.LASF264:
 13137 7a6e 5F5F554C 		.ascii	"__ULLACCUM_MIN__ 0.0ULLK\000"
 13137      4C414343 
 13137      554D5F4D 
 13137      494E5F5F 
 13137      20302E30 
 13138              	.LASF770:
 13139 7a87 55415254 		.ascii	"UART_MSR_CTS (1 << 4)\000"
 13139      5F4D5352 
 13139      5F435453 
 13139      20283120 
 13139      3C3C2034 
 13140              	.LASF936:
 13141 7a9d 4932435F 		.ascii	"I2C_SETUP_STATUS_NOACKF (1 << 9)\000"
 13141      53455455 
 13141      505F5354 
 13141      41545553 
 13141      5F4E4F41 
 13142              		.ident	"GCC: (GNU Tools for ARM Embedded Processors) 4.9.3 20150303 (release) [ARM/embedded-4_9-br
ARM GAS  /tmp/ccXTVNcx.s 			page 329


DEFINED SYMBOLS
                            *ABS*:0000000000000000 i2c_11xx.c
     /tmp/ccXTVNcx.s:68     .text.Chip_I2C_EventHandler:0000000000000000 $t
     /tmp/ccXTVNcx.s:73     .text.Chip_I2C_EventHandler:0000000000000000 Chip_I2C_EventHandler
     /tmp/ccXTVNcx.s:107    .text.Chip_I2C_EventHandler:000000000000001c $d
     /tmp/ccXTVNcx.s:112    .text.handleMasterXferState:0000000000000000 $t
     /tmp/ccXTVNcx.s:117    .text.handleMasterXferState:0000000000000000 handleMasterXferState
     /tmp/ccXTVNcx.s:157    .rodata.handleMasterXferState:0000000000000000 $d
     /tmp/ccXTVNcx.s:440    .text.handleMasterXferState:00000000000000f8 $d
     /tmp/ccXTVNcx.s:445    .text.getSlaveIndex:0000000000000000 $t
     /tmp/ccXTVNcx.s:450    .text.getSlaveIndex:0000000000000000 getSlaveIndex
     /tmp/ccXTVNcx.s:624    .text.handleSlaveXferState:0000000000000000 $t
     /tmp/ccXTVNcx.s:629    .text.handleSlaveXferState:0000000000000000 handleSlaveXferState
     /tmp/ccXTVNcx.s:659    .rodata.handleSlaveXferState:0000000000000000 $d
     /tmp/ccXTVNcx.s:899    .text.handleSlaveXferState:00000000000000a8 $d
     /tmp/ccXTVNcx.s:904    .text.Chip_I2C_Init:0000000000000000 $t
     /tmp/ccXTVNcx.s:909    .text.Chip_I2C_Init:0000000000000000 Chip_I2C_Init
     /tmp/ccXTVNcx.s:975    .text.Chip_I2C_Init:0000000000000024 $d
     /tmp/ccXTVNcx.s:981    .text.Chip_I2C_DeInit:0000000000000000 $t
     /tmp/ccXTVNcx.s:986    .text.Chip_I2C_DeInit:0000000000000000 Chip_I2C_DeInit
     /tmp/ccXTVNcx.s:1051   .text.Chip_I2C_DeInit:0000000000000024 $d
     /tmp/ccXTVNcx.s:1058   .text.Chip_I2C_SetClockRate:0000000000000000 $t
     /tmp/ccXTVNcx.s:1063   .text.Chip_I2C_SetClockRate:0000000000000000 Chip_I2C_SetClockRate
     /tmp/ccXTVNcx.s:1110   .text.Chip_I2C_SetClockRate:0000000000000028 $d
     /tmp/ccXTVNcx.s:1115   .text.Chip_I2C_GetClockRate:0000000000000000 $t
     /tmp/ccXTVNcx.s:1120   .text.Chip_I2C_GetClockRate:0000000000000000 Chip_I2C_GetClockRate
     /tmp/ccXTVNcx.s:1157   .text.Chip_I2C_GetClockRate:0000000000000020 $d
     /tmp/ccXTVNcx.s:1162   .text.Chip_I2C_SetMasterEventHandler:0000000000000000 $t
     /tmp/ccXTVNcx.s:1167   .text.Chip_I2C_SetMasterEventHandler:0000000000000000 Chip_I2C_SetMasterEventHandler
     /tmp/ccXTVNcx.s:1201   .text.Chip_I2C_SetMasterEventHandler:0000000000000024 $d
     /tmp/ccXTVNcx.s:1206   .text.Chip_I2C_GetMasterEventHandler:0000000000000000 $t
     /tmp/ccXTVNcx.s:1211   .text.Chip_I2C_GetMasterEventHandler:0000000000000000 Chip_I2C_GetMasterEventHandler
     /tmp/ccXTVNcx.s:1230   .text.Chip_I2C_GetMasterEventHandler:0000000000000010 $d
     /tmp/ccXTVNcx.s:1235   .text.Chip_I2C_MasterTransfer:0000000000000000 $t
     /tmp/ccXTVNcx.s:1240   .text.Chip_I2C_MasterTransfer:0000000000000000 Chip_I2C_MasterTransfer
     /tmp/ccXTVNcx.s:1389   .text.Chip_I2C_MasterTransfer:0000000000000094 $d
     /tmp/ccXTVNcx.s:1396   .text.Chip_I2C_MasterSend:0000000000000000 $t
     /tmp/ccXTVNcx.s:1401   .text.Chip_I2C_MasterSend:0000000000000000 Chip_I2C_MasterSend
     /tmp/ccXTVNcx.s:1453   .text.Chip_I2C_MasterCmdRead:0000000000000000 $t
     /tmp/ccXTVNcx.s:1458   .text.Chip_I2C_MasterCmdRead:0000000000000000 Chip_I2C_MasterCmdRead
     /tmp/ccXTVNcx.s:1522   .text.Chip_I2C_MasterRead:0000000000000000 $t
     /tmp/ccXTVNcx.s:1527   .text.Chip_I2C_MasterRead:0000000000000000 Chip_I2C_MasterRead
     /tmp/ccXTVNcx.s:1580   .text.Chip_I2C_IsMasterActive:0000000000000000 $t
     /tmp/ccXTVNcx.s:1585   .text.Chip_I2C_IsMasterActive:0000000000000000 Chip_I2C_IsMasterActive
     /tmp/ccXTVNcx.s:1644   .text.Chip_I2C_IsMasterActive:000000000000001c $d
     /tmp/ccXTVNcx.s:1649   .text.Chip_I2C_MasterStateHandler:0000000000000000 $t
     /tmp/ccXTVNcx.s:1654   .text.Chip_I2C_MasterStateHandler:0000000000000000 Chip_I2C_MasterStateHandler
     /tmp/ccXTVNcx.s:1694   .text.Chip_I2C_MasterStateHandler:0000000000000024 $d
     /tmp/ccXTVNcx.s:1699   .text.Chip_I2C_EventHandlerPolling:0000000000000000 $t
     /tmp/ccXTVNcx.s:1704   .text.Chip_I2C_EventHandlerPolling:0000000000000000 Chip_I2C_EventHandlerPolling
     /tmp/ccXTVNcx.s:1771   .text.Chip_I2C_EventHandlerPolling:0000000000000038 $d
     /tmp/ccXTVNcx.s:1776   .text.Chip_I2C_SlaveSetup:0000000000000000 $t
     /tmp/ccXTVNcx.s:1781   .text.Chip_I2C_SlaveSetup:0000000000000000 Chip_I2C_SlaveSetup
     /tmp/ccXTVNcx.s:1911   .text.Chip_I2C_SlaveSetup:0000000000000078 $d
     /tmp/ccXTVNcx.s:1920   .text.Chip_I2C_SlaveStateHandler:0000000000000000 $t
     /tmp/ccXTVNcx.s:1925   .text.Chip_I2C_SlaveStateHandler:0000000000000000 Chip_I2C_SlaveStateHandler
     /tmp/ccXTVNcx.s:2059   .text.Chip_I2C_SlaveStateHandler:0000000000000090 $d
ARM GAS  /tmp/ccXTVNcx.s 			page 330


     /tmp/ccXTVNcx.s:2066   .text.Chip_I2C_Disable:0000000000000000 $t
     /tmp/ccXTVNcx.s:2071   .text.Chip_I2C_Disable:0000000000000000 Chip_I2C_Disable
     /tmp/ccXTVNcx.s:2093   .text.Chip_I2C_Disable:0000000000000010 $d
     /tmp/ccXTVNcx.s:2098   .text.Chip_I2C_IsStateChanged:0000000000000000 $t
     /tmp/ccXTVNcx.s:2103   .text.Chip_I2C_IsStateChanged:0000000000000000 Chip_I2C_IsStateChanged
     /tmp/ccXTVNcx.s:2126   .text.Chip_I2C_IsStateChanged:0000000000000014 $d
     /tmp/ccXTVNcx.s:2131   .data.i2c:0000000000000000 $d
     /tmp/ccXTVNcx.s:2135   .data.i2c:0000000000000000 i2c
     /tmp/ccXTVNcx.s:2152   .bss.i2c_slave:0000000000000000 $d
     /tmp/ccXTVNcx.s:2156   .bss.i2c_slave:0000000000000000 i2c_slave
                     .debug_frame:0000000000000010 $d
                           .group:0000000000000000 wm4.0.577787f3295b446bf0a2b287b3e6b6b4
                           .group:0000000000000000 wm4.features.h.22.2e382148a0560adabf236cddd4e880f4
                           .group:0000000000000000 wm4._default_types.h.15.933e8edd27a65e0b69af4a865eb623d2
                           .group:0000000000000000 wm4._intsup.h.10.ca9f32a61b410c270a48d1161ca2c217
                           .group:0000000000000000 wm4.stdint.h.22.f4a337c398d8b6d821a97202448bc0d0
                           .group:0000000000000000 wm4.stdbool.h.29.1c9ee6859ce8145f7838a4f2549ccec2
                           .group:0000000000000000 wm4.lpc_types.h.63.5779355f7bf16476226d33c241ffb98a
                           .group:0000000000000000 wm4.sys_config.h.31.9f234e9c90333d233c7e647ebe63e928
                           .group:0000000000000000 wm4.cmsis_11cxx.h.33.407e9bbb5d170cd1552d3f7dc3fd5c42
                           .group:0000000000000000 wm4.core_cm0.h.32.192d13cfa8b31e63c86621de62eb153f
                           .group:0000000000000000 wm4.core_cm0.h.120.f4257ea7d0bce0cbabffe223e23b2fd4
                           .group:0000000000000000 wm4.chip.h.116.cf332ff1fd7689c827f4f040aaad9bfe
                           .group:0000000000000000 wm4.pmu_11xx.h.33.1d6b708881441cb98d19b8bab3caa180
                           .group:0000000000000000 wm4.sysctl_11xx.h.33.ae61a1181e608f8409883008e291930c
                           .group:0000000000000000 wm4.clock_11xx.h.33.23290a9e2ed919e3a6958d25130bc848
                           .group:0000000000000000 wm4.iocon_11xx.h.33.25e2b3cde122df23fb07b984cb4f3a93
                           .group:0000000000000000 wm4.timer_11xx.h.33.c92f50a9325789ee6a8ffd6248980d70
                           .group:0000000000000000 wm4.ring_buffer.h.33.ffd8153954783612f9c626df1ed9e770
                           .group:0000000000000000 wm4.uart_11xx.h.98.fe68b709973730a4fba3f3ce60c5c312
                           .group:0000000000000000 wm4.wwdt_11xx.h.33.5768344983cb842df69cc91ea86cabb0
                           .group:0000000000000000 wm4.ssp_11xx.h.33.af054d3d65f4cb0c078be40bb872ec37
                           .group:0000000000000000 wm4.error.h.38.ae74fe1dd9d19c80c505f1fda144fce8
                           .group:0000000000000000 wm4.adc_11xx.h.33.6ce7433ac6b30df70a6993d01dbd513f
                           .group:0000000000000000 wm4.i2c_11xx.h.33.2b506d1350e00a8c26e8bf006a5f9390
                           .group:0000000000000000 wm4.ccand_11xx.h.33.638098819df345271d3dfae587baa456

UNDEFINED SYMBOLS
__aeabi_uidiv
Chip_Clock_GetMainClockRate
