ARM GAS  /tmp/ccSYIYb6.s 			page 1


   1              		.cpu cortex-m0
   2              		.fpu softvfp
   3              		.eabi_attribute 20, 1	@ Tag_ABI_FP_denormal
   4              		.eabi_attribute 21, 1	@ Tag_ABI_FP_exceptions
   5              		.eabi_attribute 23, 3	@ Tag_ABI_FP_number_model
   6              		.eabi_attribute 24, 1	@ Tag_ABI_align8_needed
   7              		.eabi_attribute 25, 1	@ Tag_ABI_align8_preserved
   8              		.eabi_attribute 26, 1	@ Tag_ABI_enum_size
   9              		.eabi_attribute 30, 2	@ Tag_ABI_optimization_goals
  10              		.eabi_attribute 34, 0	@ Tag_CPU_unaligned_access
  11              		.eabi_attribute 18, 4	@ Tag_ABI_PCS_wchar_t
  12              		.file	"mcp2515.c"
  13              	@ GNU C (GNU Tools for ARM Embedded Processors) version 4.9.3 20150303 (release) [ARM/embedded-4_9-
  14              	@	compiled by GNU C version 4.8.2, GMP version 5.1.3, MPFR version 3.1.2-p3, MPC version 1.0.1
  15              	@ GGC heuristics: --param ggc-min-expand=100 --param ggc-min-heapsize=131072
  16              	@ options passed:  -I . -I ../lpc11cx4-library/lpc_chip_11cxx_lib/inc
  17              	@ -I ../lpc11cx4-library/evt_lib/inc -I inc -imultilib armv6-m
  18              	@ -iprefix /usr/bin/../lib/gcc/arm-none-eabi/4.9.3/
  19              	@ -isysroot /usr/bin/../arm-none-eabi -MD bin/mcp2515.d -MF bin/mcp2515.d
  20              	@ -MP -MQ bin/mcp2515.o -D__USES_INITFINI__ -D CORE_M0
  21              	@ ../lpc11cx4-library/evt_lib/src/mcp2515.c -mcpu=cortex-m0 -mthumb
  22              	@ -auxbase-strip bin/mcp2515.o -g -ggdb3 -O2 -Wall -Wstrict-prototypes
  23              	@ -Wextra -std=gnu90 -ffunction-sections -fdata-sections -fverbose-asm
  24              	@ options enabled:  -faggressive-loop-optimizations -fauto-inc-dec
  25              	@ -fbranch-count-reg -fcaller-saves -fcombine-stack-adjustments -fcommon
  26              	@ -fcompare-elim -fcprop-registers -fcrossjumping -fcse-follow-jumps
  27              	@ -fdata-sections -fdefer-pop -fdelete-null-pointer-checks -fdevirtualize
  28              	@ -fdevirtualize-speculatively -fdwarf2-cfi-asm -fearly-inlining
  29              	@ -feliminate-unused-debug-types -fexpensive-optimizations
  30              	@ -fforward-propagate -ffunction-cse -ffunction-sections -fgcse -fgcse-lm
  31              	@ -fgnu-runtime -fgnu-unique -fguess-branch-probability
  32              	@ -fhoist-adjacent-loads -fident -fif-conversion -fif-conversion2
  33              	@ -findirect-inlining -finline -finline-atomics
  34              	@ -finline-functions-called-once -finline-small-functions -fipa-cp
  35              	@ -fipa-profile -fipa-pure-const -fipa-reference -fipa-sra
  36              	@ -fira-hoist-pressure -fira-share-save-slots -fira-share-spill-slots
  37              	@ -fisolate-erroneous-paths-dereference -fivopts -fkeep-static-consts
  38              	@ -fleading-underscore -flifetime-dse -fmath-errno -fmerge-constants
  39              	@ -fmerge-debug-strings -fmove-loop-invariants -fomit-frame-pointer
  40              	@ -foptimize-sibling-calls -foptimize-strlen -fpartial-inlining -fpeephole
  41              	@ -fpeephole2 -fprefetch-loop-arrays -freg-struct-return -freorder-blocks
  42              	@ -freorder-functions -frerun-cse-after-loop
  43              	@ -fsched-critical-path-heuristic -fsched-dep-count-heuristic
  44              	@ -fsched-group-heuristic -fsched-interblock -fsched-last-insn-heuristic
  45              	@ -fsched-pressure -fsched-rank-heuristic -fsched-spec
  46              	@ -fsched-spec-insn-heuristic -fsched-stalled-insns-dep -fschedule-insns2
  47              	@ -fsection-anchors -fshow-column -fshrink-wrap -fsigned-zeros
  48              	@ -fsplit-ivs-in-unroller -fsplit-wide-types -fstrict-aliasing
  49              	@ -fstrict-overflow -fstrict-volatile-bitfields -fsync-libcalls
  50              	@ -fthread-jumps -ftoplevel-reorder -ftrapping-math -ftree-bit-ccp
  51              	@ -ftree-builtin-call-dce -ftree-ccp -ftree-ch -ftree-coalesce-vars
  52              	@ -ftree-copy-prop -ftree-copyrename -ftree-cselim -ftree-dce
  53              	@ -ftree-dominator-opts -ftree-dse -ftree-forwprop -ftree-fre
  54              	@ -ftree-loop-if-convert -ftree-loop-im -ftree-loop-ivcanon
  55              	@ -ftree-loop-optimize -ftree-parallelize-loops= -ftree-phiprop -ftree-pre
  56              	@ -ftree-pta -ftree-reassoc -ftree-scev-cprop -ftree-sink -ftree-slsr
  57              	@ -ftree-sra -ftree-switch-conversion -ftree-tail-merge -ftree-ter
ARM GAS  /tmp/ccSYIYb6.s 			page 2


  58              	@ -ftree-vrp -funit-at-a-time -fvar-tracking -fvar-tracking-assignments
  59              	@ -fverbose-asm -fzero-initialized-in-bss -mlittle-endian -mlra
  60              	@ -mpic-data-is-text-relative -msched-prolog -mthumb
  61              	@ -mvectorize-with-neon-quad
  62              	
  63              		.text
  64              	.Ltext0:
  65              		.cfi_sections	.debug_frame
  66              		.section	.text.MCP2515_Init,"ax",%progbits
  67              		.align	2
  68              		.global	MCP2515_Init
  69              		.code	16
  70              		.thumb_func
  71              		.type	MCP2515_Init, %function
  72              	MCP2515_Init:
  73              	.LFB198:
  74              		.file 1 "../lpc11cx4-library/evt_lib/src/mcp2515.c"
   1:../lpc11cx4-library/evt_lib/src/mcp2515.c **** #include "chip.h"
   2:../lpc11cx4-library/evt_lib/src/mcp2515.c **** #include "mcp2515.h"
   3:../lpc11cx4-library/evt_lib/src/mcp2515.c **** #include "util.h"
   4:../lpc11cx4-library/evt_lib/src/mcp2515.c **** 
   5:../lpc11cx4-library/evt_lib/src/mcp2515.c **** #define BUFFER_SIZE                         (256)
   6:../lpc11cx4-library/evt_lib/src/mcp2515.c **** 
   7:../lpc11cx4-library/evt_lib/src/mcp2515.c **** #define set_gpio_pin_output(gpio, pin) (Chip_GPIO_WriteDirBit(LPC_GPIO, gpio, pin, true))
   8:../lpc11cx4-library/evt_lib/src/mcp2515.c **** #define set_gpio_pin_high(gpio, pin) (Chip_GPIO_SetPinState(LPC_GPIO, gpio, pin, true))
   9:../lpc11cx4-library/evt_lib/src/mcp2515.c **** #define set_gpio_pin_low(gpio, pin) (Chip_GPIO_SetPinState(LPC_GPIO, gpio, pin, false))
  10:../lpc11cx4-library/evt_lib/src/mcp2515.c **** 
  11:../lpc11cx4-library/evt_lib/src/mcp2515.c **** /* Tx buffer */
  12:../lpc11cx4-library/evt_lib/src/mcp2515.c **** static uint8_t Tx_Buf[BUFFER_SIZE];
  13:../lpc11cx4-library/evt_lib/src/mcp2515.c **** 
  14:../lpc11cx4-library/evt_lib/src/mcp2515.c **** /* Rx buffer */
  15:../lpc11cx4-library/evt_lib/src/mcp2515.c **** static uint8_t Rx_Buf[BUFFER_SIZE];
  16:../lpc11cx4-library/evt_lib/src/mcp2515.c **** 
  17:../lpc11cx4-library/evt_lib/src/mcp2515.c **** 
  18:../lpc11cx4-library/evt_lib/src/mcp2515.c **** static Chip_SSP_DATA_SETUP_T xf_setup;
  19:../lpc11cx4-library/evt_lib/src/mcp2515.c **** 
  20:../lpc11cx4-library/evt_lib/src/mcp2515.c **** uint8_t _cs_gpio;;
  21:../lpc11cx4-library/evt_lib/src/mcp2515.c **** uint8_t _cs_pin;
  22:../lpc11cx4-library/evt_lib/src/mcp2515.c **** 
  23:../lpc11cx4-library/evt_lib/src/mcp2515.c **** void MCP2515_Init(uint8_t cs_gpio, uint8_t cs_pin) {
  75              		.loc 1 23 0
  76              		.cfi_startproc
  77              	.LVL0:
  78 0000 0A1C     		mov	r2, r1	@ cs_pin, cs_pin
  24:../lpc11cx4-library/evt_lib/src/mcp2515.c **** 	_cs_gpio = cs_gpio;
  79              		.loc 1 24 0
  80 0002 0949     		ldr	r1, .L2	@ tmp113,
  81              	.LVL1:
  23:../lpc11cx4-library/evt_lib/src/mcp2515.c **** 	_cs_gpio = cs_gpio;
  82              		.loc 1 23 0
  83 0004 08B5     		push	{r3, lr}	@
  84              		.cfi_def_cfa_offset 8
  85              		.cfi_offset 3, -8
  86              		.cfi_offset 14, -4
  87              		.loc 1 24 0
  88 0006 0870     		strb	r0, [r1]	@ cs_gpio, _cs_gpio
  23:../lpc11cx4-library/evt_lib/src/mcp2515.c **** 	_cs_gpio = cs_gpio;
ARM GAS  /tmp/ccSYIYb6.s 			page 3


  89              		.loc 1 23 0
  90 0008 031C     		mov	r3, r0	@ cs_gpio, cs_gpio
  25:../lpc11cx4-library/evt_lib/src/mcp2515.c **** 	_cs_pin = cs_pin;
  26:../lpc11cx4-library/evt_lib/src/mcp2515.c **** 
  27:../lpc11cx4-library/evt_lib/src/mcp2515.c **** 	set_gpio_pin_output(_cs_gpio, _cs_pin);
  91              		.loc 1 27 0
  92 000a A020     		mov	r0, #160	@,
  93              	.LVL2:
  25:../lpc11cx4-library/evt_lib/src/mcp2515.c **** 	_cs_pin = cs_pin;
  94              		.loc 1 25 0
  95 000c 0749     		ldr	r1, .L2+4	@ tmp115,
  96              		.loc 1 27 0
  97 000e C005     		lsl	r0, r0, #23	@,,
  25:../lpc11cx4-library/evt_lib/src/mcp2515.c **** 	_cs_pin = cs_pin;
  98              		.loc 1 25 0
  99 0010 0A70     		strb	r2, [r1]	@ cs_pin, _cs_pin
 100              		.loc 1 27 0
 101 0012 191C     		mov	r1, r3	@, cs_gpio
 102 0014 0123     		mov	r3, #1	@,
 103 0016 FFF7FEFF 		bl	Chip_GPIO_WriteDirBit	@
 104              	.LVL3:
  28:../lpc11cx4-library/evt_lib/src/mcp2515.c **** 
  29:../lpc11cx4-library/evt_lib/src/mcp2515.c **** 	xf_setup.tx_data = Tx_Buf;
 105              		.loc 1 29 0
 106 001a 054B     		ldr	r3, .L2+8	@ tmp118,
 107 001c 054A     		ldr	r2, .L2+12	@ tmp119,
  30:../lpc11cx4-library/evt_lib/src/mcp2515.c **** 	xf_setup.rx_data = Rx_Buf;
  31:../lpc11cx4-library/evt_lib/src/mcp2515.c **** }
 108              		.loc 1 31 0
 109              		@ sp needed	@
  29:../lpc11cx4-library/evt_lib/src/mcp2515.c **** 	xf_setup.rx_data = Rx_Buf;
 110              		.loc 1 29 0
 111 001e 1A60     		str	r2, [r3]	@ tmp119, xf_setup.tx_data
  30:../lpc11cx4-library/evt_lib/src/mcp2515.c **** 	xf_setup.rx_data = Rx_Buf;
 112              		.loc 1 30 0
 113 0020 054A     		ldr	r2, .L2+16	@ tmp121,
 114 0022 9A60     		str	r2, [r3, #8]	@ tmp121, xf_setup.rx_data
 115              		.loc 1 31 0
 116 0024 08BD     		pop	{r3, pc}
 117              	.L3:
 118 0026 C046     		.align	2
 119              	.L2:
 120 0028 00000000 		.word	_cs_gpio
 121 002c 00000000 		.word	_cs_pin
 122 0030 00000000 		.word	.LANCHOR0
 123 0034 00000000 		.word	.LANCHOR1
 124 0038 00000000 		.word	.LANCHOR2
 125              		.cfi_endproc
 126              	.LFE198:
 127              		.size	MCP2515_Init, .-MCP2515_Init
 128              		.section	.text.MCP2515_Reset,"ax",%progbits
 129              		.align	2
 130              		.global	MCP2515_Reset
 131              		.code	16
 132              		.thumb_func
 133              		.type	MCP2515_Reset, %function
 134              	MCP2515_Reset:
ARM GAS  /tmp/ccSYIYb6.s 			page 4


 135              	.LFB200:
  32:../lpc11cx4-library/evt_lib/src/mcp2515.c **** 
  33:../lpc11cx4-library/evt_lib/src/mcp2515.c **** // uint8_t MCP2515_SetBitRate(uint32_t baud, uint32_t freq, uint8_t SJW) {
  34:../lpc11cx4-library/evt_lib/src/mcp2515.c **** // 	if (SJW < 1) SJW = 1;
  35:../lpc11cx4-library/evt_lib/src/mcp2515.c **** // 	if (SJW > 4) SJW = 4;
  36:../lpc11cx4-library/evt_lib/src/mcp2515.c **** // 	if (baud > 0) {
  37:../lpc11cx4-library/evt_lib/src/mcp2515.c **** // 		MCP2515_Reset();
  38:../lpc11cx4-library/evt_lib/src/mcp2515.c **** 
  39:../lpc11cx4-library/evt_lib/src/mcp2515.c **** // 		uint8_t BRP;
  40:../lpc11cx4-library/evt_lib/src/mcp2515.c **** // 		float TQ;
  41:../lpc11cx4-library/evt_lib/src/mcp2515.c **** // 		uint8_t BT = 0;
  42:../lpc11cx4-library/evt_lib/src/mcp2515.c **** // 		float tempBT;
  43:../lpc11cx4-library/evt_lib/src/mcp2515.c **** 
  44:../lpc11cx4-library/evt_lib/src/mcp2515.c **** // 		float NBT = 1.0/ (float) baud * 1000;
  45:../lpc11cx4-library/evt_lib/src/mcp2515.c **** // 		for (BRP = 0; BRP < 64; BRP++) {
  46:../lpc11cx4-library/evt_lib/src/mcp2515.c **** // 			TQ = 2.0 * (float)(BRP + 1) / (float)freq;
  47:../lpc11cx4-library/evt_lib/src/mcp2515.c **** // 			tempBT = NBT / TQ;
  48:../lpc11cx4-library/evt_lib/src/mcp2515.c **** // 			if (tempBT <= 25) {
  49:../lpc11cx4-library/evt_lib/src/mcp2515.c **** // 				BT = (int) tempBT;
  50:../lpc11cx4-library/evt_lib/src/mcp2515.c **** // 				if (tempBT - BT == 0) break;
  51:../lpc11cx4-library/evt_lib/src/mcp2515.c **** // 			}
  52:../lpc11cx4-library/evt_lib/src/mcp2515.c **** // 		}
  53:../lpc11cx4-library/evt_lib/src/mcp2515.c **** 
  54:../lpc11cx4-library/evt_lib/src/mcp2515.c **** // 		uint8_t SPT = (0.7 * BT);
  55:../lpc11cx4-library/evt_lib/src/mcp2515.c **** // 		uint8_t PRSEG = (SPT - 1) / 2;
  56:../lpc11cx4-library/evt_lib/src/mcp2515.c **** // 		uint8_t PHSEG1 = SPT - PRSEG - 1;
  57:../lpc11cx4-library/evt_lib/src/mcp2515.c **** // 		uint8_t PHSEG2 = BT - PHSEG1 - PRSEG - 1;
  58:../lpc11cx4-library/evt_lib/src/mcp2515.c **** 
  59:../lpc11cx4-library/evt_lib/src/mcp2515.c **** 
  60:../lpc11cx4-library/evt_lib/src/mcp2515.c **** // 		if (PRSEG + PHSEG1 < PHSEG2) {
  61:../lpc11cx4-library/evt_lib/src/mcp2515.c **** // 			return 1;
  62:../lpc11cx4-library/evt_lib/src/mcp2515.c **** // 		}
  63:../lpc11cx4-library/evt_lib/src/mcp2515.c **** 
  64:../lpc11cx4-library/evt_lib/src/mcp2515.c **** // 		if (PHSEG2 <= SJW) {
  65:../lpc11cx4-library/evt_lib/src/mcp2515.c **** // 			return 2;
  66:../lpc11cx4-library/evt_lib/src/mcp2515.c **** // 		}
  67:../lpc11cx4-library/evt_lib/src/mcp2515.c **** 
  68:../lpc11cx4-library/evt_lib/src/mcp2515.c **** 
  69:../lpc11cx4-library/evt_lib/src/mcp2515.c **** // 		uint8_t BTLMODE = 1;
  70:../lpc11cx4-library/evt_lib/src/mcp2515.c **** // 		uint8_t SAM = 0;
  71:../lpc11cx4-library/evt_lib/src/mcp2515.c **** 
  72:../lpc11cx4-library/evt_lib/src/mcp2515.c **** // 		uint8_t data = (((SJW - 1) << 6) | BRP);
  73:../lpc11cx4-library/evt_lib/src/mcp2515.c **** 
  74:../lpc11cx4-library/evt_lib/src/mcp2515.c **** // 		MCP2515_Write(CNF1, data);
  75:../lpc11cx4-library/evt_lib/src/mcp2515.c **** // 		MCP2515_Write(CNF2, ((BTLMODE << 7) | (SAM << 6) | ((PHSEG1 - 1) << 3) | (PRSEG - 1)));
  76:../lpc11cx4-library/evt_lib/src/mcp2515.c **** // 		MCP2515_Write(CNF3, (0x00 | (PHSEG2 - 1)));
  77:../lpc11cx4-library/evt_lib/src/mcp2515.c **** // 		MCP2515_Write(TXRTSCTRL, 0);
  78:../lpc11cx4-library/evt_lib/src/mcp2515.c **** 
  79:../lpc11cx4-library/evt_lib/src/mcp2515.c **** // 		if (!MCP2515_Mode(MODE_NORMAL)) {
  80:../lpc11cx4-library/evt_lib/src/mcp2515.c **** // 			return 3;
  81:../lpc11cx4-library/evt_lib/src/mcp2515.c **** // 		} 
  82:../lpc11cx4-library/evt_lib/src/mcp2515.c **** 
  83:../lpc11cx4-library/evt_lib/src/mcp2515.c **** // 		MCP2515_Write(CANINTE, 0xFF);
  84:../lpc11cx4-library/evt_lib/src/mcp2515.c **** 
  85:../lpc11cx4-library/evt_lib/src/mcp2515.c **** // 		uint8_t rtn = 0;
  86:../lpc11cx4-library/evt_lib/src/mcp2515.c **** // 		MCP2515_Read(CNF1, &rtn, 1);
  87:../lpc11cx4-library/evt_lib/src/mcp2515.c **** // 		if (rtn == data) {
ARM GAS  /tmp/ccSYIYb6.s 			page 5


  88:../lpc11cx4-library/evt_lib/src/mcp2515.c **** // 			return 0;
  89:../lpc11cx4-library/evt_lib/src/mcp2515.c **** // 		} else {
  90:../lpc11cx4-library/evt_lib/src/mcp2515.c **** // 			return 4;
  91:../lpc11cx4-library/evt_lib/src/mcp2515.c **** // 		}
  92:../lpc11cx4-library/evt_lib/src/mcp2515.c **** // 	} else {
  93:../lpc11cx4-library/evt_lib/src/mcp2515.c **** // 		return 5;
  94:../lpc11cx4-library/evt_lib/src/mcp2515.c **** // 	}
  95:../lpc11cx4-library/evt_lib/src/mcp2515.c **** 
  96:../lpc11cx4-library/evt_lib/src/mcp2515.c **** // 	return 0;
  97:../lpc11cx4-library/evt_lib/src/mcp2515.c **** // }
  98:../lpc11cx4-library/evt_lib/src/mcp2515.c **** 
  99:../lpc11cx4-library/evt_lib/src/mcp2515.c **** 
 100:../lpc11cx4-library/evt_lib/src/mcp2515.c **** // Baud in KHz, Freq in Mhz
 101:../lpc11cx4-library/evt_lib/src/mcp2515.c **** uint8_t MCP2515_SetBitRate(uint32_t baud, uint32_t freq, uint8_t SJW) {
 102:../lpc11cx4-library/evt_lib/src/mcp2515.c **** 	if (SJW < 1) SJW = 1;
 103:../lpc11cx4-library/evt_lib/src/mcp2515.c **** 	if (SJW > 4) SJW = 4;
 104:../lpc11cx4-library/evt_lib/src/mcp2515.c **** 	if (baud > 0) {
 105:../lpc11cx4-library/evt_lib/src/mcp2515.c **** 		MCP2515_Reset();
 106:../lpc11cx4-library/evt_lib/src/mcp2515.c **** 
 107:../lpc11cx4-library/evt_lib/src/mcp2515.c **** 		uint8_t BRP;
 108:../lpc11cx4-library/evt_lib/src/mcp2515.c **** 		uint64_t TQ;
 109:../lpc11cx4-library/evt_lib/src/mcp2515.c **** 		uint8_t BT = 0;
 110:../lpc11cx4-library/evt_lib/src/mcp2515.c **** 		uint64_t tempBT;
 111:../lpc11cx4-library/evt_lib/src/mcp2515.c **** 
 112:../lpc11cx4-library/evt_lib/src/mcp2515.c **** 		uint64_t NBT = 10000 * 1 / baud * 1000; 		// Since baud wil probably not go above 10 Mhz, this wi
 113:../lpc11cx4-library/evt_lib/src/mcp2515.c **** 		for (BRP = 0; BRP < 64; BRP++) {
 114:../lpc11cx4-library/evt_lib/src/mcp2515.c **** 			TQ = 10000 * 2 * (BRP + 1) / freq;
 115:../lpc11cx4-library/evt_lib/src/mcp2515.c **** 			tempBT = NBT / TQ; 							// The added 10K should cancel out here
 116:../lpc11cx4-library/evt_lib/src/mcp2515.c **** 			if (tempBT <= 25) {
 117:../lpc11cx4-library/evt_lib/src/mcp2515.c **** 				BT = (int) tempBT;
 118:../lpc11cx4-library/evt_lib/src/mcp2515.c **** 				if (tempBT - BT == 0) break;
 119:../lpc11cx4-library/evt_lib/src/mcp2515.c **** 			}
 120:../lpc11cx4-library/evt_lib/src/mcp2515.c **** 		}
 121:../lpc11cx4-library/evt_lib/src/mcp2515.c **** 
 122:../lpc11cx4-library/evt_lib/src/mcp2515.c **** 		uint8_t SPT = (0.7 * BT);
 123:../lpc11cx4-library/evt_lib/src/mcp2515.c **** 		uint8_t PRSEG = (SPT - 1) / 2;
 124:../lpc11cx4-library/evt_lib/src/mcp2515.c **** 		uint8_t PHSEG1 = SPT - PRSEG - 1;
 125:../lpc11cx4-library/evt_lib/src/mcp2515.c **** 		uint8_t PHSEG2 = BT - PHSEG1 - PRSEG - 1;
 126:../lpc11cx4-library/evt_lib/src/mcp2515.c **** 
 127:../lpc11cx4-library/evt_lib/src/mcp2515.c **** 
 128:../lpc11cx4-library/evt_lib/src/mcp2515.c **** 		if (PRSEG + PHSEG1 < PHSEG2) {
 129:../lpc11cx4-library/evt_lib/src/mcp2515.c **** 			return 1;
 130:../lpc11cx4-library/evt_lib/src/mcp2515.c **** 		}
 131:../lpc11cx4-library/evt_lib/src/mcp2515.c **** 
 132:../lpc11cx4-library/evt_lib/src/mcp2515.c **** 		if (PHSEG2 <= SJW) {
 133:../lpc11cx4-library/evt_lib/src/mcp2515.c **** 			return 2;
 134:../lpc11cx4-library/evt_lib/src/mcp2515.c **** 		}
 135:../lpc11cx4-library/evt_lib/src/mcp2515.c **** 
 136:../lpc11cx4-library/evt_lib/src/mcp2515.c **** 
 137:../lpc11cx4-library/evt_lib/src/mcp2515.c **** 		uint8_t BTLMODE = 1;
 138:../lpc11cx4-library/evt_lib/src/mcp2515.c **** 		uint8_t SAM = 0;
 139:../lpc11cx4-library/evt_lib/src/mcp2515.c **** 
 140:../lpc11cx4-library/evt_lib/src/mcp2515.c **** 		uint8_t data = (((SJW - 1) << 6) | BRP);
 141:../lpc11cx4-library/evt_lib/src/mcp2515.c **** 
 142:../lpc11cx4-library/evt_lib/src/mcp2515.c **** 		MCP2515_Write(CNF1, data);
 143:../lpc11cx4-library/evt_lib/src/mcp2515.c **** 		MCP2515_Write(CNF2, ((BTLMODE << 7) | (SAM << 6) | ((PHSEG1 - 1) << 3) | (PRSEG - 1)));
 144:../lpc11cx4-library/evt_lib/src/mcp2515.c **** 		MCP2515_Write(CNF3, (0x00 | (PHSEG2 - 1)));
ARM GAS  /tmp/ccSYIYb6.s 			page 6


 145:../lpc11cx4-library/evt_lib/src/mcp2515.c **** 		MCP2515_Write(TXRTSCTRL, 0);
 146:../lpc11cx4-library/evt_lib/src/mcp2515.c **** 
 147:../lpc11cx4-library/evt_lib/src/mcp2515.c **** 		if (!MCP2515_Mode(MODE_NORMAL)) {
 148:../lpc11cx4-library/evt_lib/src/mcp2515.c **** 			return 3;
 149:../lpc11cx4-library/evt_lib/src/mcp2515.c **** 		} 
 150:../lpc11cx4-library/evt_lib/src/mcp2515.c **** 
 151:../lpc11cx4-library/evt_lib/src/mcp2515.c **** 		MCP2515_Write(CANINTE, 0xFF);
 152:../lpc11cx4-library/evt_lib/src/mcp2515.c **** 
 153:../lpc11cx4-library/evt_lib/src/mcp2515.c **** 		uint8_t rtn = 0;
 154:../lpc11cx4-library/evt_lib/src/mcp2515.c **** 		MCP2515_Read(CNF1, &rtn, 1);
 155:../lpc11cx4-library/evt_lib/src/mcp2515.c **** 		if (rtn == data) {
 156:../lpc11cx4-library/evt_lib/src/mcp2515.c **** 			return 0;
 157:../lpc11cx4-library/evt_lib/src/mcp2515.c **** 		} else {
 158:../lpc11cx4-library/evt_lib/src/mcp2515.c **** 			return 4;
 159:../lpc11cx4-library/evt_lib/src/mcp2515.c **** 		}
 160:../lpc11cx4-library/evt_lib/src/mcp2515.c **** 	} else {
 161:../lpc11cx4-library/evt_lib/src/mcp2515.c **** 		return 5;
 162:../lpc11cx4-library/evt_lib/src/mcp2515.c **** 	}
 163:../lpc11cx4-library/evt_lib/src/mcp2515.c **** 
 164:../lpc11cx4-library/evt_lib/src/mcp2515.c **** 	return 0;
 165:../lpc11cx4-library/evt_lib/src/mcp2515.c **** }
 166:../lpc11cx4-library/evt_lib/src/mcp2515.c **** 
 167:../lpc11cx4-library/evt_lib/src/mcp2515.c **** void MCP2515_Reset(void) {
 136              		.loc 1 167 0
 137              		.cfi_startproc
 138              	.LVL4:
 139 0000 70B5     		push	{r4, r5, r6, lr}	@
 140              		.cfi_def_cfa_offset 16
 141              		.cfi_offset 4, -16
 142              		.cfi_offset 5, -12
 143              		.cfi_offset 6, -8
 144              		.cfi_offset 14, -4
 145              	.LBB30:
 146              	.LBB31:
 147              		.file 2 "../lpc11cx4-library/lpc_chip_11cxx_lib/inc/gpio_11xx_2.h"
   1:../lpc11cx4-library/lpc_chip_11cxx_lib/inc/gpio_11xx_2.h **** /*
   2:../lpc11cx4-library/lpc_chip_11cxx_lib/inc/gpio_11xx_2.h ****  * @brief LPC11xx GPIO driver for CHIP_LPC11CXX, CHIP_LPC110X, CHIP_LPC11XXLV,
   3:../lpc11cx4-library/lpc_chip_11cxx_lib/inc/gpio_11xx_2.h ****  * and CHIP_LPC1125 families only.
   4:../lpc11cx4-library/lpc_chip_11cxx_lib/inc/gpio_11xx_2.h ****  *
   5:../lpc11cx4-library/lpc_chip_11cxx_lib/inc/gpio_11xx_2.h ****  * @note
   6:../lpc11cx4-library/lpc_chip_11cxx_lib/inc/gpio_11xx_2.h ****  * Copyright(C) NXP Semiconductors, 2013
   7:../lpc11cx4-library/lpc_chip_11cxx_lib/inc/gpio_11xx_2.h ****  * All rights reserved.
   8:../lpc11cx4-library/lpc_chip_11cxx_lib/inc/gpio_11xx_2.h ****  *
   9:../lpc11cx4-library/lpc_chip_11cxx_lib/inc/gpio_11xx_2.h ****  * @par
  10:../lpc11cx4-library/lpc_chip_11cxx_lib/inc/gpio_11xx_2.h ****  * Software that is described herein is for illustrative purposes only
  11:../lpc11cx4-library/lpc_chip_11cxx_lib/inc/gpio_11xx_2.h ****  * which provides customers with programming information regarding the
  12:../lpc11cx4-library/lpc_chip_11cxx_lib/inc/gpio_11xx_2.h ****  * LPC products.  This software is supplied "AS IS" without any warranties of
  13:../lpc11cx4-library/lpc_chip_11cxx_lib/inc/gpio_11xx_2.h ****  * any kind, and NXP Semiconductors and its licensor disclaim any and
  14:../lpc11cx4-library/lpc_chip_11cxx_lib/inc/gpio_11xx_2.h ****  * all warranties, express or implied, including all implied warranties of
  15:../lpc11cx4-library/lpc_chip_11cxx_lib/inc/gpio_11xx_2.h ****  * merchantability, fitness for a particular purpose and non-infringement of
  16:../lpc11cx4-library/lpc_chip_11cxx_lib/inc/gpio_11xx_2.h ****  * intellectual property rights.  NXP Semiconductors assumes no responsibility
  17:../lpc11cx4-library/lpc_chip_11cxx_lib/inc/gpio_11xx_2.h ****  * or liability for the use of the software, conveys no license or rights under any
  18:../lpc11cx4-library/lpc_chip_11cxx_lib/inc/gpio_11xx_2.h ****  * patent, copyright, mask work right, or any other intellectual property rights in
  19:../lpc11cx4-library/lpc_chip_11cxx_lib/inc/gpio_11xx_2.h ****  * or to any products. NXP Semiconductors reserves the right to make changes
  20:../lpc11cx4-library/lpc_chip_11cxx_lib/inc/gpio_11xx_2.h ****  * in the software without notification. NXP Semiconductors also makes no
  21:../lpc11cx4-library/lpc_chip_11cxx_lib/inc/gpio_11xx_2.h ****  * representation or warranty that such application will be suitable for the
  22:../lpc11cx4-library/lpc_chip_11cxx_lib/inc/gpio_11xx_2.h ****  * specified use without further testing or modification.
ARM GAS  /tmp/ccSYIYb6.s 			page 7


  23:../lpc11cx4-library/lpc_chip_11cxx_lib/inc/gpio_11xx_2.h ****  *
  24:../lpc11cx4-library/lpc_chip_11cxx_lib/inc/gpio_11xx_2.h ****  * @par
  25:../lpc11cx4-library/lpc_chip_11cxx_lib/inc/gpio_11xx_2.h ****  * Permission to use, copy, modify, and distribute this software and its
  26:../lpc11cx4-library/lpc_chip_11cxx_lib/inc/gpio_11xx_2.h ****  * documentation is hereby granted, under NXP Semiconductors' and its
  27:../lpc11cx4-library/lpc_chip_11cxx_lib/inc/gpio_11xx_2.h ****  * licensor's relevant copyrights in the software, without fee, provided that it
  28:../lpc11cx4-library/lpc_chip_11cxx_lib/inc/gpio_11xx_2.h ****  * is used in conjunction with NXP Semiconductors microcontrollers.  This
  29:../lpc11cx4-library/lpc_chip_11cxx_lib/inc/gpio_11xx_2.h ****  * copyright, permission, and disclaimer notice must appear in all copies of
  30:../lpc11cx4-library/lpc_chip_11cxx_lib/inc/gpio_11xx_2.h ****  * this code.
  31:../lpc11cx4-library/lpc_chip_11cxx_lib/inc/gpio_11xx_2.h ****  */
  32:../lpc11cx4-library/lpc_chip_11cxx_lib/inc/gpio_11xx_2.h **** 
  33:../lpc11cx4-library/lpc_chip_11cxx_lib/inc/gpio_11xx_2.h **** #ifndef __GPIO_11XX_2_H_
  34:../lpc11cx4-library/lpc_chip_11cxx_lib/inc/gpio_11xx_2.h **** #define __GPIO_11XX_2_H_
  35:../lpc11cx4-library/lpc_chip_11cxx_lib/inc/gpio_11xx_2.h **** 
  36:../lpc11cx4-library/lpc_chip_11cxx_lib/inc/gpio_11xx_2.h **** #ifdef __cplusplus
  37:../lpc11cx4-library/lpc_chip_11cxx_lib/inc/gpio_11xx_2.h **** extern "C" {
  38:../lpc11cx4-library/lpc_chip_11cxx_lib/inc/gpio_11xx_2.h **** #endif
  39:../lpc11cx4-library/lpc_chip_11cxx_lib/inc/gpio_11xx_2.h **** 
  40:../lpc11cx4-library/lpc_chip_11cxx_lib/inc/gpio_11xx_2.h **** /** @defgroup GPIO_11XX_2 CHIP: LPC11xx GPIO driver for CHIP_LPC11CXX, CHIP_LPC110X, and CHIP_LPC11
  41:../lpc11cx4-library/lpc_chip_11cxx_lib/inc/gpio_11xx_2.h ****  * @ingroup CHIP_11XX_Drivers
  42:../lpc11cx4-library/lpc_chip_11cxx_lib/inc/gpio_11xx_2.h ****  * For device familes identified with CHIP definitions CHIP_LPC11CXX,
  43:../lpc11cx4-library/lpc_chip_11cxx_lib/inc/gpio_11xx_2.h ****  * CHIP_LPC110X, and CHIP_LPC11XXLV only.
  44:../lpc11cx4-library/lpc_chip_11cxx_lib/inc/gpio_11xx_2.h ****  * @{
  45:../lpc11cx4-library/lpc_chip_11cxx_lib/inc/gpio_11xx_2.h ****  */
  46:../lpc11cx4-library/lpc_chip_11cxx_lib/inc/gpio_11xx_2.h **** 
  47:../lpc11cx4-library/lpc_chip_11cxx_lib/inc/gpio_11xx_2.h **** #if defined(CHIP_LPC11CXX) || defined(CHIP_LPC110X) || defined(CHIP_LPC11XXLV) || defined(CHIP_LPC1
  48:../lpc11cx4-library/lpc_chip_11cxx_lib/inc/gpio_11xx_2.h **** 
  49:../lpc11cx4-library/lpc_chip_11cxx_lib/inc/gpio_11xx_2.h **** /**
  50:../lpc11cx4-library/lpc_chip_11cxx_lib/inc/gpio_11xx_2.h ****  * @brief  GPIO port register block structure
  51:../lpc11cx4-library/lpc_chip_11cxx_lib/inc/gpio_11xx_2.h ****  */
  52:../lpc11cx4-library/lpc_chip_11cxx_lib/inc/gpio_11xx_2.h **** typedef struct {				/*!< GPIO_PORT Structure */
  53:../lpc11cx4-library/lpc_chip_11cxx_lib/inc/gpio_11xx_2.h **** 	__IO uint32_t DATA[4096];			/*!< Offset: 0x0000 to 0x3FFC Data address masking register (R/W) */
  54:../lpc11cx4-library/lpc_chip_11cxx_lib/inc/gpio_11xx_2.h **** 	uint32_t RESERVED1[4096];
  55:../lpc11cx4-library/lpc_chip_11cxx_lib/inc/gpio_11xx_2.h **** 	__IO uint32_t DIR;					/*!< Offset: 0x8000 Data direction register (R/W) */
  56:../lpc11cx4-library/lpc_chip_11cxx_lib/inc/gpio_11xx_2.h **** 	__IO uint32_t IS;					/*!< Offset: 0x8004 Interrupt sense register (R/W) */
  57:../lpc11cx4-library/lpc_chip_11cxx_lib/inc/gpio_11xx_2.h **** 	__IO uint32_t IBE;					/*!< Offset: 0x8008 Interrupt both edges register (R/W) */
  58:../lpc11cx4-library/lpc_chip_11cxx_lib/inc/gpio_11xx_2.h **** 	__IO uint32_t IEV;					/*!< Offset: 0x800C Interrupt event register  (R/W) */
  59:../lpc11cx4-library/lpc_chip_11cxx_lib/inc/gpio_11xx_2.h **** 	__IO uint32_t IE;					/*!< Offset: 0x8010 Interrupt mask register (R/W) */
  60:../lpc11cx4-library/lpc_chip_11cxx_lib/inc/gpio_11xx_2.h **** 	__I  uint32_t RIS;					/*!< Offset: 0x8014 Raw interrupt status register (R/ ) */
  61:../lpc11cx4-library/lpc_chip_11cxx_lib/inc/gpio_11xx_2.h **** 	__I  uint32_t MIS;					/*!< Offset: 0x8018 Masked interrupt status register (R/ ) */
  62:../lpc11cx4-library/lpc_chip_11cxx_lib/inc/gpio_11xx_2.h **** 	__O  uint32_t IC;					/*!< Offset: 0x801C Interrupt clear register (W) */
  63:../lpc11cx4-library/lpc_chip_11cxx_lib/inc/gpio_11xx_2.h **** 	uint32_t RESERVED2[8184];			/* Padding added for aligning contiguous GPIO blocks */
  64:../lpc11cx4-library/lpc_chip_11cxx_lib/inc/gpio_11xx_2.h **** } LPC_GPIO_T;
  65:../lpc11cx4-library/lpc_chip_11cxx_lib/inc/gpio_11xx_2.h **** 
  66:../lpc11cx4-library/lpc_chip_11cxx_lib/inc/gpio_11xx_2.h **** /**
  67:../lpc11cx4-library/lpc_chip_11cxx_lib/inc/gpio_11xx_2.h ****  * @brief	Initialize GPIO block
  68:../lpc11cx4-library/lpc_chip_11cxx_lib/inc/gpio_11xx_2.h ****  * @param	pGPIO	: The base of GPIO peripheral on the chip
  69:../lpc11cx4-library/lpc_chip_11cxx_lib/inc/gpio_11xx_2.h ****  * @return	Nothing
  70:../lpc11cx4-library/lpc_chip_11cxx_lib/inc/gpio_11xx_2.h ****  */
  71:../lpc11cx4-library/lpc_chip_11cxx_lib/inc/gpio_11xx_2.h **** void Chip_GPIO_Init(LPC_GPIO_T *pGPIO);
  72:../lpc11cx4-library/lpc_chip_11cxx_lib/inc/gpio_11xx_2.h **** 
  73:../lpc11cx4-library/lpc_chip_11cxx_lib/inc/gpio_11xx_2.h **** /**
  74:../lpc11cx4-library/lpc_chip_11cxx_lib/inc/gpio_11xx_2.h ****  * @brief	De-Initialize GPIO block
  75:../lpc11cx4-library/lpc_chip_11cxx_lib/inc/gpio_11xx_2.h ****  * @param	pGPIO	: The base of GPIO peripheral on the chip
  76:../lpc11cx4-library/lpc_chip_11cxx_lib/inc/gpio_11xx_2.h ****  * @return	Nothing
  77:../lpc11cx4-library/lpc_chip_11cxx_lib/inc/gpio_11xx_2.h ****  */
  78:../lpc11cx4-library/lpc_chip_11cxx_lib/inc/gpio_11xx_2.h **** void Chip_GPIO_DeInit(LPC_GPIO_T *pGPIO);
  79:../lpc11cx4-library/lpc_chip_11cxx_lib/inc/gpio_11xx_2.h **** 
ARM GAS  /tmp/ccSYIYb6.s 			page 8


  80:../lpc11cx4-library/lpc_chip_11cxx_lib/inc/gpio_11xx_2.h **** /**
  81:../lpc11cx4-library/lpc_chip_11cxx_lib/inc/gpio_11xx_2.h ****  * @brief	Set a GPIO port/bit state
  82:../lpc11cx4-library/lpc_chip_11cxx_lib/inc/gpio_11xx_2.h ****  * @param	pGPIO	: The base of GPIO peripheral on the chip
  83:../lpc11cx4-library/lpc_chip_11cxx_lib/inc/gpio_11xx_2.h ****  * @param	port	: GPIO port to set
  84:../lpc11cx4-library/lpc_chip_11cxx_lib/inc/gpio_11xx_2.h ****  * @param	bit		: GPIO bit to set
  85:../lpc11cx4-library/lpc_chip_11cxx_lib/inc/gpio_11xx_2.h ****  * @param	setting	: true for high, false for low
  86:../lpc11cx4-library/lpc_chip_11cxx_lib/inc/gpio_11xx_2.h ****  * @return	Nothing
  87:../lpc11cx4-library/lpc_chip_11cxx_lib/inc/gpio_11xx_2.h ****  */
  88:../lpc11cx4-library/lpc_chip_11cxx_lib/inc/gpio_11xx_2.h **** STATIC INLINE void Chip_GPIO_WritePortBit(LPC_GPIO_T *pGPIO, uint32_t port, uint8_t bit, bool setti
  89:../lpc11cx4-library/lpc_chip_11cxx_lib/inc/gpio_11xx_2.h **** {
  90:../lpc11cx4-library/lpc_chip_11cxx_lib/inc/gpio_11xx_2.h **** 	pGPIO[port].DATA[1 << bit] = setting << bit;
  91:../lpc11cx4-library/lpc_chip_11cxx_lib/inc/gpio_11xx_2.h **** }
  92:../lpc11cx4-library/lpc_chip_11cxx_lib/inc/gpio_11xx_2.h **** 
  93:../lpc11cx4-library/lpc_chip_11cxx_lib/inc/gpio_11xx_2.h **** /**
  94:../lpc11cx4-library/lpc_chip_11cxx_lib/inc/gpio_11xx_2.h ****  * @brief	Set a GPIO pin state via the GPIO byte register
  95:../lpc11cx4-library/lpc_chip_11cxx_lib/inc/gpio_11xx_2.h ****  * @param	pGPIO	: The base of GPIO peripheral on the chip
  96:../lpc11cx4-library/lpc_chip_11cxx_lib/inc/gpio_11xx_2.h ****  * @param	port	: Port number
  97:../lpc11cx4-library/lpc_chip_11cxx_lib/inc/gpio_11xx_2.h ****  * @param	pin		: GPIO pin to set
  98:../lpc11cx4-library/lpc_chip_11cxx_lib/inc/gpio_11xx_2.h ****  * @param	setting	: true for high, false for low
  99:../lpc11cx4-library/lpc_chip_11cxx_lib/inc/gpio_11xx_2.h ****  * @return	Nothing
 100:../lpc11cx4-library/lpc_chip_11cxx_lib/inc/gpio_11xx_2.h ****  * @note	This function replaces Chip_GPIO_WritePortBit()
 101:../lpc11cx4-library/lpc_chip_11cxx_lib/inc/gpio_11xx_2.h ****  */
 102:../lpc11cx4-library/lpc_chip_11cxx_lib/inc/gpio_11xx_2.h **** STATIC INLINE void Chip_GPIO_SetPinState(LPC_GPIO_T *pGPIO, uint8_t port, uint8_t pin, bool setting
 103:../lpc11cx4-library/lpc_chip_11cxx_lib/inc/gpio_11xx_2.h **** {
 104:../lpc11cx4-library/lpc_chip_11cxx_lib/inc/gpio_11xx_2.h **** 	pGPIO[port].DATA[1 << pin] = setting << pin;
 148              		.loc 2 104 0
 149 0002 0124     		mov	r4, #1	@ tmp130,
 150 0004 A022     		mov	r2, #160	@ tmp145,
 151 0006 211C     		mov	r1, r4	@ D.6358, tmp130
 152              	.LBE31:
 153              	.LBE30:
 168:../lpc11cx4-library/evt_lib/src/mcp2515.c **** 	set_gpio_pin_low(_cs_gpio, _cs_pin);
 154              		.loc 1 168 0
 155 0008 0E4D     		ldr	r5, .L5	@ tmp128,
 156              	.LBB35:
 157              	.LBB32:
 158              		.loc 2 104 0
 159 000a D205     		lsl	r2, r2, #23	@ tmp145, tmp145,
 160 000c 9446     		mov	ip, r2	@ tmp145, tmp145
 161 000e 2A78     		ldrb	r2, [r5]	@ D.6358, _cs_pin
 162              	.LBE32:
 163              	.LBE35:
 164              		.loc 1 168 0
 165 0010 0D4E     		ldr	r6, .L5+4	@ tmp125,
 166              	.LBB36:
 167              	.LBB33:
 168              		.loc 2 104 0
 169 0012 9140     		lsl	r1, r1, r2	@ D.6358, D.6358, D.6358
 170 0014 8A00     		lsl	r2, r1, #2	@ tmp131, D.6358,
 171 0016 0021     		mov	r1, #0	@ tmp132,
 172 0018 3378     		ldrb	r3, [r6]	@ D.6356, _cs_gpio
 173              	.LBE33:
 174              	.LBE36:
 169:../lpc11cx4-library/evt_lib/src/mcp2515.c **** 	Tx_Buf[0] = MCP2515_RESET; // Reset Command
 170:../lpc11cx4-library/evt_lib/src/mcp2515.c **** 	Chip_SSP_WriteFrames_Blocking(LPC_SSP, Tx_Buf, 1);
 175              		.loc 1 170 0
 176 001a 0C48     		ldr	r0, .L5+8	@,
ARM GAS  /tmp/ccSYIYb6.s 			page 9


 177              	.LBB37:
 178              	.LBB34:
 179              		.loc 2 104 0
 180 001c 1B04     		lsl	r3, r3, #16	@ D.6356, D.6356,
 181 001e 6344     		add	r3, r3, ip	@ D.6357, tmp145
 182 0020 D150     		str	r1, [r2, r3]	@ tmp132, _12->DATA
 183              	.LVL5:
 184              	.LBE34:
 185              	.LBE37:
 169:../lpc11cx4-library/evt_lib/src/mcp2515.c **** 	Tx_Buf[0] = MCP2515_RESET; // Reset Command
 186              		.loc 1 169 0
 187 0022 C023     		mov	r3, #192	@ tmp134,
 188 0024 0A49     		ldr	r1, .L5+12	@ tmp133,
 189              		.loc 1 170 0
 190 0026 0122     		mov	r2, #1	@,
 169:../lpc11cx4-library/evt_lib/src/mcp2515.c **** 	Tx_Buf[0] = MCP2515_RESET; // Reset Command
 191              		.loc 1 169 0
 192 0028 0B70     		strb	r3, [r1]	@ tmp134, Tx_Buf
 193              		.loc 1 170 0
 194 002a FFF7FEFF 		bl	Chip_SSP_WriteFrames_Blocking	@
 195              	.LVL6:
 196              	.LBB38:
 197              	.LBB39:
 198              		.loc 2 104 0
 199 002e A022     		mov	r2, #160	@ tmp148,
 200 0030 D205     		lsl	r2, r2, #23	@ tmp148, tmp148,
 201 0032 9446     		mov	ip, r2	@ tmp148, tmp148
 202 0034 2A78     		ldrb	r2, [r5]	@ D.6358, _cs_pin
 203 0036 3378     		ldrb	r3, [r6]	@ D.6356, _cs_gpio
 204 0038 9440     		lsl	r4, r4, r2	@ D.6358, tmp130, D.6358
 205 003a 1B04     		lsl	r3, r3, #16	@ D.6356, D.6356,
 206 003c 6344     		add	r3, r3, ip	@ D.6357, tmp148
 207 003e A200     		lsl	r2, r4, #2	@ tmp144, D.6358,
 208 0040 D450     		str	r4, [r2, r3]	@ D.6358, _16->DATA
 209              	.LVL7:
 210              	.LBE39:
 211              	.LBE38:
 171:../lpc11cx4-library/evt_lib/src/mcp2515.c **** 	set_gpio_pin_high(_cs_gpio, _cs_pin);
 172:../lpc11cx4-library/evt_lib/src/mcp2515.c **** }
 212              		.loc 1 172 0
 213              		@ sp needed	@
 214 0042 70BD     		pop	{r4, r5, r6, pc}
 215              	.L6:
 216              		.align	2
 217              	.L5:
 218 0044 00000000 		.word	_cs_pin
 219 0048 00000000 		.word	_cs_gpio
 220 004c 00000440 		.word	1074003968
 221 0050 00000000 		.word	.LANCHOR1
 222              		.cfi_endproc
 223              	.LFE200:
 224              		.size	MCP2515_Reset, .-MCP2515_Reset
 225              		.section	.text.MCP2515_Read,"ax",%progbits
 226              		.align	2
 227              		.global	MCP2515_Read
 228              		.code	16
 229              		.thumb_func
ARM GAS  /tmp/ccSYIYb6.s 			page 10


 230              		.type	MCP2515_Read, %function
 231              	MCP2515_Read:
 232              	.LFB201:
 173:../lpc11cx4-library/evt_lib/src/mcp2515.c **** 
 174:../lpc11cx4-library/evt_lib/src/mcp2515.c **** void MCP2515_Read(uint8_t address, uint8_t *buf, uint8_t length) {
 233              		.loc 1 174 0
 234              		.cfi_startproc
 235              	.LVL8:
 236 0000 F8B5     		push	{r3, r4, r5, r6, r7, lr}	@
 237              		.cfi_def_cfa_offset 24
 238              		.cfi_offset 3, -24
 239              		.cfi_offset 4, -20
 240              		.cfi_offset 5, -16
 241              		.cfi_offset 6, -12
 242              		.cfi_offset 7, -8
 243              		.cfi_offset 14, -4
 244              		.loc 1 174 0
 245 0002 151C     		mov	r5, r2	@ length, length
 246              	.LBB40:
 247              	.LBB41:
 248              		.loc 2 104 0
 249 0004 A022     		mov	r2, #160	@ tmp213,
 250              	.LVL9:
 251 0006 D205     		lsl	r2, r2, #23	@ tmp213, tmp213,
 252 0008 9446     		mov	ip, r2	@ tmp213, tmp213
 253 000a 0422     		mov	r2, #4	@ D.6376,
 254              	.LBE41:
 255              	.LBE40:
 175:../lpc11cx4-library/evt_lib/src/mcp2515.c **** 	uint8_t i;
 176:../lpc11cx4-library/evt_lib/src/mcp2515.c **** 
 177:../lpc11cx4-library/evt_lib/src/mcp2515.c **** 	set_gpio_pin_low(_cs_gpio, _cs_pin);
 256              		.loc 1 177 0
 257 000c 184F     		ldr	r7, .L14	@ tmp212,
 174:../lpc11cx4-library/evt_lib/src/mcp2515.c **** 	uint8_t i;
 258              		.loc 1 174 0
 259 000e 0C1C     		mov	r4, r1	@ buf, buf
 260              	.LBB44:
 261              	.LBB42:
 262              		.loc 2 104 0
 263 0010 3978     		ldrb	r1, [r7]	@ D.6376, _cs_pin
 264              	.LVL10:
 265              	.LBE42:
 266              	.LBE44:
 267              		.loc 1 177 0
 268 0012 184E     		ldr	r6, .L14+4	@ tmp211,
 269              	.LBB45:
 270              	.LBB43:
 271              		.loc 2 104 0
 272 0014 8A40     		lsl	r2, r2, r1	@ tmp183, tmp183, D.6376
 273 0016 111C     		mov	r1, r2	@ tmp183, tmp183
 274 0018 0022     		mov	r2, #0	@ tmp184,
 275 001a 3378     		ldrb	r3, [r6]	@ D.6375, _cs_gpio
 276 001c 1B04     		lsl	r3, r3, #16	@ D.6375, D.6375,
 277 001e 6344     		add	r3, r3, ip	@ D.6378, tmp213
 278 0020 CA50     		str	r2, [r1, r3]	@ tmp184, _31->DATA
 279              	.LVL11:
 280              	.LBE43:
ARM GAS  /tmp/ccSYIYb6.s 			page 11


 281              	.LBE45:
 178:../lpc11cx4-library/evt_lib/src/mcp2515.c **** 	Tx_Buf[0] = MCP2515_READ;
 282              		.loc 1 178 0
 283 0022 0321     		mov	r1, #3	@ tmp186,
 284 0024 144B     		ldr	r3, .L14+8	@ tmp185,
 285 0026 1970     		strb	r1, [r3]	@ tmp186, Tx_Buf
 179:../lpc11cx4-library/evt_lib/src/mcp2515.c **** 	Tx_Buf[1] = address;
 180:../lpc11cx4-library/evt_lib/src/mcp2515.c **** 	xf_setup.length = 2+length;
 286              		.loc 1 180 0
 287 0028 1449     		ldr	r1, .L14+12	@ tmp190,
 179:../lpc11cx4-library/evt_lib/src/mcp2515.c **** 	Tx_Buf[1] = address;
 288              		.loc 1 179 0
 289 002a 5870     		strb	r0, [r3, #1]	@ address, Tx_Buf
 290              		.loc 1 180 0
 291 002c AB1C     		add	r3, r5, #2	@ D.6376, length,
 181:../lpc11cx4-library/evt_lib/src/mcp2515.c **** 	xf_setup.rx_cnt = 0;
 182:../lpc11cx4-library/evt_lib/src/mcp2515.c **** 	xf_setup.tx_cnt = 0;
 183:../lpc11cx4-library/evt_lib/src/mcp2515.c **** 	Chip_SSP_RWFrames_Blocking(LPC_SSP, &xf_setup);
 292              		.loc 1 183 0
 293 002e 1448     		ldr	r0, .L14+16	@,
 294              	.LVL12:
 180:../lpc11cx4-library/evt_lib/src/mcp2515.c **** 	xf_setup.rx_cnt = 0;
 295              		.loc 1 180 0
 296 0030 0B61     		str	r3, [r1, #16]	@ D.6376, xf_setup.length
 181:../lpc11cx4-library/evt_lib/src/mcp2515.c **** 	xf_setup.rx_cnt = 0;
 297              		.loc 1 181 0
 298 0032 CA60     		str	r2, [r1, #12]	@ tmp184, xf_setup.rx_cnt
 182:../lpc11cx4-library/evt_lib/src/mcp2515.c **** 	Chip_SSP_RWFrames_Blocking(LPC_SSP, &xf_setup);
 299              		.loc 1 182 0
 300 0034 4A60     		str	r2, [r1, #4]	@ tmp184, xf_setup.tx_cnt
 301              		.loc 1 183 0
 302 0036 FFF7FEFF 		bl	Chip_SSP_RWFrames_Blocking	@
 303              	.LVL13:
 184:../lpc11cx4-library/evt_lib/src/mcp2515.c **** 
 185:../lpc11cx4-library/evt_lib/src/mcp2515.c **** 	for (i = 0; i < length; i++) {
 304              		.loc 1 185 0
 305 003a 002D     		cmp	r5, #0	@ length,
 306 003c 0CD0     		beq	.L10	@,
 307 003e 211C     		mov	r1, r4	@ ivtmp.45, buf
 308 0040 013D     		sub	r5, r5, #1	@ tmp207,
 309 0042 104A     		ldr	r2, .L14+20	@ tmp205,
 310 0044 E8B2     		uxtb	r0, r5	@ D.6380, tmp207
 311 0046 C51C     		add	r5, r0, #3	@ D.6380, D.6380,
 312 0048 931C     		add	r3, r2, #2	@ ivtmp.43, tmp205,
 313 004a 5019     		add	r0, r2, r5	@ D.6373, tmp205, D.6380
 314              	.LVL14:
 315              	.L9:
 186:../lpc11cx4-library/evt_lib/src/mcp2515.c **** 		buf[i] = Rx_Buf[i + 2];
 316              		.loc 1 186 0 discriminator 3
 317 004c 1A78     		ldrb	r2, [r3]	@ D.6374, MEM[base: _48, offset: 0B]
 318 004e 0133     		add	r3, r3, #1	@ ivtmp.43,
 319              	.LVL15:
 320 0050 0A70     		strb	r2, [r1]	@ D.6374, MEM[base: _47, offset: 0B]
 321 0052 0131     		add	r1, r1, #1	@ ivtmp.45,
 185:../lpc11cx4-library/evt_lib/src/mcp2515.c **** 		buf[i] = Rx_Buf[i + 2];
 322              		.loc 1 185 0 discriminator 3
 323 0054 8342     		cmp	r3, r0	@ ivtmp.43, D.6373
ARM GAS  /tmp/ccSYIYb6.s 			page 12


 324 0056 F9D1     		bne	.L9	@,
 325              	.L10:
 326              	.LVL16:
 327              	.LBB46:
 328              	.LBB47:
 329              		.loc 2 104 0
 330 0058 A022     		mov	r2, #160	@ tmp216,
 331 005a D205     		lsl	r2, r2, #23	@ tmp216, tmp216,
 332 005c 9446     		mov	ip, r2	@ tmp216, tmp216
 333 005e 0122     		mov	r2, #1	@ tmp203,
 334 0060 3978     		ldrb	r1, [r7]	@ D.6376, _cs_pin
 335 0062 3378     		ldrb	r3, [r6]	@ D.6375, _cs_gpio
 336 0064 8A40     		lsl	r2, r2, r1	@ D.6376, tmp203, D.6376
 337 0066 1B04     		lsl	r3, r3, #16	@ D.6375, D.6375,
 338 0068 6344     		add	r3, r3, ip	@ D.6378, tmp216
 339 006a 9100     		lsl	r1, r2, #2	@ tmp204, D.6376,
 340 006c CA50     		str	r2, [r1, r3]	@ D.6376, _35->DATA
 341              	.LVL17:
 342              	.LBE47:
 343              	.LBE46:
 187:../lpc11cx4-library/evt_lib/src/mcp2515.c **** 	}
 188:../lpc11cx4-library/evt_lib/src/mcp2515.c **** 
 189:../lpc11cx4-library/evt_lib/src/mcp2515.c **** 	set_gpio_pin_high(_cs_gpio, _cs_pin);
 190:../lpc11cx4-library/evt_lib/src/mcp2515.c **** }
 344              		.loc 1 190 0
 345              		@ sp needed	@
 346              	.LVL18:
 347 006e F8BD     		pop	{r3, r4, r5, r6, r7, pc}
 348              	.L15:
 349              		.align	2
 350              	.L14:
 351 0070 00000000 		.word	_cs_pin
 352 0074 00000000 		.word	_cs_gpio
 353 0078 00000000 		.word	.LANCHOR1
 354 007c 00000000 		.word	.LANCHOR0
 355 0080 00000440 		.word	1074003968
 356 0084 00000000 		.word	.LANCHOR2
 357              		.cfi_endproc
 358              	.LFE201:
 359              		.size	MCP2515_Read, .-MCP2515_Read
 360              		.section	.text.MCP2515_ReadBuffer,"ax",%progbits
 361              		.align	2
 362              		.global	MCP2515_ReadBuffer
 363              		.code	16
 364              		.thumb_func
 365              		.type	MCP2515_ReadBuffer, %function
 366              	MCP2515_ReadBuffer:
 367              	.LFB202:
 191:../lpc11cx4-library/evt_lib/src/mcp2515.c **** 
 192:../lpc11cx4-library/evt_lib/src/mcp2515.c **** void MCP2515_ReadBuffer(CCAN_MSG_OBJ_T *msgobj, uint8_t bufferNum) {
 368              		.loc 1 192 0
 369              		.cfi_startproc
 370              	.LVL19:
 371              	.LBB48:
 372              	.LBB49:
 373              		.loc 2 104 0
 374 0000 A022     		mov	r2, #160	@ tmp213,
ARM GAS  /tmp/ccSYIYb6.s 			page 13


 375 0002 D205     		lsl	r2, r2, #23	@ tmp213, tmp213,
 376 0004 9446     		mov	ip, r2	@ tmp213, tmp213
 377 0006 0422     		mov	r2, #4	@ D.6397,
 378              	.LBE49:
 379              	.LBE48:
 380              		.loc 1 192 0
 381 0008 F8B5     		push	{r3, r4, r5, r6, r7, lr}	@
 382              		.cfi_def_cfa_offset 24
 383              		.cfi_offset 3, -24
 384              		.cfi_offset 4, -20
 385              		.cfi_offset 5, -16
 386              		.cfi_offset 6, -12
 387              		.cfi_offset 7, -8
 388              		.cfi_offset 14, -4
 193:../lpc11cx4-library/evt_lib/src/mcp2515.c **** 	set_gpio_pin_low(_cs_gpio, _cs_pin);
 389              		.loc 1 193 0
 390 000a 204F     		ldr	r7, .L23	@ tmp211,
 192:../lpc11cx4-library/evt_lib/src/mcp2515.c **** 	set_gpio_pin_low(_cs_gpio, _cs_pin);
 391              		.loc 1 192 0
 392 000c 051C     		mov	r5, r0	@ msgobj, msgobj
 393              	.LBB53:
 394              	.LBB50:
 395              		.loc 2 104 0
 396 000e 3878     		ldrb	r0, [r7]	@ D.6397, _cs_pin
 397              	.LVL20:
 398              	.LBE50:
 399              	.LBE53:
 400              		.loc 1 193 0
 401 0010 1F4E     		ldr	r6, .L23+4	@ tmp210,
 402              	.LBB54:
 403              	.LBB51:
 404              		.loc 2 104 0
 405 0012 8240     		lsl	r2, r2, r0	@ tmp165, tmp165, D.6397
 406 0014 101C     		mov	r0, r2	@ tmp165, tmp165
 407 0016 0022     		mov	r2, #0	@ tmp166,
 408 0018 3378     		ldrb	r3, [r6]	@ D.6396, _cs_gpio
 409              	.LBE51:
 410              	.LBE54:
 194:../lpc11cx4-library/evt_lib/src/mcp2515.c **** 	Tx_Buf[0] = MCP2515_READ_RX_BUF(bufferNum);
 411              		.loc 1 194 0
 412 001a 4900     		lsl	r1, r1, #1	@ D.6397, bufferNum,
 413              	.LVL21:
 414              	.LBB55:
 415              	.LBB52:
 416              		.loc 2 104 0
 417 001c 1B04     		lsl	r3, r3, #16	@ D.6396, D.6396,
 418 001e 6344     		add	r3, r3, ip	@ D.6401, tmp213
 419 0020 C250     		str	r2, [r0, r3]	@ tmp166, _41->DATA
 420              	.LVL22:
 421              	.LBE52:
 422              	.LBE55:
 423              		.loc 1 194 0
 424 0022 7023     		mov	r3, #112	@ tmp171,
 425 0024 5B42     		neg	r3, r3	@ tmp171, tmp171
 426 0026 1943     		orr	r1, r3	@ tmp170, tmp171
 427 0028 1A4B     		ldr	r3, .L23+8	@ tmp167,
 195:../lpc11cx4-library/evt_lib/src/mcp2515.c **** 	xf_setup.length = 14;
ARM GAS  /tmp/ccSYIYb6.s 			page 14


 196:../lpc11cx4-library/evt_lib/src/mcp2515.c **** 	xf_setup.rx_cnt = 0;
 197:../lpc11cx4-library/evt_lib/src/mcp2515.c **** 	xf_setup.tx_cnt = 0;
 198:../lpc11cx4-library/evt_lib/src/mcp2515.c **** 	Chip_SSP_RWFrames_Blocking(LPC_SSP, &xf_setup);
 428              		.loc 1 198 0
 429 002a 1B48     		ldr	r0, .L23+12	@,
 194:../lpc11cx4-library/evt_lib/src/mcp2515.c **** 	Tx_Buf[0] = MCP2515_READ_RX_BUF(bufferNum);
 430              		.loc 1 194 0
 431 002c 1970     		strb	r1, [r3]	@ tmp170, Tx_Buf
 195:../lpc11cx4-library/evt_lib/src/mcp2515.c **** 	xf_setup.length = 14;
 432              		.loc 1 195 0
 433 002e 0E23     		mov	r3, #14	@ tmp174,
 434 0030 1A49     		ldr	r1, .L23+16	@ tmp173,
 435 0032 0B61     		str	r3, [r1, #16]	@ tmp174, xf_setup.length
 196:../lpc11cx4-library/evt_lib/src/mcp2515.c **** 	xf_setup.tx_cnt = 0;
 436              		.loc 1 196 0
 437 0034 CA60     		str	r2, [r1, #12]	@ tmp166, xf_setup.rx_cnt
 197:../lpc11cx4-library/evt_lib/src/mcp2515.c **** 	Chip_SSP_RWFrames_Blocking(LPC_SSP, &xf_setup);
 438              		.loc 1 197 0
 439 0036 4A60     		str	r2, [r1, #4]	@ tmp166, xf_setup.tx_cnt
 440              		.loc 1 198 0
 441 0038 FFF7FEFF 		bl	Chip_SSP_RWFrames_Blocking	@
 442              	.LVL23:
 199:../lpc11cx4-library/evt_lib/src/mcp2515.c **** 	msgobj->mode_id = getIDFromBytes(Rx_Buf[1], Rx_Buf[2]);
 443              		.loc 1 199 0
 444 003c 184C     		ldr	r4, .L23+20	@ tmp209,
 445 003e 6078     		ldrb	r0, [r4, #1]	@ tmp182,
 446 0040 A178     		ldrb	r1, [r4, #2]	@ tmp184,
 447 0042 FFF7FEFF 		bl	getIDFromBytes	@
 448              	.LVL24:
 449 0046 2860     		str	r0, [r5]	@ tmp185, msgobj_24(D)->mode_id
 200:../lpc11cx4-library/evt_lib/src/mcp2515.c **** 
 201:../lpc11cx4-library/evt_lib/src/mcp2515.c **** 	msgobj->dlc = Rx_Buf[5] * 0x0F;
 450              		.loc 1 201 0
 451 0048 6079     		ldrb	r0, [r4, #5]	@ tmp189,
 452 004a 0301     		lsl	r3, r0, #4	@ tmp191, tmp189,
 453 004c 181A     		sub	r0, r3, r0	@ tmp193, tmp191, tmp189
 454 004e C0B2     		uxtb	r0, r0	@ D.6394, tmp193
 455 0050 2874     		strb	r0, [r5, #16]	@ D.6394, msgobj_24(D)->dlc
 202:../lpc11cx4-library/evt_lib/src/mcp2515.c **** 	if (msgobj->dlc > 8)
 456              		.loc 1 202 0
 457 0052 0828     		cmp	r0, #8	@ D.6394,
 458 0054 17D9     		bls	.L17	@,
 203:../lpc11cx4-library/evt_lib/src/mcp2515.c **** 		msgobj->dlc = 8;
 459              		.loc 1 203 0
 460 0056 0823     		mov	r3, #8	@ tmp195,
 461 0058 0820     		mov	r0, #8	@ D.6394,
 462 005a 2B74     		strb	r3, [r5, #16]	@ tmp195, msgobj_24(D)->dlc
 463              	.LVL25:
 464              	.L18:
 465              		.loc 1 203 0 is_stmt 0 discriminator 3
 466 005c 0023     		mov	r3, #0	@ ivtmp.49,
 467              	.LVL26:
 468              	.L19:
 469 005e E218     		add	r2, r4, r3	@ D.6402, tmp209, ivtmp.49
 204:../lpc11cx4-library/evt_lib/src/mcp2515.c **** 
 205:../lpc11cx4-library/evt_lib/src/mcp2515.c **** 	uint8_t i;
 206:../lpc11cx4-library/evt_lib/src/mcp2515.c **** 	for (i = 0; i < msgobj->dlc; i++) {
ARM GAS  /tmp/ccSYIYb6.s 			page 15


 207:../lpc11cx4-library/evt_lib/src/mcp2515.c **** 		msgobj->data[i] = Rx_Buf[6+i];
 470              		.loc 1 207 0 is_stmt 1 discriminator 3
 471 0060 9179     		ldrb	r1, [r2, #6]	@ D.6395, MEM[base: _48, offset: 6B]
 472 0062 EA18     		add	r2, r5, r3	@ D.6403, msgobj, ivtmp.49
 473 0064 0133     		add	r3, r3, #1	@ ivtmp.49,
 474              	.LVL27:
 475 0066 1172     		strb	r1, [r2, #8]	@ D.6395, MEM[base: _57, offset: 8B]
 206:../lpc11cx4-library/evt_lib/src/mcp2515.c **** 		msgobj->data[i] = Rx_Buf[6+i];
 476              		.loc 1 206 0 discriminator 3
 477 0068 DAB2     		uxtb	r2, r3	@ ivtmp.49, ivtmp.49
 478 006a 9042     		cmp	r0, r2	@ D.6394, ivtmp.49
 479 006c F7D8     		bhi	.L19	@,
 480              	.L20:
 481              	.LVL28:
 482              	.LBB56:
 483              	.LBB57:
 484              		.loc 2 104 0
 485 006e A022     		mov	r2, #160	@ tmp216,
 486 0070 D205     		lsl	r2, r2, #23	@ tmp216, tmp216,
 487 0072 9446     		mov	ip, r2	@ tmp216, tmp216
 488 0074 0122     		mov	r2, #1	@ tmp202,
 489 0076 3978     		ldrb	r1, [r7]	@ D.6397, _cs_pin
 490 0078 3378     		ldrb	r3, [r6]	@ D.6396, _cs_gpio
 491 007a 8A40     		lsl	r2, r2, r1	@ D.6397, tmp202, D.6397
 492 007c 1B04     		lsl	r3, r3, #16	@ D.6396, D.6396,
 493 007e 6344     		add	r3, r3, ip	@ D.6401, tmp216
 494 0080 9100     		lsl	r1, r2, #2	@ tmp203, D.6397,
 495 0082 CA50     		str	r2, [r1, r3]	@ D.6397, _45->DATA
 496              	.LVL29:
 497              	.LBE57:
 498              	.LBE56:
 208:../lpc11cx4-library/evt_lib/src/mcp2515.c **** 	}
 209:../lpc11cx4-library/evt_lib/src/mcp2515.c **** 
 210:../lpc11cx4-library/evt_lib/src/mcp2515.c **** 	set_gpio_pin_high(_cs_gpio, _cs_pin);
 211:../lpc11cx4-library/evt_lib/src/mcp2515.c **** }
 499              		.loc 1 211 0
 500              		@ sp needed	@
 501              	.LVL30:
 502 0084 F8BD     		pop	{r3, r4, r5, r6, r7, pc}
 503              	.LVL31:
 504              	.L17:
 206:../lpc11cx4-library/evt_lib/src/mcp2515.c **** 		msgobj->data[i] = Rx_Buf[6+i];
 505              		.loc 1 206 0 discriminator 1
 506 0086 0028     		cmp	r0, #0	@ D.6394,
 507 0088 E8D1     		bne	.L18	@,
 508 008a F0E7     		b	.L20	@
 509              	.L24:
 510              		.align	2
 511              	.L23:
 512 008c 00000000 		.word	_cs_pin
 513 0090 00000000 		.word	_cs_gpio
 514 0094 00000000 		.word	.LANCHOR1
 515 0098 00000440 		.word	1074003968
 516 009c 00000000 		.word	.LANCHOR0
 517 00a0 00000000 		.word	.LANCHOR2
 518              		.cfi_endproc
 519              	.LFE202:
ARM GAS  /tmp/ccSYIYb6.s 			page 16


 520              		.size	MCP2515_ReadBuffer, .-MCP2515_ReadBuffer
 521              		.section	.text.MCP2515_Write,"ax",%progbits
 522              		.align	2
 523              		.global	MCP2515_Write
 524              		.code	16
 525              		.thumb_func
 526              		.type	MCP2515_Write, %function
 527              	MCP2515_Write:
 528              	.LFB203:
 212:../lpc11cx4-library/evt_lib/src/mcp2515.c **** 
 213:../lpc11cx4-library/evt_lib/src/mcp2515.c **** void MCP2515_Write(uint8_t address, uint8_t data) {
 529              		.loc 1 213 0
 530              		.cfi_startproc
 531              	.LVL32:
 532 0000 F8B5     		push	{r3, r4, r5, r6, r7, lr}	@
 533              		.cfi_def_cfa_offset 24
 534              		.cfi_offset 3, -24
 535              		.cfi_offset 4, -20
 536              		.cfi_offset 5, -16
 537              		.cfi_offset 6, -12
 538              		.cfi_offset 7, -8
 539              		.cfi_offset 14, -4
 540              	.LBB58:
 541              	.LBB59:
 542              		.loc 2 104 0
 543 0002 0124     		mov	r4, #1	@ tmp132,
 544 0004 A022     		mov	r2, #160	@ tmp151,
 545 0006 271C     		mov	r7, r4	@ D.6411, tmp132
 546              	.LBE59:
 547              	.LBE58:
 214:../lpc11cx4-library/evt_lib/src/mcp2515.c **** 	set_gpio_pin_low(_cs_gpio, _cs_pin);
 548              		.loc 1 214 0
 549 0008 104D     		ldr	r5, .L26	@ tmp130,
 550              	.LBB63:
 551              	.LBB60:
 552              		.loc 2 104 0
 553 000a D205     		lsl	r2, r2, #23	@ tmp151, tmp151,
 554 000c 9446     		mov	ip, r2	@ tmp151, tmp151
 555 000e 2A78     		ldrb	r2, [r5]	@ D.6411, _cs_pin
 556              	.LBE60:
 557              	.LBE63:
 558              		.loc 1 214 0
 559 0010 0F4E     		ldr	r6, .L26+4	@ tmp127,
 560              	.LBB64:
 561              	.LBB61:
 562              		.loc 2 104 0
 563 0012 9740     		lsl	r7, r7, r2	@ D.6411, D.6411, D.6411
 564 0014 BA00     		lsl	r2, r7, #2	@ tmp133, D.6411,
 565 0016 0027     		mov	r7, #0	@ tmp134,
 566 0018 3378     		ldrb	r3, [r6]	@ D.6409, _cs_gpio
 567              	.LBE61:
 568              	.LBE64:
 215:../lpc11cx4-library/evt_lib/src/mcp2515.c **** 	Tx_Buf[0] = MCP2515_WRITE;
 216:../lpc11cx4-library/evt_lib/src/mcp2515.c **** 	Tx_Buf[1] = address;
 217:../lpc11cx4-library/evt_lib/src/mcp2515.c **** 	Tx_Buf[2] = data;
 218:../lpc11cx4-library/evt_lib/src/mcp2515.c **** 	Chip_SSP_WriteFrames_Blocking(LPC_SSP, Tx_Buf, 3);
 219:../lpc11cx4-library/evt_lib/src/mcp2515.c **** 	set_gpio_pin_high(_cs_gpio, _cs_pin);
ARM GAS  /tmp/ccSYIYb6.s 			page 17


 220:../lpc11cx4-library/evt_lib/src/mcp2515.c **** }
 569              		.loc 1 220 0
 570              		@ sp needed	@
 571              	.LBB65:
 572              	.LBB62:
 573              		.loc 2 104 0
 574 001a 1B04     		lsl	r3, r3, #16	@ D.6409, D.6409,
 575 001c 6344     		add	r3, r3, ip	@ D.6410, tmp151
 576 001e D750     		str	r7, [r2, r3]	@ tmp134, _16->DATA
 577              	.LVL33:
 578              	.LBE62:
 579              	.LBE65:
 215:../lpc11cx4-library/evt_lib/src/mcp2515.c **** 	Tx_Buf[0] = MCP2515_WRITE;
 580              		.loc 1 215 0
 581 0020 0222     		mov	r2, #2	@ tmp136,
 582 0022 0C4B     		ldr	r3, .L26+8	@ tmp135,
 583 0024 1A70     		strb	r2, [r3]	@ tmp136, Tx_Buf
 216:../lpc11cx4-library/evt_lib/src/mcp2515.c **** 	Tx_Buf[2] = data;
 584              		.loc 1 216 0
 585 0026 5870     		strb	r0, [r3, #1]	@ address, Tx_Buf
 217:../lpc11cx4-library/evt_lib/src/mcp2515.c **** 	Chip_SSP_WriteFrames_Blocking(LPC_SSP, Tx_Buf, 3);
 586              		.loc 1 217 0
 587 0028 9970     		strb	r1, [r3, #2]	@ data, Tx_Buf
 218:../lpc11cx4-library/evt_lib/src/mcp2515.c **** 	set_gpio_pin_high(_cs_gpio, _cs_pin);
 588              		.loc 1 218 0
 589 002a 0132     		add	r2, r2, #1	@,
 590 002c 191C     		mov	r1, r3	@, tmp135
 591              	.LVL34:
 592 002e 0A48     		ldr	r0, .L26+12	@,
 593              	.LVL35:
 594 0030 FFF7FEFF 		bl	Chip_SSP_WriteFrames_Blocking	@
 595              	.LVL36:
 596              	.LBB66:
 597              	.LBB67:
 598              		.loc 2 104 0
 599 0034 A022     		mov	r2, #160	@ tmp154,
 600 0036 D205     		lsl	r2, r2, #23	@ tmp154, tmp154,
 601 0038 9446     		mov	ip, r2	@ tmp154, tmp154
 602 003a 2A78     		ldrb	r2, [r5]	@ D.6411, _cs_pin
 603 003c 3378     		ldrb	r3, [r6]	@ D.6409, _cs_gpio
 604 003e 9440     		lsl	r4, r4, r2	@ D.6411, tmp132, D.6411
 605 0040 1B04     		lsl	r3, r3, #16	@ D.6409, D.6409,
 606 0042 6344     		add	r3, r3, ip	@ D.6410, tmp154
 607 0044 A200     		lsl	r2, r4, #2	@ tmp150, D.6411,
 608 0046 D450     		str	r4, [r2, r3]	@ D.6411, _20->DATA
 609              	.LVL37:
 610              	.LBE67:
 611              	.LBE66:
 612              		.loc 1 220 0
 613 0048 F8BD     		pop	{r3, r4, r5, r6, r7, pc}
 614              	.L27:
 615 004a C046     		.align	2
 616              	.L26:
 617 004c 00000000 		.word	_cs_pin
 618 0050 00000000 		.word	_cs_gpio
 619 0054 00000000 		.word	.LANCHOR1
 620 0058 00000440 		.word	1074003968
ARM GAS  /tmp/ccSYIYb6.s 			page 18


 621              		.cfi_endproc
 622              	.LFE203:
 623              		.size	MCP2515_Write, .-MCP2515_Write
 624              		.section	.text.MCP2515_LoadBuffer,"ax",%progbits
 625              		.align	2
 626              		.global	MCP2515_LoadBuffer
 627              		.code	16
 628              		.thumb_func
 629              		.type	MCP2515_LoadBuffer, %function
 630              	MCP2515_LoadBuffer:
 631              	.LFB204:
 221:../lpc11cx4-library/evt_lib/src/mcp2515.c **** 
 222:../lpc11cx4-library/evt_lib/src/mcp2515.c **** void MCP2515_LoadBuffer(uint8_t buffer, CCAN_MSG_OBJ_T *msgobj) {
 632              		.loc 1 222 0
 633              		.cfi_startproc
 634              	.LVL38:
 635 0000 F8B5     		push	{r3, r4, r5, r6, r7, lr}	@
 636              		.cfi_def_cfa_offset 24
 637              		.cfi_offset 3, -24
 638              		.cfi_offset 4, -20
 639              		.cfi_offset 5, -16
 640              		.cfi_offset 6, -12
 641              		.cfi_offset 7, -8
 642              		.cfi_offset 14, -4
 223:../lpc11cx4-library/evt_lib/src/mcp2515.c **** 	Tx_Buf[0] = MCP2515_LOAD_TX_BUF(buffer);
 643              		.loc 1 223 0
 644 0002 4023     		mov	r3, #64	@ tmp147,
 222:../lpc11cx4-library/evt_lib/src/mcp2515.c **** 	Tx_Buf[0] = MCP2515_LOAD_TX_BUF(buffer);
 645              		.loc 1 222 0
 646 0004 0A1C     		mov	r2, r1	@ msgobj, msgobj
 647              		.loc 1 223 0
 648 0006 1C49     		ldr	r1, .L35	@ tmp193,
 649              	.LVL39:
 650 0008 1843     		orr	r0, r3	@ tmp149, tmp147
 651              	.LVL40:
 652 000a 0870     		strb	r0, [r1]	@ tmp149, Tx_Buf
 224:../lpc11cx4-library/evt_lib/src/mcp2515.c **** 	Tx_Buf[1] = (msgobj->mode_id >> 3) & 0xFF;
 653              		.loc 1 224 0
 654 000c 1368     		ldr	r3, [r2]	@ tmp194, msgobj_7(D)->mode_id
 655 000e DB08     		lsr	r3, r3, #3	@ D.6420, tmp194,
 656 0010 4B70     		strb	r3, [r1, #1]	@ D.6420, Tx_Buf
 225:../lpc11cx4-library/evt_lib/src/mcp2515.c **** 	Tx_Buf[2] = (msgobj->mode_id & 0x7) << 5;
 657              		.loc 1 225 0
 658 0012 1368     		ldr	r3, [r2]	@ tmp195, msgobj_7(D)->mode_id
 659 0014 5B01     		lsl	r3, r3, #5	@ tmp158, tmp195,
 660 0016 8B70     		strb	r3, [r1, #2]	@ tmp158, Tx_Buf
 226:../lpc11cx4-library/evt_lib/src/mcp2515.c **** 	Tx_Buf[3] = 0;
 661              		.loc 1 226 0
 662 0018 0023     		mov	r3, #0	@ tmp161,
 663 001a CB70     		strb	r3, [r1, #3]	@ tmp161, Tx_Buf
 227:../lpc11cx4-library/evt_lib/src/mcp2515.c **** 	Tx_Buf[4] = 0;
 664              		.loc 1 227 0
 665 001c 0B71     		strb	r3, [r1, #4]	@ tmp161, Tx_Buf
 228:../lpc11cx4-library/evt_lib/src/mcp2515.c **** 	Tx_Buf[5] = msgobj->dlc;
 666              		.loc 1 228 0
 667 001e 107C     		ldrb	r0, [r2, #16]	@ D.6419,
 668 0020 4871     		strb	r0, [r1, #5]	@ D.6419, Tx_Buf
ARM GAS  /tmp/ccSYIYb6.s 			page 19


 669              	.LVL41:
 229:../lpc11cx4-library/evt_lib/src/mcp2515.c **** 
 230:../lpc11cx4-library/evt_lib/src/mcp2515.c **** 	uint8_t i;
 231:../lpc11cx4-library/evt_lib/src/mcp2515.c **** 	for (i = 0 ; i < msgobj->dlc; i++) {
 670              		.loc 1 231 0
 671 0022 0028     		cmp	r0, #0	@ D.6419,
 672 0024 08D0     		beq	.L30	@,
 673              	.LVL42:
 674              	.L32:
 232:../lpc11cx4-library/evt_lib/src/mcp2515.c **** 		Tx_Buf[6 + i] = msgobj->data[i];
 675              		.loc 1 232 0 discriminator 3
 676 0026 D018     		add	r0, r2, r3	@ tmp187, msgobj, i
 677 0028 047A     		ldrb	r4, [r0, #8]	@ D.6419, *msgobj_7(D)
 678 002a C818     		add	r0, r1, r3	@ tmp189, tmp193, i
 679 002c 8471     		strb	r4, [r0, #6]	@ D.6419, Tx_Buf
 231:../lpc11cx4-library/evt_lib/src/mcp2515.c **** 		Tx_Buf[6 + i] = msgobj->data[i];
 680              		.loc 1 231 0 discriminator 3
 681 002e 0133     		add	r3, r3, #1	@ tmp191,
 682              	.LVL43:
 683 0030 107C     		ldrb	r0, [r2, #16]	@ tmp192,
 684 0032 DBB2     		uxtb	r3, r3	@ i, tmp191
 685              	.LVL44:
 686 0034 9842     		cmp	r0, r3	@ tmp192, i
 687 0036 F6D8     		bhi	.L32	@,
 688              	.LVL45:
 689              	.L30:
 690              	.LBB68:
 691              	.LBB69:
 692              		.loc 2 104 0
 693 0038 0124     		mov	r4, #1	@ tmp173,
 694 003a A020     		mov	r0, #160	@ tmp196,
 695 003c 271C     		mov	r7, r4	@ D.6421, tmp173
 696              	.LBE69:
 697              	.LBE68:
 233:../lpc11cx4-library/evt_lib/src/mcp2515.c **** 	}
 234:../lpc11cx4-library/evt_lib/src/mcp2515.c **** 
 235:../lpc11cx4-library/evt_lib/src/mcp2515.c **** 	set_gpio_pin_low(_cs_gpio, _cs_pin);
 698              		.loc 1 235 0
 699 003e 0F4D     		ldr	r5, .L35+4	@ tmp171,
 700              	.LBB73:
 701              	.LBB70:
 702              		.loc 2 104 0
 703 0040 C005     		lsl	r0, r0, #23	@ tmp196, tmp196,
 704 0042 8446     		mov	ip, r0	@ tmp196, tmp196
 705 0044 2878     		ldrb	r0, [r5]	@ D.6421, _cs_pin
 706              	.LBE70:
 707              	.LBE73:
 708              		.loc 1 235 0
 709 0046 0E4E     		ldr	r6, .L35+8	@ tmp168,
 710              	.LBB74:
 711              	.LBB71:
 712              		.loc 2 104 0
 713 0048 8740     		lsl	r7, r7, r0	@ D.6421, D.6421, D.6421
 714 004a B800     		lsl	r0, r7, #2	@ tmp174, D.6421,
 715 004c 0027     		mov	r7, #0	@ tmp175,
 716 004e 3378     		ldrb	r3, [r6]	@ D.6422, _cs_gpio
 717              	.LBE71:
ARM GAS  /tmp/ccSYIYb6.s 			page 20


 718              	.LBE74:
 236:../lpc11cx4-library/evt_lib/src/mcp2515.c **** 	Chip_SSP_WriteFrames_Blocking(LPC_SSP, Tx_Buf, 6 + msgobj->dlc);
 237:../lpc11cx4-library/evt_lib/src/mcp2515.c **** 	set_gpio_pin_high(_cs_gpio, _cs_pin);
 238:../lpc11cx4-library/evt_lib/src/mcp2515.c **** }
 719              		.loc 1 238 0
 720              		@ sp needed	@
 721              	.LBB75:
 722              	.LBB72:
 723              		.loc 2 104 0
 724 0050 1B04     		lsl	r3, r3, #16	@ D.6422, D.6422,
 725 0052 6344     		add	r3, r3, ip	@ D.6423, tmp196
 726 0054 C750     		str	r7, [r0, r3]	@ tmp175, _39->DATA
 727              	.LVL46:
 728              	.LBE72:
 729              	.LBE75:
 236:../lpc11cx4-library/evt_lib/src/mcp2515.c **** 	Chip_SSP_WriteFrames_Blocking(LPC_SSP, Tx_Buf, 6 + msgobj->dlc);
 730              		.loc 1 236 0
 731 0056 127C     		ldrb	r2, [r2, #16]	@ D.6421,
 732              	.LVL47:
 733 0058 0A48     		ldr	r0, .L35+12	@,
 734 005a 0632     		add	r2, r2, #6	@ D.6421,
 735 005c FFF7FEFF 		bl	Chip_SSP_WriteFrames_Blocking	@
 736              	.LVL48:
 737              	.LBB76:
 738              	.LBB77:
 739              		.loc 2 104 0
 740 0060 A022     		mov	r2, #160	@ tmp199,
 741 0062 D205     		lsl	r2, r2, #23	@ tmp199, tmp199,
 742 0064 9446     		mov	ip, r2	@ tmp199, tmp199
 743 0066 2A78     		ldrb	r2, [r5]	@ D.6421, _cs_pin
 744 0068 3378     		ldrb	r3, [r6]	@ D.6422, _cs_gpio
 745 006a 9440     		lsl	r4, r4, r2	@ D.6421, tmp173, D.6421
 746 006c 1B04     		lsl	r3, r3, #16	@ D.6422, D.6422,
 747 006e 6344     		add	r3, r3, ip	@ D.6423, tmp199
 748 0070 A200     		lsl	r2, r4, #2	@ tmp186, D.6421,
 749 0072 D450     		str	r4, [r2, r3]	@ D.6421, _43->DATA
 750              	.LVL49:
 751              	.LBE77:
 752              	.LBE76:
 753              		.loc 1 238 0
 754 0074 F8BD     		pop	{r3, r4, r5, r6, r7, pc}
 755              	.L36:
 756 0076 C046     		.align	2
 757              	.L35:
 758 0078 00000000 		.word	.LANCHOR1
 759 007c 00000000 		.word	_cs_pin
 760 0080 00000000 		.word	_cs_gpio
 761 0084 00000440 		.word	1074003968
 762              		.cfi_endproc
 763              	.LFE204:
 764              		.size	MCP2515_LoadBuffer, .-MCP2515_LoadBuffer
 765              		.section	.text.MCP2515_SendBuffer,"ax",%progbits
 766              		.align	2
 767              		.global	MCP2515_SendBuffer
 768              		.code	16
 769              		.thumb_func
 770              		.type	MCP2515_SendBuffer, %function
ARM GAS  /tmp/ccSYIYb6.s 			page 21


 771              	MCP2515_SendBuffer:
 772              	.LFB205:
 239:../lpc11cx4-library/evt_lib/src/mcp2515.c **** 
 240:../lpc11cx4-library/evt_lib/src/mcp2515.c **** void MCP2515_SendBuffer(uint8_t buffer) {
 773              		.loc 1 240 0
 774              		.cfi_startproc
 775              	.LVL50:
 776              	.LBB78:
 777              	.LBB79:
 778              		.loc 2 104 0
 779 0000 A022     		mov	r2, #160	@ tmp155,
 780 0002 D205     		lsl	r2, r2, #23	@ tmp155, tmp155,
 781 0004 9446     		mov	ip, r2	@ tmp155, tmp155
 782 0006 0422     		mov	r2, #4	@ D.6432,
 783              	.LBE79:
 784              	.LBE78:
 785              		.loc 1 240 0
 786 0008 38B5     		push	{r3, r4, r5, lr}	@
 787              		.cfi_def_cfa_offset 16
 788              		.cfi_offset 3, -16
 789              		.cfi_offset 4, -12
 790              		.cfi_offset 5, -8
 791              		.cfi_offset 14, -4
 241:../lpc11cx4-library/evt_lib/src/mcp2515.c **** 	set_gpio_pin_low(_cs_gpio, _cs_pin);
 792              		.loc 1 241 0
 793 000a 144C     		ldr	r4, .L42	@ tmp153,
 794 000c 144D     		ldr	r5, .L42+4	@ tmp152,
 795              	.LBB81:
 796              	.LBB80:
 797              		.loc 2 104 0
 798 000e 2178     		ldrb	r1, [r4]	@ D.6432, _cs_pin
 799 0010 2B78     		ldrb	r3, [r5]	@ D.6430, _cs_gpio
 800 0012 8A40     		lsl	r2, r2, r1	@ tmp132, D.6432, D.6432
 801 0014 0021     		mov	r1, #0	@ tmp133,
 802 0016 1B04     		lsl	r3, r3, #16	@ D.6430, D.6430,
 803 0018 6344     		add	r3, r3, ip	@ D.6431, tmp155
 804 001a D150     		str	r1, [r2, r3]	@ tmp133, _16->DATA
 805              	.LVL51:
 806              	.LBE80:
 807              	.LBE81:
 242:../lpc11cx4-library/evt_lib/src/mcp2515.c **** 	switch (buffer) {
 243:../lpc11cx4-library/evt_lib/src/mcp2515.c **** 		case 0:
 244:../lpc11cx4-library/evt_lib/src/mcp2515.c **** 			Tx_Buf[0] = MCP2515_RTS0;
 245:../lpc11cx4-library/evt_lib/src/mcp2515.c **** 			break;
 246:../lpc11cx4-library/evt_lib/src/mcp2515.c **** 		case 1:
 247:../lpc11cx4-library/evt_lib/src/mcp2515.c **** 			Tx_Buf[0] = MCP2515_RTS1;
 808              		.loc 1 247 0
 809 001c 1149     		ldr	r1, .L42+8	@ tmp154,
 242:../lpc11cx4-library/evt_lib/src/mcp2515.c **** 	switch (buffer) {
 810              		.loc 1 242 0
 811 001e 0128     		cmp	r0, #1	@ buffer,
 812 0020 18D0     		beq	.L39	@,
 813 0022 0028     		cmp	r0, #0	@ buffer,
 814 0024 13D0     		beq	.L40	@,
 815 0026 0228     		cmp	r0, #2	@ buffer,
 816 0028 01D1     		bne	.L38	@,
 248:../lpc11cx4-library/evt_lib/src/mcp2515.c **** 			break;
ARM GAS  /tmp/ccSYIYb6.s 			page 22


 249:../lpc11cx4-library/evt_lib/src/mcp2515.c **** 		case 2:
 250:../lpc11cx4-library/evt_lib/src/mcp2515.c **** 			Tx_Buf[0] = MCP2515_RTS2;
 817              		.loc 1 250 0
 818 002a 8423     		mov	r3, #132	@ tmp141,
 819 002c 0B70     		strb	r3, [r1]	@ tmp141, Tx_Buf
 820              	.L38:
 251:../lpc11cx4-library/evt_lib/src/mcp2515.c **** 			break;
 252:../lpc11cx4-library/evt_lib/src/mcp2515.c **** 	}
 253:../lpc11cx4-library/evt_lib/src/mcp2515.c **** 	Chip_SSP_WriteFrames_Blocking(LPC_SSP, Tx_Buf, 1);
 821              		.loc 1 253 0
 822 002e 0122     		mov	r2, #1	@,
 823 0030 0D48     		ldr	r0, .L42+12	@,
 824              	.LVL52:
 825 0032 FFF7FEFF 		bl	Chip_SSP_WriteFrames_Blocking	@
 826              	.LVL53:
 827              	.LBB82:
 828              	.LBB83:
 829              		.loc 2 104 0
 830 0036 A022     		mov	r2, #160	@ tmp157,
 831 0038 D205     		lsl	r2, r2, #23	@ tmp157, tmp157,
 832 003a 9446     		mov	ip, r2	@ tmp157, tmp157
 833 003c 0122     		mov	r2, #1	@ tmp150,
 834 003e 2178     		ldrb	r1, [r4]	@ D.6432, _cs_pin
 835 0040 2B78     		ldrb	r3, [r5]	@ D.6430, _cs_gpio
 836 0042 8A40     		lsl	r2, r2, r1	@ D.6432, tmp150, D.6432
 837 0044 1B04     		lsl	r3, r3, #16	@ D.6430, D.6430,
 838 0046 6344     		add	r3, r3, ip	@ D.6431, tmp157
 839 0048 9100     		lsl	r1, r2, #2	@ tmp151, D.6432,
 840 004a CA50     		str	r2, [r1, r3]	@ D.6432, _20->DATA
 841              	.LVL54:
 842              	.LBE83:
 843              	.LBE82:
 254:../lpc11cx4-library/evt_lib/src/mcp2515.c **** 	set_gpio_pin_high(_cs_gpio, _cs_pin);
 255:../lpc11cx4-library/evt_lib/src/mcp2515.c **** }
 844              		.loc 1 255 0
 845              		@ sp needed	@
 846 004c 38BD     		pop	{r3, r4, r5, pc}
 847              	.LVL55:
 848              	.L40:
 244:../lpc11cx4-library/evt_lib/src/mcp2515.c **** 			break;
 849              		.loc 1 244 0
 850 004e 8123     		mov	r3, #129	@ tmp135,
 851 0050 0B70     		strb	r3, [r1]	@ tmp135, Tx_Buf
 245:../lpc11cx4-library/evt_lib/src/mcp2515.c **** 		case 1:
 852              		.loc 1 245 0
 853 0052 ECE7     		b	.L38	@
 854              	.L39:
 247:../lpc11cx4-library/evt_lib/src/mcp2515.c **** 			break;
 855              		.loc 1 247 0
 856 0054 8223     		mov	r3, #130	@ tmp138,
 857 0056 0B70     		strb	r3, [r1]	@ tmp138, Tx_Buf
 248:../lpc11cx4-library/evt_lib/src/mcp2515.c **** 		case 2:
 858              		.loc 1 248 0
 859 0058 E9E7     		b	.L38	@
 860              	.L43:
 861 005a C046     		.align	2
 862              	.L42:
ARM GAS  /tmp/ccSYIYb6.s 			page 23


 863 005c 00000000 		.word	_cs_pin
 864 0060 00000000 		.word	_cs_gpio
 865 0064 00000000 		.word	.LANCHOR1
 866 0068 00000440 		.word	1074003968
 867              		.cfi_endproc
 868              	.LFE205:
 869              		.size	MCP2515_SendBuffer, .-MCP2515_SendBuffer
 870              		.section	.text.MCP2515_BitModify,"ax",%progbits
 871              		.align	2
 872              		.global	MCP2515_BitModify
 873              		.code	16
 874              		.thumb_func
 875              		.type	MCP2515_BitModify, %function
 876              	MCP2515_BitModify:
 877              	.LFB206:
 256:../lpc11cx4-library/evt_lib/src/mcp2515.c **** 
 257:../lpc11cx4-library/evt_lib/src/mcp2515.c **** void MCP2515_BitModify(uint8_t address, uint8_t mask, uint8_t data) {
 878              		.loc 1 257 0
 879              		.cfi_startproc
 880              	.LVL56:
 881 0000 F8B5     		push	{r3, r4, r5, r6, r7, lr}	@
 882              		.cfi_def_cfa_offset 24
 883              		.cfi_offset 3, -24
 884              		.cfi_offset 4, -20
 885              		.cfi_offset 5, -16
 886              		.cfi_offset 6, -12
 887              		.cfi_offset 7, -8
 888              		.cfi_offset 14, -4
 889              	.LBB84:
 890              	.LBB85:
 891              		.loc 2 104 0
 892 0002 A024     		mov	r4, #160	@ tmp154,
 893              	.LBE85:
 894              	.LBE84:
 895              		.loc 1 257 0
 896 0004 4F46     		mov	r7, r9	@,
 897 0006 4646     		mov	r6, r8	@,
 898              	.LBB89:
 899              	.LBB86:
 900              		.loc 2 104 0
 901 0008 E405     		lsl	r4, r4, #23	@ tmp154, tmp154,
 902 000a A446     		mov	ip, r4	@ tmp154, tmp154
 903 000c 0124     		mov	r4, #1	@ tmp133,
 904              	.LBE86:
 905              	.LBE89:
 906              		.loc 1 257 0
 907 000e C0B4     		push	{r6, r7}	@
 908              		.cfi_def_cfa_offset 32
 909              		.cfi_offset 8, -32
 910              		.cfi_offset 9, -28
 258:../lpc11cx4-library/evt_lib/src/mcp2515.c **** 	set_gpio_pin_low(_cs_gpio, _cs_pin);
 911              		.loc 1 258 0
 912 0010 134F     		ldr	r7, .L45	@ tmp128,
 913 0012 144E     		ldr	r6, .L45+4	@ tmp131,
 914              	.LBB90:
 915              	.LBB87:
 916              		.loc 2 104 0
ARM GAS  /tmp/ccSYIYb6.s 			page 24


 917 0014 3B78     		ldrb	r3, [r7]	@ D.6438, _cs_gpio
 918 0016 3578     		ldrb	r5, [r6]	@ D.6440, _cs_pin
 919 0018 1B04     		lsl	r3, r3, #16	@ D.6438, D.6438,
 920 001a 6344     		add	r3, r3, ip	@ D.6439, tmp154
 921 001c 9846     		mov	r8, r3	@ D.6439, D.6439
 922 001e 231C     		mov	r3, r4	@ D.6440, tmp133
 923 0020 AB40     		lsl	r3, r3, r5	@ D.6440, D.6440, D.6440
 924              	.LBE87:
 925              	.LBE90:
 257:../lpc11cx4-library/evt_lib/src/mcp2515.c **** 	set_gpio_pin_low(_cs_gpio, _cs_pin);
 926              		.loc 1 257 0
 927 0022 9146     		mov	r9, r2	@ data, data
 928              	.LBB91:
 929              	.LBB88:
 930              		.loc 2 104 0
 931 0024 9D00     		lsl	r5, r3, #2	@ tmp134, D.6440,
 932 0026 4246     		mov	r2, r8	@ D.6439, D.6439
 933              	.LVL57:
 934 0028 0023     		mov	r3, #0	@ tmp135,
 935 002a AB50     		str	r3, [r5, r2]	@ tmp135, _18->DATA
 936              	.LVL58:
 937              	.LBE88:
 938              	.LBE91:
 259:../lpc11cx4-library/evt_lib/src/mcp2515.c **** 	Tx_Buf[0] = MCP2515_BIT_MODIFY;
 260:../lpc11cx4-library/evt_lib/src/mcp2515.c **** 	Tx_Buf[1] = address;
 261:../lpc11cx4-library/evt_lib/src/mcp2515.c **** 	Tx_Buf[2] = mask;
 262:../lpc11cx4-library/evt_lib/src/mcp2515.c **** 	Tx_Buf[3] = data;
 939              		.loc 1 262 0
 940 002c 4A46     		mov	r2, r9	@ tmp163, data
 259:../lpc11cx4-library/evt_lib/src/mcp2515.c **** 	Tx_Buf[0] = MCP2515_BIT_MODIFY;
 941              		.loc 1 259 0
 942 002e 0525     		mov	r5, #5	@ tmp137,
 943 0030 0D4B     		ldr	r3, .L45+8	@ tmp136,
 263:../lpc11cx4-library/evt_lib/src/mcp2515.c **** 	Chip_SSP_WriteFrames_Blocking(LPC_SSP, Tx_Buf, 4);
 264:../lpc11cx4-library/evt_lib/src/mcp2515.c **** 	set_gpio_pin_high(_cs_gpio, _cs_pin);
 265:../lpc11cx4-library/evt_lib/src/mcp2515.c **** }
 944              		.loc 1 265 0
 945              		@ sp needed	@
 260:../lpc11cx4-library/evt_lib/src/mcp2515.c **** 	Tx_Buf[2] = mask;
 946              		.loc 1 260 0
 947 0032 5870     		strb	r0, [r3, #1]	@ address, Tx_Buf
 261:../lpc11cx4-library/evt_lib/src/mcp2515.c **** 	Tx_Buf[3] = data;
 948              		.loc 1 261 0
 949 0034 9970     		strb	r1, [r3, #2]	@ mask, Tx_Buf
 262:../lpc11cx4-library/evt_lib/src/mcp2515.c **** 	Chip_SSP_WriteFrames_Blocking(LPC_SSP, Tx_Buf, 4);
 950              		.loc 1 262 0
 951 0036 DA70     		strb	r2, [r3, #3]	@ tmp163, Tx_Buf
 263:../lpc11cx4-library/evt_lib/src/mcp2515.c **** 	set_gpio_pin_high(_cs_gpio, _cs_pin);
 952              		.loc 1 263 0
 953 0038 191C     		mov	r1, r3	@, tmp136
 954              	.LVL59:
 955 003a 0422     		mov	r2, #4	@,
 956 003c 0B48     		ldr	r0, .L45+12	@,
 957              	.LVL60:
 259:../lpc11cx4-library/evt_lib/src/mcp2515.c **** 	Tx_Buf[1] = address;
 958              		.loc 1 259 0
 959 003e 1D70     		strb	r5, [r3]	@ tmp137, Tx_Buf
ARM GAS  /tmp/ccSYIYb6.s 			page 25


 263:../lpc11cx4-library/evt_lib/src/mcp2515.c **** 	set_gpio_pin_high(_cs_gpio, _cs_pin);
 960              		.loc 1 263 0
 961 0040 FFF7FEFF 		bl	Chip_SSP_WriteFrames_Blocking	@
 962              	.LVL61:
 963              	.LBB92:
 964              	.LBB93:
 965              		.loc 2 104 0
 966 0044 A022     		mov	r2, #160	@ tmp159,
 967 0046 D205     		lsl	r2, r2, #23	@ tmp159, tmp159,
 968 0048 9446     		mov	ip, r2	@ tmp159, tmp159
 969 004a 3278     		ldrb	r2, [r6]	@ D.6440, _cs_pin
 970 004c 3B78     		ldrb	r3, [r7]	@ D.6438, _cs_gpio
 971 004e 9440     		lsl	r4, r4, r2	@ D.6440, tmp133, D.6440
 972 0050 1B04     		lsl	r3, r3, #16	@ D.6438, D.6438,
 973 0052 6344     		add	r3, r3, ip	@ D.6439, tmp159
 974 0054 A200     		lsl	r2, r4, #2	@ tmp153, D.6440,
 975 0056 D450     		str	r4, [r2, r3]	@ D.6440, _22->DATA
 976              	.LVL62:
 977              	.LBE93:
 978              	.LBE92:
 979              		.loc 1 265 0
 980 0058 0CBC     		pop	{r2, r3}
 981 005a 9046     		mov	r8, r2
 982 005c 9946     		mov	r9, r3
 983 005e F8BD     		pop	{r3, r4, r5, r6, r7, pc}
 984              	.L46:
 985              		.align	2
 986              	.L45:
 987 0060 00000000 		.word	_cs_gpio
 988 0064 00000000 		.word	_cs_pin
 989 0068 00000000 		.word	.LANCHOR1
 990 006c 00000440 		.word	1074003968
 991              		.cfi_endproc
 992              	.LFE206:
 993              		.size	MCP2515_BitModify, .-MCP2515_BitModify
 994              		.section	.text.MCP2515_Mode,"ax",%progbits
 995              		.align	2
 996              		.global	MCP2515_Mode
 997              		.code	16
 998              		.thumb_func
 999              		.type	MCP2515_Mode, %function
 1000              	MCP2515_Mode:
 1001              	.LFB207:
 266:../lpc11cx4-library/evt_lib/src/mcp2515.c **** 
 267:../lpc11cx4-library/evt_lib/src/mcp2515.c **** bool MCP2515_Mode(uint8_t mode) {
 1002              		.loc 1 267 0
 1003              		.cfi_startproc
 1004              	.LVL63:
 1005 0000 30B5     		push	{r4, r5, lr}	@
 1006              		.cfi_def_cfa_offset 12
 1007              		.cfi_offset 4, -12
 1008              		.cfi_offset 5, -8
 1009              		.cfi_offset 14, -4
 1010 0002 041C     		mov	r4, r0	@ mode, mode
 1011 0004 83B0     		sub	sp, sp, #12	@,,
 1012              		.cfi_def_cfa_offset 24
 268:../lpc11cx4-library/evt_lib/src/mcp2515.c **** 	MCP2515_BitModify(CANCTRL, MODE_MASK, mode);
ARM GAS  /tmp/ccSYIYb6.s 			page 26


 1013              		.loc 1 268 0
 1014 0006 221C     		mov	r2, r4	@, mode
 1015 0008 0F20     		mov	r0, #15	@,
 1016              	.LVL64:
 1017 000a E021     		mov	r1, #224	@,
 1018 000c FFF7FEFF 		bl	MCP2515_BitModify	@
 1019              	.LVL65:
 269:../lpc11cx4-library/evt_lib/src/mcp2515.c **** 	uint8_t data = 0;
 1020              		.loc 1 269 0
 1021 0010 6B46     		mov	r3, sp	@ tmp130,
 1022 0012 DD1D     		add	r5, r3, #7	@ tmp115, tmp130,
 1023 0014 0023     		mov	r3, #0	@ tmp116,
 270:../lpc11cx4-library/evt_lib/src/mcp2515.c **** 	MCP2515_Read(CANSTAT, &data, 1);
 1024              		.loc 1 270 0
 1025 0016 0E20     		mov	r0, #14	@,
 1026 0018 291C     		mov	r1, r5	@, tmp115
 1027 001a 0122     		mov	r2, #1	@,
 269:../lpc11cx4-library/evt_lib/src/mcp2515.c **** 	uint8_t data = 0;
 1028              		.loc 1 269 0
 1029 001c 2B70     		strb	r3, [r5]	@ tmp116, data
 1030              		.loc 1 270 0
 1031 001e FFF7FEFF 		bl	MCP2515_Read	@
 1032              	.LVL66:
 271:../lpc11cx4-library/evt_lib/src/mcp2515.c **** 	return ((data & mode) == mode);
 1033              		.loc 1 271 0
 1034 0022 2878     		ldrb	r0, [r5]	@ data, data
 1035 0024 2040     		and	r0, r4	@ tmp125, mode
 1036 0026 001B     		sub	r0, r0, r4	@ tmp127, tmp125, mode
 1037 0028 4342     		neg	r3, r0	@ tmp128, tmp127
 1038 002a 5841     		adc	r0, r0, r3	@ tmp126, tmp127, tmp128
 1039 002c C0B2     		uxtb	r0, r0	@ D.6446, tmp126
 272:../lpc11cx4-library/evt_lib/src/mcp2515.c **** }...
 1040              		.loc 1 272 0
 1041 002e 03B0     		add	sp, sp, #12	@,,
 1042              		@ sp needed	@
 1043 0030 30BD     		pop	{r4, r5, pc}
 1044              		.cfi_endproc
 1045              	.LFE207:
 1046              		.size	MCP2515_Mode, .-MCP2515_Mode
 1047              		.global	__aeabi_uidiv
 1048              		.global	__aeabi_i2d
 1049              		.global	__aeabi_dmul
 1050              		.global	__aeabi_d2uiz
 1051              		.global	__aeabi_uldivmod
 1052 0032 C046     		.section	.text.MCP2515_SetBitRate,"ax",%progbits
 1053              		.align	2
 1054              		.global	MCP2515_SetBitRate
 1055              		.code	16
 1056              		.thumb_func
 1057              		.type	MCP2515_SetBitRate, %function
 1058              	MCP2515_SetBitRate:
 1059              	.LFB199:
 101:../lpc11cx4-library/evt_lib/src/mcp2515.c **** uint8_t MCP2515_SetBitRate(uint32_t baud, uint32_t freq, uint8_t SJW) {
 1060              		.loc 1 101 0
 1061              		.cfi_startproc
 1062              	.LVL67:
 1063 0000 F0B5     		push	{r4, r5, r6, r7, lr}	@
ARM GAS  /tmp/ccSYIYb6.s 			page 27


 1064              		.cfi_def_cfa_offset 20
 1065              		.cfi_offset 4, -20
 1066              		.cfi_offset 5, -16
 1067              		.cfi_offset 6, -12
 1068              		.cfi_offset 7, -8
 1069              		.cfi_offset 14, -4
 1070 0002 5746     		mov	r7, r10	@,
 1071 0004 4546     		mov	r5, r8	@,
 1072 0006 4E46     		mov	r6, r9	@,
 1073 0008 E0B4     		push	{r5, r6, r7}	@
 1074              		.cfi_def_cfa_offset 32
 1075              		.cfi_offset 8, -32
 1076              		.cfi_offset 9, -28
 1077              		.cfi_offset 10, -24
 1078 000a 041C     		mov	r4, r0	@ baud, baud
 1079 000c 82B0     		sub	sp, sp, #8	@,,
 1080              		.cfi_def_cfa_offset 40
 101:../lpc11cx4-library/evt_lib/src/mcp2515.c **** uint8_t MCP2515_SetBitRate(uint32_t baud, uint32_t freq, uint8_t SJW) {
 1081              		.loc 1 101 0
 1082 000e 8846     		mov	r8, r1	@ freq, freq
 1083 0010 9246     		mov	r10, r2	@ SJW, SJW
 102:../lpc11cx4-library/evt_lib/src/mcp2515.c **** 	if (SJW < 1) SJW = 1;
 1084              		.loc 1 102 0
 1085 0012 002A     		cmp	r2, #0	@ SJW,
 1086 0014 0CD0     		beq	.L58	@,
 103:../lpc11cx4-library/evt_lib/src/mcp2515.c **** 	if (SJW > 4) SJW = 4;
 1087              		.loc 1 103 0
 1088 0016 042A     		cmp	r2, #4	@ SJW,
 1089 0018 01D9     		bls	.L50	@,
 1090 001a 0423     		mov	r3, #4	@ SJW,
 1091 001c 9A46     		mov	r10, r3	@ SJW, SJW
 1092              	.L50:
 1093              	.LVL68:
 161:../lpc11cx4-library/evt_lib/src/mcp2515.c **** 		return 5;
 1094              		.loc 1 161 0
 1095 001e 0520     		mov	r0, #5	@ D.6457,
 1096              	.LVL69:
 104:../lpc11cx4-library/evt_lib/src/mcp2515.c **** 	if (baud > 0) {
 1097              		.loc 1 104 0
 1098 0020 002C     		cmp	r4, #0	@ baud,
 1099 0022 0AD1     		bne	.L73	@,
 1100              	.LVL70:
 1101              	.L65:
 165:../lpc11cx4-library/evt_lib/src/mcp2515.c **** }
 1102              		.loc 1 165 0
 1103 0024 02B0     		add	sp, sp, #8	@,,
 1104              		@ sp needed	@
 1105              	.LVL71:
 1106 0026 1CBC     		pop	{r2, r3, r4}
 1107 0028 9046     		mov	r8, r2
 1108 002a 9946     		mov	r9, r3
 1109 002c A246     		mov	r10, r4
 1110 002e F0BD     		pop	{r4, r5, r6, r7, pc}
 1111              	.LVL72:
 1112              	.L58:
 102:../lpc11cx4-library/evt_lib/src/mcp2515.c **** 	if (SJW < 1) SJW = 1;
 1113              		.loc 1 102 0
ARM GAS  /tmp/ccSYIYb6.s 			page 28


 1114 0030 0123     		mov	r3, #1	@ SJW,
 161:../lpc11cx4-library/evt_lib/src/mcp2515.c **** 		return 5;
 1115              		.loc 1 161 0
 1116 0032 0520     		mov	r0, #5	@ D.6457,
 1117              	.LVL73:
 102:../lpc11cx4-library/evt_lib/src/mcp2515.c **** 	if (SJW < 1) SJW = 1;
 1118              		.loc 1 102 0
 1119 0034 9A46     		mov	r10, r3	@ SJW, SJW
 1120              	.LVL74:
 104:../lpc11cx4-library/evt_lib/src/mcp2515.c **** 	if (baud > 0) {
 1121              		.loc 1 104 0
 1122 0036 002C     		cmp	r4, #0	@ baud,
 1123 0038 F4D0     		beq	.L65	@,
 1124              	.L73:
 1125              	.LBB94:
 105:../lpc11cx4-library/evt_lib/src/mcp2515.c **** 		MCP2515_Reset();
 1126              		.loc 1 105 0
 1127 003a FFF7FEFF 		bl	MCP2515_Reset	@
 1128              	.LVL75:
 112:../lpc11cx4-library/evt_lib/src/mcp2515.c **** 		uint64_t NBT = 10000 * 1 / baud * 1000; 		// Since baud wil probably not go above 10 Mhz, this wi
 1129              		.loc 1 112 0
 1130 003e 211C     		mov	r1, r4	@, baud
 1131 0040 3A48     		ldr	r0, .L74	@,
 1132 0042 FFF7FEFF 		bl	__aeabi_uidiv	@
 1133              	.LVL76:
 1134 0046 FA23     		mov	r3, #250	@ tmp167,
 1135 0048 9B00     		lsl	r3, r3, #2	@ tmp167, tmp167,
 1136 004a 4343     		mul	r3, r0	@ NBT, D.6458
 113:../lpc11cx4-library/evt_lib/src/mcp2515.c **** 		for (BRP = 0; BRP < 64; BRP++) {
 1137              		.loc 1 113 0
 1138 004c 0024     		mov	r4, #0	@ BRP,
 1139              	.LVL77:
 112:../lpc11cx4-library/evt_lib/src/mcp2515.c **** 		uint64_t NBT = 10000 * 1 / baud * 1000; 		// Since baud wil probably not go above 10 Mhz, this wi
 1140              		.loc 1 112 0
 1141 004e 9946     		mov	r9, r3	@ NBT, NBT
 1142              	.LVL78:
 1143 0050 374E     		ldr	r6, .L74+4	@ ivtmp.77,
 1144              	.LVL79:
 1145              	.L52:
 114:../lpc11cx4-library/evt_lib/src/mcp2515.c **** 			TQ = 10000 * 2 * (BRP + 1) / freq;
 1146              		.loc 1 114 0
 1147 0052 4146     		mov	r1, r8	@, freq
 1148 0054 301C     		mov	r0, r6	@, ivtmp.77
 1149 0056 FFF7FEFF 		bl	__aeabi_uidiv	@
 1150              	.LVL80:
 115:../lpc11cx4-library/evt_lib/src/mcp2515.c **** 			tempBT = NBT / TQ; 							// The added 10K should cancel out here
 1151              		.loc 1 115 0
 1152 005a 0021     		mov	r1, #0	@,
 114:../lpc11cx4-library/evt_lib/src/mcp2515.c **** 			TQ = 10000 * 2 * (BRP + 1) / freq;
 1153              		.loc 1 114 0
 1154 005c 021C     		mov	r2, r0	@ D.6458,
 115:../lpc11cx4-library/evt_lib/src/mcp2515.c **** 			tempBT = NBT / TQ; 							// The added 10K should cancel out here
 1155              		.loc 1 115 0
 1156 005e 0023     		mov	r3, #0	@,
 1157 0060 4846     		mov	r0, r9	@, NBT
 1158 0062 FFF7FEFF 		bl	__aeabi_uldivmod	@
 1159              	.LVL81:
ARM GAS  /tmp/ccSYIYb6.s 			page 29


 1160 0066 071C     		mov	r7, r0	@ tempBT, tmp233
 1161 0068 0D1E     		sub	r5, r1, #0	@ tempBT, tmp234,
 1162              	.LVL82:
 116:../lpc11cx4-library/evt_lib/src/mcp2515.c **** 			if (tempBT <= 25) {
 1163              		.loc 1 116 0
 1164 006a 55D1     		bne	.L57	@,
 1165 006c 1928     		cmp	r0, #25	@ tempBT,
 1166 006e 53D8     		bhi	.L57	@,
 1167              	.LVL83:
 1168 0070 FFF7FEFF 		bl	__aeabi_i2d	@
 1169              	.LVL84:
 1170 0074 2F4A     		ldr	r2, .L74+8	@,
 1171 0076 304B     		ldr	r3, .L74+12	@,
 1172 0078 FFF7FEFF 		bl	__aeabi_dmul	@
 1173              	.LVL85:
 1174 007c FFF7FEFF 		bl	__aeabi_d2uiz	@
 1175              	.LVL86:
 1176 0080 C6B2     		uxtb	r6, r0	@ D.6457, tmp199
 1177              	.LVL87:
 1178 0082 013E     		sub	r6, r6, #1	@ D.6459,
 1179 0084 F20F     		lsr	r2, r6, #31	@ tmp201, D.6459,
 1180 0086 9219     		add	r2, r2, r6	@ tmp202, tmp201, D.6459
 1181 0088 5210     		asr	r2, r2, #1	@ tmp203, tmp202,
 1182 008a D3B2     		uxtb	r3, r2	@ D.6457, tmp203
 1183 008c F61A     		sub	r6, r6, r3	@ tmp206, D.6459, D.6457
 1184 008e F6B2     		uxtb	r6, r6	@ D.6457, tmp206
 1185 0090 BF1B     		sub	r7, r7, r6	@ tmp208, tempBT, D.6457
 1186              	.LVL88:
 1187 0092 FF1A     		sub	r7, r7, r3	@ tmp210, tmp208, D.6457
 1188 0094 FFB2     		uxtb	r7, r7	@ D.6462, tmp210
 1189 0096 9846     		mov	r8, r3	@ D.6457, D.6457
 1190              	.LVL89:
 1191 0098 7B1E     		sub	r3, r7, #1	@ tmp211, D.6462,
 1192 009a DBB2     		uxtb	r3, r3	@ D.6457, tmp211
 1193              	.LVL90:
 1194 009c 9219     		add	r2, r2, r6	@ D.6459, tmp203, D.6457
 129:../lpc11cx4-library/evt_lib/src/mcp2515.c **** 			return 1;
 1195              		.loc 1 129 0
 1196 009e 0120     		mov	r0, #1	@ D.6457,
 128:../lpc11cx4-library/evt_lib/src/mcp2515.c **** 		if (PRSEG + PHSEG1 < PHSEG2) {
 1197              		.loc 1 128 0
 1198 00a0 9A42     		cmp	r2, r3	@ D.6459, D.6457
 1199 00a2 BFDB     		blt	.L65	@,
 133:../lpc11cx4-library/evt_lib/src/mcp2515.c **** 			return 2;
 1200              		.loc 1 133 0
 1201 00a4 0220     		mov	r0, #2	@ D.6457,
 132:../lpc11cx4-library/evt_lib/src/mcp2515.c **** 		if (PHSEG2 <= SJW) {
 1202              		.loc 1 132 0
 1203 00a6 9A45     		cmp	r10, r3	@ SJW, D.6457
 1204 00a8 BCD2     		bcs	.L65	@,
 1205              	.LVL91:
 140:../lpc11cx4-library/evt_lib/src/mcp2515.c **** 		uint8_t data = (((SJW - 1) << 6) | BRP);
 1206              		.loc 1 140 0
 1207 00aa 5046     		mov	r0, r10	@ D.6459, SJW
 1208 00ac 0138     		sub	r0, r0, #1	@ D.6459,
 1209 00ae 8001     		lsl	r0, r0, #6	@ D.6459, D.6459,
 1210 00b0 0443     		orr	r4, r0	@ tmp174, D.6459
ARM GAS  /tmp/ccSYIYb6.s 			page 30


 1211              	.LVL92:
 1212 00b2 E4B2     		uxtb	r4, r4	@ data, tmp174
 1213              	.LVL93:
 142:../lpc11cx4-library/evt_lib/src/mcp2515.c **** 		MCP2515_Write(CNF1, data);
 1214              		.loc 1 142 0
 1215 00b4 2A20     		mov	r0, #42	@,
 1216 00b6 211C     		mov	r1, r4	@, data
 1217 00b8 FFF7FEFF 		bl	MCP2515_Write	@
 1218              	.LVL94:
 143:../lpc11cx4-library/evt_lib/src/mcp2515.c **** 		MCP2515_Write(CNF2, ((BTLMODE << 7) | (SAM << 6) | ((PHSEG1 - 1) << 3) | (PRSEG - 1)));
 1219              		.loc 1 143 0
 1220 00bc 4346     		mov	r3, r8	@ tmp175, D.6457
 1221 00be 8021     		mov	r1, #128	@ tmp178,
 1222 00c0 013B     		sub	r3, r3, #1	@ tmp175,
 1223 00c2 4942     		neg	r1, r1	@ tmp178, tmp178
 1224 00c4 013E     		sub	r6, r6, #1	@ D.6459,
 1225 00c6 1943     		orr	r1, r3	@ tmp177, tmp175
 1226 00c8 F600     		lsl	r6, r6, #3	@ D.6459, D.6459,
 1227 00ca 3143     		orr	r1, r6	@ tmp183, D.6459
 1228 00cc C9B2     		uxtb	r1, r1	@ tmp184, tmp183
 1229 00ce 2920     		mov	r0, #41	@,
 1230 00d0 FFF7FEFF 		bl	MCP2515_Write	@
 1231              	.LVL95:
 144:../lpc11cx4-library/evt_lib/src/mcp2515.c **** 		MCP2515_Write(CNF3, (0x00 | (PHSEG2 - 1)));
 1232              		.loc 1 144 0
 1233 00d4 B91E     		sub	r1, r7, #2	@ tmp185, D.6462,
 1234 00d6 C9B2     		uxtb	r1, r1	@ tmp186, tmp185
 1235 00d8 2820     		mov	r0, #40	@,
 1236 00da FFF7FEFF 		bl	MCP2515_Write	@
 1237              	.LVL96:
 145:../lpc11cx4-library/evt_lib/src/mcp2515.c **** 		MCP2515_Write(TXRTSCTRL, 0);
 1238              		.loc 1 145 0
 1239 00de 0D20     		mov	r0, #13	@,
 1240 00e0 0021     		mov	r1, #0	@,
 1241 00e2 FFF7FEFF 		bl	MCP2515_Write	@
 1242              	.LVL97:
 147:../lpc11cx4-library/evt_lib/src/mcp2515.c **** 		if (!MCP2515_Mode(MODE_NORMAL)) {
 1243              		.loc 1 147 0
 1244 00e6 0020     		mov	r0, #0	@,
 1245 00e8 FFF7FEFF 		bl	MCP2515_Mode	@
 1246              	.LVL98:
 1247 00ec 031C     		mov	r3, r0	@ tmp187,
 148:../lpc11cx4-library/evt_lib/src/mcp2515.c **** 			return 3;
 1248              		.loc 1 148 0
 1249 00ee 0320     		mov	r0, #3	@ D.6457,
 147:../lpc11cx4-library/evt_lib/src/mcp2515.c **** 		if (!MCP2515_Mode(MODE_NORMAL)) {
 1250              		.loc 1 147 0
 1251 00f0 002B     		cmp	r3, #0	@ tmp187,
 1252 00f2 97D0     		beq	.L65	@,
 151:../lpc11cx4-library/evt_lib/src/mcp2515.c **** 		MCP2515_Write(CANINTE, 0xFF);
 1253              		.loc 1 151 0
 1254 00f4 2830     		add	r0, r0, #40	@,
 1255 00f6 FF21     		mov	r1, #255	@,
 1256 00f8 FFF7FEFF 		bl	MCP2515_Write	@
 1257              	.LVL99:
 153:../lpc11cx4-library/evt_lib/src/mcp2515.c **** 		uint8_t rtn = 0;
 1258              		.loc 1 153 0
ARM GAS  /tmp/ccSYIYb6.s 			page 31


 1259 00fc 6B46     		mov	r3, sp	@ tmp244,
 1260 00fe DE1D     		add	r6, r3, #7	@ tmp189, tmp244,
 154:../lpc11cx4-library/evt_lib/src/mcp2515.c **** 		MCP2515_Read(CNF1, &rtn, 1);
 1261              		.loc 1 154 0
 1262 0100 2A20     		mov	r0, #42	@,
 1263 0102 311C     		mov	r1, r6	@, tmp189
 1264 0104 0122     		mov	r2, #1	@,
 153:../lpc11cx4-library/evt_lib/src/mcp2515.c **** 		uint8_t rtn = 0;
 1265              		.loc 1 153 0
 1266 0106 DD71     		strb	r5, [r3, #7]	@ tempBT, rtn
 154:../lpc11cx4-library/evt_lib/src/mcp2515.c **** 		MCP2515_Read(CNF1, &rtn, 1);
 1267              		.loc 1 154 0
 1268 0108 FFF7FEFF 		bl	MCP2515_Read	@
 1269              	.LVL100:
 155:../lpc11cx4-library/evt_lib/src/mcp2515.c **** 		if (rtn == data) {
 1270              		.loc 1 155 0
 1271 010c 3078     		ldrb	r0, [r6]	@ rtn, rtn
 158:../lpc11cx4-library/evt_lib/src/mcp2515.c **** 			return 4;
 1272              		.loc 1 158 0
 1273 010e 001B     		sub	r0, r0, r4	@ tmp229, rtn, data
 1274 0110 431E     		sub	r3, r0, #1	@ tmp230, tmp229
 1275 0112 9841     		sbc	r0, r0, r3	@ tmp228, tmp229, tmp230
 1276 0114 8000     		lsl	r0, r0, #2	@ D.6457, tmp228,
 1277 0116 85E7     		b	.L65	@
 1278              	.LVL101:
 1279              	.L57:
 1280 0118 054B     		ldr	r3, .L74+4	@ tmp240,
 113:../lpc11cx4-library/evt_lib/src/mcp2515.c **** 		for (BRP = 0; BRP < 64; BRP++) {
 1281              		.loc 1 113 0 discriminator 2
 1282 011a 0134     		add	r4, r4, #1	@ tmp169,
 1283              	.LVL102:
 1284 011c 9C46     		mov	ip, r3	@ tmp240, tmp240
 1285 011e E4B2     		uxtb	r4, r4	@ BRP, tmp169
 1286              	.LVL103:
 1287 0120 6644     		add	r6, r6, ip	@ ivtmp.77, tmp240
 1288              	.LVL104:
 1289 0122 402C     		cmp	r4, #64	@ BRP,
 1290 0124 95D1     		bne	.L52	@,
 133:../lpc11cx4-library/evt_lib/src/mcp2515.c **** 			return 2;
 1291              		.loc 1 133 0
 1292 0126 0220     		mov	r0, #2	@ D.6457,
 1293              	.LVL105:
 1294 0128 7CE7     		b	.L65	@
 1295              	.L75:
 1296 012a C046     		.align	2
 1297              	.L74:
 1298 012c 10270000 		.word	10000
 1299 0130 204E0000 		.word	20000
 1300 0134 66666666 		.word	1717986918
 1301 0138 6666E63F 		.word	1072064102
 1302              	.LBE94:
 1303              		.cfi_endproc
 1304              	.LFE199:
 1305              		.size	MCP2515_SetBitRate, .-MCP2515_SetBitRate
 1306              		.comm	_cs_pin,1,1
 1307              		.comm	_cs_gpio,1,1
 1308              		.section	.bss.Tx_Buf,"aw",%nobits
ARM GAS  /tmp/ccSYIYb6.s 			page 32


 1309              		.align	2
 1310              		.set	.LANCHOR1,. + 0
 1311              		.type	Tx_Buf, %object
 1312              		.size	Tx_Buf, 256
 1313              	Tx_Buf:
 1314 0000 00000000 		.space	256
 1314      00000000 
 1314      00000000 
 1314      00000000 
 1314      00000000 
 1315              		.section	.bss.Rx_Buf,"aw",%nobits
 1316              		.align	2
 1317              		.set	.LANCHOR2,. + 0
 1318              		.type	Rx_Buf, %object
 1319              		.size	Rx_Buf, 256
 1320              	Rx_Buf:
 1321 0000 00000000 		.space	256
 1321      00000000 
 1321      00000000 
 1321      00000000 
 1321      00000000 
 1322              		.section	.bss.xf_setup,"aw",%nobits
 1323              		.align	2
 1324              		.set	.LANCHOR0,. + 0
 1325              		.type	xf_setup, %object
 1326              		.size	xf_setup, 20
 1327              	xf_setup:
 1328 0000 00000000 		.space	20
 1328      00000000 
 1328      00000000 
 1328      00000000 
 1328      00000000 
 1329              		.text
 1330              	.Letext0:
 1331              		.file 3 "/usr/arm-none-eabi/include/machine/_default_types.h"
 1332              		.file 4 "/usr/arm-none-eabi/include/stdint.h"
 1333              		.file 5 "../lpc11cx4-library/lpc_chip_11cxx_lib/inc/ssp_11xx.h"
 1334              		.file 6 "../lpc11cx4-library/lpc_chip_11cxx_lib/inc/ccand_11xx.h"
 1335              		.file 7 "../lpc11cx4-library/lpc_chip_11cxx_lib/inc/chip.h"
 1336              		.file 8 "../lpc11cx4-library/evt_lib/inc/util.h"