ARM GAS  /tmp/ccEzckS3.s 			page 1


   1              		.cpu cortex-m0
   2              		.fpu softvfp
   3              		.eabi_attribute 20, 1	@ Tag_ABI_FP_denormal
   4              		.eabi_attribute 21, 1	@ Tag_ABI_FP_exceptions
   5              		.eabi_attribute 23, 3	@ Tag_ABI_FP_number_model
   6              		.eabi_attribute 24, 1	@ Tag_ABI_align8_needed
   7              		.eabi_attribute 25, 1	@ Tag_ABI_align8_preserved
   8              		.eabi_attribute 26, 1	@ Tag_ABI_enum_size
   9              		.eabi_attribute 30, 2	@ Tag_ABI_optimization_goals
  10              		.eabi_attribute 34, 0	@ Tag_CPU_unaligned_access
  11              		.eabi_attribute 18, 4	@ Tag_ABI_PCS_wchar_t
  12              		.file	"ring_buffer.c"
  13              	@ GNU C (GNU Tools for ARM Embedded Processors) version 4.9.3 20150303 (release) [ARM/embedded-4_9-
  14              	@	compiled by GNU C version 4.8.2, GMP version 5.1.3, MPFR version 3.1.2-p3, MPC version 1.0.1
  15              	@ GGC heuristics: --param ggc-min-expand=100 --param ggc-min-heapsize=131072
  16              	@ options passed:  -I . -I ../lpc11cx4-library/lpc_chip_11cxx_lib/inc
  17              	@ -I ../lpc11cx4-library/evt_lib/inc -I inc -imultilib armv6-m
  18              	@ -iprefix /usr/bin/../lib/gcc/arm-none-eabi/4.9.3/
  19              	@ -isysroot /usr/bin/../arm-none-eabi -MD bin/ring_buffer.d
  20              	@ -MF bin/ring_buffer.d -MP -MQ bin/ring_buffer.o -D__USES_INITFINI__
  21              	@ -D CORE_M0 ../lpc11cx4-library/lpc_chip_11cxx_lib/src/ring_buffer.c
  22              	@ -mcpu=cortex-m0 -mthumb -auxbase-strip bin/ring_buffer.o -g -ggdb3 -O2
  23              	@ -Wall -Wstrict-prototypes -Wextra -std=gnu90 -ffunction-sections
  24              	@ -fdata-sections -fverbose-asm
  25              	@ options enabled:  -faggressive-loop-optimizations -fauto-inc-dec
  26              	@ -fbranch-count-reg -fcaller-saves -fcombine-stack-adjustments -fcommon
  27              	@ -fcompare-elim -fcprop-registers -fcrossjumping -fcse-follow-jumps
  28              	@ -fdata-sections -fdefer-pop -fdelete-null-pointer-checks -fdevirtualize
  29              	@ -fdevirtualize-speculatively -fdwarf2-cfi-asm -fearly-inlining
  30              	@ -feliminate-unused-debug-types -fexpensive-optimizations
  31              	@ -fforward-propagate -ffunction-cse -ffunction-sections -fgcse -fgcse-lm
  32              	@ -fgnu-runtime -fgnu-unique -fguess-branch-probability
  33              	@ -fhoist-adjacent-loads -fident -fif-conversion -fif-conversion2
  34              	@ -findirect-inlining -finline -finline-atomics
  35              	@ -finline-functions-called-once -finline-small-functions -fipa-cp
  36              	@ -fipa-profile -fipa-pure-const -fipa-reference -fipa-sra
  37              	@ -fira-hoist-pressure -fira-share-save-slots -fira-share-spill-slots
  38              	@ -fisolate-erroneous-paths-dereference -fivopts -fkeep-static-consts
  39              	@ -fleading-underscore -flifetime-dse -fmath-errno -fmerge-constants
  40              	@ -fmerge-debug-strings -fmove-loop-invariants -fomit-frame-pointer
  41              	@ -foptimize-sibling-calls -foptimize-strlen -fpartial-inlining -fpeephole
  42              	@ -fpeephole2 -fprefetch-loop-arrays -freg-struct-return -freorder-blocks
  43              	@ -freorder-functions -frerun-cse-after-loop
  44              	@ -fsched-critical-path-heuristic -fsched-dep-count-heuristic
  45              	@ -fsched-group-heuristic -fsched-interblock -fsched-last-insn-heuristic
  46              	@ -fsched-pressure -fsched-rank-heuristic -fsched-spec
  47              	@ -fsched-spec-insn-heuristic -fsched-stalled-insns-dep -fschedule-insns2
  48              	@ -fsection-anchors -fshow-column -fshrink-wrap -fsigned-zeros
  49              	@ -fsplit-ivs-in-unroller -fsplit-wide-types -fstrict-aliasing
  50              	@ -fstrict-overflow -fstrict-volatile-bitfields -fsync-libcalls
  51              	@ -fthread-jumps -ftoplevel-reorder -ftrapping-math -ftree-bit-ccp
  52              	@ -ftree-builtin-call-dce -ftree-ccp -ftree-ch -ftree-coalesce-vars
  53              	@ -ftree-copy-prop -ftree-copyrename -ftree-cselim -ftree-dce
  54              	@ -ftree-dominator-opts -ftree-dse -ftree-forwprop -ftree-fre
  55              	@ -ftree-loop-if-convert -ftree-loop-im -ftree-loop-ivcanon
  56              	@ -ftree-loop-optimize -ftree-parallelize-loops= -ftree-phiprop -ftree-pre
  57              	@ -ftree-pta -ftree-reassoc -ftree-scev-cprop -ftree-sink -ftree-slsr
ARM GAS  /tmp/ccEzckS3.s 			page 2


  58              	@ -ftree-sra -ftree-switch-conversion -ftree-tail-merge -ftree-ter
  59              	@ -ftree-vrp -funit-at-a-time -fvar-tracking -fvar-tracking-assignments
  60              	@ -fverbose-asm -fzero-initialized-in-bss -mlittle-endian -mlra
  61              	@ -mpic-data-is-text-relative -msched-prolog -mthumb
  62              	@ -mvectorize-with-neon-quad
  63              	
  64              		.text
  65              	.Ltext0:
  66              		.cfi_sections	.debug_frame
  67              		.section	.text.RingBuffer_Init,"ax",%progbits
  68              		.align	2
  69              		.global	RingBuffer_Init
  70              		.code	16
  71              		.thumb_func
  72              		.type	RingBuffer_Init, %function
  73              	RingBuffer_Init:
  74              	.LFB6:
  75              		.file 1 "../lpc11cx4-library/lpc_chip_11cxx_lib/src/ring_buffer.c"
   1:../lpc11cx4-library/lpc_chip_11cxx_lib/src/ring_buffer.c **** /*
   2:../lpc11cx4-library/lpc_chip_11cxx_lib/src/ring_buffer.c ****  * @brief Common ring buffer support functions
   3:../lpc11cx4-library/lpc_chip_11cxx_lib/src/ring_buffer.c ****  *
   4:../lpc11cx4-library/lpc_chip_11cxx_lib/src/ring_buffer.c ****  * @note
   5:../lpc11cx4-library/lpc_chip_11cxx_lib/src/ring_buffer.c ****  * Copyright(C) NXP Semiconductors, 2012
   6:../lpc11cx4-library/lpc_chip_11cxx_lib/src/ring_buffer.c ****  * All rights reserved.
   7:../lpc11cx4-library/lpc_chip_11cxx_lib/src/ring_buffer.c ****  *
   8:../lpc11cx4-library/lpc_chip_11cxx_lib/src/ring_buffer.c ****  * @par
   9:../lpc11cx4-library/lpc_chip_11cxx_lib/src/ring_buffer.c ****  * Software that is described herein is for illustrative purposes only
  10:../lpc11cx4-library/lpc_chip_11cxx_lib/src/ring_buffer.c ****  * which provides customers with programming information regarding the
  11:../lpc11cx4-library/lpc_chip_11cxx_lib/src/ring_buffer.c ****  * LPC products.  This software is supplied "AS IS" without any warranties of
  12:../lpc11cx4-library/lpc_chip_11cxx_lib/src/ring_buffer.c ****  * any kind, and NXP Semiconductors and its licensor disclaim any and
  13:../lpc11cx4-library/lpc_chip_11cxx_lib/src/ring_buffer.c ****  * all warranties, express or implied, including all implied warranties of
  14:../lpc11cx4-library/lpc_chip_11cxx_lib/src/ring_buffer.c ****  * merchantability, fitness for a particular purpose and non-infringement of
  15:../lpc11cx4-library/lpc_chip_11cxx_lib/src/ring_buffer.c ****  * intellectual property rights.  NXP Semiconductors assumes no responsibility
  16:../lpc11cx4-library/lpc_chip_11cxx_lib/src/ring_buffer.c ****  * or liability for the use of the software, conveys no license or rights under any
  17:../lpc11cx4-library/lpc_chip_11cxx_lib/src/ring_buffer.c ****  * patent, copyright, mask work right, or any other intellectual property rights in
  18:../lpc11cx4-library/lpc_chip_11cxx_lib/src/ring_buffer.c ****  * or to any products. NXP Semiconductors reserves the right to make changes
  19:../lpc11cx4-library/lpc_chip_11cxx_lib/src/ring_buffer.c ****  * in the software without notification. NXP Semiconductors also makes no
  20:../lpc11cx4-library/lpc_chip_11cxx_lib/src/ring_buffer.c ****  * representation or warranty that such application will be suitable for the
  21:../lpc11cx4-library/lpc_chip_11cxx_lib/src/ring_buffer.c ****  * specified use without further testing or modification.
  22:../lpc11cx4-library/lpc_chip_11cxx_lib/src/ring_buffer.c ****  *
  23:../lpc11cx4-library/lpc_chip_11cxx_lib/src/ring_buffer.c ****  * @par
  24:../lpc11cx4-library/lpc_chip_11cxx_lib/src/ring_buffer.c ****  * Permission to use, copy, modify, and distribute this software and its
  25:../lpc11cx4-library/lpc_chip_11cxx_lib/src/ring_buffer.c ****  * documentation is hereby granted, under NXP Semiconductors' and its
  26:../lpc11cx4-library/lpc_chip_11cxx_lib/src/ring_buffer.c ****  * licensor's relevant copyrights in the software, without fee, provided that it
  27:../lpc11cx4-library/lpc_chip_11cxx_lib/src/ring_buffer.c ****  * is used in conjunction with NXP Semiconductors microcontrollers.  This
  28:../lpc11cx4-library/lpc_chip_11cxx_lib/src/ring_buffer.c ****  * copyright, permission, and disclaimer notice must appear in all copies of
  29:../lpc11cx4-library/lpc_chip_11cxx_lib/src/ring_buffer.c ****  * this code.
  30:../lpc11cx4-library/lpc_chip_11cxx_lib/src/ring_buffer.c ****  */
  31:../lpc11cx4-library/lpc_chip_11cxx_lib/src/ring_buffer.c **** 
  32:../lpc11cx4-library/lpc_chip_11cxx_lib/src/ring_buffer.c **** #include <string.h>
  33:../lpc11cx4-library/lpc_chip_11cxx_lib/src/ring_buffer.c **** #include "ring_buffer.h"
  34:../lpc11cx4-library/lpc_chip_11cxx_lib/src/ring_buffer.c **** 
  35:../lpc11cx4-library/lpc_chip_11cxx_lib/src/ring_buffer.c **** /*****************************************************************************
  36:../lpc11cx4-library/lpc_chip_11cxx_lib/src/ring_buffer.c ****  * Private types/enumerations/variables
  37:../lpc11cx4-library/lpc_chip_11cxx_lib/src/ring_buffer.c ****  ****************************************************************************/
  38:../lpc11cx4-library/lpc_chip_11cxx_lib/src/ring_buffer.c **** 
  39:../lpc11cx4-library/lpc_chip_11cxx_lib/src/ring_buffer.c **** #define RB_INDH(rb)                ((rb)->head & ((rb)->count - 1))
ARM GAS  /tmp/ccEzckS3.s 			page 3


  40:../lpc11cx4-library/lpc_chip_11cxx_lib/src/ring_buffer.c **** #define RB_INDT(rb)                ((rb)->tail & ((rb)->count - 1))
  41:../lpc11cx4-library/lpc_chip_11cxx_lib/src/ring_buffer.c **** 
  42:../lpc11cx4-library/lpc_chip_11cxx_lib/src/ring_buffer.c **** /*****************************************************************************
  43:../lpc11cx4-library/lpc_chip_11cxx_lib/src/ring_buffer.c ****  * Public types/enumerations/variables
  44:../lpc11cx4-library/lpc_chip_11cxx_lib/src/ring_buffer.c ****  ****************************************************************************/
  45:../lpc11cx4-library/lpc_chip_11cxx_lib/src/ring_buffer.c **** 
  46:../lpc11cx4-library/lpc_chip_11cxx_lib/src/ring_buffer.c **** /*****************************************************************************
  47:../lpc11cx4-library/lpc_chip_11cxx_lib/src/ring_buffer.c ****  * Private functions
  48:../lpc11cx4-library/lpc_chip_11cxx_lib/src/ring_buffer.c ****  ****************************************************************************/
  49:../lpc11cx4-library/lpc_chip_11cxx_lib/src/ring_buffer.c **** 
  50:../lpc11cx4-library/lpc_chip_11cxx_lib/src/ring_buffer.c **** /*****************************************************************************
  51:../lpc11cx4-library/lpc_chip_11cxx_lib/src/ring_buffer.c ****  * Public functions
  52:../lpc11cx4-library/lpc_chip_11cxx_lib/src/ring_buffer.c ****  ****************************************************************************/
  53:../lpc11cx4-library/lpc_chip_11cxx_lib/src/ring_buffer.c **** 
  54:../lpc11cx4-library/lpc_chip_11cxx_lib/src/ring_buffer.c **** /* Initialize ring buffer */
  55:../lpc11cx4-library/lpc_chip_11cxx_lib/src/ring_buffer.c **** int RingBuffer_Init(RINGBUFF_T *RingBuff, void *buffer, int itemSize, int count)
  56:../lpc11cx4-library/lpc_chip_11cxx_lib/src/ring_buffer.c **** {
  76              		.loc 1 56 0
  77              		.cfi_startproc
  78              	.LVL0:
  57:../lpc11cx4-library/lpc_chip_11cxx_lib/src/ring_buffer.c **** 	RingBuff->data = buffer;
  58:../lpc11cx4-library/lpc_chip_11cxx_lib/src/ring_buffer.c **** 	RingBuff->count = count;
  79              		.loc 1 58 0
  80 0000 4360     		str	r3, [r0, #4]	@ count, RingBuff_2(D)->count
  59:../lpc11cx4-library/lpc_chip_11cxx_lib/src/ring_buffer.c **** 	RingBuff->itemSz = itemSize;
  60:../lpc11cx4-library/lpc_chip_11cxx_lib/src/ring_buffer.c **** 	RingBuff->head = RingBuff->tail = 0;
  81              		.loc 1 60 0
  82 0002 0023     		mov	r3, #0	@ tmp115,
  83              	.LVL1:
  57:../lpc11cx4-library/lpc_chip_11cxx_lib/src/ring_buffer.c **** 	RingBuff->data = buffer;
  84              		.loc 1 57 0
  85 0004 0160     		str	r1, [r0]	@ buffer, RingBuff_2(D)->data
  59:../lpc11cx4-library/lpc_chip_11cxx_lib/src/ring_buffer.c **** 	RingBuff->itemSz = itemSize;
  86              		.loc 1 59 0
  87 0006 8260     		str	r2, [r0, #8]	@ itemSize, RingBuff_2(D)->itemSz
  88              		.loc 1 60 0
  89 0008 0361     		str	r3, [r0, #16]	@ tmp115, RingBuff_2(D)->tail
  90 000a C360     		str	r3, [r0, #12]	@ tmp115, RingBuff_2(D)->head
  61:../lpc11cx4-library/lpc_chip_11cxx_lib/src/ring_buffer.c **** 
  62:../lpc11cx4-library/lpc_chip_11cxx_lib/src/ring_buffer.c **** 	return 1;
  63:../lpc11cx4-library/lpc_chip_11cxx_lib/src/ring_buffer.c **** }
  91              		.loc 1 63 0
  92              		@ sp needed	@
  93 000c 0120     		mov	r0, #1	@,
  94              	.LVL2:
  95 000e 7047     		bx	lr
  96              		.cfi_endproc
  97              	.LFE6:
  98              		.size	RingBuffer_Init, .-RingBuffer_Init
  99              		.section	.text.RingBuffer_Insert,"ax",%progbits
 100              		.align	2
 101              		.global	RingBuffer_Insert
 102              		.code	16
 103              		.thumb_func
 104              		.type	RingBuffer_Insert, %function
 105              	RingBuffer_Insert:
 106              	.LFB7:
ARM GAS  /tmp/ccEzckS3.s 			page 4


  64:../lpc11cx4-library/lpc_chip_11cxx_lib/src/ring_buffer.c **** 
  65:../lpc11cx4-library/lpc_chip_11cxx_lib/src/ring_buffer.c **** /* Insert a single item into Ring Buffer */
  66:../lpc11cx4-library/lpc_chip_11cxx_lib/src/ring_buffer.c **** int RingBuffer_Insert(RINGBUFF_T *RingBuff, const void *data)
  67:../lpc11cx4-library/lpc_chip_11cxx_lib/src/ring_buffer.c **** {
 107              		.loc 1 67 0
 108              		.cfi_startproc
 109              	.LVL3:
 110 0000 70B5     		push	{r4, r5, r6, lr}	@
 111              		.cfi_def_cfa_offset 16
 112              		.cfi_offset 4, -16
 113              		.cfi_offset 5, -12
 114              		.cfi_offset 6, -8
 115              		.cfi_offset 14, -4
 116              	.LBB24:
 117              	.LBB25:
 118              		.file 2 "../lpc11cx4-library/lpc_chip_11cxx_lib/inc/ring_buffer.h"
   1:../lpc11cx4-library/lpc_chip_11cxx_lib/inc/ring_buffer.h **** /*
   2:../lpc11cx4-library/lpc_chip_11cxx_lib/inc/ring_buffer.h ****  * @brief Common ring buffer support functions
   3:../lpc11cx4-library/lpc_chip_11cxx_lib/inc/ring_buffer.h ****  *
   4:../lpc11cx4-library/lpc_chip_11cxx_lib/inc/ring_buffer.h ****  * @note
   5:../lpc11cx4-library/lpc_chip_11cxx_lib/inc/ring_buffer.h ****  * Copyright(C) NXP Semiconductors, 2012
   6:../lpc11cx4-library/lpc_chip_11cxx_lib/inc/ring_buffer.h ****  * All rights reserved.
   7:../lpc11cx4-library/lpc_chip_11cxx_lib/inc/ring_buffer.h ****  *
   8:../lpc11cx4-library/lpc_chip_11cxx_lib/inc/ring_buffer.h ****  * @par
   9:../lpc11cx4-library/lpc_chip_11cxx_lib/inc/ring_buffer.h ****  * Software that is described herein is for illustrative purposes only
  10:../lpc11cx4-library/lpc_chip_11cxx_lib/inc/ring_buffer.h ****  * which provides customers with programming information regarding the
  11:../lpc11cx4-library/lpc_chip_11cxx_lib/inc/ring_buffer.h ****  * LPC products.  This software is supplied "AS IS" without any warranties of
  12:../lpc11cx4-library/lpc_chip_11cxx_lib/inc/ring_buffer.h ****  * any kind, and NXP Semiconductors and its licensor disclaim any and
  13:../lpc11cx4-library/lpc_chip_11cxx_lib/inc/ring_buffer.h ****  * all warranties, express or implied, including all implied warranties of
  14:../lpc11cx4-library/lpc_chip_11cxx_lib/inc/ring_buffer.h ****  * merchantability, fitness for a particular purpose and non-infringement of
  15:../lpc11cx4-library/lpc_chip_11cxx_lib/inc/ring_buffer.h ****  * intellectual property rights.  NXP Semiconductors assumes no responsibility
  16:../lpc11cx4-library/lpc_chip_11cxx_lib/inc/ring_buffer.h ****  * or liability for the use of the software, conveys no license or rights under any
  17:../lpc11cx4-library/lpc_chip_11cxx_lib/inc/ring_buffer.h ****  * patent, copyright, mask work right, or any other intellectual property rights in
  18:../lpc11cx4-library/lpc_chip_11cxx_lib/inc/ring_buffer.h ****  * or to any products. NXP Semiconductors reserves the right to make changes
  19:../lpc11cx4-library/lpc_chip_11cxx_lib/inc/ring_buffer.h ****  * in the software without notification. NXP Semiconductors also makes no
  20:../lpc11cx4-library/lpc_chip_11cxx_lib/inc/ring_buffer.h ****  * representation or warranty that such application will be suitable for the
  21:../lpc11cx4-library/lpc_chip_11cxx_lib/inc/ring_buffer.h ****  * specified use without further testing or modification.
  22:../lpc11cx4-library/lpc_chip_11cxx_lib/inc/ring_buffer.h ****  *
  23:../lpc11cx4-library/lpc_chip_11cxx_lib/inc/ring_buffer.h ****  * @par
  24:../lpc11cx4-library/lpc_chip_11cxx_lib/inc/ring_buffer.h ****  * Permission to use, copy, modify, and distribute this software and its
  25:../lpc11cx4-library/lpc_chip_11cxx_lib/inc/ring_buffer.h ****  * documentation is hereby granted, under NXP Semiconductors' and its
  26:../lpc11cx4-library/lpc_chip_11cxx_lib/inc/ring_buffer.h ****  * licensor's relevant copyrights in the software, without fee, provided that it
  27:../lpc11cx4-library/lpc_chip_11cxx_lib/inc/ring_buffer.h ****  * is used in conjunction with NXP Semiconductors microcontrollers.  This
  28:../lpc11cx4-library/lpc_chip_11cxx_lib/inc/ring_buffer.h ****  * copyright, permission, and disclaimer notice must appear in all copies of
  29:../lpc11cx4-library/lpc_chip_11cxx_lib/inc/ring_buffer.h ****  * this code.
  30:../lpc11cx4-library/lpc_chip_11cxx_lib/inc/ring_buffer.h ****  */
  31:../lpc11cx4-library/lpc_chip_11cxx_lib/inc/ring_buffer.h **** 
  32:../lpc11cx4-library/lpc_chip_11cxx_lib/inc/ring_buffer.h **** #ifndef __RING_BUFFER_H_
  33:../lpc11cx4-library/lpc_chip_11cxx_lib/inc/ring_buffer.h **** #define __RING_BUFFER_H_
  34:../lpc11cx4-library/lpc_chip_11cxx_lib/inc/ring_buffer.h **** 
  35:../lpc11cx4-library/lpc_chip_11cxx_lib/inc/ring_buffer.h **** #include "lpc_types.h"
  36:../lpc11cx4-library/lpc_chip_11cxx_lib/inc/ring_buffer.h **** 
  37:../lpc11cx4-library/lpc_chip_11cxx_lib/inc/ring_buffer.h **** /** @defgroup Ring_Buffer CHIP: Simple ring buffer implementation
  38:../lpc11cx4-library/lpc_chip_11cxx_lib/inc/ring_buffer.h ****  * @ingroup CHIP_Common
  39:../lpc11cx4-library/lpc_chip_11cxx_lib/inc/ring_buffer.h ****  * @{
  40:../lpc11cx4-library/lpc_chip_11cxx_lib/inc/ring_buffer.h ****  */
  41:../lpc11cx4-library/lpc_chip_11cxx_lib/inc/ring_buffer.h **** 
ARM GAS  /tmp/ccEzckS3.s 			page 5


  42:../lpc11cx4-library/lpc_chip_11cxx_lib/inc/ring_buffer.h **** /**
  43:../lpc11cx4-library/lpc_chip_11cxx_lib/inc/ring_buffer.h ****  * @brief Ring buffer structure
  44:../lpc11cx4-library/lpc_chip_11cxx_lib/inc/ring_buffer.h ****  */
  45:../lpc11cx4-library/lpc_chip_11cxx_lib/inc/ring_buffer.h **** typedef struct {
  46:../lpc11cx4-library/lpc_chip_11cxx_lib/inc/ring_buffer.h **** 	void *data;
  47:../lpc11cx4-library/lpc_chip_11cxx_lib/inc/ring_buffer.h **** 	int count;
  48:../lpc11cx4-library/lpc_chip_11cxx_lib/inc/ring_buffer.h **** 	int itemSz;
  49:../lpc11cx4-library/lpc_chip_11cxx_lib/inc/ring_buffer.h **** 	uint32_t head;
  50:../lpc11cx4-library/lpc_chip_11cxx_lib/inc/ring_buffer.h **** 	uint32_t tail;
  51:../lpc11cx4-library/lpc_chip_11cxx_lib/inc/ring_buffer.h **** } RINGBUFF_T;
  52:../lpc11cx4-library/lpc_chip_11cxx_lib/inc/ring_buffer.h **** 
  53:../lpc11cx4-library/lpc_chip_11cxx_lib/inc/ring_buffer.h **** /**
  54:../lpc11cx4-library/lpc_chip_11cxx_lib/inc/ring_buffer.h ****  * @def		RB_VHEAD(rb)
  55:../lpc11cx4-library/lpc_chip_11cxx_lib/inc/ring_buffer.h ****  * volatile typecasted head index
  56:../lpc11cx4-library/lpc_chip_11cxx_lib/inc/ring_buffer.h ****  */
  57:../lpc11cx4-library/lpc_chip_11cxx_lib/inc/ring_buffer.h **** #define RB_VHEAD(rb)              (*(volatile uint32_t *) &(rb)->head)
  58:../lpc11cx4-library/lpc_chip_11cxx_lib/inc/ring_buffer.h **** 
  59:../lpc11cx4-library/lpc_chip_11cxx_lib/inc/ring_buffer.h **** /**
  60:../lpc11cx4-library/lpc_chip_11cxx_lib/inc/ring_buffer.h ****  * @def		RB_VTAIL(rb)
  61:../lpc11cx4-library/lpc_chip_11cxx_lib/inc/ring_buffer.h ****  * volatile typecasted tail index
  62:../lpc11cx4-library/lpc_chip_11cxx_lib/inc/ring_buffer.h ****  */
  63:../lpc11cx4-library/lpc_chip_11cxx_lib/inc/ring_buffer.h **** #define RB_VTAIL(rb)              (*(volatile uint32_t *) &(rb)->tail)
  64:../lpc11cx4-library/lpc_chip_11cxx_lib/inc/ring_buffer.h **** 
  65:../lpc11cx4-library/lpc_chip_11cxx_lib/inc/ring_buffer.h **** /**
  66:../lpc11cx4-library/lpc_chip_11cxx_lib/inc/ring_buffer.h ****  * @brief	Initialize ring buffer
  67:../lpc11cx4-library/lpc_chip_11cxx_lib/inc/ring_buffer.h ****  * @param	RingBuff	: Pointer to ring buffer to initialize
  68:../lpc11cx4-library/lpc_chip_11cxx_lib/inc/ring_buffer.h ****  * @param	buffer		: Pointer to buffer to associate with RingBuff
  69:../lpc11cx4-library/lpc_chip_11cxx_lib/inc/ring_buffer.h ****  * @param	itemSize	: Size of each buffer item size
  70:../lpc11cx4-library/lpc_chip_11cxx_lib/inc/ring_buffer.h ****  * @param	count		: Size of ring buffer
  71:../lpc11cx4-library/lpc_chip_11cxx_lib/inc/ring_buffer.h ****  * @note	Memory pointed by @a buffer must have correct alignment of
  72:../lpc11cx4-library/lpc_chip_11cxx_lib/inc/ring_buffer.h ****  * 			@a itemSize, and @a count must be a power of 2 and must at
  73:../lpc11cx4-library/lpc_chip_11cxx_lib/inc/ring_buffer.h ****  * 			least be 2 or greater.
  74:../lpc11cx4-library/lpc_chip_11cxx_lib/inc/ring_buffer.h ****  * @return	Nothing
  75:../lpc11cx4-library/lpc_chip_11cxx_lib/inc/ring_buffer.h ****  */
  76:../lpc11cx4-library/lpc_chip_11cxx_lib/inc/ring_buffer.h **** int RingBuffer_Init(RINGBUFF_T *RingBuff, void *buffer, int itemSize, int count);
  77:../lpc11cx4-library/lpc_chip_11cxx_lib/inc/ring_buffer.h **** 
  78:../lpc11cx4-library/lpc_chip_11cxx_lib/inc/ring_buffer.h **** /**
  79:../lpc11cx4-library/lpc_chip_11cxx_lib/inc/ring_buffer.h ****  * @brief	Resets the ring buffer to empty
  80:../lpc11cx4-library/lpc_chip_11cxx_lib/inc/ring_buffer.h ****  * @param	RingBuff	: Pointer to ring buffer
  81:../lpc11cx4-library/lpc_chip_11cxx_lib/inc/ring_buffer.h ****  * @return	Nothing
  82:../lpc11cx4-library/lpc_chip_11cxx_lib/inc/ring_buffer.h ****  */
  83:../lpc11cx4-library/lpc_chip_11cxx_lib/inc/ring_buffer.h **** STATIC INLINE void RingBuffer_Flush(RINGBUFF_T *RingBuff)
  84:../lpc11cx4-library/lpc_chip_11cxx_lib/inc/ring_buffer.h **** {
  85:../lpc11cx4-library/lpc_chip_11cxx_lib/inc/ring_buffer.h **** 	RingBuff->head = RingBuff->tail = 0;
  86:../lpc11cx4-library/lpc_chip_11cxx_lib/inc/ring_buffer.h **** }
  87:../lpc11cx4-library/lpc_chip_11cxx_lib/inc/ring_buffer.h **** 
  88:../lpc11cx4-library/lpc_chip_11cxx_lib/inc/ring_buffer.h **** /**
  89:../lpc11cx4-library/lpc_chip_11cxx_lib/inc/ring_buffer.h ****  * @brief	Return size the ring buffer
  90:../lpc11cx4-library/lpc_chip_11cxx_lib/inc/ring_buffer.h ****  * @param	RingBuff	: Pointer to ring buffer
  91:../lpc11cx4-library/lpc_chip_11cxx_lib/inc/ring_buffer.h ****  * @return	Size of the ring buffer in bytes
  92:../lpc11cx4-library/lpc_chip_11cxx_lib/inc/ring_buffer.h ****  */
  93:../lpc11cx4-library/lpc_chip_11cxx_lib/inc/ring_buffer.h **** STATIC INLINE int RingBuffer_GetSize(RINGBUFF_T *RingBuff)
  94:../lpc11cx4-library/lpc_chip_11cxx_lib/inc/ring_buffer.h **** {
  95:../lpc11cx4-library/lpc_chip_11cxx_lib/inc/ring_buffer.h **** 	return RingBuff->count;
  96:../lpc11cx4-library/lpc_chip_11cxx_lib/inc/ring_buffer.h **** }
  97:../lpc11cx4-library/lpc_chip_11cxx_lib/inc/ring_buffer.h **** 
  98:../lpc11cx4-library/lpc_chip_11cxx_lib/inc/ring_buffer.h **** /**
ARM GAS  /tmp/ccEzckS3.s 			page 6


  99:../lpc11cx4-library/lpc_chip_11cxx_lib/inc/ring_buffer.h ****  * @brief	Return number of items in the ring buffer
 100:../lpc11cx4-library/lpc_chip_11cxx_lib/inc/ring_buffer.h ****  * @param	RingBuff	: Pointer to ring buffer
 101:../lpc11cx4-library/lpc_chip_11cxx_lib/inc/ring_buffer.h ****  * @return	Number of items in the ring buffer
 102:../lpc11cx4-library/lpc_chip_11cxx_lib/inc/ring_buffer.h ****  */
 103:../lpc11cx4-library/lpc_chip_11cxx_lib/inc/ring_buffer.h **** STATIC INLINE int RingBuffer_GetCount(RINGBUFF_T *RingBuff)
 104:../lpc11cx4-library/lpc_chip_11cxx_lib/inc/ring_buffer.h **** {
 105:../lpc11cx4-library/lpc_chip_11cxx_lib/inc/ring_buffer.h **** 	return RB_VHEAD(RingBuff) - RB_VTAIL(RingBuff);
 106:../lpc11cx4-library/lpc_chip_11cxx_lib/inc/ring_buffer.h **** }
 107:../lpc11cx4-library/lpc_chip_11cxx_lib/inc/ring_buffer.h **** 
 108:../lpc11cx4-library/lpc_chip_11cxx_lib/inc/ring_buffer.h **** /**
 109:../lpc11cx4-library/lpc_chip_11cxx_lib/inc/ring_buffer.h ****  * @brief	Return number of free items in the ring buffer
 110:../lpc11cx4-library/lpc_chip_11cxx_lib/inc/ring_buffer.h ****  * @param	RingBuff	: Pointer to ring buffer
 111:../lpc11cx4-library/lpc_chip_11cxx_lib/inc/ring_buffer.h ****  * @return	Number of free items in the ring buffer
 112:../lpc11cx4-library/lpc_chip_11cxx_lib/inc/ring_buffer.h ****  */
 113:../lpc11cx4-library/lpc_chip_11cxx_lib/inc/ring_buffer.h **** STATIC INLINE int RingBuffer_GetFree(RINGBUFF_T *RingBuff)
 114:../lpc11cx4-library/lpc_chip_11cxx_lib/inc/ring_buffer.h **** {
 115:../lpc11cx4-library/lpc_chip_11cxx_lib/inc/ring_buffer.h **** 	return RingBuff->count - RingBuffer_GetCount(RingBuff);
 116:../lpc11cx4-library/lpc_chip_11cxx_lib/inc/ring_buffer.h **** }
 117:../lpc11cx4-library/lpc_chip_11cxx_lib/inc/ring_buffer.h **** 
 118:../lpc11cx4-library/lpc_chip_11cxx_lib/inc/ring_buffer.h **** /**
 119:../lpc11cx4-library/lpc_chip_11cxx_lib/inc/ring_buffer.h ****  * @brief	Return number of items in the ring buffer
 120:../lpc11cx4-library/lpc_chip_11cxx_lib/inc/ring_buffer.h ****  * @param	RingBuff	: Pointer to ring buffer
 121:../lpc11cx4-library/lpc_chip_11cxx_lib/inc/ring_buffer.h ****  * @return	1 if the ring buffer is full, otherwise 0
 122:../lpc11cx4-library/lpc_chip_11cxx_lib/inc/ring_buffer.h ****  */
 123:../lpc11cx4-library/lpc_chip_11cxx_lib/inc/ring_buffer.h **** STATIC INLINE int RingBuffer_IsFull(RINGBUFF_T *RingBuff)
 124:../lpc11cx4-library/lpc_chip_11cxx_lib/inc/ring_buffer.h **** {
 125:../lpc11cx4-library/lpc_chip_11cxx_lib/inc/ring_buffer.h **** 	return (RingBuffer_GetCount(RingBuff) >= RingBuff->count);
 119              		.loc 2 125 0
 120 0002 4368     		ldr	r3, [r0, #4]	@ D.4704, RingBuff_4(D)->count
 121              	.LBB26:
 122              	.LBB27:
 105:../lpc11cx4-library/lpc_chip_11cxx_lib/inc/ring_buffer.h **** }
 123              		.loc 2 105 0
 124 0004 C468     		ldr	r4, [r0, #12]	@ D.4705, MEM[(volatile uint32_t *)RingBuff_4(D) + 12B]
 125 0006 0569     		ldr	r5, [r0, #16]	@ D.4705, MEM[(volatile uint32_t *)RingBuff_4(D) + 16B]
 126              	.LBE27:
 127              	.LBE26:
 128              	.LBE25:
 129              	.LBE24:
 130              		.loc 1 67 0
 131 0008 021C     		mov	r2, r0	@ RingBuff, RingBuff
  68:../lpc11cx4-library/lpc_chip_11cxx_lib/src/ring_buffer.c **** 	uint8_t *ptr = RingBuff->data;
 132              		.loc 1 68 0
 133 000a 0668     		ldr	r6, [r0]	@ ptr, RingBuff_4(D)->data
 134              	.LVL4:
 135              	.LBB31:
 136              	.LBB30:
 137              	.LBB29:
 138              	.LBB28:
 105:../lpc11cx4-library/lpc_chip_11cxx_lib/inc/ring_buffer.h **** }
 139              		.loc 2 105 0
 140 000c 641B     		sub	r4, r4, r5	@ D.4705, D.4705, D.4705
 141              	.LBE28:
 142              	.LBE29:
 143              	.LBE30:
 144              	.LBE31:
  69:../lpc11cx4-library/lpc_chip_11cxx_lib/src/ring_buffer.c **** 
ARM GAS  /tmp/ccEzckS3.s 			page 7


  70:../lpc11cx4-library/lpc_chip_11cxx_lib/src/ring_buffer.c **** 	/* We cannot insert when queue is full */
  71:../lpc11cx4-library/lpc_chip_11cxx_lib/src/ring_buffer.c **** 	if (RingBuffer_IsFull(RingBuff))
  72:../lpc11cx4-library/lpc_chip_11cxx_lib/src/ring_buffer.c **** 		return 0;
 145              		.loc 1 72 0
 146 000e 0020     		mov	r0, #0	@ D.4704,
 147              	.LVL5:
  71:../lpc11cx4-library/lpc_chip_11cxx_lib/src/ring_buffer.c **** 		return 0;
 148              		.loc 1 71 0
 149 0010 9C42     		cmp	r4, r3	@ D.4705, D.4704
 150 0012 0CDA     		bge	.L3	@,
 151              	.LVL6:
 152 0014 141C     		mov	r4, r2	@ RingBuff, RingBuff
  73:../lpc11cx4-library/lpc_chip_11cxx_lib/src/ring_buffer.c **** 
  74:../lpc11cx4-library/lpc_chip_11cxx_lib/src/ring_buffer.c **** 	ptr += RB_INDH(RingBuff) * RingBuff->itemSz;
 153              		.loc 1 74 0
 154 0016 D268     		ldr	r2, [r2, #12]	@ tmp146, RingBuff_4(D)->head
 155              	.LVL7:
 156 0018 013B     		sub	r3, r3, #1	@ D.4704,
 157              	.LVL8:
 158 001a 1340     		and	r3, r2	@ D.4705, tmp146
 159 001c A268     		ldr	r2, [r4, #8]	@ tmp147, RingBuff_4(D)->itemSz
 160 001e 5343     		mul	r3, r2	@ D.4705, tmp147
 161 0020 F018     		add	r0, r6, r3	@ ptr, ptr, D.4705
  75:../lpc11cx4-library/lpc_chip_11cxx_lib/src/ring_buffer.c **** 	memcpy(ptr, data, RingBuff->itemSz);
 162              		.loc 1 75 0
 163 0022 FFF7FEFF 		bl	memcpy	@
 164              	.LVL9:
  76:../lpc11cx4-library/lpc_chip_11cxx_lib/src/ring_buffer.c **** 	RingBuff->head++;
  77:../lpc11cx4-library/lpc_chip_11cxx_lib/src/ring_buffer.c **** 
  78:../lpc11cx4-library/lpc_chip_11cxx_lib/src/ring_buffer.c **** 	return 1;
 165              		.loc 1 78 0
 166 0026 0120     		mov	r0, #1	@ D.4704,
  76:../lpc11cx4-library/lpc_chip_11cxx_lib/src/ring_buffer.c **** 	RingBuff->head++;
 167              		.loc 1 76 0
 168 0028 E368     		ldr	r3, [r4, #12]	@ tmp148, RingBuff_4(D)->head
 169 002a 0133     		add	r3, r3, #1	@ D.4705,
 170 002c E360     		str	r3, [r4, #12]	@ D.4705, RingBuff_4(D)->head
 171              	.LVL10:
 172              	.L3:
  79:../lpc11cx4-library/lpc_chip_11cxx_lib/src/ring_buffer.c **** }
 173              		.loc 1 79 0
 174              		@ sp needed	@
 175 002e 70BD     		pop	{r4, r5, r6, pc}
 176              		.cfi_endproc
 177              	.LFE7:
 178              		.size	RingBuffer_Insert, .-RingBuffer_Insert
 179              		.section	.text.RingBuffer_InsertMult,"ax",%progbits
 180              		.align	2
 181              		.global	RingBuffer_InsertMult
 182              		.code	16
 183              		.thumb_func
 184              		.type	RingBuffer_InsertMult, %function
 185              	RingBuffer_InsertMult:
 186              	.LFB8:
  80:../lpc11cx4-library/lpc_chip_11cxx_lib/src/ring_buffer.c **** 
  81:../lpc11cx4-library/lpc_chip_11cxx_lib/src/ring_buffer.c **** /* Insert multiple items into Ring Buffer */
  82:../lpc11cx4-library/lpc_chip_11cxx_lib/src/ring_buffer.c **** int RingBuffer_InsertMult(RINGBUFF_T *RingBuff, const void *data, int num)
ARM GAS  /tmp/ccEzckS3.s 			page 8


  83:../lpc11cx4-library/lpc_chip_11cxx_lib/src/ring_buffer.c **** {
 187              		.loc 1 83 0
 188              		.cfi_startproc
 189              	.LVL11:
 190 0000 031C     		mov	r3, r0	@ RingBuff, RingBuff
 191 0002 F0B5     		push	{r4, r5, r6, r7, lr}	@
 192              		.cfi_def_cfa_offset 20
 193              		.cfi_offset 4, -20
 194              		.cfi_offset 5, -16
 195              		.cfi_offset 6, -12
 196              		.cfi_offset 7, -8
 197              		.cfi_offset 14, -4
 198 0004 4746     		mov	r7, r8	@,
  84:../lpc11cx4-library/lpc_chip_11cxx_lib/src/ring_buffer.c **** 	uint8_t *ptr = RingBuff->data;
 199              		.loc 1 84 0
 200 0006 0068     		ldr	r0, [r0]	@ ptr, RingBuff_5(D)->data
 201              	.LVL12:
 202              	.LBB32:
 203              	.LBB33:
 204              	.LBB34:
 205              	.LBB35:
 105:../lpc11cx4-library/lpc_chip_11cxx_lib/inc/ring_buffer.h **** }
 206              		.loc 2 105 0
 207 0008 DE68     		ldr	r6, [r3, #12]	@ D.4713, MEM[(volatile uint32_t *)RingBuff_5(D) + 12B]
 208              	.LBE35:
 209              	.LBE34:
 210              	.LBE33:
 211              	.LBE32:
 212              		.loc 1 84 0
 213 000a 8446     		mov	ip, r0	@ ptr, ptr
 214              	.LVL13:
 215              	.LBB42:
 216              	.LBB40:
 217              		.loc 2 125 0
 218 000c 5C68     		ldr	r4, [r3, #4]	@ D.4712, RingBuff_5(D)->count
 219              	.LBB38:
 220              	.LBB36:
 105:../lpc11cx4-library/lpc_chip_11cxx_lib/inc/ring_buffer.h **** }
 221              		.loc 2 105 0
 222 000e 1869     		ldr	r0, [r3, #16]	@ D.4713, MEM[(volatile uint32_t *)RingBuff_5(D) + 16B]
 223              	.LVL14:
 224              	.LBE36:
 225              	.LBE38:
 226              	.LBE40:
 227              	.LBE42:
  83:../lpc11cx4-library/lpc_chip_11cxx_lib/src/ring_buffer.c **** 	uint8_t *ptr = RingBuff->data;
 228              		.loc 1 83 0
 229 0010 80B4     		push	{r7}	@
 230              		.cfi_def_cfa_offset 24
 231              		.cfi_offset 8, -24
 232              	.LBB43:
 233              	.LBB41:
 234              	.LBB39:
 235              	.LBB37:
 105:../lpc11cx4-library/lpc_chip_11cxx_lib/inc/ring_buffer.h **** }
 236              		.loc 2 105 0
 237 0012 361A     		sub	r6, r6, r0	@ D.4713, D.4713, D.4713
ARM GAS  /tmp/ccEzckS3.s 			page 9


 238              	.LBE37:
 239              	.LBE39:
 240              	.LBE41:
 241              	.LBE43:
  85:../lpc11cx4-library/lpc_chip_11cxx_lib/src/ring_buffer.c **** 	int cnt1, cnt2;
  86:../lpc11cx4-library/lpc_chip_11cxx_lib/src/ring_buffer.c **** 
  87:../lpc11cx4-library/lpc_chip_11cxx_lib/src/ring_buffer.c **** 	/* We cannot insert when queue is full */
  88:../lpc11cx4-library/lpc_chip_11cxx_lib/src/ring_buffer.c **** 	if (RingBuffer_IsFull(RingBuff))
  89:../lpc11cx4-library/lpc_chip_11cxx_lib/src/ring_buffer.c **** 		return 0;
 242              		.loc 1 89 0
 243 0014 0020     		mov	r0, #0	@ D.4712,
  88:../lpc11cx4-library/lpc_chip_11cxx_lib/src/ring_buffer.c **** 		return 0;
 244              		.loc 1 88 0
 245 0016 A642     		cmp	r6, r4	@ D.4713, D.4712
 246 0018 2FDA     		bge	.L7	@,
 247              	.LVL15:
 248              	.LBB44:
 249              	.LBB45:
 250              	.LBB46:
 251              	.LBB47:
 105:../lpc11cx4-library/lpc_chip_11cxx_lib/inc/ring_buffer.h **** }
 252              		.loc 2 105 0
 253 001a DE68     		ldr	r6, [r3, #12]	@ D.4713, MEM[(volatile uint32_t *)RingBuff_5(D) + 12B]
 254 001c 1D69     		ldr	r5, [r3, #16]	@ D.4713, MEM[(volatile uint32_t *)RingBuff_5(D) + 16B]
 255              	.LBE47:
 256              	.LBE46:
 257              	.LBE45:
 258              	.LBE44:
  90:../lpc11cx4-library/lpc_chip_11cxx_lib/src/ring_buffer.c **** 
  91:../lpc11cx4-library/lpc_chip_11cxx_lib/src/ring_buffer.c **** 	/* Calculate the segment lengths */
  92:../lpc11cx4-library/lpc_chip_11cxx_lib/src/ring_buffer.c **** 	cnt1 = cnt2 = RingBuffer_GetFree(RingBuff);
  93:../lpc11cx4-library/lpc_chip_11cxx_lib/src/ring_buffer.c **** 	if (RB_INDH(RingBuff) + cnt1 >= RingBuff->count)
 259              		.loc 1 93 0
 260 001e D868     		ldr	r0, [r3, #12]	@ tmp201, RingBuff_5(D)->head
 261              	.LBB52:
 262              	.LBB50:
 263              	.LBB49:
 264              	.LBB48:
 105:../lpc11cx4-library/lpc_chip_11cxx_lib/inc/ring_buffer.h **** }
 265              		.loc 2 105 0
 266 0020 751B     		sub	r5, r6, r5	@ D.4713, D.4713, D.4713
 267              	.LBE48:
 268              	.LBE49:
 269              	.LBE50:
 270              	.LBE52:
 271              		.loc 1 93 0
 272 0022 661E     		sub	r6, r4, #1	@ D.4712, D.4712,
 273 0024 0640     		and	r6, r0	@ D.4713, tmp201
 274              	.LBB53:
 275              	.LBB51:
 115:../lpc11cx4-library/lpc_chip_11cxx_lib/inc/ring_buffer.h **** }
 276              		.loc 2 115 0
 277 0026 651B     		sub	r5, r4, r5	@ cnt1, D.4712, D.4713
 278              	.LVL16:
 279              	.LBE51:
 280              	.LBE53:
 281              		.loc 1 93 0
ARM GAS  /tmp/ccEzckS3.s 			page 10


 282 0028 AF19     		add	r7, r5, r6	@ D.4713, cnt1, D.4713
 283 002a 0020     		mov	r0, #0	@ D.4712,
 284 002c A742     		cmp	r7, r4	@ D.4713, D.4712
 285 002e 02D3     		bcc	.L8	@,
  94:../lpc11cx4-library/lpc_chip_11cxx_lib/src/ring_buffer.c **** 		cnt1 = RingBuff->count - RB_INDH(RingBuff);
 286              		.loc 1 94 0
 287 0030 A41B     		sub	r4, r4, r6	@ cnt1, D.4712, D.4713
 288              	.LVL17:
 289 0032 281B     		sub	r0, r5, r4	@ D.4712, cnt1, cnt1
 290 0034 251C     		mov	r5, r4	@ cnt1, cnt1
 291              	.LVL18:
 292              	.L8:
  95:../lpc11cx4-library/lpc_chip_11cxx_lib/src/ring_buffer.c **** 	cnt2 -= cnt1;
  96:../lpc11cx4-library/lpc_chip_11cxx_lib/src/ring_buffer.c **** 
  97:../lpc11cx4-library/lpc_chip_11cxx_lib/src/ring_buffer.c **** 	cnt1 = MIN(cnt1, num);
 293              		.loc 1 97 0
 294 0036 9542     		cmp	r5, r2	@ cnt1, num
 295 0038 24DC     		bgt	.L13	@,
 296              	.LVL19:
  98:../lpc11cx4-library/lpc_chip_11cxx_lib/src/ring_buffer.c **** 	num -= cnt1;
 297              		.loc 1 98 0
 298 003a 571B     		sub	r7, r2, r5	@ cnt2, num, cnt1
 299              	.LVL20:
  99:../lpc11cx4-library/lpc_chip_11cxx_lib/src/ring_buffer.c **** 
 100:../lpc11cx4-library/lpc_chip_11cxx_lib/src/ring_buffer.c **** 	cnt2 = MIN(cnt2, num);
 300              		.loc 1 100 0
 301 003c 8742     		cmp	r7, r0	@ cnt2, D.4712
 302 003e 1FDC     		bgt	.L14	@,
 303              	.LVL21:
 304              	.L10:
 101:../lpc11cx4-library/lpc_chip_11cxx_lib/src/ring_buffer.c **** 	num -= cnt2;
 102:../lpc11cx4-library/lpc_chip_11cxx_lib/src/ring_buffer.c **** 
 103:../lpc11cx4-library/lpc_chip_11cxx_lib/src/ring_buffer.c **** 	/* Write segment 1 */
 104:../lpc11cx4-library/lpc_chip_11cxx_lib/src/ring_buffer.c **** 	ptr += RB_INDH(RingBuff) * RingBuff->itemSz;
 305              		.loc 1 104 0
 306 0040 9A68     		ldr	r2, [r3, #8]	@ D.4712, RingBuff_5(D)->itemSz
 307 0042 1C1C     		mov	r4, r3	@ RingBuff, RingBuff
 308              	.LVL22:
 309 0044 5643     		mul	r6, r2	@ D.4713, D.4712
 310              	.LVL23:
 311 0046 301C     		mov	r0, r6	@ ptr, D.4713
 105:../lpc11cx4-library/lpc_chip_11cxx_lib/src/ring_buffer.c **** 	memcpy(ptr, data, cnt1 * RingBuff->itemSz);
 312              		.loc 1 105 0
 313 0048 6A43     		mul	r2, r5	@ D.4712, cnt1
 314              	.LVL24:
 104:../lpc11cx4-library/lpc_chip_11cxx_lib/src/ring_buffer.c **** 	memcpy(ptr, data, cnt1 * RingBuff->itemSz);
 315              		.loc 1 104 0
 316 004a 6044     		add	r0, r0, ip	@ ptr, ptr
 317              	.LVL25:
 318 004c 8846     		mov	r8, r1	@ data, data
 319              		.loc 1 105 0
 320 004e FFF7FEFF 		bl	memcpy	@
 321              	.LVL26:
 106:../lpc11cx4-library/lpc_chip_11cxx_lib/src/ring_buffer.c **** 	RingBuff->head += cnt1;
 322              		.loc 1 106 0
 323 0052 E368     		ldr	r3, [r4, #12]	@ tmp203, RingBuff_5(D)->head
 107:../lpc11cx4-library/lpc_chip_11cxx_lib/src/ring_buffer.c **** 
ARM GAS  /tmp/ccEzckS3.s 			page 11


 108:../lpc11cx4-library/lpc_chip_11cxx_lib/src/ring_buffer.c **** 	/* Write segment 2 */
 109:../lpc11cx4-library/lpc_chip_11cxx_lib/src/ring_buffer.c **** 	ptr = (uint8_t *) RingBuff->data + RB_INDH(RingBuff) * RingBuff->itemSz;
 324              		.loc 1 109 0
 325 0054 6268     		ldr	r2, [r4, #4]	@ tmp204, RingBuff_5(D)->count
 326 0056 A168     		ldr	r1, [r4, #8]	@ D.4712, RingBuff_5(D)->itemSz
 327 0058 501E     		sub	r0, r2, #1	@ D.4712, tmp204,
 106:../lpc11cx4-library/lpc_chip_11cxx_lib/src/ring_buffer.c **** 	RingBuff->head += cnt1;
 328              		.loc 1 106 0
 329 005a EB18     		add	r3, r5, r3	@ D.4713, cnt1, tmp203
 330              	.LVL27:
 331 005c E360     		str	r3, [r4, #12]	@ D.4713, RingBuff_5(D)->head
 332              		.loc 1 109 0
 333 005e 0340     		and	r3, r0	@ D.4713, D.4712
 334              	.LVL28:
 335 0060 4B43     		mul	r3, r1	@ D.4713, D.4712
 336 0062 2268     		ldr	r2, [r4]	@ tmp205, RingBuff_5(D)->data
 337              	.LVL29:
 338 0064 D018     		add	r0, r2, r3	@ ptr, tmp205, D.4713
 110:../lpc11cx4-library/lpc_chip_11cxx_lib/src/ring_buffer.c **** 	data = (const uint8_t *) data + cnt1 * RingBuff->itemSz;
 111:../lpc11cx4-library/lpc_chip_11cxx_lib/src/ring_buffer.c **** 	memcpy(ptr, data, cnt2 * RingBuff->itemSz);
 339              		.loc 1 111 0
 340 0066 0A1C     		mov	r2, r1	@ D.4712, D.4712
 110:../lpc11cx4-library/lpc_chip_11cxx_lib/src/ring_buffer.c **** 	data = (const uint8_t *) data + cnt1 * RingBuff->itemSz;
 341              		.loc 1 110 0
 342 0068 6943     		mul	r1, r5	@ D.4712, cnt1
 343              	.LVL30:
 344              		.loc 1 111 0
 345 006a 7A43     		mul	r2, r7	@ D.4712, cnt2
 346              	.LVL31:
 110:../lpc11cx4-library/lpc_chip_11cxx_lib/src/ring_buffer.c **** 	data = (const uint8_t *) data + cnt1 * RingBuff->itemSz;
 347              		.loc 1 110 0
 348 006c 4144     		add	r1, r1, r8	@ data, data
 349              	.LVL32:
 350              		.loc 1 111 0
 351 006e FFF7FEFF 		bl	memcpy	@
 352              	.LVL33:
 112:../lpc11cx4-library/lpc_chip_11cxx_lib/src/ring_buffer.c **** 	RingBuff->head += cnt2;
 353              		.loc 1 112 0
 354 0072 E368     		ldr	r3, [r4, #12]	@ tmp207, RingBuff_5(D)->head
 113:../lpc11cx4-library/lpc_chip_11cxx_lib/src/ring_buffer.c **** 
 114:../lpc11cx4-library/lpc_chip_11cxx_lib/src/ring_buffer.c **** 	return cnt1 + cnt2;
 355              		.loc 1 114 0
 356 0074 E819     		add	r0, r5, r7	@ D.4712, cnt1, cnt2
 112:../lpc11cx4-library/lpc_chip_11cxx_lib/src/ring_buffer.c **** 	RingBuff->head += cnt2;
 357              		.loc 1 112 0
 358 0076 DB19     		add	r3, r3, r7	@ D.4713, tmp207, cnt2
 359 0078 E360     		str	r3, [r4, #12]	@ D.4713, RingBuff_5(D)->head
 360              	.LVL34:
 361              	.L7:
 115:../lpc11cx4-library/lpc_chip_11cxx_lib/src/ring_buffer.c **** }
 362              		.loc 1 115 0
 363              		@ sp needed	@
 364 007a 04BC     		pop	{r2}
 365 007c 9046     		mov	r8, r2
 366 007e F0BD     		pop	{r4, r5, r6, r7, pc}
 367              	.LVL35:
 368              	.L14:
ARM GAS  /tmp/ccEzckS3.s 			page 12


 100:../lpc11cx4-library/lpc_chip_11cxx_lib/src/ring_buffer.c **** 	num -= cnt2;
 369              		.loc 1 100 0
 370 0080 071C     		mov	r7, r0	@ cnt2, D.4712
 371              	.LVL36:
 372 0082 DDE7     		b	.L10	@
 373              	.LVL37:
 374              	.L13:
  97:../lpc11cx4-library/lpc_chip_11cxx_lib/src/ring_buffer.c **** 	num -= cnt1;
 375              		.loc 1 97 0
 376 0084 151C     		mov	r5, r2	@ cnt1, num
 377              	.LVL38:
  98:../lpc11cx4-library/lpc_chip_11cxx_lib/src/ring_buffer.c **** 
 378              		.loc 1 98 0
 379 0086 571B     		sub	r7, r2, r5	@ cnt2, num, cnt1
 380              	.LVL39:
 100:../lpc11cx4-library/lpc_chip_11cxx_lib/src/ring_buffer.c **** 	num -= cnt2;
 381              		.loc 1 100 0
 382 0088 8742     		cmp	r7, r0	@ cnt2, D.4712
 383 008a D9DD     		ble	.L10	@,
 384              	.LVL40:
 385 008c F8E7     		b	.L14	@
 386              		.cfi_endproc
 387              	.LFE8:
 388              		.size	RingBuffer_InsertMult, .-RingBuffer_InsertMult
 389 008e C046     		.section	.text.RingBuffer_Pop,"ax",%progbits
 390              		.align	2
 391              		.global	RingBuffer_Pop
 392              		.code	16
 393              		.thumb_func
 394              		.type	RingBuffer_Pop, %function
 395              	RingBuffer_Pop:
 396              	.LFB9:
 116:../lpc11cx4-library/lpc_chip_11cxx_lib/src/ring_buffer.c **** 
 117:../lpc11cx4-library/lpc_chip_11cxx_lib/src/ring_buffer.c **** /* Pop single item from Ring Buffer */
 118:../lpc11cx4-library/lpc_chip_11cxx_lib/src/ring_buffer.c **** int RingBuffer_Pop(RINGBUFF_T *RingBuff, void *data)
 119:../lpc11cx4-library/lpc_chip_11cxx_lib/src/ring_buffer.c **** {
 397              		.loc 1 119 0
 398              		.cfi_startproc
 399              	.LVL41:
 400 0000 38B5     		push	{r3, r4, r5, lr}	@
 401              		.cfi_def_cfa_offset 16
 402              		.cfi_offset 3, -16
 403              		.cfi_offset 4, -12
 404              		.cfi_offset 5, -8
 405              		.cfi_offset 14, -4
 406              	.LBB54:
 407              	.LBB55:
 126:../lpc11cx4-library/lpc_chip_11cxx_lib/inc/ring_buffer.h **** }
 127:../lpc11cx4-library/lpc_chip_11cxx_lib/inc/ring_buffer.h **** 
 128:../lpc11cx4-library/lpc_chip_11cxx_lib/inc/ring_buffer.h **** /**
 129:../lpc11cx4-library/lpc_chip_11cxx_lib/inc/ring_buffer.h ****  * @brief	Return empty status of ring buffer
 130:../lpc11cx4-library/lpc_chip_11cxx_lib/inc/ring_buffer.h ****  * @param	RingBuff	: Pointer to ring buffer
 131:../lpc11cx4-library/lpc_chip_11cxx_lib/inc/ring_buffer.h ****  * @return	1 if the ring buffer is empty, otherwise 0
 132:../lpc11cx4-library/lpc_chip_11cxx_lib/inc/ring_buffer.h ****  */
 133:../lpc11cx4-library/lpc_chip_11cxx_lib/inc/ring_buffer.h **** STATIC INLINE int RingBuffer_IsEmpty(RINGBUFF_T *RingBuff)
 134:../lpc11cx4-library/lpc_chip_11cxx_lib/inc/ring_buffer.h **** {
 135:../lpc11cx4-library/lpc_chip_11cxx_lib/inc/ring_buffer.h **** 	return RB_VHEAD(RingBuff) == RB_VTAIL(RingBuff);
ARM GAS  /tmp/ccEzckS3.s 			page 13


 408              		.loc 2 135 0
 409 0002 C468     		ldr	r4, [r0, #12]	@ D.4727, MEM[(volatile uint32_t *)RingBuff_4(D) + 12B]
 410 0004 0269     		ldr	r2, [r0, #16]	@ D.4727, MEM[(volatile uint32_t *)RingBuff_4(D) + 16B]
 411              	.LBE55:
 412              	.LBE54:
 413              		.loc 1 119 0
 414 0006 031C     		mov	r3, r0	@ RingBuff, RingBuff
 120:../lpc11cx4-library/lpc_chip_11cxx_lib/src/ring_buffer.c **** 	uint8_t *ptr = RingBuff->data;
 415              		.loc 1 120 0
 416 0008 0568     		ldr	r5, [r0]	@ ptr, RingBuff_4(D)->data
 417              	.LVL42:
 121:../lpc11cx4-library/lpc_chip_11cxx_lib/src/ring_buffer.c **** 
 122:../lpc11cx4-library/lpc_chip_11cxx_lib/src/ring_buffer.c **** 	/* We cannot pop when queue is empty */
 123:../lpc11cx4-library/lpc_chip_11cxx_lib/src/ring_buffer.c **** 	if (RingBuffer_IsEmpty(RingBuff))
 124:../lpc11cx4-library/lpc_chip_11cxx_lib/src/ring_buffer.c **** 		return 0;
 418              		.loc 1 124 0
 419 000a 0020     		mov	r0, #0	@ D.4726,
 420              	.LVL43:
 123:../lpc11cx4-library/lpc_chip_11cxx_lib/src/ring_buffer.c **** 		return 0;
 421              		.loc 1 123 0
 422 000c 9442     		cmp	r4, r2	@ D.4727, D.4727
 423 000e 0ED0     		beq	.L16	@,
 424              	.LVL44:
 425 0010 1C1C     		mov	r4, r3	@ RingBuff, RingBuff
 125:../lpc11cx4-library/lpc_chip_11cxx_lib/src/ring_buffer.c **** 
 126:../lpc11cx4-library/lpc_chip_11cxx_lib/src/ring_buffer.c **** 	ptr += RB_INDT(RingBuff) * RingBuff->itemSz;
 426              		.loc 1 126 0
 427 0012 5B68     		ldr	r3, [r3, #4]	@ tmp144, RingBuff_4(D)->count
 428              	.LVL45:
 429 0014 2269     		ldr	r2, [r4, #16]	@ tmp145, RingBuff_4(D)->tail
 430 0016 013B     		sub	r3, r3, #1	@ D.4726,
 431              	.LVL46:
 432 0018 1340     		and	r3, r2	@ D.4727, tmp145
 433 001a A268     		ldr	r2, [r4, #8]	@ tmp146, RingBuff_4(D)->itemSz
 434 001c 081C     		mov	r0, r1	@ data, data
 435 001e 5343     		mul	r3, r2	@ D.4727, tmp146
 436 0020 E918     		add	r1, r5, r3	@ ptr, ptr, D.4727
 437              	.LVL47:
 127:../lpc11cx4-library/lpc_chip_11cxx_lib/src/ring_buffer.c **** 	memcpy(data, ptr, RingBuff->itemSz);
 438              		.loc 1 127 0
 439 0022 FFF7FEFF 		bl	memcpy	@
 440              	.LVL48:
 128:../lpc11cx4-library/lpc_chip_11cxx_lib/src/ring_buffer.c **** 	RingBuff->tail++;
 129:../lpc11cx4-library/lpc_chip_11cxx_lib/src/ring_buffer.c **** 
 130:../lpc11cx4-library/lpc_chip_11cxx_lib/src/ring_buffer.c **** 	return 1;
 441              		.loc 1 130 0
 442 0026 0120     		mov	r0, #1	@ D.4726,
 128:../lpc11cx4-library/lpc_chip_11cxx_lib/src/ring_buffer.c **** 	RingBuff->tail++;
 443              		.loc 1 128 0
 444 0028 2369     		ldr	r3, [r4, #16]	@ tmp147, RingBuff_4(D)->tail
 445 002a 0133     		add	r3, r3, #1	@ D.4727,
 446 002c 2361     		str	r3, [r4, #16]	@ D.4727, RingBuff_4(D)->tail
 447              	.LVL49:
 448              	.L16:
 131:../lpc11cx4-library/lpc_chip_11cxx_lib/src/ring_buffer.c **** }
 449              		.loc 1 131 0
 450              		@ sp needed	@
ARM GAS  /tmp/ccEzckS3.s 			page 14


 451 002e 38BD     		pop	{r3, r4, r5, pc}
 452              		.cfi_endproc
 453              	.LFE9:
 454              		.size	RingBuffer_Pop, .-RingBuffer_Pop
 455              		.section	.text.RingBuffer_PopMult,"ax",%progbits
 456              		.align	2
 457              		.global	RingBuffer_PopMult
 458              		.code	16
 459              		.thumb_func
 460              		.type	RingBuffer_PopMult, %function
 461              	RingBuffer_PopMult:
 462              	.LFB10:
 132:../lpc11cx4-library/lpc_chip_11cxx_lib/src/ring_buffer.c **** 
 133:../lpc11cx4-library/lpc_chip_11cxx_lib/src/ring_buffer.c **** /* Pop multiple items from Ring buffer */
 134:../lpc11cx4-library/lpc_chip_11cxx_lib/src/ring_buffer.c **** int RingBuffer_PopMult(RINGBUFF_T *RingBuff, void *data, int num)
 135:../lpc11cx4-library/lpc_chip_11cxx_lib/src/ring_buffer.c **** {
 463              		.loc 1 135 0
 464              		.cfi_startproc
 465              	.LVL50:
 466 0000 F0B5     		push	{r4, r5, r6, r7, lr}	@
 467              		.cfi_def_cfa_offset 20
 468              		.cfi_offset 4, -20
 469              		.cfi_offset 5, -16
 470              		.cfi_offset 6, -12
 471              		.cfi_offset 7, -8
 472              		.cfi_offset 14, -4
 473 0002 4746     		mov	r7, r8	@,
 136:../lpc11cx4-library/lpc_chip_11cxx_lib/src/ring_buffer.c **** 	uint8_t *ptr = RingBuff->data;
 474              		.loc 1 136 0
 475 0004 0368     		ldr	r3, [r0]	@ ptr, RingBuff_5(D)->data
 476              	.LBB56:
 477              	.LBB57:
 478              		.loc 2 135 0
 479 0006 C468     		ldr	r4, [r0, #12]	@ D.4734, MEM[(volatile uint32_t *)RingBuff_5(D) + 12B]
 480              	.LBE57:
 481              	.LBE56:
 482              		.loc 1 136 0
 483 0008 9C46     		mov	ip, r3	@ ptr, ptr
 484              	.LVL51:
 485              	.LBB59:
 486              	.LBB58:
 487              		.loc 2 135 0
 488 000a 0369     		ldr	r3, [r0, #16]	@ D.4734, MEM[(volatile uint32_t *)RingBuff_5(D) + 16B]
 489              	.LVL52:
 490              	.LBE58:
 491              	.LBE59:
 135:../lpc11cx4-library/lpc_chip_11cxx_lib/src/ring_buffer.c **** 	uint8_t *ptr = RingBuff->data;
 492              		.loc 1 135 0
 493 000c 80B4     		push	{r7}	@
 494              		.cfi_def_cfa_offset 24
 495              		.cfi_offset 8, -24
 137:../lpc11cx4-library/lpc_chip_11cxx_lib/src/ring_buffer.c **** 	int cnt1, cnt2;
 138:../lpc11cx4-library/lpc_chip_11cxx_lib/src/ring_buffer.c **** 
 139:../lpc11cx4-library/lpc_chip_11cxx_lib/src/ring_buffer.c **** 	/* We cannot insert when queue is empty */
 140:../lpc11cx4-library/lpc_chip_11cxx_lib/src/ring_buffer.c **** 	if (RingBuffer_IsEmpty(RingBuff))
 496              		.loc 1 140 0
 497 000e 9C42     		cmp	r4, r3	@ D.4734, D.4734
ARM GAS  /tmp/ccEzckS3.s 			page 15


 498 0010 3CD0     		beq	.L23	@,
 499              	.LVL53:
 500              	.LBB60:
 501              	.LBB61:
 105:../lpc11cx4-library/lpc_chip_11cxx_lib/inc/ring_buffer.h **** }
 502              		.loc 2 105 0
 503 0012 C468     		ldr	r4, [r0, #12]	@ D.4734, MEM[(volatile uint32_t *)RingBuff_5(D) + 12B]
 504 0014 0569     		ldr	r5, [r0, #16]	@ D.4734, MEM[(volatile uint32_t *)RingBuff_5(D) + 16B]
 505              	.LBE61:
 506              	.LBE60:
 141:../lpc11cx4-library/lpc_chip_11cxx_lib/src/ring_buffer.c **** 		return 0;
 142:../lpc11cx4-library/lpc_chip_11cxx_lib/src/ring_buffer.c **** 
 143:../lpc11cx4-library/lpc_chip_11cxx_lib/src/ring_buffer.c **** 	/* Calculate the segment lengths */
 144:../lpc11cx4-library/lpc_chip_11cxx_lib/src/ring_buffer.c **** 	cnt1 = cnt2 = RingBuffer_GetCount(RingBuff);
 145:../lpc11cx4-library/lpc_chip_11cxx_lib/src/ring_buffer.c **** 	if (RB_INDT(RingBuff) + cnt1 >= RingBuff->count)
 507              		.loc 1 145 0
 508 0016 0769     		ldr	r7, [r0, #16]	@ D.4734, RingBuff_5(D)->tail
 509              	.LBB63:
 510              	.LBB62:
 105:../lpc11cx4-library/lpc_chip_11cxx_lib/inc/ring_buffer.h **** }
 511              		.loc 2 105 0
 512 0018 651B     		sub	r5, r4, r5	@ cnt1, D.4734, D.4734
 513              	.LVL54:
 514              	.LBE62:
 515              	.LBE63:
 516              		.loc 1 145 0
 517 001a 4468     		ldr	r4, [r0, #4]	@ D.4733, RingBuff_5(D)->count
 518 001c 631E     		sub	r3, r4, #1	@ D.4733, D.4733,
 519 001e 1F40     		and	r7, r3	@ D.4734, D.4733
 520 0020 EE19     		add	r6, r5, r7	@ D.4734, cnt1, D.4734
 521 0022 0023     		mov	r3, #0	@ D.4733,
 522 0024 A642     		cmp	r6, r4	@ D.4734, D.4733
 523 0026 02D3     		bcc	.L20	@,
 146:../lpc11cx4-library/lpc_chip_11cxx_lib/src/ring_buffer.c **** 		cnt1 = RingBuff->count - RB_INDT(RingBuff);
 524              		.loc 1 146 0
 525 0028 E41B     		sub	r4, r4, r7	@ cnt1, D.4733, D.4734
 526              	.LVL55:
 527 002a 2B1B     		sub	r3, r5, r4	@ D.4733, cnt1, cnt1
 528 002c 251C     		mov	r5, r4	@ cnt1, cnt1
 529              	.LVL56:
 530              	.L20:
 147:../lpc11cx4-library/lpc_chip_11cxx_lib/src/ring_buffer.c **** 	cnt2 -= cnt1;
 148:../lpc11cx4-library/lpc_chip_11cxx_lib/src/ring_buffer.c **** 
 149:../lpc11cx4-library/lpc_chip_11cxx_lib/src/ring_buffer.c **** 	cnt1 = MIN(cnt1, num);
 531              		.loc 1 149 0
 532 002e 9542     		cmp	r5, r2	@ cnt1, num
 533 0030 27DC     		bgt	.L25	@,
 534              	.LVL57:
 150:../lpc11cx4-library/lpc_chip_11cxx_lib/src/ring_buffer.c **** 	num -= cnt1;
 535              		.loc 1 150 0
 536 0032 561B     		sub	r6, r2, r5	@ cnt2, num, cnt1
 537              	.LVL58:
 151:../lpc11cx4-library/lpc_chip_11cxx_lib/src/ring_buffer.c **** 
 152:../lpc11cx4-library/lpc_chip_11cxx_lib/src/ring_buffer.c **** 	cnt2 = MIN(cnt2, num);
 538              		.loc 1 152 0
 539 0034 9E42     		cmp	r6, r3	@ cnt2, D.4733
 540 0036 22DC     		bgt	.L26	@,
ARM GAS  /tmp/ccEzckS3.s 			page 16


 541              	.LVL59:
 542              	.L22:
 153:../lpc11cx4-library/lpc_chip_11cxx_lib/src/ring_buffer.c **** 	num -= cnt2;
 154:../lpc11cx4-library/lpc_chip_11cxx_lib/src/ring_buffer.c **** 
 155:../lpc11cx4-library/lpc_chip_11cxx_lib/src/ring_buffer.c **** 	/* Write segment 1 */
 156:../lpc11cx4-library/lpc_chip_11cxx_lib/src/ring_buffer.c **** 	ptr += RB_INDT(RingBuff) * RingBuff->itemSz;
 543              		.loc 1 156 0
 544 0038 8368     		ldr	r3, [r0, #8]	@ D.4733, RingBuff_5(D)->itemSz
 545              	.LVL60:
 546 003a 8846     		mov	r8, r1	@ data, data
 157:../lpc11cx4-library/lpc_chip_11cxx_lib/src/ring_buffer.c **** 	memcpy(data, ptr, cnt1 * RingBuff->itemSz);
 547              		.loc 1 157 0
 548 003c 1A1C     		mov	r2, r3	@ D.4733, D.4733
 549 003e 041C     		mov	r4, r0	@ RingBuff, RingBuff
 550              	.LVL61:
 156:../lpc11cx4-library/lpc_chip_11cxx_lib/src/ring_buffer.c **** 	memcpy(data, ptr, cnt1 * RingBuff->itemSz);
 551              		.loc 1 156 0
 552 0040 7B43     		mul	r3, r7	@ D.4734, D.4734
 553 0042 6344     		add	r3, r3, ip	@ ptr, ptr
 554              	.LVL62:
 555 0044 191C     		mov	r1, r3	@ ptr, ptr
 556              	.LVL63:
 557              		.loc 1 157 0
 558 0046 6A43     		mul	r2, r5	@ D.4733, cnt1
 559 0048 4046     		mov	r0, r8	@, data
 560              	.LVL64:
 561 004a FFF7FEFF 		bl	memcpy	@
 562              	.LVL65:
 158:../lpc11cx4-library/lpc_chip_11cxx_lib/src/ring_buffer.c **** 	RingBuff->tail += cnt1;
 563              		.loc 1 158 0
 564 004e 2369     		ldr	r3, [r4, #16]	@ tmp197, RingBuff_5(D)->tail
 159:../lpc11cx4-library/lpc_chip_11cxx_lib/src/ring_buffer.c **** 
 160:../lpc11cx4-library/lpc_chip_11cxx_lib/src/ring_buffer.c **** 	/* Write segment 2 */
 161:../lpc11cx4-library/lpc_chip_11cxx_lib/src/ring_buffer.c **** 	ptr = (uint8_t *) RingBuff->data + RB_INDT(RingBuff) * RingBuff->itemSz;
 565              		.loc 1 161 0
 566 0050 6168     		ldr	r1, [r4, #4]	@ tmp200, RingBuff_5(D)->count
 158:../lpc11cx4-library/lpc_chip_11cxx_lib/src/ring_buffer.c **** 	RingBuff->tail += cnt1;
 567              		.loc 1 158 0
 568 0052 EF18     		add	r7, r5, r3	@ D.4734, cnt1, tmp197
 569              		.loc 1 161 0
 570 0054 A368     		ldr	r3, [r4, #8]	@ D.4733, RingBuff_5(D)->itemSz
 571              	.LVL66:
 572 0056 0139     		sub	r1, r1, #1	@ D.4733,
 573              	.LVL67:
 162:../lpc11cx4-library/lpc_chip_11cxx_lib/src/ring_buffer.c **** 	data = (uint8_t *) data + cnt1 * RingBuff->itemSz;
 574              		.loc 1 162 0
 575 0058 181C     		mov	r0, r3	@ D.4733, D.4733
 163:../lpc11cx4-library/lpc_chip_11cxx_lib/src/ring_buffer.c **** 	memcpy(data, ptr, cnt2 * RingBuff->itemSz);
 576              		.loc 1 163 0
 577 005a 1A1C     		mov	r2, r3	@ D.4733, D.4733
 161:../lpc11cx4-library/lpc_chip_11cxx_lib/src/ring_buffer.c **** 	data = (uint8_t *) data + cnt1 * RingBuff->itemSz;
 578              		.loc 1 161 0
 579 005c 3940     		and	r1, r7	@ D.4734, D.4734
 580 005e 4B43     		mul	r3, r1	@ D.4734, D.4734
 581              	.LVL68:
 162:../lpc11cx4-library/lpc_chip_11cxx_lib/src/ring_buffer.c **** 	data = (uint8_t *) data + cnt1 * RingBuff->itemSz;
 582              		.loc 1 162 0
ARM GAS  /tmp/ccEzckS3.s 			page 17


 583 0060 6843     		mul	r0, r5	@ D.4733, cnt1
 584              	.LVL69:
 161:../lpc11cx4-library/lpc_chip_11cxx_lib/src/ring_buffer.c **** 	data = (uint8_t *) data + cnt1 * RingBuff->itemSz;
 585              		.loc 1 161 0
 586 0062 2168     		ldr	r1, [r4]	@ tmp201, RingBuff_5(D)->data
 158:../lpc11cx4-library/lpc_chip_11cxx_lib/src/ring_buffer.c **** 
 587              		.loc 1 158 0
 588 0064 2761     		str	r7, [r4, #16]	@ D.4734, RingBuff_5(D)->tail
 161:../lpc11cx4-library/lpc_chip_11cxx_lib/src/ring_buffer.c **** 	data = (uint8_t *) data + cnt1 * RingBuff->itemSz;
 589              		.loc 1 161 0
 590 0066 C918     		add	r1, r1, r3	@ ptr, tmp201, D.4734
 162:../lpc11cx4-library/lpc_chip_11cxx_lib/src/ring_buffer.c **** 	memcpy(data, ptr, cnt2 * RingBuff->itemSz);
 591              		.loc 1 162 0
 592 0068 4044     		add	r0, r0, r8	@ data, data
 593              	.LVL70:
 594              		.loc 1 163 0
 595 006a 7243     		mul	r2, r6	@ D.4733, cnt2
 596              	.LVL71:
 597 006c FFF7FEFF 		bl	memcpy	@
 598              	.LVL72:
 164:../lpc11cx4-library/lpc_chip_11cxx_lib/src/ring_buffer.c **** 	RingBuff->tail += cnt2;
 599              		.loc 1 164 0
 600 0070 2369     		ldr	r3, [r4, #16]	@ tmp202, RingBuff_5(D)->tail
 165:../lpc11cx4-library/lpc_chip_11cxx_lib/src/ring_buffer.c **** 
 166:../lpc11cx4-library/lpc_chip_11cxx_lib/src/ring_buffer.c **** 	return cnt1 + cnt2;
 601              		.loc 1 166 0
 602 0072 A819     		add	r0, r5, r6	@ D.4733, cnt1, cnt2
 164:../lpc11cx4-library/lpc_chip_11cxx_lib/src/ring_buffer.c **** 	RingBuff->tail += cnt2;
 603              		.loc 1 164 0
 604 0074 9B19     		add	r3, r3, r6	@ D.4734, tmp202, cnt2
 605 0076 2361     		str	r3, [r4, #16]	@ D.4734, RingBuff_5(D)->tail
 606              	.LVL73:
 607              	.L19:
 167:../lpc11cx4-library/lpc_chip_11cxx_lib/src/ring_buffer.c **** }
 608              		.loc 1 167 0
 609              		@ sp needed	@
 610 0078 04BC     		pop	{r2}
 611 007a 9046     		mov	r8, r2
 612 007c F0BD     		pop	{r4, r5, r6, r7, pc}
 613              	.LVL74:
 614              	.L26:
 152:../lpc11cx4-library/lpc_chip_11cxx_lib/src/ring_buffer.c **** 	num -= cnt2;
 615              		.loc 1 152 0
 616 007e 1E1C     		mov	r6, r3	@ cnt2, D.4733
 617              	.LVL75:
 618 0080 DAE7     		b	.L22	@
 619              	.LVL76:
 620              	.L25:
 149:../lpc11cx4-library/lpc_chip_11cxx_lib/src/ring_buffer.c **** 	num -= cnt1;
 621              		.loc 1 149 0
 622 0082 151C     		mov	r5, r2	@ cnt1, num
 623              	.LVL77:
 150:../lpc11cx4-library/lpc_chip_11cxx_lib/src/ring_buffer.c **** 
 624              		.loc 1 150 0
 625 0084 561B     		sub	r6, r2, r5	@ cnt2, num, cnt1
 626              	.LVL78:
 152:../lpc11cx4-library/lpc_chip_11cxx_lib/src/ring_buffer.c **** 	num -= cnt2;
ARM GAS  /tmp/ccEzckS3.s 			page 18


 627              		.loc 1 152 0
 628 0086 9E42     		cmp	r6, r3	@ cnt2, D.4733
 629 0088 D6DD     		ble	.L22	@,
 630              	.LVL79:
 631 008a F8E7     		b	.L26	@
 632              	.LVL80:
 633              	.L23:
 141:../lpc11cx4-library/lpc_chip_11cxx_lib/src/ring_buffer.c **** 
 634              		.loc 1 141 0
 635 008c 0020     		mov	r0, #0	@ D.4733,
 636              	.LVL81:
 637 008e F3E7     		b	.L19	@
 638              		.cfi_endproc
 639              	.LFE10:
 640              		.size	RingBuffer_PopMult, .-RingBuffer_PopMult
 641              		.text
 642              	.Letext0:
 643              		.file 3 "/usr/arm-none-eabi/include/machine/_default_types.h"
 644              		.file 4 "/usr/arm-none-eabi/include/stdint.h"