ARM GAS  /tmp/cc7TFFKb.s 			page 1


   1              		.cpu cortex-m0
   2              		.fpu softvfp
   3              		.eabi_attribute 20, 1	@ Tag_ABI_FP_denormal
   4              		.eabi_attribute 21, 1	@ Tag_ABI_FP_exceptions
   5              		.eabi_attribute 23, 3	@ Tag_ABI_FP_number_model
   6              		.eabi_attribute 24, 1	@ Tag_ABI_align8_needed
   7              		.eabi_attribute 25, 1	@ Tag_ABI_align8_preserved
   8              		.eabi_attribute 26, 1	@ Tag_ABI_enum_size
   9              		.eabi_attribute 30, 2	@ Tag_ABI_optimization_goals
  10              		.eabi_attribute 34, 0	@ Tag_CPU_unaligned_access
  11              		.eabi_attribute 18, 4	@ Tag_ABI_PCS_wchar_t
  12              		.file	"ssp_11xx.c"
  13              	@ GNU C (GNU Tools for ARM Embedded Processors) version 4.9.3 20150303 (release) [ARM/embedded-4_9-
  14              	@	compiled by GNU C version 4.8.2, GMP version 5.1.3, MPFR version 3.1.2-p3, MPC version 1.0.1
  15              	@ GGC heuristics: --param ggc-min-expand=100 --param ggc-min-heapsize=131072
  16              	@ options passed:  -I . -I ../lpc11cx4-library/lpc_chip_11cxx_lib/inc
  17              	@ -I ../lpc11cx4-library/evt_lib/inc -I inc -imultilib armv6-m
  18              	@ -iprefix /usr/bin/../lib/gcc/arm-none-eabi/4.9.3/
  19              	@ -isysroot /usr/bin/../arm-none-eabi -MD bin/ssp_11xx.d -MF bin/ssp_11xx.d
  20              	@ -MP -MQ bin/ssp_11xx.o -D__USES_INITFINI__ -D CORE_M0
  21              	@ ../lpc11cx4-library/lpc_chip_11cxx_lib/src/ssp_11xx.c -mcpu=cortex-m0
  22              	@ -mthumb -auxbase-strip bin/ssp_11xx.o -g -ggdb3 -O2 -Wall
  23              	@ -Wstrict-prototypes -Wextra -std=gnu90 -ffunction-sections
  24              	@ -fdata-sections -fverbose-asm
  25              	@ options enabled:  -faggressive-loop-optimizations -fauto-inc-dec
  26              	@ -fbranch-count-reg -fcaller-saves -fcombine-stack-adjustments -fcommon
  27              	@ -fcompare-elim -fcprop-registers -fcrossjumping -fcse-follow-jumps
  28              	@ -fdata-sections -fdefer-pop -fdelete-null-pointer-checks -fdevirtualize
  29              	@ -fdevirtualize-speculatively -fdwarf2-cfi-asm -fearly-inlining
  30              	@ -feliminate-unused-debug-types -fexpensive-optimizations
  31              	@ -fforward-propagate -ffunction-cse -ffunction-sections -fgcse -fgcse-lm
  32              	@ -fgnu-runtime -fgnu-unique -fguess-branch-probability
  33              	@ -fhoist-adjacent-loads -fident -fif-conversion -fif-conversion2
  34              	@ -findirect-inlining -finline -finline-atomics
  35              	@ -finline-functions-called-once -finline-small-functions -fipa-cp
  36              	@ -fipa-profile -fipa-pure-const -fipa-reference -fipa-sra
  37              	@ -fira-hoist-pressure -fira-share-save-slots -fira-share-spill-slots
  38              	@ -fisolate-erroneous-paths-dereference -fivopts -fkeep-static-consts
  39              	@ -fleading-underscore -flifetime-dse -fmath-errno -fmerge-constants
  40              	@ -fmerge-debug-strings -fmove-loop-invariants -fomit-frame-pointer
  41              	@ -foptimize-sibling-calls -foptimize-strlen -fpartial-inlining -fpeephole
  42              	@ -fpeephole2 -fprefetch-loop-arrays -freg-struct-return -freorder-blocks
  43              	@ -freorder-functions -frerun-cse-after-loop
  44              	@ -fsched-critical-path-heuristic -fsched-dep-count-heuristic
  45              	@ -fsched-group-heuristic -fsched-interblock -fsched-last-insn-heuristic
  46              	@ -fsched-pressure -fsched-rank-heuristic -fsched-spec
  47              	@ -fsched-spec-insn-heuristic -fsched-stalled-insns-dep -fschedule-insns2
  48              	@ -fsection-anchors -fshow-column -fshrink-wrap -fsigned-zeros
  49              	@ -fsplit-ivs-in-unroller -fsplit-wide-types -fstrict-aliasing
  50              	@ -fstrict-overflow -fstrict-volatile-bitfields -fsync-libcalls
  51              	@ -fthread-jumps -ftoplevel-reorder -ftrapping-math -ftree-bit-ccp
  52              	@ -ftree-builtin-call-dce -ftree-ccp -ftree-ch -ftree-coalesce-vars
  53              	@ -ftree-copy-prop -ftree-copyrename -ftree-cselim -ftree-dce
  54              	@ -ftree-dominator-opts -ftree-dse -ftree-forwprop -ftree-fre
  55              	@ -ftree-loop-if-convert -ftree-loop-im -ftree-loop-ivcanon
  56              	@ -ftree-loop-optimize -ftree-parallelize-loops= -ftree-phiprop -ftree-pre
  57              	@ -ftree-pta -ftree-reassoc -ftree-scev-cprop -ftree-sink -ftree-slsr
ARM GAS  /tmp/cc7TFFKb.s 			page 2


  58              	@ -ftree-sra -ftree-switch-conversion -ftree-tail-merge -ftree-ter
  59              	@ -ftree-vrp -funit-at-a-time -fvar-tracking -fvar-tracking-assignments
  60              	@ -fverbose-asm -fzero-initialized-in-bss -mlittle-endian -mlra
  61              	@ -mpic-data-is-text-relative -msched-prolog -mthumb
  62              	@ -mvectorize-with-neon-quad
  63              	
  64              		.text
  65              	.Ltext0:
  66              		.cfi_sections	.debug_frame
  67              		.section	.text.SSP_Read1BFifo,"ax",%progbits
  68              		.align	2
  69              		.code	16
  70              		.thumb_func
  71              		.type	SSP_Read1BFifo, %function
  72              	SSP_Read1BFifo:
  73              	.LFB201:
  74              		.file 1 "../lpc11cx4-library/lpc_chip_11cxx_lib/src/ssp_11xx.c"
   1:../lpc11cx4-library/lpc_chip_11cxx_lib/src/ssp_11xx.c **** /*
   2:../lpc11cx4-library/lpc_chip_11cxx_lib/src/ssp_11xx.c ****  * @brief LPC11xx SSP Registers and control functions
   3:../lpc11cx4-library/lpc_chip_11cxx_lib/src/ssp_11xx.c ****  *
   4:../lpc11cx4-library/lpc_chip_11cxx_lib/src/ssp_11xx.c ****  * @note
   5:../lpc11cx4-library/lpc_chip_11cxx_lib/src/ssp_11xx.c ****  * Copyright(C) NXP Semiconductors, 2012
   6:../lpc11cx4-library/lpc_chip_11cxx_lib/src/ssp_11xx.c ****  * All rights reserved.
   7:../lpc11cx4-library/lpc_chip_11cxx_lib/src/ssp_11xx.c ****  *
   8:../lpc11cx4-library/lpc_chip_11cxx_lib/src/ssp_11xx.c ****  * @par
   9:../lpc11cx4-library/lpc_chip_11cxx_lib/src/ssp_11xx.c ****  * Software that is described herein is for illustrative purposes only
  10:../lpc11cx4-library/lpc_chip_11cxx_lib/src/ssp_11xx.c ****  * which provides customers with programming information regarding the
  11:../lpc11cx4-library/lpc_chip_11cxx_lib/src/ssp_11xx.c ****  * LPC products.  This software is supplied "AS IS" without any warranties of
  12:../lpc11cx4-library/lpc_chip_11cxx_lib/src/ssp_11xx.c ****  * any kind, and NXP Semiconductors and its licensor disclaim any and
  13:../lpc11cx4-library/lpc_chip_11cxx_lib/src/ssp_11xx.c ****  * all warranties, express or implied, including all implied warranties of
  14:../lpc11cx4-library/lpc_chip_11cxx_lib/src/ssp_11xx.c ****  * merchantability, fitness for a particular purpose and non-infringement of
  15:../lpc11cx4-library/lpc_chip_11cxx_lib/src/ssp_11xx.c ****  * intellectual property rights.  NXP Semiconductors assumes no responsibility
  16:../lpc11cx4-library/lpc_chip_11cxx_lib/src/ssp_11xx.c ****  * or liability for the use of the software, conveys no license or rights under any
  17:../lpc11cx4-library/lpc_chip_11cxx_lib/src/ssp_11xx.c ****  * patent, copyright, mask work right, or any other intellectual property rights in
  18:../lpc11cx4-library/lpc_chip_11cxx_lib/src/ssp_11xx.c ****  * or to any products. NXP Semiconductors reserves the right to make changes
  19:../lpc11cx4-library/lpc_chip_11cxx_lib/src/ssp_11xx.c ****  * in the software without notification. NXP Semiconductors also makes no
  20:../lpc11cx4-library/lpc_chip_11cxx_lib/src/ssp_11xx.c ****  * representation or warranty that such application will be suitable for the
  21:../lpc11cx4-library/lpc_chip_11cxx_lib/src/ssp_11xx.c ****  * specified use without further testing or modification.
  22:../lpc11cx4-library/lpc_chip_11cxx_lib/src/ssp_11xx.c ****  *
  23:../lpc11cx4-library/lpc_chip_11cxx_lib/src/ssp_11xx.c ****  * @par
  24:../lpc11cx4-library/lpc_chip_11cxx_lib/src/ssp_11xx.c ****  * Permission to use, copy, modify, and distribute this software and its
  25:../lpc11cx4-library/lpc_chip_11cxx_lib/src/ssp_11xx.c ****  * documentation is hereby granted, under NXP Semiconductors' and its
  26:../lpc11cx4-library/lpc_chip_11cxx_lib/src/ssp_11xx.c ****  * licensor's relevant copyrights in the software, without fee, provided that it
  27:../lpc11cx4-library/lpc_chip_11cxx_lib/src/ssp_11xx.c ****  * is used in conjunction with NXP Semiconductors microcontrollers.  This
  28:../lpc11cx4-library/lpc_chip_11cxx_lib/src/ssp_11xx.c ****  * copyright, permission, and disclaimer notice must appear in all copies of
  29:../lpc11cx4-library/lpc_chip_11cxx_lib/src/ssp_11xx.c ****  * this code.
  30:../lpc11cx4-library/lpc_chip_11cxx_lib/src/ssp_11xx.c ****  */
  31:../lpc11cx4-library/lpc_chip_11cxx_lib/src/ssp_11xx.c **** 
  32:../lpc11cx4-library/lpc_chip_11cxx_lib/src/ssp_11xx.c **** #include "chip.h"
  33:../lpc11cx4-library/lpc_chip_11cxx_lib/src/ssp_11xx.c **** 
  34:../lpc11cx4-library/lpc_chip_11cxx_lib/src/ssp_11xx.c **** /*****************************************************************************
  35:../lpc11cx4-library/lpc_chip_11cxx_lib/src/ssp_11xx.c ****  * Private types/enumerations/variables
  36:../lpc11cx4-library/lpc_chip_11cxx_lib/src/ssp_11xx.c ****  ****************************************************************************/
  37:../lpc11cx4-library/lpc_chip_11cxx_lib/src/ssp_11xx.c **** 
  38:../lpc11cx4-library/lpc_chip_11cxx_lib/src/ssp_11xx.c **** /*****************************************************************************
  39:../lpc11cx4-library/lpc_chip_11cxx_lib/src/ssp_11xx.c ****  * Public types/enumerations/variables
  40:../lpc11cx4-library/lpc_chip_11cxx_lib/src/ssp_11xx.c ****  ****************************************************************************/
ARM GAS  /tmp/cc7TFFKb.s 			page 3


  41:../lpc11cx4-library/lpc_chip_11cxx_lib/src/ssp_11xx.c **** 
  42:../lpc11cx4-library/lpc_chip_11cxx_lib/src/ssp_11xx.c **** /*****************************************************************************
  43:../lpc11cx4-library/lpc_chip_11cxx_lib/src/ssp_11xx.c ****  * Private functions
  44:../lpc11cx4-library/lpc_chip_11cxx_lib/src/ssp_11xx.c ****  ****************************************************************************/
  45:../lpc11cx4-library/lpc_chip_11cxx_lib/src/ssp_11xx.c **** 
  46:../lpc11cx4-library/lpc_chip_11cxx_lib/src/ssp_11xx.c **** STATIC void SSP_Write2BFifo(LPC_SSP_T *pSSP, Chip_SSP_DATA_SETUP_T *xf_setup)
  47:../lpc11cx4-library/lpc_chip_11cxx_lib/src/ssp_11xx.c **** {
  48:../lpc11cx4-library/lpc_chip_11cxx_lib/src/ssp_11xx.c **** 	if (xf_setup->tx_data) {
  49:../lpc11cx4-library/lpc_chip_11cxx_lib/src/ssp_11xx.c **** 		Chip_SSP_SendFrame(pSSP, (*(uint16_t *) ((uint32_t) xf_setup->tx_data +
  50:../lpc11cx4-library/lpc_chip_11cxx_lib/src/ssp_11xx.c **** 												 xf_setup->tx_cnt)));
  51:../lpc11cx4-library/lpc_chip_11cxx_lib/src/ssp_11xx.c **** 	}
  52:../lpc11cx4-library/lpc_chip_11cxx_lib/src/ssp_11xx.c **** 	else {
  53:../lpc11cx4-library/lpc_chip_11cxx_lib/src/ssp_11xx.c **** 		Chip_SSP_SendFrame(pSSP, 0xFFFF);
  54:../lpc11cx4-library/lpc_chip_11cxx_lib/src/ssp_11xx.c **** 	}
  55:../lpc11cx4-library/lpc_chip_11cxx_lib/src/ssp_11xx.c **** 
  56:../lpc11cx4-library/lpc_chip_11cxx_lib/src/ssp_11xx.c **** 	xf_setup->tx_cnt += 2;
  57:../lpc11cx4-library/lpc_chip_11cxx_lib/src/ssp_11xx.c **** }
  58:../lpc11cx4-library/lpc_chip_11cxx_lib/src/ssp_11xx.c **** 
  59:../lpc11cx4-library/lpc_chip_11cxx_lib/src/ssp_11xx.c **** /** SSP macro: write 1 bytes to FIFO buffer */
  60:../lpc11cx4-library/lpc_chip_11cxx_lib/src/ssp_11xx.c **** STATIC void SSP_Write1BFifo(LPC_SSP_T *pSSP, Chip_SSP_DATA_SETUP_T *xf_setup)
  61:../lpc11cx4-library/lpc_chip_11cxx_lib/src/ssp_11xx.c **** {
  62:../lpc11cx4-library/lpc_chip_11cxx_lib/src/ssp_11xx.c **** 	if (xf_setup->tx_data) {
  63:../lpc11cx4-library/lpc_chip_11cxx_lib/src/ssp_11xx.c **** 		Chip_SSP_SendFrame(pSSP, (*(uint8_t *) ((uint32_t) xf_setup->tx_data + xf_setup->tx_cnt)));
  64:../lpc11cx4-library/lpc_chip_11cxx_lib/src/ssp_11xx.c **** 	}
  65:../lpc11cx4-library/lpc_chip_11cxx_lib/src/ssp_11xx.c **** 	else {
  66:../lpc11cx4-library/lpc_chip_11cxx_lib/src/ssp_11xx.c **** 		Chip_SSP_SendFrame(pSSP, 0xFF);
  67:../lpc11cx4-library/lpc_chip_11cxx_lib/src/ssp_11xx.c **** 	}
  68:../lpc11cx4-library/lpc_chip_11cxx_lib/src/ssp_11xx.c **** 
  69:../lpc11cx4-library/lpc_chip_11cxx_lib/src/ssp_11xx.c **** 	xf_setup->tx_cnt++;
  70:../lpc11cx4-library/lpc_chip_11cxx_lib/src/ssp_11xx.c **** }
  71:../lpc11cx4-library/lpc_chip_11cxx_lib/src/ssp_11xx.c **** 
  72:../lpc11cx4-library/lpc_chip_11cxx_lib/src/ssp_11xx.c **** /** SSP macro: read 1 bytes from FIFO buffer */
  73:../lpc11cx4-library/lpc_chip_11cxx_lib/src/ssp_11xx.c **** STATIC void SSP_Read2BFifo(LPC_SSP_T *pSSP, Chip_SSP_DATA_SETUP_T *xf_setup)
  74:../lpc11cx4-library/lpc_chip_11cxx_lib/src/ssp_11xx.c **** {
  75:../lpc11cx4-library/lpc_chip_11cxx_lib/src/ssp_11xx.c **** 	uint16_t rDat;
  76:../lpc11cx4-library/lpc_chip_11cxx_lib/src/ssp_11xx.c **** 
  77:../lpc11cx4-library/lpc_chip_11cxx_lib/src/ssp_11xx.c **** 	while ((Chip_SSP_GetStatus(pSSP, SSP_STAT_RNE) == SET) &&
  78:../lpc11cx4-library/lpc_chip_11cxx_lib/src/ssp_11xx.c **** 		   (xf_setup->rx_cnt < xf_setup->length)) {
  79:../lpc11cx4-library/lpc_chip_11cxx_lib/src/ssp_11xx.c **** 		rDat = Chip_SSP_ReceiveFrame(pSSP);
  80:../lpc11cx4-library/lpc_chip_11cxx_lib/src/ssp_11xx.c **** 		if (xf_setup->rx_data) {
  81:../lpc11cx4-library/lpc_chip_11cxx_lib/src/ssp_11xx.c **** 			*(uint16_t *) ((uint32_t) xf_setup->rx_data + xf_setup->rx_cnt) = rDat;
  82:../lpc11cx4-library/lpc_chip_11cxx_lib/src/ssp_11xx.c **** 		}
  83:../lpc11cx4-library/lpc_chip_11cxx_lib/src/ssp_11xx.c **** 
  84:../lpc11cx4-library/lpc_chip_11cxx_lib/src/ssp_11xx.c **** 		xf_setup->rx_cnt += 2;
  85:../lpc11cx4-library/lpc_chip_11cxx_lib/src/ssp_11xx.c **** 	}
  86:../lpc11cx4-library/lpc_chip_11cxx_lib/src/ssp_11xx.c **** }
  87:../lpc11cx4-library/lpc_chip_11cxx_lib/src/ssp_11xx.c **** 
  88:../lpc11cx4-library/lpc_chip_11cxx_lib/src/ssp_11xx.c **** /** SSP macro: read 2 bytes from FIFO buffer */
  89:../lpc11cx4-library/lpc_chip_11cxx_lib/src/ssp_11xx.c **** STATIC void SSP_Read1BFifo(LPC_SSP_T *pSSP, Chip_SSP_DATA_SETUP_T *xf_setup)
  90:../lpc11cx4-library/lpc_chip_11cxx_lib/src/ssp_11xx.c **** {
  75              		.loc 1 90 0
  76              		.cfi_startproc
  77              	.LVL0:
  78              	.LBB224:
  79              	.LBB225:
  80              		.file 2 "../lpc11cx4-library/lpc_chip_11cxx_lib/inc/ssp_11xx.h"
   1:../lpc11cx4-library/lpc_chip_11cxx_lib/inc/ssp_11xx.h **** /*
ARM GAS  /tmp/cc7TFFKb.s 			page 4


   2:../lpc11cx4-library/lpc_chip_11cxx_lib/inc/ssp_11xx.h ****  * @brief LPC11xx SSP Registers and control functions
   3:../lpc11cx4-library/lpc_chip_11cxx_lib/inc/ssp_11xx.h ****  *
   4:../lpc11cx4-library/lpc_chip_11cxx_lib/inc/ssp_11xx.h ****  * @note
   5:../lpc11cx4-library/lpc_chip_11cxx_lib/inc/ssp_11xx.h ****  * Copyright(C) NXP Semiconductors, 2012
   6:../lpc11cx4-library/lpc_chip_11cxx_lib/inc/ssp_11xx.h ****  * All rights reserved.
   7:../lpc11cx4-library/lpc_chip_11cxx_lib/inc/ssp_11xx.h ****  *
   8:../lpc11cx4-library/lpc_chip_11cxx_lib/inc/ssp_11xx.h ****  * @par
   9:../lpc11cx4-library/lpc_chip_11cxx_lib/inc/ssp_11xx.h ****  * Software that is described herein is for illustrative purposes only
  10:../lpc11cx4-library/lpc_chip_11cxx_lib/inc/ssp_11xx.h ****  * which provides customers with programming information regarding the
  11:../lpc11cx4-library/lpc_chip_11cxx_lib/inc/ssp_11xx.h ****  * LPC products.  This software is supplied "AS IS" without any warranties of
  12:../lpc11cx4-library/lpc_chip_11cxx_lib/inc/ssp_11xx.h ****  * any kind, and NXP Semiconductors and its licensor disclaim any and
  13:../lpc11cx4-library/lpc_chip_11cxx_lib/inc/ssp_11xx.h ****  * all warranties, express or implied, including all implied warranties of
  14:../lpc11cx4-library/lpc_chip_11cxx_lib/inc/ssp_11xx.h ****  * merchantability, fitness for a particular purpose and non-infringement of
  15:../lpc11cx4-library/lpc_chip_11cxx_lib/inc/ssp_11xx.h ****  * intellectual property rights.  NXP Semiconductors assumes no responsibility
  16:../lpc11cx4-library/lpc_chip_11cxx_lib/inc/ssp_11xx.h ****  * or liability for the use of the software, conveys no license or rights under any
  17:../lpc11cx4-library/lpc_chip_11cxx_lib/inc/ssp_11xx.h ****  * patent, copyright, mask work right, or any other intellectual property rights in
  18:../lpc11cx4-library/lpc_chip_11cxx_lib/inc/ssp_11xx.h ****  * or to any products. NXP Semiconductors reserves the right to make changes
  19:../lpc11cx4-library/lpc_chip_11cxx_lib/inc/ssp_11xx.h ****  * in the software without notification. NXP Semiconductors also makes no
  20:../lpc11cx4-library/lpc_chip_11cxx_lib/inc/ssp_11xx.h ****  * representation or warranty that such application will be suitable for the
  21:../lpc11cx4-library/lpc_chip_11cxx_lib/inc/ssp_11xx.h ****  * specified use without further testing or modification.
  22:../lpc11cx4-library/lpc_chip_11cxx_lib/inc/ssp_11xx.h ****  *
  23:../lpc11cx4-library/lpc_chip_11cxx_lib/inc/ssp_11xx.h ****  * @par
  24:../lpc11cx4-library/lpc_chip_11cxx_lib/inc/ssp_11xx.h ****  * Permission to use, copy, modify, and distribute this software and its
  25:../lpc11cx4-library/lpc_chip_11cxx_lib/inc/ssp_11xx.h ****  * documentation is hereby granted, under NXP Semiconductors' and its
  26:../lpc11cx4-library/lpc_chip_11cxx_lib/inc/ssp_11xx.h ****  * licensor's relevant copyrights in the software, without fee, provided that it
  27:../lpc11cx4-library/lpc_chip_11cxx_lib/inc/ssp_11xx.h ****  * is used in conjunction with NXP Semiconductors microcontrollers.  This
  28:../lpc11cx4-library/lpc_chip_11cxx_lib/inc/ssp_11xx.h ****  * copyright, permission, and disclaimer notice must appear in all copies of
  29:../lpc11cx4-library/lpc_chip_11cxx_lib/inc/ssp_11xx.h ****  * this code.
  30:../lpc11cx4-library/lpc_chip_11cxx_lib/inc/ssp_11xx.h ****  */
  31:../lpc11cx4-library/lpc_chip_11cxx_lib/inc/ssp_11xx.h **** 
  32:../lpc11cx4-library/lpc_chip_11cxx_lib/inc/ssp_11xx.h **** #ifndef __SSP_11XX_H_
  33:../lpc11cx4-library/lpc_chip_11cxx_lib/inc/ssp_11xx.h **** #define __SSP_11XX_H_
  34:../lpc11cx4-library/lpc_chip_11cxx_lib/inc/ssp_11xx.h **** 
  35:../lpc11cx4-library/lpc_chip_11cxx_lib/inc/ssp_11xx.h **** #ifdef __cplusplus
  36:../lpc11cx4-library/lpc_chip_11cxx_lib/inc/ssp_11xx.h **** extern "C" {
  37:../lpc11cx4-library/lpc_chip_11cxx_lib/inc/ssp_11xx.h **** #endif
  38:../lpc11cx4-library/lpc_chip_11cxx_lib/inc/ssp_11xx.h **** 
  39:../lpc11cx4-library/lpc_chip_11cxx_lib/inc/ssp_11xx.h **** /** @defgroup SSP_11XX CHIP: LPC11xx SSP register block and driver
  40:../lpc11cx4-library/lpc_chip_11cxx_lib/inc/ssp_11xx.h ****  * @ingroup CHIP_11XX_Drivers
  41:../lpc11cx4-library/lpc_chip_11cxx_lib/inc/ssp_11xx.h ****  * @{
  42:../lpc11cx4-library/lpc_chip_11cxx_lib/inc/ssp_11xx.h ****  */
  43:../lpc11cx4-library/lpc_chip_11cxx_lib/inc/ssp_11xx.h **** 
  44:../lpc11cx4-library/lpc_chip_11cxx_lib/inc/ssp_11xx.h **** /**
  45:../lpc11cx4-library/lpc_chip_11cxx_lib/inc/ssp_11xx.h ****  * @brief SSP register block structure
  46:../lpc11cx4-library/lpc_chip_11cxx_lib/inc/ssp_11xx.h ****  */
  47:../lpc11cx4-library/lpc_chip_11cxx_lib/inc/ssp_11xx.h **** typedef struct {			/*!< SSPn Structure         */
  48:../lpc11cx4-library/lpc_chip_11cxx_lib/inc/ssp_11xx.h **** 	__IO uint32_t CR0;		/*!< Control Register 0. Selects the serial clock rate, bus type, and data siz
  49:../lpc11cx4-library/lpc_chip_11cxx_lib/inc/ssp_11xx.h **** 	__IO uint32_t CR1;		/*!< Control Register 1. Selects master/slave and other modes. */
  50:../lpc11cx4-library/lpc_chip_11cxx_lib/inc/ssp_11xx.h **** 	__IO uint32_t DR;		/*!< Data Register. Writes fill the transmit FIFO, and reads empty the receive 
  51:../lpc11cx4-library/lpc_chip_11cxx_lib/inc/ssp_11xx.h **** 	__I  uint32_t SR;		/*!< Status Register        */
  52:../lpc11cx4-library/lpc_chip_11cxx_lib/inc/ssp_11xx.h **** 	__IO uint32_t CPSR;		/*!< Clock Prescale Register */
  53:../lpc11cx4-library/lpc_chip_11cxx_lib/inc/ssp_11xx.h **** 	__IO uint32_t IMSC;		/*!< Interrupt Mask Set and Clear Register */
  54:../lpc11cx4-library/lpc_chip_11cxx_lib/inc/ssp_11xx.h **** 	__I  uint32_t RIS;		/*!< Raw Interrupt Status Register */
  55:../lpc11cx4-library/lpc_chip_11cxx_lib/inc/ssp_11xx.h **** 	__I  uint32_t MIS;		/*!< Masked Interrupt Status Register */
  56:../lpc11cx4-library/lpc_chip_11cxx_lib/inc/ssp_11xx.h **** 	__O  uint32_t ICR;		/*!< SSPICR Interrupt Clear Register */
  57:../lpc11cx4-library/lpc_chip_11cxx_lib/inc/ssp_11xx.h **** } LPC_SSP_T;
  58:../lpc11cx4-library/lpc_chip_11cxx_lib/inc/ssp_11xx.h **** 
ARM GAS  /tmp/cc7TFFKb.s 			page 5


  59:../lpc11cx4-library/lpc_chip_11cxx_lib/inc/ssp_11xx.h **** /**
  60:../lpc11cx4-library/lpc_chip_11cxx_lib/inc/ssp_11xx.h ****  * Macro defines for CR0 register
  61:../lpc11cx4-library/lpc_chip_11cxx_lib/inc/ssp_11xx.h ****  */
  62:../lpc11cx4-library/lpc_chip_11cxx_lib/inc/ssp_11xx.h **** 
  63:../lpc11cx4-library/lpc_chip_11cxx_lib/inc/ssp_11xx.h **** /** SSP data size select, must be 4 bits to 16 bits */
  64:../lpc11cx4-library/lpc_chip_11cxx_lib/inc/ssp_11xx.h **** #define SSP_CR0_DSS(n)          ((uint32_t) ((n) & 0xF))
  65:../lpc11cx4-library/lpc_chip_11cxx_lib/inc/ssp_11xx.h **** /** SSP control 0 Motorola SPI mode */
  66:../lpc11cx4-library/lpc_chip_11cxx_lib/inc/ssp_11xx.h **** #define SSP_CR0_FRF_SPI         ((uint32_t) (0 << 4))
  67:../lpc11cx4-library/lpc_chip_11cxx_lib/inc/ssp_11xx.h **** /** SSP control 0 TI synchronous serial mode */
  68:../lpc11cx4-library/lpc_chip_11cxx_lib/inc/ssp_11xx.h **** #define SSP_CR0_FRF_TI          ((uint32_t) (1 << 4))
  69:../lpc11cx4-library/lpc_chip_11cxx_lib/inc/ssp_11xx.h **** /** SSP control 0 National Micro-wire mode */
  70:../lpc11cx4-library/lpc_chip_11cxx_lib/inc/ssp_11xx.h **** #define SSP_CR0_FRF_MICROWIRE   ((uint32_t) (2 << 4))
  71:../lpc11cx4-library/lpc_chip_11cxx_lib/inc/ssp_11xx.h **** /** SPI clock polarity bit (used in SPI mode only), (1) = maintains the
  72:../lpc11cx4-library/lpc_chip_11cxx_lib/inc/ssp_11xx.h ****    bus clock high between frames, (0) = low */
  73:../lpc11cx4-library/lpc_chip_11cxx_lib/inc/ssp_11xx.h **** #define SSP_CR0_CPOL_LO     ((uint32_t) (0))
  74:../lpc11cx4-library/lpc_chip_11cxx_lib/inc/ssp_11xx.h **** #define SSP_CR0_CPOL_HI     ((uint32_t) (1 << 6))
  75:../lpc11cx4-library/lpc_chip_11cxx_lib/inc/ssp_11xx.h **** /** SPI clock out phase bit (used in SPI mode only), (1) = captures data
  76:../lpc11cx4-library/lpc_chip_11cxx_lib/inc/ssp_11xx.h ****    on the second clock transition of the frame, (0) = first */
  77:../lpc11cx4-library/lpc_chip_11cxx_lib/inc/ssp_11xx.h **** #define SSP_CR0_CPHA_FIRST  ((uint32_t) (0))
  78:../lpc11cx4-library/lpc_chip_11cxx_lib/inc/ssp_11xx.h **** #define SSP_CR0_CPHA_SECOND ((uint32_t) (1 << 7))
  79:../lpc11cx4-library/lpc_chip_11cxx_lib/inc/ssp_11xx.h **** /** SSP serial clock rate value load macro, divider rate is
  80:../lpc11cx4-library/lpc_chip_11cxx_lib/inc/ssp_11xx.h ****    PERIPH_CLK / (cpsr * (SCR + 1)) */
  81:../lpc11cx4-library/lpc_chip_11cxx_lib/inc/ssp_11xx.h **** #define SSP_CR0_SCR(n)      ((uint32_t) ((n & 0xFF) << 8))
  82:../lpc11cx4-library/lpc_chip_11cxx_lib/inc/ssp_11xx.h **** /** SSP CR0 bit mask */
  83:../lpc11cx4-library/lpc_chip_11cxx_lib/inc/ssp_11xx.h **** #define SSP_CR0_BITMASK     ((uint32_t) (0xFFFF))
  84:../lpc11cx4-library/lpc_chip_11cxx_lib/inc/ssp_11xx.h **** /** SSP CR0 bit mask */
  85:../lpc11cx4-library/lpc_chip_11cxx_lib/inc/ssp_11xx.h **** #define SSP_CR0_BITMASK     ((uint32_t) (0xFFFF))
  86:../lpc11cx4-library/lpc_chip_11cxx_lib/inc/ssp_11xx.h **** /** SSP serial clock rate value load macro, divider rate is
  87:../lpc11cx4-library/lpc_chip_11cxx_lib/inc/ssp_11xx.h ****    PERIPH_CLK / (cpsr * (SCR + 1)) */
  88:../lpc11cx4-library/lpc_chip_11cxx_lib/inc/ssp_11xx.h **** #define SSP_CR0_SCR(n)      ((uint32_t) ((n & 0xFF) << 8))
  89:../lpc11cx4-library/lpc_chip_11cxx_lib/inc/ssp_11xx.h **** 
  90:../lpc11cx4-library/lpc_chip_11cxx_lib/inc/ssp_11xx.h **** /**
  91:../lpc11cx4-library/lpc_chip_11cxx_lib/inc/ssp_11xx.h ****  * Macro defines for CR1 register
  92:../lpc11cx4-library/lpc_chip_11cxx_lib/inc/ssp_11xx.h ****  */
  93:../lpc11cx4-library/lpc_chip_11cxx_lib/inc/ssp_11xx.h **** 
  94:../lpc11cx4-library/lpc_chip_11cxx_lib/inc/ssp_11xx.h **** /** SSP control 1 loopback mode enable bit */
  95:../lpc11cx4-library/lpc_chip_11cxx_lib/inc/ssp_11xx.h **** #define SSP_CR1_LBM_EN      ((uint32_t) (1 << 0))
  96:../lpc11cx4-library/lpc_chip_11cxx_lib/inc/ssp_11xx.h **** /** SSP control 1 enable bit */
  97:../lpc11cx4-library/lpc_chip_11cxx_lib/inc/ssp_11xx.h **** #define SSP_CR1_SSP_EN      ((uint32_t) (1 << 1))
  98:../lpc11cx4-library/lpc_chip_11cxx_lib/inc/ssp_11xx.h **** /** SSP control 1 slave enable */
  99:../lpc11cx4-library/lpc_chip_11cxx_lib/inc/ssp_11xx.h **** #define SSP_CR1_SLAVE_EN    ((uint32_t) (1 << 2))
 100:../lpc11cx4-library/lpc_chip_11cxx_lib/inc/ssp_11xx.h **** #define SSP_CR1_MASTER_EN   ((uint32_t) (0))
 101:../lpc11cx4-library/lpc_chip_11cxx_lib/inc/ssp_11xx.h **** /** SSP control 1 slave out disable bit, disables transmit line in slave
 102:../lpc11cx4-library/lpc_chip_11cxx_lib/inc/ssp_11xx.h ****    mode */
 103:../lpc11cx4-library/lpc_chip_11cxx_lib/inc/ssp_11xx.h **** #define SSP_CR1_SO_DISABLE  ((uint32_t) (1 << 3))
 104:../lpc11cx4-library/lpc_chip_11cxx_lib/inc/ssp_11xx.h **** /** SSP CR1 bit mask */
 105:../lpc11cx4-library/lpc_chip_11cxx_lib/inc/ssp_11xx.h **** #define SSP_CR1_BITMASK     ((uint32_t) (0x0F))
 106:../lpc11cx4-library/lpc_chip_11cxx_lib/inc/ssp_11xx.h **** 
 107:../lpc11cx4-library/lpc_chip_11cxx_lib/inc/ssp_11xx.h **** /** SSP CPSR bit mask */
 108:../lpc11cx4-library/lpc_chip_11cxx_lib/inc/ssp_11xx.h **** #define SSP_CPSR_BITMASK    ((uint32_t) (0xFF))
 109:../lpc11cx4-library/lpc_chip_11cxx_lib/inc/ssp_11xx.h **** /**
 110:../lpc11cx4-library/lpc_chip_11cxx_lib/inc/ssp_11xx.h ****  * Macro defines for DR register
 111:../lpc11cx4-library/lpc_chip_11cxx_lib/inc/ssp_11xx.h ****  */
 112:../lpc11cx4-library/lpc_chip_11cxx_lib/inc/ssp_11xx.h **** 
 113:../lpc11cx4-library/lpc_chip_11cxx_lib/inc/ssp_11xx.h **** /** SSP data bit mask */
 114:../lpc11cx4-library/lpc_chip_11cxx_lib/inc/ssp_11xx.h **** #define SSP_DR_BITMASK(n)   ((n) & 0xFFFF)
 115:../lpc11cx4-library/lpc_chip_11cxx_lib/inc/ssp_11xx.h **** 
ARM GAS  /tmp/cc7TFFKb.s 			page 6


 116:../lpc11cx4-library/lpc_chip_11cxx_lib/inc/ssp_11xx.h **** /**
 117:../lpc11cx4-library/lpc_chip_11cxx_lib/inc/ssp_11xx.h ****  * Macro defines for SR register
 118:../lpc11cx4-library/lpc_chip_11cxx_lib/inc/ssp_11xx.h ****  */
 119:../lpc11cx4-library/lpc_chip_11cxx_lib/inc/ssp_11xx.h **** 
 120:../lpc11cx4-library/lpc_chip_11cxx_lib/inc/ssp_11xx.h **** /** SSP SR bit mask */
 121:../lpc11cx4-library/lpc_chip_11cxx_lib/inc/ssp_11xx.h **** #define SSP_SR_BITMASK  ((uint32_t) (0x1F))
 122:../lpc11cx4-library/lpc_chip_11cxx_lib/inc/ssp_11xx.h **** 
 123:../lpc11cx4-library/lpc_chip_11cxx_lib/inc/ssp_11xx.h **** /** ICR bit mask */
 124:../lpc11cx4-library/lpc_chip_11cxx_lib/inc/ssp_11xx.h **** #define SSP_ICR_BITMASK ((uint32_t) (0x03))
 125:../lpc11cx4-library/lpc_chip_11cxx_lib/inc/ssp_11xx.h **** 
 126:../lpc11cx4-library/lpc_chip_11cxx_lib/inc/ssp_11xx.h **** /**
 127:../lpc11cx4-library/lpc_chip_11cxx_lib/inc/ssp_11xx.h ****  * @brief SSP Type of Status
 128:../lpc11cx4-library/lpc_chip_11cxx_lib/inc/ssp_11xx.h ****  */
 129:../lpc11cx4-library/lpc_chip_11cxx_lib/inc/ssp_11xx.h **** typedef enum _SSP_STATUS {
 130:../lpc11cx4-library/lpc_chip_11cxx_lib/inc/ssp_11xx.h **** 	SSP_STAT_TFE = ((uint32_t)(1 << 0)),/**< TX FIFO Empty */
 131:../lpc11cx4-library/lpc_chip_11cxx_lib/inc/ssp_11xx.h **** 	SSP_STAT_TNF = ((uint32_t)(1 << 1)),/**< TX FIFO not full */
 132:../lpc11cx4-library/lpc_chip_11cxx_lib/inc/ssp_11xx.h **** 	SSP_STAT_RNE = ((uint32_t)(1 << 2)),/**< RX FIFO not empty */
 133:../lpc11cx4-library/lpc_chip_11cxx_lib/inc/ssp_11xx.h **** 	SSP_STAT_RFF = ((uint32_t)(1 << 3)),/**< RX FIFO full */
 134:../lpc11cx4-library/lpc_chip_11cxx_lib/inc/ssp_11xx.h **** 	SSP_STAT_BSY = ((uint32_t)(1 << 4)),/**< SSP Busy */
 135:../lpc11cx4-library/lpc_chip_11cxx_lib/inc/ssp_11xx.h **** } SSP_STATUS_T;
 136:../lpc11cx4-library/lpc_chip_11cxx_lib/inc/ssp_11xx.h **** 
 137:../lpc11cx4-library/lpc_chip_11cxx_lib/inc/ssp_11xx.h **** /**
 138:../lpc11cx4-library/lpc_chip_11cxx_lib/inc/ssp_11xx.h ****  * @brief SSP Type of Interrupt Mask
 139:../lpc11cx4-library/lpc_chip_11cxx_lib/inc/ssp_11xx.h ****  */
 140:../lpc11cx4-library/lpc_chip_11cxx_lib/inc/ssp_11xx.h **** typedef enum _SSP_INTMASK {
 141:../lpc11cx4-library/lpc_chip_11cxx_lib/inc/ssp_11xx.h **** 	SSP_RORIM = ((uint32_t)(1 << 0)),	/**< Overun */
 142:../lpc11cx4-library/lpc_chip_11cxx_lib/inc/ssp_11xx.h **** 	SSP_RTIM = ((uint32_t)(1 << 1)),/**< TimeOut */
 143:../lpc11cx4-library/lpc_chip_11cxx_lib/inc/ssp_11xx.h **** 	SSP_RXIM = ((uint32_t)(1 << 2)),/**< Rx FIFO is at least half full */
 144:../lpc11cx4-library/lpc_chip_11cxx_lib/inc/ssp_11xx.h **** 	SSP_TXIM = ((uint32_t)(1 << 3)),/**< Tx FIFO is at least half empty */
 145:../lpc11cx4-library/lpc_chip_11cxx_lib/inc/ssp_11xx.h **** 	SSP_INT_MASK_BITMASK = ((uint32_t)(0xF)),
 146:../lpc11cx4-library/lpc_chip_11cxx_lib/inc/ssp_11xx.h **** } SSP_INTMASK_T;
 147:../lpc11cx4-library/lpc_chip_11cxx_lib/inc/ssp_11xx.h **** 
 148:../lpc11cx4-library/lpc_chip_11cxx_lib/inc/ssp_11xx.h **** /**
 149:../lpc11cx4-library/lpc_chip_11cxx_lib/inc/ssp_11xx.h ****  * @brief SSP Type of Mask Interrupt Status
 150:../lpc11cx4-library/lpc_chip_11cxx_lib/inc/ssp_11xx.h ****  */
 151:../lpc11cx4-library/lpc_chip_11cxx_lib/inc/ssp_11xx.h **** typedef enum _SSP_MASKINTSTATUS {
 152:../lpc11cx4-library/lpc_chip_11cxx_lib/inc/ssp_11xx.h **** 	SSP_RORMIS = ((uint32_t)(1 << 0)),	/**< Overun */
 153:../lpc11cx4-library/lpc_chip_11cxx_lib/inc/ssp_11xx.h **** 	SSP_RTMIS = ((uint32_t)(1 << 1)),	/**< TimeOut */
 154:../lpc11cx4-library/lpc_chip_11cxx_lib/inc/ssp_11xx.h **** 	SSP_RXMIS = ((uint32_t)(1 << 2)),	/**< Rx FIFO is at least half full */
 155:../lpc11cx4-library/lpc_chip_11cxx_lib/inc/ssp_11xx.h **** 	SSP_TXMIS = ((uint32_t)(1 << 3)),	/**< Tx FIFO is at least half empty */
 156:../lpc11cx4-library/lpc_chip_11cxx_lib/inc/ssp_11xx.h **** 	SSP_MASK_INT_STAT_BITMASK = ((uint32_t)(0xF)),
 157:../lpc11cx4-library/lpc_chip_11cxx_lib/inc/ssp_11xx.h **** } SSP_MASKINTSTATUS_T;
 158:../lpc11cx4-library/lpc_chip_11cxx_lib/inc/ssp_11xx.h **** 
 159:../lpc11cx4-library/lpc_chip_11cxx_lib/inc/ssp_11xx.h **** /**
 160:../lpc11cx4-library/lpc_chip_11cxx_lib/inc/ssp_11xx.h ****  * @brief SSP Type of Raw Interrupt Status
 161:../lpc11cx4-library/lpc_chip_11cxx_lib/inc/ssp_11xx.h ****  */
 162:../lpc11cx4-library/lpc_chip_11cxx_lib/inc/ssp_11xx.h **** typedef enum _SSP_RAWINTSTATUS {
 163:../lpc11cx4-library/lpc_chip_11cxx_lib/inc/ssp_11xx.h **** 	SSP_RORRIS = ((uint32_t)(1 << 0)),	/**< Overun */
 164:../lpc11cx4-library/lpc_chip_11cxx_lib/inc/ssp_11xx.h **** 	SSP_RTRIS = ((uint32_t)(1 << 1)),	/**< TimeOut */
 165:../lpc11cx4-library/lpc_chip_11cxx_lib/inc/ssp_11xx.h **** 	SSP_RXRIS = ((uint32_t)(1 << 2)),	/**< Rx FIFO is at least half full */
 166:../lpc11cx4-library/lpc_chip_11cxx_lib/inc/ssp_11xx.h **** 	SSP_TXRIS = ((uint32_t)(1 << 3)),	/**< Tx FIFO is at least half empty */
 167:../lpc11cx4-library/lpc_chip_11cxx_lib/inc/ssp_11xx.h **** 	SSP_RAW_INT_STAT_BITMASK = ((uint32_t)(0xF)),
 168:../lpc11cx4-library/lpc_chip_11cxx_lib/inc/ssp_11xx.h **** } SSP_RAWINTSTATUS_T;
 169:../lpc11cx4-library/lpc_chip_11cxx_lib/inc/ssp_11xx.h **** 
 170:../lpc11cx4-library/lpc_chip_11cxx_lib/inc/ssp_11xx.h **** typedef enum _SSP_INTCLEAR {
 171:../lpc11cx4-library/lpc_chip_11cxx_lib/inc/ssp_11xx.h **** 	SSP_RORIC = 0x0,
 172:../lpc11cx4-library/lpc_chip_11cxx_lib/inc/ssp_11xx.h **** 	SSP_RTIC = 0x1,
ARM GAS  /tmp/cc7TFFKb.s 			page 7


 173:../lpc11cx4-library/lpc_chip_11cxx_lib/inc/ssp_11xx.h **** 	SSP_INT_CLEAR_BITMASK = 0x3,
 174:../lpc11cx4-library/lpc_chip_11cxx_lib/inc/ssp_11xx.h **** } SSP_INTCLEAR_T;
 175:../lpc11cx4-library/lpc_chip_11cxx_lib/inc/ssp_11xx.h **** 
 176:../lpc11cx4-library/lpc_chip_11cxx_lib/inc/ssp_11xx.h **** /*
 177:../lpc11cx4-library/lpc_chip_11cxx_lib/inc/ssp_11xx.h ****  * @brief SSP clock format
 178:../lpc11cx4-library/lpc_chip_11cxx_lib/inc/ssp_11xx.h ****  */
 179:../lpc11cx4-library/lpc_chip_11cxx_lib/inc/ssp_11xx.h **** typedef enum CHIP_SSP_CLOCK_FORMAT {
 180:../lpc11cx4-library/lpc_chip_11cxx_lib/inc/ssp_11xx.h **** 	SSP_CLOCK_CPHA0_CPOL0 = (0 << 6),		/**< CPHA = 0, CPOL = 0 */
 181:../lpc11cx4-library/lpc_chip_11cxx_lib/inc/ssp_11xx.h **** 	SSP_CLOCK_CPHA0_CPOL1 = (1u << 6),		/**< CPHA = 0, CPOL = 1 */
 182:../lpc11cx4-library/lpc_chip_11cxx_lib/inc/ssp_11xx.h **** 	SSP_CLOCK_CPHA1_CPOL0 = (2u << 6),		/**< CPHA = 1, CPOL = 0 */
 183:../lpc11cx4-library/lpc_chip_11cxx_lib/inc/ssp_11xx.h **** 	SSP_CLOCK_CPHA1_CPOL1 = (3u << 6),		/**< CPHA = 1, CPOL = 1 */
 184:../lpc11cx4-library/lpc_chip_11cxx_lib/inc/ssp_11xx.h **** 	SSP_CLOCK_MODE0 = SSP_CLOCK_CPHA0_CPOL0,/**< alias */
 185:../lpc11cx4-library/lpc_chip_11cxx_lib/inc/ssp_11xx.h **** 	SSP_CLOCK_MODE1 = SSP_CLOCK_CPHA1_CPOL0,/**< alias */
 186:../lpc11cx4-library/lpc_chip_11cxx_lib/inc/ssp_11xx.h **** 	SSP_CLOCK_MODE2 = SSP_CLOCK_CPHA0_CPOL1,/**< alias */
 187:../lpc11cx4-library/lpc_chip_11cxx_lib/inc/ssp_11xx.h **** 	SSP_CLOCK_MODE3 = SSP_CLOCK_CPHA1_CPOL1,/**< alias */
 188:../lpc11cx4-library/lpc_chip_11cxx_lib/inc/ssp_11xx.h **** } CHIP_SSP_CLOCK_MODE_T;
 189:../lpc11cx4-library/lpc_chip_11cxx_lib/inc/ssp_11xx.h **** 
 190:../lpc11cx4-library/lpc_chip_11cxx_lib/inc/ssp_11xx.h **** /*
 191:../lpc11cx4-library/lpc_chip_11cxx_lib/inc/ssp_11xx.h ****  * @brief SSP frame format
 192:../lpc11cx4-library/lpc_chip_11cxx_lib/inc/ssp_11xx.h ****  */
 193:../lpc11cx4-library/lpc_chip_11cxx_lib/inc/ssp_11xx.h **** typedef enum CHIP_SSP_FRAME_FORMAT {
 194:../lpc11cx4-library/lpc_chip_11cxx_lib/inc/ssp_11xx.h **** 	SSP_FRAMEFORMAT_SPI = (0 << 4),			/**< Frame format: SPI */
 195:../lpc11cx4-library/lpc_chip_11cxx_lib/inc/ssp_11xx.h **** 	CHIP_SSP_FRAME_FORMAT_TI = (1u << 4),			/**< Frame format: TI SSI */
 196:../lpc11cx4-library/lpc_chip_11cxx_lib/inc/ssp_11xx.h **** 	SSP_FRAMEFORMAT_MICROWIRE = (2u << 4),	/**< Frame format: Microwire */
 197:../lpc11cx4-library/lpc_chip_11cxx_lib/inc/ssp_11xx.h **** } CHIP_SSP_FRAME_FORMAT_T;
 198:../lpc11cx4-library/lpc_chip_11cxx_lib/inc/ssp_11xx.h **** 
 199:../lpc11cx4-library/lpc_chip_11cxx_lib/inc/ssp_11xx.h **** /*
 200:../lpc11cx4-library/lpc_chip_11cxx_lib/inc/ssp_11xx.h ****  * @brief Number of bits per frame
 201:../lpc11cx4-library/lpc_chip_11cxx_lib/inc/ssp_11xx.h ****  */
 202:../lpc11cx4-library/lpc_chip_11cxx_lib/inc/ssp_11xx.h **** typedef enum CHIP_SSP_BITS {
 203:../lpc11cx4-library/lpc_chip_11cxx_lib/inc/ssp_11xx.h **** 	SSP_BITS_4 = (3u << 0),		/*!< 4 bits/frame */
 204:../lpc11cx4-library/lpc_chip_11cxx_lib/inc/ssp_11xx.h **** 	SSP_BITS_5 = (4u << 0),		/*!< 5 bits/frame */
 205:../lpc11cx4-library/lpc_chip_11cxx_lib/inc/ssp_11xx.h **** 	SSP_BITS_6 = (5u << 0),		/*!< 6 bits/frame */
 206:../lpc11cx4-library/lpc_chip_11cxx_lib/inc/ssp_11xx.h **** 	SSP_BITS_7 = (6u << 0),		/*!< 7 bits/frame */
 207:../lpc11cx4-library/lpc_chip_11cxx_lib/inc/ssp_11xx.h **** 	SSP_BITS_8 = (7u << 0),		/*!< 8 bits/frame */
 208:../lpc11cx4-library/lpc_chip_11cxx_lib/inc/ssp_11xx.h **** 	SSP_BITS_9 = (8u << 0),		/*!< 9 bits/frame */
 209:../lpc11cx4-library/lpc_chip_11cxx_lib/inc/ssp_11xx.h **** 	SSP_BITS_10 = (9u << 0),	/*!< 10 bits/frame */
 210:../lpc11cx4-library/lpc_chip_11cxx_lib/inc/ssp_11xx.h **** 	SSP_BITS_11 = (10u << 0),	/*!< 11 bits/frame */
 211:../lpc11cx4-library/lpc_chip_11cxx_lib/inc/ssp_11xx.h **** 	SSP_BITS_12 = (11u << 0),	/*!< 12 bits/frame */
 212:../lpc11cx4-library/lpc_chip_11cxx_lib/inc/ssp_11xx.h **** 	SSP_BITS_13 = (12u << 0),	/*!< 13 bits/frame */
 213:../lpc11cx4-library/lpc_chip_11cxx_lib/inc/ssp_11xx.h **** 	SSP_BITS_14 = (13u << 0),	/*!< 14 bits/frame */
 214:../lpc11cx4-library/lpc_chip_11cxx_lib/inc/ssp_11xx.h **** 	SSP_BITS_15 = (14u << 0),	/*!< 15 bits/frame */
 215:../lpc11cx4-library/lpc_chip_11cxx_lib/inc/ssp_11xx.h **** 	SSP_BITS_16 = (15u << 0),	/*!< 16 bits/frame */
 216:../lpc11cx4-library/lpc_chip_11cxx_lib/inc/ssp_11xx.h **** } CHIP_SSP_BITS_T;
 217:../lpc11cx4-library/lpc_chip_11cxx_lib/inc/ssp_11xx.h **** 
 218:../lpc11cx4-library/lpc_chip_11cxx_lib/inc/ssp_11xx.h **** /*
 219:../lpc11cx4-library/lpc_chip_11cxx_lib/inc/ssp_11xx.h ****  * @brief SSP config format
 220:../lpc11cx4-library/lpc_chip_11cxx_lib/inc/ssp_11xx.h ****  */
 221:../lpc11cx4-library/lpc_chip_11cxx_lib/inc/ssp_11xx.h **** typedef struct SSP_ConfigFormat {
 222:../lpc11cx4-library/lpc_chip_11cxx_lib/inc/ssp_11xx.h **** 	CHIP_SSP_BITS_T bits;					/*!< Format config: bits/frame */
 223:../lpc11cx4-library/lpc_chip_11cxx_lib/inc/ssp_11xx.h **** 	CHIP_SSP_CLOCK_MODE_T clockMode;	/*!< Format config: clock phase/polarity */
 224:../lpc11cx4-library/lpc_chip_11cxx_lib/inc/ssp_11xx.h **** 	CHIP_SSP_FRAME_FORMAT_T frameFormat;	/*!< Format config: SPI/TI/Microwire */
 225:../lpc11cx4-library/lpc_chip_11cxx_lib/inc/ssp_11xx.h **** } SSP_ConfigFormat;
 226:../lpc11cx4-library/lpc_chip_11cxx_lib/inc/ssp_11xx.h **** 
 227:../lpc11cx4-library/lpc_chip_11cxx_lib/inc/ssp_11xx.h **** /**
 228:../lpc11cx4-library/lpc_chip_11cxx_lib/inc/ssp_11xx.h ****  * @brief	Enable SSP operation
 229:../lpc11cx4-library/lpc_chip_11cxx_lib/inc/ssp_11xx.h ****  * @param	pSSP		: The base of SSP peripheral on the chip
ARM GAS  /tmp/cc7TFFKb.s 			page 8


 230:../lpc11cx4-library/lpc_chip_11cxx_lib/inc/ssp_11xx.h ****  * @return	 Nothing
 231:../lpc11cx4-library/lpc_chip_11cxx_lib/inc/ssp_11xx.h ****  */
 232:../lpc11cx4-library/lpc_chip_11cxx_lib/inc/ssp_11xx.h **** STATIC INLINE void Chip_SSP_Enable(LPC_SSP_T *pSSP)
 233:../lpc11cx4-library/lpc_chip_11cxx_lib/inc/ssp_11xx.h **** {
 234:../lpc11cx4-library/lpc_chip_11cxx_lib/inc/ssp_11xx.h **** 	pSSP->CR1 |= SSP_CR1_SSP_EN;
 235:../lpc11cx4-library/lpc_chip_11cxx_lib/inc/ssp_11xx.h **** }
 236:../lpc11cx4-library/lpc_chip_11cxx_lib/inc/ssp_11xx.h **** 
 237:../lpc11cx4-library/lpc_chip_11cxx_lib/inc/ssp_11xx.h **** /**
 238:../lpc11cx4-library/lpc_chip_11cxx_lib/inc/ssp_11xx.h ****  * @brief	Disable SSP operation
 239:../lpc11cx4-library/lpc_chip_11cxx_lib/inc/ssp_11xx.h ****  * @param	pSSP		: The base of SSP peripheral on the chip
 240:../lpc11cx4-library/lpc_chip_11cxx_lib/inc/ssp_11xx.h ****  * @return	 Nothing
 241:../lpc11cx4-library/lpc_chip_11cxx_lib/inc/ssp_11xx.h ****  */
 242:../lpc11cx4-library/lpc_chip_11cxx_lib/inc/ssp_11xx.h **** STATIC INLINE void Chip_SSP_Disable(LPC_SSP_T *pSSP)
 243:../lpc11cx4-library/lpc_chip_11cxx_lib/inc/ssp_11xx.h **** {
 244:../lpc11cx4-library/lpc_chip_11cxx_lib/inc/ssp_11xx.h **** 	pSSP->CR1 &= (~SSP_CR1_SSP_EN) & SSP_CR1_BITMASK;
 245:../lpc11cx4-library/lpc_chip_11cxx_lib/inc/ssp_11xx.h **** }
 246:../lpc11cx4-library/lpc_chip_11cxx_lib/inc/ssp_11xx.h **** 
 247:../lpc11cx4-library/lpc_chip_11cxx_lib/inc/ssp_11xx.h **** /**
 248:../lpc11cx4-library/lpc_chip_11cxx_lib/inc/ssp_11xx.h ****  * @brief	Enable loopback mode
 249:../lpc11cx4-library/lpc_chip_11cxx_lib/inc/ssp_11xx.h ****  * @param	pSSP		: The base of SSP peripheral on the chip
 250:../lpc11cx4-library/lpc_chip_11cxx_lib/inc/ssp_11xx.h ****  * @return	 Nothing
 251:../lpc11cx4-library/lpc_chip_11cxx_lib/inc/ssp_11xx.h ****  * @note	Serial input is taken from the serial output (MOSI or MISO) rather
 252:../lpc11cx4-library/lpc_chip_11cxx_lib/inc/ssp_11xx.h ****  * than the serial input pin
 253:../lpc11cx4-library/lpc_chip_11cxx_lib/inc/ssp_11xx.h ****  */
 254:../lpc11cx4-library/lpc_chip_11cxx_lib/inc/ssp_11xx.h **** STATIC INLINE void Chip_SSP_EnableLoopBack(LPC_SSP_T *pSSP)
 255:../lpc11cx4-library/lpc_chip_11cxx_lib/inc/ssp_11xx.h **** {
 256:../lpc11cx4-library/lpc_chip_11cxx_lib/inc/ssp_11xx.h **** 	pSSP->CR1 |= SSP_CR1_LBM_EN;
 257:../lpc11cx4-library/lpc_chip_11cxx_lib/inc/ssp_11xx.h **** }
 258:../lpc11cx4-library/lpc_chip_11cxx_lib/inc/ssp_11xx.h **** 
 259:../lpc11cx4-library/lpc_chip_11cxx_lib/inc/ssp_11xx.h **** /**
 260:../lpc11cx4-library/lpc_chip_11cxx_lib/inc/ssp_11xx.h ****  * @brief	Disable loopback mode
 261:../lpc11cx4-library/lpc_chip_11cxx_lib/inc/ssp_11xx.h ****  * @param	pSSP		: The base of SSP peripheral on the chip
 262:../lpc11cx4-library/lpc_chip_11cxx_lib/inc/ssp_11xx.h ****  * @return	 Nothing
 263:../lpc11cx4-library/lpc_chip_11cxx_lib/inc/ssp_11xx.h ****  * @note	Serial input is taken from the serial output (MOSI or MISO) rather
 264:../lpc11cx4-library/lpc_chip_11cxx_lib/inc/ssp_11xx.h ****  * than the serial input pin
 265:../lpc11cx4-library/lpc_chip_11cxx_lib/inc/ssp_11xx.h ****  */
 266:../lpc11cx4-library/lpc_chip_11cxx_lib/inc/ssp_11xx.h **** STATIC INLINE void Chip_SSP_DisableLoopBack(LPC_SSP_T *pSSP)
 267:../lpc11cx4-library/lpc_chip_11cxx_lib/inc/ssp_11xx.h **** {
 268:../lpc11cx4-library/lpc_chip_11cxx_lib/inc/ssp_11xx.h **** 	pSSP->CR1 &= (~SSP_CR1_LBM_EN) & SSP_CR1_BITMASK;
 269:../lpc11cx4-library/lpc_chip_11cxx_lib/inc/ssp_11xx.h **** }
 270:../lpc11cx4-library/lpc_chip_11cxx_lib/inc/ssp_11xx.h **** 
 271:../lpc11cx4-library/lpc_chip_11cxx_lib/inc/ssp_11xx.h **** /**
 272:../lpc11cx4-library/lpc_chip_11cxx_lib/inc/ssp_11xx.h ****  * @brief	Get the current status of SSP controller
 273:../lpc11cx4-library/lpc_chip_11cxx_lib/inc/ssp_11xx.h ****  * @param	pSSP	: The base of SSP peripheral on the chip
 274:../lpc11cx4-library/lpc_chip_11cxx_lib/inc/ssp_11xx.h ****  * @param	Stat	: Type of status, should be :
 275:../lpc11cx4-library/lpc_chip_11cxx_lib/inc/ssp_11xx.h ****  *						- SSP_STAT_TFE
 276:../lpc11cx4-library/lpc_chip_11cxx_lib/inc/ssp_11xx.h ****  *						- SSP_STAT_TNF
 277:../lpc11cx4-library/lpc_chip_11cxx_lib/inc/ssp_11xx.h ****  *						- SSP_STAT_RNE
 278:../lpc11cx4-library/lpc_chip_11cxx_lib/inc/ssp_11xx.h ****  *						- SSP_STAT_RFF
 279:../lpc11cx4-library/lpc_chip_11cxx_lib/inc/ssp_11xx.h ****  *						- SSP_STAT_BSY
 280:../lpc11cx4-library/lpc_chip_11cxx_lib/inc/ssp_11xx.h ****  * @return	 SSP controller status, SET or RESET
 281:../lpc11cx4-library/lpc_chip_11cxx_lib/inc/ssp_11xx.h ****  */
 282:../lpc11cx4-library/lpc_chip_11cxx_lib/inc/ssp_11xx.h **** STATIC INLINE FlagStatus Chip_SSP_GetStatus(LPC_SSP_T *pSSP, SSP_STATUS_T Stat)
 283:../lpc11cx4-library/lpc_chip_11cxx_lib/inc/ssp_11xx.h **** {
 284:../lpc11cx4-library/lpc_chip_11cxx_lib/inc/ssp_11xx.h **** 	return (pSSP->SR & Stat) ? SET : RESET;
  81              		.loc 2 284 0
  82 0000 C368     		ldr	r3, [r0, #12]	@ D.6782, pSSP_4(D)->SR
ARM GAS  /tmp/cc7TFFKb.s 			page 9


  83              	.LBE225:
  84              	.LBE224:
  85              		.loc 1 90 0
  86 0002 30B5     		push	{r4, r5, lr}	@
  87              		.cfi_def_cfa_offset 12
  88              		.cfi_offset 4, -12
  89              		.cfi_offset 5, -8
  90              		.cfi_offset 14, -4
  91:../lpc11cx4-library/lpc_chip_11cxx_lib/src/ssp_11xx.c **** 	uint16_t rDat;
  92:../lpc11cx4-library/lpc_chip_11cxx_lib/src/ssp_11xx.c **** 
  93:../lpc11cx4-library/lpc_chip_11cxx_lib/src/ssp_11xx.c **** 	while ((Chip_SSP_GetStatus(pSSP, SSP_STAT_RNE) == SET) &&
  91              		.loc 1 93 0
  92 0004 5B07     		lsl	r3, r3, #29	@ tmp136, D.6782,
  93 0006 13D5     		bpl	.L1	@,
  94:../lpc11cx4-library/lpc_chip_11cxx_lib/src/ssp_11xx.c **** 		   (xf_setup->rx_cnt < xf_setup->length)) {
  94              		.loc 1 94 0
  95 0008 CB68     		ldr	r3, [r1, #12]	@ xf_setup_5(D)->rx_cnt, xf_setup_5(D)->rx_cnt
  93:../lpc11cx4-library/lpc_chip_11cxx_lib/src/ssp_11xx.c **** 		   (xf_setup->rx_cnt < xf_setup->length)) {
  96              		.loc 1 93 0
  97 000a 0A69     		ldr	r2, [r1, #16]	@ tmp137, xf_setup_5(D)->length
  98 000c 9342     		cmp	r3, r2	@ xf_setup_5(D)->rx_cnt, tmp137
  99 000e 0FD2     		bcs	.L1	@,
 100              	.LBB228:
 101              	.LBB226:
 102              		.loc 2 284 0
 103 0010 0425     		mov	r5, #4	@ tmp135,
 104 0012 02E0     		b	.L5	@
 105              	.LVL1:
 106              	.L14:
 107              	.LBE226:
 108              	.LBE228:
  93:../lpc11cx4-library/lpc_chip_11cxx_lib/src/ssp_11xx.c **** 		   (xf_setup->rx_cnt < xf_setup->length)) {
 109              		.loc 1 93 0 discriminator 1
 110 0014 0A69     		ldr	r2, [r1, #16]	@ tmp139, xf_setup_5(D)->length
 111 0016 9A42     		cmp	r2, r3	@ tmp139, xf_setup_5(D)->rx_cnt
 112 0018 0AD9     		bls	.L1	@,
 113              	.LVL2:
 114              	.L5:
  95:../lpc11cx4-library/lpc_chip_11cxx_lib/src/ssp_11xx.c **** 		rDat = Chip_SSP_ReceiveFrame(pSSP);
  96:../lpc11cx4-library/lpc_chip_11cxx_lib/src/ssp_11xx.c **** 		if (xf_setup->rx_data) {
 115              		.loc 1 96 0
 116 001a 8A68     		ldr	r2, [r1, #8]	@ D.6783, xf_setup_5(D)->rx_data
 117              	.LBB229:
 118              	.LBB230:
 285:../lpc11cx4-library/lpc_chip_11cxx_lib/inc/ssp_11xx.h **** }
 286:../lpc11cx4-library/lpc_chip_11cxx_lib/inc/ssp_11xx.h **** 
 287:../lpc11cx4-library/lpc_chip_11cxx_lib/inc/ssp_11xx.h **** /**
 288:../lpc11cx4-library/lpc_chip_11cxx_lib/inc/ssp_11xx.h ****  * @brief	Get the masked interrupt status
 289:../lpc11cx4-library/lpc_chip_11cxx_lib/inc/ssp_11xx.h ****  * @param	pSSP	: The base of SSP peripheral on the chip
 290:../lpc11cx4-library/lpc_chip_11cxx_lib/inc/ssp_11xx.h ****  * @return	 SSP Masked Interrupt Status Register value
 291:../lpc11cx4-library/lpc_chip_11cxx_lib/inc/ssp_11xx.h ****  * @note	The return value contains a 1 for each interrupt condition that is asserted and enabled (m
 292:../lpc11cx4-library/lpc_chip_11cxx_lib/inc/ssp_11xx.h ****  */
 293:../lpc11cx4-library/lpc_chip_11cxx_lib/inc/ssp_11xx.h **** STATIC INLINE uint32_t Chip_SSP_GetIntStatus(LPC_SSP_T *pSSP)
 294:../lpc11cx4-library/lpc_chip_11cxx_lib/inc/ssp_11xx.h **** {
 295:../lpc11cx4-library/lpc_chip_11cxx_lib/inc/ssp_11xx.h **** 	return pSSP->MIS;
 296:../lpc11cx4-library/lpc_chip_11cxx_lib/inc/ssp_11xx.h **** }
 297:../lpc11cx4-library/lpc_chip_11cxx_lib/inc/ssp_11xx.h **** 
ARM GAS  /tmp/cc7TFFKb.s 			page 10


 298:../lpc11cx4-library/lpc_chip_11cxx_lib/inc/ssp_11xx.h **** /**
 299:../lpc11cx4-library/lpc_chip_11cxx_lib/inc/ssp_11xx.h ****  * @brief	Get the raw interrupt status
 300:../lpc11cx4-library/lpc_chip_11cxx_lib/inc/ssp_11xx.h ****  * @param	pSSP	: The base of SSP peripheral on the chip
 301:../lpc11cx4-library/lpc_chip_11cxx_lib/inc/ssp_11xx.h ****  * @param	RawInt	: Interrupt condition to be get status, shoud be :
 302:../lpc11cx4-library/lpc_chip_11cxx_lib/inc/ssp_11xx.h ****  *						- SSP_RORRIS
 303:../lpc11cx4-library/lpc_chip_11cxx_lib/inc/ssp_11xx.h ****  *						- SSP_RTRIS
 304:../lpc11cx4-library/lpc_chip_11cxx_lib/inc/ssp_11xx.h ****  *						- SSP_RXRIS
 305:../lpc11cx4-library/lpc_chip_11cxx_lib/inc/ssp_11xx.h ****  *						- SSP_TXRIS
 306:../lpc11cx4-library/lpc_chip_11cxx_lib/inc/ssp_11xx.h ****  * @return	 Raw interrupt status corresponding to interrupt condition , SET or RESET
 307:../lpc11cx4-library/lpc_chip_11cxx_lib/inc/ssp_11xx.h ****  * @note	Get the status of each interrupt condition ,regardless of whether or not the interrupt is 
 308:../lpc11cx4-library/lpc_chip_11cxx_lib/inc/ssp_11xx.h ****  */
 309:../lpc11cx4-library/lpc_chip_11cxx_lib/inc/ssp_11xx.h **** STATIC INLINE IntStatus Chip_SSP_GetRawIntStatus(LPC_SSP_T *pSSP, SSP_RAWINTSTATUS_T RawInt)
 310:../lpc11cx4-library/lpc_chip_11cxx_lib/inc/ssp_11xx.h **** {
 311:../lpc11cx4-library/lpc_chip_11cxx_lib/inc/ssp_11xx.h **** 	return (pSSP->RIS & RawInt) ? SET : RESET;
 312:../lpc11cx4-library/lpc_chip_11cxx_lib/inc/ssp_11xx.h **** }
 313:../lpc11cx4-library/lpc_chip_11cxx_lib/inc/ssp_11xx.h **** 
 314:../lpc11cx4-library/lpc_chip_11cxx_lib/inc/ssp_11xx.h **** /**
 315:../lpc11cx4-library/lpc_chip_11cxx_lib/inc/ssp_11xx.h ****  * @brief	Get the number of bits transferred in each frame
 316:../lpc11cx4-library/lpc_chip_11cxx_lib/inc/ssp_11xx.h ****  * @param	pSSP	: The base of SSP peripheral on the chip
 317:../lpc11cx4-library/lpc_chip_11cxx_lib/inc/ssp_11xx.h ****  * @return	 the number of bits transferred in each frame minus one
 318:../lpc11cx4-library/lpc_chip_11cxx_lib/inc/ssp_11xx.h ****  * @note	The return value is 0x03 -> 0xF corresponding to 4bit -> 16bit transfer
 319:../lpc11cx4-library/lpc_chip_11cxx_lib/inc/ssp_11xx.h ****  */
 320:../lpc11cx4-library/lpc_chip_11cxx_lib/inc/ssp_11xx.h **** STATIC INLINE uint8_t Chip_SSP_GetDataSize(LPC_SSP_T *pSSP)
 321:../lpc11cx4-library/lpc_chip_11cxx_lib/inc/ssp_11xx.h **** {
 322:../lpc11cx4-library/lpc_chip_11cxx_lib/inc/ssp_11xx.h **** 	return SSP_CR0_DSS(pSSP->CR0);
 323:../lpc11cx4-library/lpc_chip_11cxx_lib/inc/ssp_11xx.h **** }
 324:../lpc11cx4-library/lpc_chip_11cxx_lib/inc/ssp_11xx.h **** 
 325:../lpc11cx4-library/lpc_chip_11cxx_lib/inc/ssp_11xx.h **** /**
 326:../lpc11cx4-library/lpc_chip_11cxx_lib/inc/ssp_11xx.h ****  * @brief	Clear the corresponding interrupt condition(s) in the SSP controller
 327:../lpc11cx4-library/lpc_chip_11cxx_lib/inc/ssp_11xx.h ****  * @param	pSSP	: The base of SSP peripheral on the chip
 328:../lpc11cx4-library/lpc_chip_11cxx_lib/inc/ssp_11xx.h ****  * @param	IntClear: Type of cleared interrupt, should be :
 329:../lpc11cx4-library/lpc_chip_11cxx_lib/inc/ssp_11xx.h ****  *						- SSP_RORIC
 330:../lpc11cx4-library/lpc_chip_11cxx_lib/inc/ssp_11xx.h ****  *						- SSP_RTIC
 331:../lpc11cx4-library/lpc_chip_11cxx_lib/inc/ssp_11xx.h ****  * @return	 Nothing
 332:../lpc11cx4-library/lpc_chip_11cxx_lib/inc/ssp_11xx.h ****  * @note	Software can clear one or more interrupt condition(s) in the SSP controller
 333:../lpc11cx4-library/lpc_chip_11cxx_lib/inc/ssp_11xx.h ****  */
 334:../lpc11cx4-library/lpc_chip_11cxx_lib/inc/ssp_11xx.h **** STATIC INLINE void Chip_SSP_ClearIntPending(LPC_SSP_T *pSSP, SSP_INTCLEAR_T IntClear)
 335:../lpc11cx4-library/lpc_chip_11cxx_lib/inc/ssp_11xx.h **** {
 336:../lpc11cx4-library/lpc_chip_11cxx_lib/inc/ssp_11xx.h **** 	pSSP->ICR = IntClear;
 337:../lpc11cx4-library/lpc_chip_11cxx_lib/inc/ssp_11xx.h **** }
 338:../lpc11cx4-library/lpc_chip_11cxx_lib/inc/ssp_11xx.h **** 
 339:../lpc11cx4-library/lpc_chip_11cxx_lib/inc/ssp_11xx.h **** /**
 340:../lpc11cx4-library/lpc_chip_11cxx_lib/inc/ssp_11xx.h ****  * @brief	Enable interrupt for the SSP
 341:../lpc11cx4-library/lpc_chip_11cxx_lib/inc/ssp_11xx.h ****  * @param	pSSP		: The base of SSP peripheral on the chip
 342:../lpc11cx4-library/lpc_chip_11cxx_lib/inc/ssp_11xx.h ****  * @return	 Nothing
 343:../lpc11cx4-library/lpc_chip_11cxx_lib/inc/ssp_11xx.h ****  */
 344:../lpc11cx4-library/lpc_chip_11cxx_lib/inc/ssp_11xx.h **** STATIC INLINE void Chip_SSP_Int_Enable(LPC_SSP_T *pSSP)
 345:../lpc11cx4-library/lpc_chip_11cxx_lib/inc/ssp_11xx.h **** {
 346:../lpc11cx4-library/lpc_chip_11cxx_lib/inc/ssp_11xx.h **** 	pSSP->IMSC |= SSP_TXIM;
 347:../lpc11cx4-library/lpc_chip_11cxx_lib/inc/ssp_11xx.h **** }
 348:../lpc11cx4-library/lpc_chip_11cxx_lib/inc/ssp_11xx.h **** 
 349:../lpc11cx4-library/lpc_chip_11cxx_lib/inc/ssp_11xx.h **** /**
 350:../lpc11cx4-library/lpc_chip_11cxx_lib/inc/ssp_11xx.h ****  * @brief	Disable interrupt for the SSP
 351:../lpc11cx4-library/lpc_chip_11cxx_lib/inc/ssp_11xx.h ****  * @param	pSSP		: The base of SSP peripheral on the chip
 352:../lpc11cx4-library/lpc_chip_11cxx_lib/inc/ssp_11xx.h ****  * @return	 Nothing
 353:../lpc11cx4-library/lpc_chip_11cxx_lib/inc/ssp_11xx.h ****  */
 354:../lpc11cx4-library/lpc_chip_11cxx_lib/inc/ssp_11xx.h **** STATIC INLINE void Chip_SSP_Int_Disable(LPC_SSP_T *pSSP)
ARM GAS  /tmp/cc7TFFKb.s 			page 11


 355:../lpc11cx4-library/lpc_chip_11cxx_lib/inc/ssp_11xx.h **** {
 356:../lpc11cx4-library/lpc_chip_11cxx_lib/inc/ssp_11xx.h **** 	pSSP->IMSC &= (~SSP_TXIM);
 357:../lpc11cx4-library/lpc_chip_11cxx_lib/inc/ssp_11xx.h **** }
 358:../lpc11cx4-library/lpc_chip_11cxx_lib/inc/ssp_11xx.h **** 
 359:../lpc11cx4-library/lpc_chip_11cxx_lib/inc/ssp_11xx.h **** /**
 360:../lpc11cx4-library/lpc_chip_11cxx_lib/inc/ssp_11xx.h ****  * @brief	Get received SSP data
 361:../lpc11cx4-library/lpc_chip_11cxx_lib/inc/ssp_11xx.h ****  * @param	pSSP	: The base of SSP peripheral on the chip
 362:../lpc11cx4-library/lpc_chip_11cxx_lib/inc/ssp_11xx.h ****  * @return	 SSP 16-bit data received
 363:../lpc11cx4-library/lpc_chip_11cxx_lib/inc/ssp_11xx.h ****  */
 364:../lpc11cx4-library/lpc_chip_11cxx_lib/inc/ssp_11xx.h **** STATIC INLINE uint16_t Chip_SSP_ReceiveFrame(LPC_SSP_T *pSSP)
 365:../lpc11cx4-library/lpc_chip_11cxx_lib/inc/ssp_11xx.h **** {
 366:../lpc11cx4-library/lpc_chip_11cxx_lib/inc/ssp_11xx.h **** 	return (uint16_t) (SSP_DR_BITMASK(pSSP->DR));
 119              		.loc 2 366 0
 120 001c 8468     		ldr	r4, [r0, #8]	@ D.6782, pSSP_4(D)->DR
 121              	.LBE230:
 122              	.LBE229:
 123              		.loc 1 96 0
 124 001e 002A     		cmp	r2, #0	@ D.6783,
 125 0020 01D0     		beq	.L4	@,
  97:../lpc11cx4-library/lpc_chip_11cxx_lib/src/ssp_11xx.c **** 			*(uint8_t *) ((uint32_t) xf_setup->rx_data + xf_setup->rx_cnt) = rDat;
 126              		.loc 1 97 0
 127 0022 D454     		strb	r4, [r2, r3]	@ D.6782, *_12
 128 0024 CB68     		ldr	r3, [r1, #12]	@ xf_setup_5(D)->rx_cnt, xf_setup_5(D)->rx_cnt
 129              	.L4:
 130              	.LBB231:
 131              	.LBB227:
 284:../lpc11cx4-library/lpc_chip_11cxx_lib/inc/ssp_11xx.h **** }
 132              		.loc 2 284 0
 133 0026 C268     		ldr	r2, [r0, #12]	@ D.6782, pSSP_4(D)->SR
 134              	.LBE227:
 135              	.LBE231:
  98:../lpc11cx4-library/lpc_chip_11cxx_lib/src/ssp_11xx.c **** 		}
  99:../lpc11cx4-library/lpc_chip_11cxx_lib/src/ssp_11xx.c **** 
 100:../lpc11cx4-library/lpc_chip_11cxx_lib/src/ssp_11xx.c **** 		xf_setup->rx_cnt++;
 136              		.loc 1 100 0
 137 0028 0133     		add	r3, r3, #1	@ xf_setup_5(D)->rx_cnt,
 138 002a CB60     		str	r3, [r1, #12]	@ xf_setup_5(D)->rx_cnt, xf_setup_5(D)->rx_cnt
  93:../lpc11cx4-library/lpc_chip_11cxx_lib/src/ssp_11xx.c **** 		   (xf_setup->rx_cnt < xf_setup->length)) {
 139              		.loc 1 93 0
 140 002c 1542     		tst	r5, r2	@ tmp135, D.6782
 141 002e F1D1     		bne	.L14	@,
 142              	.LVL3:
 143              	.L1:
 101:../lpc11cx4-library/lpc_chip_11cxx_lib/src/ssp_11xx.c **** 	}
 102:../lpc11cx4-library/lpc_chip_11cxx_lib/src/ssp_11xx.c **** }
 144              		.loc 1 102 0
 145              		@ sp needed	@
 146 0030 30BD     		pop	{r4, r5, pc}
 147              		.cfi_endproc
 148              	.LFE201:
 149              		.size	SSP_Read1BFifo, .-SSP_Read1BFifo
 150 0032 C046     		.section	.text.Chip_SSP_SetClockRate,"ax",%progbits
 151              		.align	2
 152              		.global	Chip_SSP_SetClockRate
 153              		.code	16
 154              		.thumb_func
 155              		.type	Chip_SSP_SetClockRate, %function
ARM GAS  /tmp/cc7TFFKb.s 			page 12


 156              	Chip_SSP_SetClockRate:
 157              	.LFB206:
 103:../lpc11cx4-library/lpc_chip_11cxx_lib/src/ssp_11xx.c **** 
 104:../lpc11cx4-library/lpc_chip_11cxx_lib/src/ssp_11xx.c **** /* Returns clock for the peripheral block */
 105:../lpc11cx4-library/lpc_chip_11cxx_lib/src/ssp_11xx.c **** STATIC CHIP_SYSCTL_CLOCK_T Chip_SSP_GetClockIndex(LPC_SSP_T *pSSP)
 106:../lpc11cx4-library/lpc_chip_11cxx_lib/src/ssp_11xx.c **** {
 107:../lpc11cx4-library/lpc_chip_11cxx_lib/src/ssp_11xx.c **** 	CHIP_SYSCTL_CLOCK_T clkSSP;
 108:../lpc11cx4-library/lpc_chip_11cxx_lib/src/ssp_11xx.c **** 
 109:../lpc11cx4-library/lpc_chip_11cxx_lib/src/ssp_11xx.c **** 	if (pSSP == LPC_SSP0) {
 110:../lpc11cx4-library/lpc_chip_11cxx_lib/src/ssp_11xx.c **** 		clkSSP = SYSCTL_CLOCK_SSP0;
 111:../lpc11cx4-library/lpc_chip_11cxx_lib/src/ssp_11xx.c **** 	}
 112:../lpc11cx4-library/lpc_chip_11cxx_lib/src/ssp_11xx.c **** #if defined(CHIP_LPC11CXX) || defined(CHIP_LPC11EXX) || defined(CHIP_LPC11AXX) || defined(CHIP_LPC1
 113:../lpc11cx4-library/lpc_chip_11cxx_lib/src/ssp_11xx.c **** 	else {
 114:../lpc11cx4-library/lpc_chip_11cxx_lib/src/ssp_11xx.c **** 		clkSSP = SYSCTL_CLOCK_SSP1;
 115:../lpc11cx4-library/lpc_chip_11cxx_lib/src/ssp_11xx.c **** 	}
 116:../lpc11cx4-library/lpc_chip_11cxx_lib/src/ssp_11xx.c **** #endif
 117:../lpc11cx4-library/lpc_chip_11cxx_lib/src/ssp_11xx.c **** 		
 118:../lpc11cx4-library/lpc_chip_11cxx_lib/src/ssp_11xx.c **** 	return clkSSP;
 119:../lpc11cx4-library/lpc_chip_11cxx_lib/src/ssp_11xx.c **** }
 120:../lpc11cx4-library/lpc_chip_11cxx_lib/src/ssp_11xx.c **** 
 121:../lpc11cx4-library/lpc_chip_11cxx_lib/src/ssp_11xx.c **** /* Returns reset ID for the peripheral block */
 122:../lpc11cx4-library/lpc_chip_11cxx_lib/src/ssp_11xx.c **** STATIC CHIP_SYSCTL_PERIPH_RESET_T Chip_SSP_GetResetIndex(LPC_SSP_T *pSSP)
 123:../lpc11cx4-library/lpc_chip_11cxx_lib/src/ssp_11xx.c **** {
 124:../lpc11cx4-library/lpc_chip_11cxx_lib/src/ssp_11xx.c **** 	CHIP_SYSCTL_PERIPH_RESET_T resetSSP;
 125:../lpc11cx4-library/lpc_chip_11cxx_lib/src/ssp_11xx.c **** 
 126:../lpc11cx4-library/lpc_chip_11cxx_lib/src/ssp_11xx.c **** 	if (pSSP == LPC_SSP0) {
 127:../lpc11cx4-library/lpc_chip_11cxx_lib/src/ssp_11xx.c **** 		resetSSP = RESET_SSP0;
 128:../lpc11cx4-library/lpc_chip_11cxx_lib/src/ssp_11xx.c **** 	}
 129:../lpc11cx4-library/lpc_chip_11cxx_lib/src/ssp_11xx.c **** 	else {
 130:../lpc11cx4-library/lpc_chip_11cxx_lib/src/ssp_11xx.c **** 		resetSSP = RESET_SSP1;
 131:../lpc11cx4-library/lpc_chip_11cxx_lib/src/ssp_11xx.c **** 	}
 132:../lpc11cx4-library/lpc_chip_11cxx_lib/src/ssp_11xx.c **** 
 133:../lpc11cx4-library/lpc_chip_11cxx_lib/src/ssp_11xx.c **** 	return resetSSP;
 134:../lpc11cx4-library/lpc_chip_11cxx_lib/src/ssp_11xx.c **** }
 135:../lpc11cx4-library/lpc_chip_11cxx_lib/src/ssp_11xx.c **** 
 136:../lpc11cx4-library/lpc_chip_11cxx_lib/src/ssp_11xx.c **** /* Returns reset ID for the peripheral block */
 137:../lpc11cx4-library/lpc_chip_11cxx_lib/src/ssp_11xx.c **** STATIC void Chip_SSP_SetSSPClkDivider(LPC_SSP_T *pSSP, uint32_t div)
 138:../lpc11cx4-library/lpc_chip_11cxx_lib/src/ssp_11xx.c **** {
 139:../lpc11cx4-library/lpc_chip_11cxx_lib/src/ssp_11xx.c **** 	if (pSSP == LPC_SSP0) {
 140:../lpc11cx4-library/lpc_chip_11cxx_lib/src/ssp_11xx.c **** 		Chip_Clock_SetSSP0ClockDiv(div);
 141:../lpc11cx4-library/lpc_chip_11cxx_lib/src/ssp_11xx.c **** 	}
 142:../lpc11cx4-library/lpc_chip_11cxx_lib/src/ssp_11xx.c **** #if defined(CHIP_LPC11CXX) || defined(CHIP_LPC11EXX) || defined(CHIP_LPC11AXX) || defined(CHIP_LPC1
 143:../lpc11cx4-library/lpc_chip_11cxx_lib/src/ssp_11xx.c **** 	else {
 144:../lpc11cx4-library/lpc_chip_11cxx_lib/src/ssp_11xx.c **** 		Chip_Clock_SetSSP1ClockDiv(div);
 145:../lpc11cx4-library/lpc_chip_11cxx_lib/src/ssp_11xx.c **** 	}
 146:../lpc11cx4-library/lpc_chip_11cxx_lib/src/ssp_11xx.c **** #endif
 147:../lpc11cx4-library/lpc_chip_11cxx_lib/src/ssp_11xx.c **** }
 148:../lpc11cx4-library/lpc_chip_11cxx_lib/src/ssp_11xx.c **** 
 149:../lpc11cx4-library/lpc_chip_11cxx_lib/src/ssp_11xx.c **** /* Returns SSP peripheral clock for the peripheral block */
 150:../lpc11cx4-library/lpc_chip_11cxx_lib/src/ssp_11xx.c **** STATIC uint32_t Chip_SSP_GetPCLKkRate(LPC_SSP_T *pSSP)
 151:../lpc11cx4-library/lpc_chip_11cxx_lib/src/ssp_11xx.c **** {
 152:../lpc11cx4-library/lpc_chip_11cxx_lib/src/ssp_11xx.c **** 	uint32_t sspCLK = Chip_Clock_GetMainClockRate();
 153:../lpc11cx4-library/lpc_chip_11cxx_lib/src/ssp_11xx.c **** 
 154:../lpc11cx4-library/lpc_chip_11cxx_lib/src/ssp_11xx.c **** 	if (pSSP == LPC_SSP0) {
 155:../lpc11cx4-library/lpc_chip_11cxx_lib/src/ssp_11xx.c **** 		sspCLK /= Chip_Clock_GetSSP0ClockDiv();
 156:../lpc11cx4-library/lpc_chip_11cxx_lib/src/ssp_11xx.c **** 	}
 157:../lpc11cx4-library/lpc_chip_11cxx_lib/src/ssp_11xx.c **** #if defined(CHIP_LPC11CXX) || defined(CHIP_LPC11EXX) || defined(CHIP_LPC11AXX) || defined(CHIP_LPC1
ARM GAS  /tmp/cc7TFFKb.s 			page 13


 158:../lpc11cx4-library/lpc_chip_11cxx_lib/src/ssp_11xx.c **** 	else {
 159:../lpc11cx4-library/lpc_chip_11cxx_lib/src/ssp_11xx.c **** 		sspCLK /= Chip_Clock_GetSSP1ClockDiv();
 160:../lpc11cx4-library/lpc_chip_11cxx_lib/src/ssp_11xx.c **** 	}
 161:../lpc11cx4-library/lpc_chip_11cxx_lib/src/ssp_11xx.c **** #endif
 162:../lpc11cx4-library/lpc_chip_11cxx_lib/src/ssp_11xx.c **** 	
 163:../lpc11cx4-library/lpc_chip_11cxx_lib/src/ssp_11xx.c ****     return sspCLK;
 164:../lpc11cx4-library/lpc_chip_11cxx_lib/src/ssp_11xx.c **** }
 165:../lpc11cx4-library/lpc_chip_11cxx_lib/src/ssp_11xx.c **** 
 166:../lpc11cx4-library/lpc_chip_11cxx_lib/src/ssp_11xx.c **** /*****************************************************************************
 167:../lpc11cx4-library/lpc_chip_11cxx_lib/src/ssp_11xx.c ****  * Public functions
 168:../lpc11cx4-library/lpc_chip_11cxx_lib/src/ssp_11xx.c ****  ****************************************************************************/
 169:../lpc11cx4-library/lpc_chip_11cxx_lib/src/ssp_11xx.c **** 
 170:../lpc11cx4-library/lpc_chip_11cxx_lib/src/ssp_11xx.c **** /*Set up output clocks per bit for SSP bus*/
 171:../lpc11cx4-library/lpc_chip_11cxx_lib/src/ssp_11xx.c **** void Chip_SSP_SetClockRate(LPC_SSP_T *pSSP, uint32_t clk_rate, uint32_t prescale)
 172:../lpc11cx4-library/lpc_chip_11cxx_lib/src/ssp_11xx.c **** {
 158              		.loc 1 172 0
 159              		.cfi_startproc
 160              	.LVL4:
 161 0000 10B5     		push	{r4, lr}	@
 162              		.cfi_def_cfa_offset 8
 163              		.cfi_offset 4, -8
 164              		.cfi_offset 14, -4
 173:../lpc11cx4-library/lpc_chip_11cxx_lib/src/ssp_11xx.c **** 	uint32_t temp;
 174:../lpc11cx4-library/lpc_chip_11cxx_lib/src/ssp_11xx.c **** 	temp = pSSP->CR0 & (~(SSP_CR0_SCR(0xFF)));
 165              		.loc 1 174 0
 166 0002 044B     		ldr	r3, .L16	@ tmp122,
 167 0004 0468     		ldr	r4, [r0]	@ D.6788, pSSP_2(D)->CR0
 168              	.LVL5:
 175:../lpc11cx4-library/lpc_chip_11cxx_lib/src/ssp_11xx.c **** 	pSSP->CR0 = temp | (SSP_CR0_SCR(clk_rate));
 169              		.loc 1 175 0
 170 0006 0906     		lsl	r1, r1, #24	@ tmp120, clk_rate,
 171              	.LVL6:
 174:../lpc11cx4-library/lpc_chip_11cxx_lib/src/ssp_11xx.c **** 	pSSP->CR0 = temp | (SSP_CR0_SCR(clk_rate));
 172              		.loc 1 174 0
 173 0008 2340     		and	r3, r4	@ temp, D.6788
 174              	.LVL7:
 175              		.loc 1 175 0
 176 000a 090C     		lsr	r1, r1, #16	@ D.6788, tmp120,
 177 000c 1943     		orr	r1, r3	@ D.6788, temp
 178 000e 0160     		str	r1, [r0]	@ D.6788, pSSP_2(D)->CR0
 176:../lpc11cx4-library/lpc_chip_11cxx_lib/src/ssp_11xx.c **** 	pSSP->CPSR = prescale;
 177:../lpc11cx4-library/lpc_chip_11cxx_lib/src/ssp_11xx.c **** }
 179              		.loc 1 177 0
 180              		@ sp needed	@
 176:../lpc11cx4-library/lpc_chip_11cxx_lib/src/ssp_11xx.c **** 	pSSP->CPSR = prescale;
 181              		.loc 1 176 0
 182 0010 0261     		str	r2, [r0, #16]	@ prescale, pSSP_2(D)->CPSR
 183              		.loc 1 177 0
 184 0012 10BD     		pop	{r4, pc}
 185              	.L17:
 186              		.align	2
 187              	.L16:
 188 0014 FF00FFFF 		.word	-65281
 189              		.cfi_endproc
 190              	.LFE206:
 191              		.size	Chip_SSP_SetClockRate, .-Chip_SSP_SetClockRate
 192              		.section	.text.Chip_SSP_RWFrames_Blocking,"ax",%progbits
ARM GAS  /tmp/cc7TFFKb.s 			page 14


 193              		.align	2
 194              		.global	Chip_SSP_RWFrames_Blocking
 195              		.code	16
 196              		.thumb_func
 197              		.type	Chip_SSP_RWFrames_Blocking, %function
 198              	Chip_SSP_RWFrames_Blocking:
 199              	.LFB207:
 178:../lpc11cx4-library/lpc_chip_11cxx_lib/src/ssp_11xx.c **** 
 179:../lpc11cx4-library/lpc_chip_11cxx_lib/src/ssp_11xx.c **** /* SSP Polling Read/Write in blocking mode */
 180:../lpc11cx4-library/lpc_chip_11cxx_lib/src/ssp_11xx.c **** uint32_t Chip_SSP_RWFrames_Blocking(LPC_SSP_T *pSSP, Chip_SSP_DATA_SETUP_T *xf_setup)
 181:../lpc11cx4-library/lpc_chip_11cxx_lib/src/ssp_11xx.c **** {
 200              		.loc 1 181 0
 201              		.cfi_startproc
 202              	.LVL8:
 203 0000 F0B5     		push	{r4, r5, r6, r7, lr}	@
 204              		.cfi_def_cfa_offset 20
 205              		.cfi_offset 4, -20
 206              		.cfi_offset 5, -16
 207              		.cfi_offset 6, -12
 208              		.cfi_offset 7, -8
 209              		.cfi_offset 14, -4
 210 0002 4746     		mov	r7, r8	@,
 211              	.LBB232:
 212              	.LBB233:
 284:../lpc11cx4-library/lpc_chip_11cxx_lib/inc/ssp_11xx.h **** }
 213              		.loc 2 284 0
 214 0004 C368     		ldr	r3, [r0, #12]	@ D.6801, pSSP_10(D)->SR
 215              	.LBE233:
 216              	.LBE232:
 217              		.loc 1 181 0
 218 0006 80B4     		push	{r7}	@
 219              		.cfi_def_cfa_offset 24
 220              		.cfi_offset 8, -24
 221              		.loc 1 181 0
 222 0008 041C     		mov	r4, r0	@ pSSP, pSSP
 223 000a 0E1C     		mov	r6, r1	@ xf_setup, xf_setup
 182:../lpc11cx4-library/lpc_chip_11cxx_lib/src/ssp_11xx.c **** 	/* Clear all remaining frames in RX FIFO */
 183:../lpc11cx4-library/lpc_chip_11cxx_lib/src/ssp_11xx.c **** 	while (Chip_SSP_GetStatus(pSSP, SSP_STAT_RNE)) {
 224              		.loc 1 183 0
 225 000c 5B07     		lsl	r3, r3, #29	@ tmp242, D.6801,
 226 000e 04D5     		bpl	.L19	@,
 227              	.LBB236:
 228              	.LBB234:
 284:../lpc11cx4-library/lpc_chip_11cxx_lib/inc/ssp_11xx.h **** }
 229              		.loc 2 284 0
 230 0010 0422     		mov	r2, #4	@ tmp240,
 231              	.L60:
 232              	.LVL9:
 233              	.LBE234:
 234              	.LBE236:
 235              	.LBB237:
 236              	.LBB238:
 237              		.loc 2 366 0
 238 0012 A368     		ldr	r3, [r4, #8]	@ D.6801, pSSP_10(D)->DR
 239              	.LBE238:
 240              	.LBE237:
 241              	.LBB239:
ARM GAS  /tmp/cc7TFFKb.s 			page 15


 242              	.LBB235:
 284:../lpc11cx4-library/lpc_chip_11cxx_lib/inc/ssp_11xx.h **** }
 243              		.loc 2 284 0
 244 0014 E368     		ldr	r3, [r4, #12]	@ D.6801, pSSP_10(D)->SR
 245              	.LBE235:
 246              	.LBE239:
 247              		.loc 1 183 0
 248 0016 1A42     		tst	r2, r3	@ tmp240, D.6801
 249 0018 FBD1     		bne	.L60	@,
 250              	.LVL10:
 251              	.L19:
 252              	.LBB240:
 253              	.LBB241:
 336:../lpc11cx4-library/lpc_chip_11cxx_lib/inc/ssp_11xx.h **** }
 254              		.loc 2 336 0
 255 001a 0323     		mov	r3, #3	@ tmp195,
 256              	.LBE241:
 257              	.LBE240:
 184:../lpc11cx4-library/lpc_chip_11cxx_lib/src/ssp_11xx.c **** 		Chip_SSP_ReceiveFrame(pSSP);
 185:../lpc11cx4-library/lpc_chip_11cxx_lib/src/ssp_11xx.c **** 	}
 186:../lpc11cx4-library/lpc_chip_11cxx_lib/src/ssp_11xx.c **** 
 187:../lpc11cx4-library/lpc_chip_11cxx_lib/src/ssp_11xx.c **** 	/* Clear status */
 188:../lpc11cx4-library/lpc_chip_11cxx_lib/src/ssp_11xx.c **** 	Chip_SSP_ClearIntPending(pSSP, SSP_INT_CLEAR_BITMASK);
 189:../lpc11cx4-library/lpc_chip_11cxx_lib/src/ssp_11xx.c **** 
 190:../lpc11cx4-library/lpc_chip_11cxx_lib/src/ssp_11xx.c **** 	if (Chip_SSP_GetDataSize(pSSP) > SSP_BITS_8) {
 258              		.loc 1 190 0
 259 001c 0F22     		mov	r2, #15	@ tmp200,
 260              	.LBB243:
 261              	.LBB242:
 336:../lpc11cx4-library/lpc_chip_11cxx_lib/inc/ssp_11xx.h **** }
 262              		.loc 2 336 0
 263 001e 2362     		str	r3, [r4, #32]	@ tmp195, pSSP_10(D)->ICR
 264              	.LVL11:
 265              	.LBE242:
 266              	.LBE243:
 267              	.LBB244:
 268              	.LBB245:
 322:../lpc11cx4-library/lpc_chip_11cxx_lib/inc/ssp_11xx.h **** }
 269              		.loc 2 322 0
 270 0020 2368     		ldr	r3, [r4]	@ D.6801, pSSP_10(D)->CR0
 271              	.LBE245:
 272              	.LBE244:
 273              		.loc 1 190 0
 274 0022 1340     		and	r3, r2	@ tmp201, tmp200
 275 0024 072B     		cmp	r3, #7	@ tmp201,
 276 0026 3FD9     		bls	.L21	@,
 277              	.LBB246:
 278              	.LBB247:
 279              	.LBB248:
 280              	.LBB249:
 367:../lpc11cx4-library/lpc_chip_11cxx_lib/inc/ssp_11xx.h **** }
 368:../lpc11cx4-library/lpc_chip_11cxx_lib/inc/ssp_11xx.h **** 
 369:../lpc11cx4-library/lpc_chip_11cxx_lib/inc/ssp_11xx.h **** /**
 370:../lpc11cx4-library/lpc_chip_11cxx_lib/inc/ssp_11xx.h ****  * @brief	Send SSP 16-bit data
 371:../lpc11cx4-library/lpc_chip_11cxx_lib/inc/ssp_11xx.h ****  * @param	pSSP	: The base of SSP peripheral on the chip
 372:../lpc11cx4-library/lpc_chip_11cxx_lib/inc/ssp_11xx.h ****  * @param	tx_data	: SSP 16-bit data to be transmited
 373:../lpc11cx4-library/lpc_chip_11cxx_lib/inc/ssp_11xx.h ****  * @return	 Nothing
ARM GAS  /tmp/cc7TFFKb.s 			page 16


 374:../lpc11cx4-library/lpc_chip_11cxx_lib/inc/ssp_11xx.h ****  */
 375:../lpc11cx4-library/lpc_chip_11cxx_lib/inc/ssp_11xx.h **** STATIC INLINE void Chip_SSP_SendFrame(LPC_SSP_T *pSSP, uint16_t tx_data)
 376:../lpc11cx4-library/lpc_chip_11cxx_lib/inc/ssp_11xx.h **** {
 377:../lpc11cx4-library/lpc_chip_11cxx_lib/inc/ssp_11xx.h **** 	pSSP->DR = SSP_DR_BITMASK(tx_data);
 281              		.loc 2 377 0
 282 0028 3A4A     		ldr	r2, .L77	@ tmp234,
 283              	.LBE249:
 284              	.LBE248:
 285              	.LBE247:
 286              	.LBE246:
 287              	.LBB260:
 288              	.LBB261:
 284:../lpc11cx4-library/lpc_chip_11cxx_lib/inc/ssp_11xx.h **** }
 289              		.loc 2 284 0
 290 002a 0220     		mov	r0, #2	@ tmp233,
 291              	.LVL12:
 292              	.LBE261:
 293              	.LBE260:
 294              	.LBB264:
 295              	.LBB256:
 296              	.LBB252:
 297              	.LBB250:
 298              		.loc 2 377 0
 299 002c 9046     		mov	r8, r2	@ tmp234, tmp234
 300              	.LBE250:
 301              	.LBE252:
 302              	.LBE256:
 303              	.LBE264:
 304              	.LBB265:
 305              	.LBB266:
 311:../lpc11cx4-library/lpc_chip_11cxx_lib/inc/ssp_11xx.h **** }
 306              		.loc 2 311 0
 307 002e 0122     		mov	r2, #1	@ tmp235,
 308              	.LBE266:
 309              	.LBE265:
 310              	.LBB270:
 311              	.LBB271:
 312              	.LBB272:
 313              	.LBB273:
 284:../lpc11cx4-library/lpc_chip_11cxx_lib/inc/ssp_11xx.h **** }
 314              		.loc 2 284 0
 315 0030 0427     		mov	r7, #4	@ tmp236,
 316              	.LBE273:
 317              	.LBE272:
 318              	.LBE271:
 319              	.LBE270:
 320              	.LBB281:
 321              	.LBB267:
 311:../lpc11cx4-library/lpc_chip_11cxx_lib/inc/ssp_11xx.h **** }
 322              		.loc 2 311 0
 323 0032 9446     		mov	ip, r2	@ tmp235, tmp235
 324 0034 3569     		ldr	r5, [r6, #16]	@ D.6800, xf_setup_14(D)->length
 325 0036 F368     		ldr	r3, [r6, #12]	@ D.6800, xf_setup_14(D)->rx_cnt
 326              	.LVL13:
 327              	.L22:
 328              	.LBE267:
 329              	.LBE281:
ARM GAS  /tmp/cc7TFFKb.s 			page 17


 191:../lpc11cx4-library/lpc_chip_11cxx_lib/src/ssp_11xx.c **** 		while (xf_setup->rx_cnt < xf_setup->length || xf_setup->tx_cnt < xf_setup->length) {
 330              		.loc 1 191 0
 331 0038 9D42     		cmp	r5, r3	@ D.6800, D.6800
 332 003a 1FD8     		bhi	.L32	@,
 333              	.L75:
 334              		.loc 1 191 0 is_stmt 0 discriminator 1
 335 003c 7268     		ldr	r2, [r6, #4]	@ D.6801, xf_setup_14(D)->tx_cnt
 336 003e 111E     		sub	r1, r2, #0	@ D.6800, D.6801,
 337 0040 A942     		cmp	r1, r5	@ D.6800, D.6800
 338 0042 57D2     		bcs	.L42	@,
 339              	.LVL14:
 340              	.LBB282:
 341              	.LBB262:
 284:../lpc11cx4-library/lpc_chip_11cxx_lib/inc/ssp_11xx.h **** }
 342              		.loc 2 284 0 is_stmt 1
 343 0044 E168     		ldr	r1, [r4, #12]	@ D.6801, pSSP_10(D)->SR
 344              	.LBE262:
 345              	.LBE282:
 192:../lpc11cx4-library/lpc_chip_11cxx_lib/src/ssp_11xx.c **** 			/* write data to buffer */
 193:../lpc11cx4-library/lpc_chip_11cxx_lib/src/ssp_11xx.c **** 			if (( Chip_SSP_GetStatus(pSSP, SSP_STAT_TNF) == SET) && ( xf_setup->tx_cnt < xf_setup->length) )
 346              		.loc 1 193 0
 347 0046 0842     		tst	r0, r1	@ tmp233, D.6801
 348 0048 1ED1     		bne	.L43	@,
 349              	.L23:
 350              	.LVL15:
 194:../lpc11cx4-library/lpc_chip_11cxx_lib/src/ssp_11xx.c **** 				SSP_Write2BFifo(pSSP, xf_setup);
 195:../lpc11cx4-library/lpc_chip_11cxx_lib/src/ssp_11xx.c **** 			}
 196:../lpc11cx4-library/lpc_chip_11cxx_lib/src/ssp_11xx.c **** 
 197:../lpc11cx4-library/lpc_chip_11cxx_lib/src/ssp_11xx.c **** 			/* Check overrun error */
 198:../lpc11cx4-library/lpc_chip_11cxx_lib/src/ssp_11xx.c **** 			if (Chip_SSP_GetRawIntStatus(pSSP, SSP_RORRIS) == SET) {
 351              		.loc 1 198 0
 352 004a 6146     		mov	r1, ip	@ tmp235, tmp235
 353              	.LBB283:
 354              	.LBB268:
 311:../lpc11cx4-library/lpc_chip_11cxx_lib/inc/ssp_11xx.h **** }
 355              		.loc 2 311 0
 356 004c A269     		ldr	r2, [r4, #24]	@ D.6801, pSSP_10(D)->RIS
 357              	.LBE268:
 358              	.LBE283:
 359              		.loc 1 198 0
 360 004e 1142     		tst	r1, r2	@ tmp235, D.6801
 361 0050 26D1     		bne	.L39	@,
 362              	.L26:
 363              	.LVL16:
 364              	.LBB284:
 365              	.LBB280:
 366              	.LBB276:
 367              	.LBB274:
 284:../lpc11cx4-library/lpc_chip_11cxx_lib/inc/ssp_11xx.h **** }
 368              		.loc 2 284 0
 369 0052 E268     		ldr	r2, [r4, #12]	@ D.6801, pSSP_10(D)->SR
 370              	.LBE274:
 371              	.LBE276:
  77:../lpc11cx4-library/lpc_chip_11cxx_lib/src/ssp_11xx.c **** 		   (xf_setup->rx_cnt < xf_setup->length)) {
 372              		.loc 1 77 0
 373 0054 1742     		tst	r7, r2	@ tmp236, D.6801
 374 0056 EFD0     		beq	.L22	@,
ARM GAS  /tmp/cc7TFFKb.s 			page 18


 375 0058 9D42     		cmp	r5, r3	@ D.6800, D.6800
 376 005a EDD9     		bls	.L22	@,
 377 005c B168     		ldr	r1, [r6, #8]	@ D.6802, xf_setup_14(D)->rx_data
 378 005e 01E0     		b	.L31	@
 379              	.LVL17:
 380              	.L74:
 381 0060 AB42     		cmp	r3, r5	@ D.6800, D.6800
 382 0062 08D2     		bcs	.L72	@,
 383              	.LVL18:
 384              	.L31:
 385              	.LBB277:
 386              	.LBB278:
 366:../lpc11cx4-library/lpc_chip_11cxx_lib/inc/ssp_11xx.h **** }
 387              		.loc 2 366 0
 388 0064 A268     		ldr	r2, [r4, #8]	@ D.6801, pSSP_10(D)->DR
 389 0066 92B2     		uxth	r2, r2	@ D.6807, D.6801
 390              	.LBE278:
 391              	.LBE277:
  80:../lpc11cx4-library/lpc_chip_11cxx_lib/src/ssp_11xx.c **** 			*(uint16_t *) ((uint32_t) xf_setup->rx_data + xf_setup->rx_cnt) = rDat;
 392              		.loc 1 80 0
 393 0068 0029     		cmp	r1, #0	@ D.6802,
 394 006a 00D0     		beq	.L29	@,
  81:../lpc11cx4-library/lpc_chip_11cxx_lib/src/ssp_11xx.c **** 		}
 395              		.loc 1 81 0
 396 006c CA52     		strh	r2, [r1, r3]	@ D.6807, MEM[base: _102, index: _115, offset: 0B]
 397              	.L29:
 398              	.LBB279:
 399              	.LBB275:
 284:../lpc11cx4-library/lpc_chip_11cxx_lib/inc/ssp_11xx.h **** }
 400              		.loc 2 284 0
 401 006e E268     		ldr	r2, [r4, #12]	@ D.6801, pSSP_10(D)->SR
 402              	.LBE275:
 403              	.LBE279:
  84:../lpc11cx4-library/lpc_chip_11cxx_lib/src/ssp_11xx.c **** 	}
 404              		.loc 1 84 0
 405 0070 0233     		add	r3, r3, #2	@ D.6800,
  77:../lpc11cx4-library/lpc_chip_11cxx_lib/src/ssp_11xx.c **** 		   (xf_setup->rx_cnt < xf_setup->length)) {
 406              		.loc 1 77 0
 407 0072 1742     		tst	r7, r2	@ tmp236, D.6801
 408 0074 F4D1     		bne	.L74	@,
 409              	.L72:
 410 0076 F360     		str	r3, [r6, #12]	@ D.6800, xf_setup_14(D)->rx_cnt
 411              	.LBE280:
 412              	.LBE284:
 191:../lpc11cx4-library/lpc_chip_11cxx_lib/src/ssp_11xx.c **** 			/* write data to buffer */
 413              		.loc 1 191 0
 414 0078 9D42     		cmp	r5, r3	@ D.6800, D.6800
 415 007a DFD9     		bls	.L75	@,
 416              	.LVL19:
 417              	.L32:
 418              	.LBB285:
 419              	.LBB263:
 284:../lpc11cx4-library/lpc_chip_11cxx_lib/inc/ssp_11xx.h **** }
 420              		.loc 2 284 0
 421 007c E268     		ldr	r2, [r4, #12]	@ D.6801, pSSP_10(D)->SR
 422              	.LBE263:
 423              	.LBE285:
ARM GAS  /tmp/cc7TFFKb.s 			page 19


 193:../lpc11cx4-library/lpc_chip_11cxx_lib/src/ssp_11xx.c **** 				SSP_Write2BFifo(pSSP, xf_setup);
 424              		.loc 1 193 0
 425 007e 1042     		tst	r0, r2	@ tmp233, D.6801
 426 0080 E3D0     		beq	.L23	@,
 193:../lpc11cx4-library/lpc_chip_11cxx_lib/src/ssp_11xx.c **** 				SSP_Write2BFifo(pSSP, xf_setup);
 427              		.loc 1 193 0 is_stmt 0 discriminator 1
 428 0082 7268     		ldr	r2, [r6, #4]	@ D.6801, xf_setup_14(D)->tx_cnt
 429 0084 AA42     		cmp	r2, r5	@ D.6801, D.6800
 430 0086 E0D2     		bcs	.L23	@,
 431              	.L43:
 432 0088 3168     		ldr	r1, [r6]	@ D.6802, MEM[(void * *)xf_setup_14(D)]
 433              	.LVL20:
 434              	.LBB286:
 435              	.LBB257:
  48:../lpc11cx4-library/lpc_chip_11cxx_lib/src/ssp_11xx.c **** 		Chip_SSP_SendFrame(pSSP, (*(uint16_t *) ((uint32_t) xf_setup->tx_data +
 436              		.loc 1 48 0 is_stmt 1
 437 008a 0029     		cmp	r1, #0	@ D.6802,
 438 008c 3BD0     		beq	.L24	@,
 439              	.LVL21:
 440              	.LBB253:
 441              	.LBB254:
 442              		.loc 2 377 0
 443 008e 8A5A     		ldrh	r2, [r1, r2]	@ D.6801, *_49
 444              	.LVL22:
 445 0090 A260     		str	r2, [r4, #8]	@ D.6801,
 446              	.LVL23:
 447              	.L25:
 448              	.LBE254:
 449              	.LBE253:
 450              	.LBE257:
 451              	.LBE286:
 452              		.loc 1 198 0
 453 0092 6146     		mov	r1, ip	@ tmp235, tmp235
 454              	.LBB287:
 455              	.LBB258:
  56:../lpc11cx4-library/lpc_chip_11cxx_lib/src/ssp_11xx.c **** }
 456              		.loc 1 56 0
 457 0094 7268     		ldr	r2, [r6, #4]	@ tmp246, MEM[(uint32_t *)xf_setup_14(D) + 4B]
 458 0096 0232     		add	r2, r2, #2	@ D.6801,
 459 0098 7260     		str	r2, [r6, #4]	@ D.6801, MEM[(uint32_t *)xf_setup_14(D) + 4B]
 460              	.LVL24:
 461              	.LBE258:
 462              	.LBE287:
 463              	.LBB288:
 464              	.LBB269:
 311:../lpc11cx4-library/lpc_chip_11cxx_lib/inc/ssp_11xx.h **** }
 465              		.loc 2 311 0
 466 009a A269     		ldr	r2, [r4, #24]	@ D.6801, pSSP_10(D)->RIS
 467              	.LBE269:
 468              	.LBE288:
 469              		.loc 1 198 0
 470 009c 1142     		tst	r1, r2	@ tmp235, D.6801
 471 009e D8D0     		beq	.L26	@,
 472              	.LVL25:
 473              	.L39:
 199:../lpc11cx4-library/lpc_chip_11cxx_lib/src/ssp_11xx.c **** 				return ERROR;
 474              		.loc 1 199 0
ARM GAS  /tmp/cc7TFFKb.s 			page 20


 475 00a0 0020     		mov	r0, #0	@ D.6800,
 476              	.L59:
 200:../lpc11cx4-library/lpc_chip_11cxx_lib/src/ssp_11xx.c **** 			}
 201:../lpc11cx4-library/lpc_chip_11cxx_lib/src/ssp_11xx.c **** 
 202:../lpc11cx4-library/lpc_chip_11cxx_lib/src/ssp_11xx.c **** 			/* Check for any data available in RX FIFO */
 203:../lpc11cx4-library/lpc_chip_11cxx_lib/src/ssp_11xx.c **** 			SSP_Read2BFifo(pSSP, xf_setup);
 204:../lpc11cx4-library/lpc_chip_11cxx_lib/src/ssp_11xx.c **** 		}
 205:../lpc11cx4-library/lpc_chip_11cxx_lib/src/ssp_11xx.c **** 	}
 206:../lpc11cx4-library/lpc_chip_11cxx_lib/src/ssp_11xx.c **** 	else {
 207:../lpc11cx4-library/lpc_chip_11cxx_lib/src/ssp_11xx.c **** 		while (xf_setup->rx_cnt < xf_setup->length || xf_setup->tx_cnt < xf_setup->length) {
 208:../lpc11cx4-library/lpc_chip_11cxx_lib/src/ssp_11xx.c **** 			/* write data to buffer */
 209:../lpc11cx4-library/lpc_chip_11cxx_lib/src/ssp_11xx.c **** 			if (( Chip_SSP_GetStatus(pSSP, SSP_STAT_TNF) == SET) && ( xf_setup->tx_cnt < xf_setup->length) )
 210:../lpc11cx4-library/lpc_chip_11cxx_lib/src/ssp_11xx.c **** 				SSP_Write1BFifo(pSSP, xf_setup);
 211:../lpc11cx4-library/lpc_chip_11cxx_lib/src/ssp_11xx.c **** 			}
 212:../lpc11cx4-library/lpc_chip_11cxx_lib/src/ssp_11xx.c **** 
 213:../lpc11cx4-library/lpc_chip_11cxx_lib/src/ssp_11xx.c **** 			/* Check overrun error */
 214:../lpc11cx4-library/lpc_chip_11cxx_lib/src/ssp_11xx.c **** 			if (Chip_SSP_GetRawIntStatus(pSSP, SSP_RORRIS) == SET) {
 215:../lpc11cx4-library/lpc_chip_11cxx_lib/src/ssp_11xx.c **** 				return ERROR;
 216:../lpc11cx4-library/lpc_chip_11cxx_lib/src/ssp_11xx.c **** 			}
 217:../lpc11cx4-library/lpc_chip_11cxx_lib/src/ssp_11xx.c **** 
 218:../lpc11cx4-library/lpc_chip_11cxx_lib/src/ssp_11xx.c **** 			/* Check for any data available in RX FIFO */
 219:../lpc11cx4-library/lpc_chip_11cxx_lib/src/ssp_11xx.c **** 			SSP_Read1BFifo(pSSP, xf_setup);
 220:../lpc11cx4-library/lpc_chip_11cxx_lib/src/ssp_11xx.c **** 		}
 221:../lpc11cx4-library/lpc_chip_11cxx_lib/src/ssp_11xx.c **** 	}
 222:../lpc11cx4-library/lpc_chip_11cxx_lib/src/ssp_11xx.c **** 	if (xf_setup->tx_data) {
 223:../lpc11cx4-library/lpc_chip_11cxx_lib/src/ssp_11xx.c **** 		return xf_setup->tx_cnt;
 224:../lpc11cx4-library/lpc_chip_11cxx_lib/src/ssp_11xx.c **** 	}
 225:../lpc11cx4-library/lpc_chip_11cxx_lib/src/ssp_11xx.c **** 	else if (xf_setup->rx_data) {
 226:../lpc11cx4-library/lpc_chip_11cxx_lib/src/ssp_11xx.c **** 		return xf_setup->rx_cnt;
 227:../lpc11cx4-library/lpc_chip_11cxx_lib/src/ssp_11xx.c **** 	}
 228:../lpc11cx4-library/lpc_chip_11cxx_lib/src/ssp_11xx.c **** 
 229:../lpc11cx4-library/lpc_chip_11cxx_lib/src/ssp_11xx.c **** 	return 0;
 230:../lpc11cx4-library/lpc_chip_11cxx_lib/src/ssp_11xx.c **** }
 477              		.loc 1 230 0
 478              		@ sp needed	@
 479              	.LVL26:
 480              	.LVL27:
 481 00a2 04BC     		pop	{r2}
 482 00a4 9046     		mov	r8, r2
 483 00a6 F0BD     		pop	{r4, r5, r6, r7, pc}
 484              	.LVL28:
 485              	.L21:
 486              	.LBB289:
 487              	.LBB290:
 488              	.LBB291:
 489              	.LBB292:
 490              		.loc 2 377 0
 491 00a8 FF23     		mov	r3, #255	@ tmp238,
 492              	.LBE292:
 493              	.LBE291:
 494              	.LBE290:
 495              	.LBE289:
 496              	.LBB302:
 497              	.LBB303:
 284:../lpc11cx4-library/lpc_chip_11cxx_lib/inc/ssp_11xx.h **** }
 498              		.loc 2 284 0
 499 00aa 0225     		mov	r5, #2	@ tmp237,
ARM GAS  /tmp/cc7TFFKb.s 			page 21


 500              	.LBE303:
 501              	.LBE302:
 502              	.LBB306:
 503              	.LBB299:
 504              	.LBB295:
 505              	.LBB293:
 506              		.loc 2 377 0
 507 00ac 9846     		mov	r8, r3	@ tmp238, tmp238
 508              	.LBE293:
 509              	.LBE295:
 510              	.LBE299:
 511              	.LBE306:
 512              	.LBB307:
 513              	.LBB308:
 311:../lpc11cx4-library/lpc_chip_11cxx_lib/inc/ssp_11xx.h **** }
 514              		.loc 2 311 0
 515 00ae 0127     		mov	r7, #1	@ tmp239,
 516 00b0 0DE0     		b	.L71	@
 517              	.LVL29:
 518              	.L76:
 519              	.LBE308:
 520              	.LBE307:
 207:../lpc11cx4-library/lpc_chip_11cxx_lib/src/ssp_11xx.c **** 			/* write data to buffer */
 521              		.loc 1 207 0 discriminator 1
 522 00b2 7268     		ldr	r2, [r6, #4]	@ D.6801, xf_setup_14(D)->tx_cnt
 523 00b4 111C     		mov	r1, r2	@ D.6800, D.6801
 524 00b6 9342     		cmp	r3, r2	@ D.6801, D.6801
 525 00b8 1CD9     		bls	.L42	@,
 526              	.LVL30:
 527              	.LBB310:
 528              	.LBB304:
 284:../lpc11cx4-library/lpc_chip_11cxx_lib/inc/ssp_11xx.h **** }
 529              		.loc 2 284 0
 530 00ba E368     		ldr	r3, [r4, #12]	@ D.6801, pSSP_10(D)->SR
 531              	.LBE304:
 532              	.LBE310:
 209:../lpc11cx4-library/lpc_chip_11cxx_lib/src/ssp_11xx.c **** 				SSP_Write1BFifo(pSSP, xf_setup);
 533              		.loc 1 209 0
 534 00bc 1D42     		tst	r5, r3	@ tmp237, D.6801
 535 00be 10D1     		bne	.L44	@,
 536              	.L36:
 537              	.LVL31:
 538              	.LBB311:
 539              	.LBB309:
 311:../lpc11cx4-library/lpc_chip_11cxx_lib/inc/ssp_11xx.h **** }
 540              		.loc 2 311 0
 541 00c0 A369     		ldr	r3, [r4, #24]	@ D.6801, pSSP_10(D)->RIS
 542              	.LBE309:
 543              	.LBE311:
 214:../lpc11cx4-library/lpc_chip_11cxx_lib/src/ssp_11xx.c **** 				return ERROR;
 544              		.loc 1 214 0
 545 00c2 1F42     		tst	r7, r3	@ tmp239, D.6801
 546 00c4 ECD1     		bne	.L39	@,
 219:../lpc11cx4-library/lpc_chip_11cxx_lib/src/ssp_11xx.c **** 		}
 547              		.loc 1 219 0
 548 00c6 201C     		mov	r0, r4	@, pSSP
 549 00c8 311C     		mov	r1, r6	@, xf_setup
ARM GAS  /tmp/cc7TFFKb.s 			page 22


 550 00ca FFF7FEFF 		bl	SSP_Read1BFifo	@
 551              	.LVL32:
 552              	.L71:
 207:../lpc11cx4-library/lpc_chip_11cxx_lib/src/ssp_11xx.c **** 			/* write data to buffer */
 553              		.loc 1 207 0
 554 00ce 3369     		ldr	r3, [r6, #16]	@ D.6801, xf_setup_14(D)->length
 555 00d0 F268     		ldr	r2, [r6, #12]	@ tmp252, xf_setup_14(D)->rx_cnt
 556 00d2 9A42     		cmp	r2, r3	@ tmp252, D.6801
 557 00d4 EDD2     		bcs	.L76	@,
 558              	.LVL33:
 559              	.LBB312:
 560              	.LBB305:
 284:../lpc11cx4-library/lpc_chip_11cxx_lib/inc/ssp_11xx.h **** }
 561              		.loc 2 284 0
 562 00d6 E268     		ldr	r2, [r4, #12]	@ D.6801, pSSP_10(D)->SR
 563              	.LBE305:
 564              	.LBE312:
 209:../lpc11cx4-library/lpc_chip_11cxx_lib/src/ssp_11xx.c **** 				SSP_Write1BFifo(pSSP, xf_setup);
 565              		.loc 1 209 0
 566 00d8 1542     		tst	r5, r2	@ tmp237, D.6801
 567 00da F1D0     		beq	.L36	@,
 209:../lpc11cx4-library/lpc_chip_11cxx_lib/src/ssp_11xx.c **** 				SSP_Write1BFifo(pSSP, xf_setup);
 568              		.loc 1 209 0 is_stmt 0 discriminator 1
 569 00dc 7268     		ldr	r2, [r6, #4]	@ D.6801, xf_setup_14(D)->tx_cnt
 570 00de 9342     		cmp	r3, r2	@ D.6801, D.6801
 571 00e0 EED9     		bls	.L36	@,
 572              	.L44:
 573 00e2 3368     		ldr	r3, [r6]	@ D.6802, MEM[(void * *)xf_setup_14(D)]
 574              	.LVL34:
 575              	.LBB313:
 576              	.LBB300:
  62:../lpc11cx4-library/lpc_chip_11cxx_lib/src/ssp_11xx.c **** 		Chip_SSP_SendFrame(pSSP, (*(uint8_t *) ((uint32_t) xf_setup->tx_data + xf_setup->tx_cnt)));
 577              		.loc 1 62 0 is_stmt 1
 578 00e4 002B     		cmp	r3, #0	@ D.6802,
 579 00e6 11D0     		beq	.L37	@,
 580              	.LVL35:
 581              	.LBB296:
 582              	.LBB297:
 583              		.loc 2 377 0
 584 00e8 9B5C     		ldrb	r3, [r3, r2]	@ D.6801, *_73
 585              	.LVL36:
 586 00ea A360     		str	r3, [r4, #8]	@ D.6801,
 587              	.LVL37:
 588              	.L38:
 589              	.LBE297:
 590              	.LBE296:
  69:../lpc11cx4-library/lpc_chip_11cxx_lib/src/ssp_11xx.c **** }
 591              		.loc 1 69 0
 592 00ec 7368     		ldr	r3, [r6, #4]	@ tmp250, MEM[(uint32_t *)xf_setup_14(D) + 4B]
 593 00ee 0133     		add	r3, r3, #1	@ D.6801,
 594 00f0 7360     		str	r3, [r6, #4]	@ D.6801, MEM[(uint32_t *)xf_setup_14(D) + 4B]
 595 00f2 E5E7     		b	.L36	@
 596              	.LVL38:
 597              	.L42:
 598              	.LBE300:
 599              	.LBE313:
 222:../lpc11cx4-library/lpc_chip_11cxx_lib/src/ssp_11xx.c **** 		return xf_setup->tx_cnt;
ARM GAS  /tmp/cc7TFFKb.s 			page 23


 600              		.loc 1 222 0
 601 00f4 3368     		ldr	r3, [r6]	@ tmp248, xf_setup_14(D)->tx_data
 223:../lpc11cx4-library/lpc_chip_11cxx_lib/src/ssp_11xx.c **** 	}
 602              		.loc 1 223 0
 603 00f6 081C     		mov	r0, r1	@ D.6800, D.6800
 222:../lpc11cx4-library/lpc_chip_11cxx_lib/src/ssp_11xx.c **** 		return xf_setup->tx_cnt;
 604              		.loc 1 222 0
 605 00f8 002B     		cmp	r3, #0	@ tmp248,
 606 00fa D2D1     		bne	.L59	@,
 225:../lpc11cx4-library/lpc_chip_11cxx_lib/src/ssp_11xx.c **** 		return xf_setup->rx_cnt;
 607              		.loc 1 225 0
 608 00fc B368     		ldr	r3, [r6, #8]	@ tmp254, xf_setup_14(D)->rx_data
 609 00fe 002B     		cmp	r3, #0	@ tmp254,
 610 0100 CED0     		beq	.L39	@,
 226:../lpc11cx4-library/lpc_chip_11cxx_lib/src/ssp_11xx.c **** 	}
 611              		.loc 1 226 0
 612 0102 F068     		ldr	r0, [r6, #12]	@ D.6800, xf_setup_14(D)->rx_cnt
 613 0104 CDE7     		b	.L59	@
 614              	.LVL39:
 615              	.L24:
 616              	.LBB314:
 617              	.LBB259:
 618              	.LBB255:
 619              	.LBB251:
 620              		.loc 2 377 0
 621 0106 4246     		mov	r2, r8	@ tmp234, tmp234
 622 0108 A260     		str	r2, [r4, #8]	@ tmp234,
 623 010a C2E7     		b	.L25	@
 624              	.LVL40:
 625              	.L37:
 626              	.LBE251:
 627              	.LBE255:
 628              	.LBE259:
 629              	.LBE314:
 630              	.LBB315:
 631              	.LBB301:
 632              	.LBB298:
 633              	.LBB294:
 634 010c 4346     		mov	r3, r8	@ tmp238, tmp238
 635 010e A360     		str	r3, [r4, #8]	@ tmp238,
 636 0110 ECE7     		b	.L38	@
 637              	.L78:
 638 0112 C046     		.align	2
 639              	.L77:
 640 0114 FFFF0000 		.word	65535
 641              	.LBE294:
 642              	.LBE298:
 643              	.LBE301:
 644              	.LBE315:
 645              		.cfi_endproc
 646              	.LFE207:
 647              		.size	Chip_SSP_RWFrames_Blocking, .-Chip_SSP_RWFrames_Blocking
 648              		.section	.text.Chip_SSP_WriteFrames_Blocking,"ax",%progbits
 649              		.align	2
 650              		.global	Chip_SSP_WriteFrames_Blocking
 651              		.code	16
 652              		.thumb_func
ARM GAS  /tmp/cc7TFFKb.s 			page 24


 653              		.type	Chip_SSP_WriteFrames_Blocking, %function
 654              	Chip_SSP_WriteFrames_Blocking:
 655              	.LFB208:
 231:../lpc11cx4-library/lpc_chip_11cxx_lib/src/ssp_11xx.c **** 
 232:../lpc11cx4-library/lpc_chip_11cxx_lib/src/ssp_11xx.c **** /* SSP Polling Write in blocking mode */
 233:../lpc11cx4-library/lpc_chip_11cxx_lib/src/ssp_11xx.c **** uint32_t Chip_SSP_WriteFrames_Blocking(LPC_SSP_T *pSSP, uint8_t *buffer, uint32_t buffer_len)
 234:../lpc11cx4-library/lpc_chip_11cxx_lib/src/ssp_11xx.c **** {
 656              		.loc 1 234 0
 657              		.cfi_startproc
 658              	.LVL41:
 659 0000 F0B5     		push	{r4, r5, r6, r7, lr}	@
 660              		.cfi_def_cfa_offset 20
 661              		.cfi_offset 4, -20
 662              		.cfi_offset 5, -16
 663              		.cfi_offset 6, -12
 664              		.cfi_offset 7, -8
 665              		.cfi_offset 14, -4
 666 0002 4646     		mov	r6, r8	@,
 667 0004 4F46     		mov	r7, r9	@,
 668              	.LBB316:
 669              	.LBB317:
 284:../lpc11cx4-library/lpc_chip_11cxx_lib/inc/ssp_11xx.h **** }
 670              		.loc 2 284 0
 671 0006 C368     		ldr	r3, [r0, #12]	@ D.6818, pSSP_25(D)->SR
 672              	.LBE317:
 673              	.LBE316:
 674              		.loc 1 234 0
 675 0008 C0B4     		push	{r6, r7}	@
 676              		.cfi_def_cfa_offset 28
 677              		.cfi_offset 8, -28
 678              		.cfi_offset 9, -24
 679              		.loc 1 234 0
 680 000a 8846     		mov	r8, r1	@ buffer, buffer
 235:../lpc11cx4-library/lpc_chip_11cxx_lib/src/ssp_11xx.c **** 	uint32_t tx_cnt = 0, rx_cnt = 0;
 236:../lpc11cx4-library/lpc_chip_11cxx_lib/src/ssp_11xx.c **** 
 237:../lpc11cx4-library/lpc_chip_11cxx_lib/src/ssp_11xx.c **** 	/* Clear all remaining frames in RX FIFO */
 238:../lpc11cx4-library/lpc_chip_11cxx_lib/src/ssp_11xx.c **** 	while (Chip_SSP_GetStatus(pSSP, SSP_STAT_RNE)) {
 681              		.loc 1 238 0
 682 000c 5B07     		lsl	r3, r3, #29	@ tmp188, D.6818,
 683 000e 04D5     		bpl	.L80	@,
 684              	.LBB320:
 685              	.LBB318:
 284:../lpc11cx4-library/lpc_chip_11cxx_lib/inc/ssp_11xx.h **** }
 686              		.loc 2 284 0
 687 0010 0424     		mov	r4, #4	@ tmp187,
 688              	.L110:
 689              	.LVL42:
 690              	.LBE318:
 691              	.LBE320:
 692              	.LBB321:
 693              	.LBB322:
 366:../lpc11cx4-library/lpc_chip_11cxx_lib/inc/ssp_11xx.h **** }
 694              		.loc 2 366 0
 695 0012 8368     		ldr	r3, [r0, #8]	@ D.6818, pSSP_25(D)->DR
 696              	.LBE322:
 697              	.LBE321:
 698              	.LBB323:
ARM GAS  /tmp/cc7TFFKb.s 			page 25


 699              	.LBB319:
 284:../lpc11cx4-library/lpc_chip_11cxx_lib/inc/ssp_11xx.h **** }
 700              		.loc 2 284 0
 701 0014 C368     		ldr	r3, [r0, #12]	@ D.6818, pSSP_25(D)->SR
 702              	.LBE319:
 703              	.LBE323:
 704              		.loc 1 238 0
 705 0016 1C42     		tst	r4, r3	@ tmp187, D.6818
 706 0018 FBD1     		bne	.L110	@,
 707              	.LVL43:
 708              	.L80:
 709              	.LBB324:
 710              	.LBB325:
 336:../lpc11cx4-library/lpc_chip_11cxx_lib/inc/ssp_11xx.h **** }
 711              		.loc 2 336 0
 712 001a 0323     		mov	r3, #3	@ tmp155,
 713              	.LBE325:
 714              	.LBE324:
 239:../lpc11cx4-library/lpc_chip_11cxx_lib/src/ssp_11xx.c **** 		Chip_SSP_ReceiveFrame(pSSP);
 240:../lpc11cx4-library/lpc_chip_11cxx_lib/src/ssp_11xx.c **** 	}
 241:../lpc11cx4-library/lpc_chip_11cxx_lib/src/ssp_11xx.c **** 
 242:../lpc11cx4-library/lpc_chip_11cxx_lib/src/ssp_11xx.c **** 	/* Clear status */
 243:../lpc11cx4-library/lpc_chip_11cxx_lib/src/ssp_11xx.c **** 	Chip_SSP_ClearIntPending(pSSP, SSP_INT_CLEAR_BITMASK);
 244:../lpc11cx4-library/lpc_chip_11cxx_lib/src/ssp_11xx.c **** 
 245:../lpc11cx4-library/lpc_chip_11cxx_lib/src/ssp_11xx.c **** 	if (Chip_SSP_GetDataSize(pSSP) > SSP_BITS_8) {
 715              		.loc 1 245 0
 716 001c 0F24     		mov	r4, #15	@ tmp160,
 717              	.LBB327:
 718              	.LBB326:
 336:../lpc11cx4-library/lpc_chip_11cxx_lib/inc/ssp_11xx.h **** }
 719              		.loc 2 336 0
 720 001e 0362     		str	r3, [r0, #32]	@ tmp155, pSSP_25(D)->ICR
 721              	.LVL44:
 722              	.LBE326:
 723              	.LBE327:
 724              	.LBB328:
 725              	.LBB329:
 322:../lpc11cx4-library/lpc_chip_11cxx_lib/inc/ssp_11xx.h **** }
 726              		.loc 2 322 0
 727 0020 0368     		ldr	r3, [r0]	@ D.6818, pSSP_25(D)->CR0
 728              	.LBE329:
 729              	.LBE328:
 730              		.loc 1 245 0
 731 0022 2340     		and	r3, r4	@ tmp161, tmp160
 732 0024 072B     		cmp	r3, #7	@ tmp161,
 733 0026 2CD8     		bhi	.L82	@,
 734              	.LBB330:
 735              	.LBB331:
 736              	.LBB332:
 284:../lpc11cx4-library/lpc_chip_11cxx_lib/inc/ssp_11xx.h **** }
 737              		.loc 2 284 0
 738 0028 0221     		mov	r1, #2	@ tmp184,
 739              	.LVL45:
 740              	.LBE332:
 741              	.LBE331:
 742              	.LBE330:
 743              		.loc 1 245 0
ARM GAS  /tmp/cc7TFFKb.s 			page 26


 744 002a 0023     		mov	r3, #0	@ rx_cnt,
 745 002c 0026     		mov	r6, #0	@ tx_cnt,
 746              	.LBB357:
 747              	.LBB336:
 748              	.LBB333:
 284:../lpc11cx4-library/lpc_chip_11cxx_lib/inc/ssp_11xx.h **** }
 749              		.loc 2 284 0
 750 002e 8C46     		mov	ip, r1	@ tmp184, tmp184
 751              	.LBE333:
 752              	.LBE336:
 753              	.LBB337:
 754              	.LBB338:
 311:../lpc11cx4-library/lpc_chip_11cxx_lib/inc/ssp_11xx.h **** }
 755              		.loc 2 311 0
 756 0030 0127     		mov	r7, #1	@ tmp185,
 757              	.LBE338:
 758              	.LBE337:
 759              	.LBB341:
 760              	.LBB342:
 284:../lpc11cx4-library/lpc_chip_11cxx_lib/inc/ssp_11xx.h **** }
 761              		.loc 2 284 0
 762 0032 0425     		mov	r5, #4	@ tmp186,
 763              	.LVL46:
 764              	.L83:
 765              	.LBE342:
 766              	.LBE341:
 246:../lpc11cx4-library/lpc_chip_11cxx_lib/src/ssp_11xx.c **** 		uint16_t *wdata16;
 247:../lpc11cx4-library/lpc_chip_11cxx_lib/src/ssp_11xx.c **** 
 248:../lpc11cx4-library/lpc_chip_11cxx_lib/src/ssp_11xx.c **** 		wdata16 = (uint16_t *) buffer;
 249:../lpc11cx4-library/lpc_chip_11cxx_lib/src/ssp_11xx.c **** 
 250:../lpc11cx4-library/lpc_chip_11cxx_lib/src/ssp_11xx.c **** 		while (tx_cnt < buffer_len || rx_cnt < buffer_len) {
 251:../lpc11cx4-library/lpc_chip_11cxx_lib/src/ssp_11xx.c **** 			/* write data to buffer */
 252:../lpc11cx4-library/lpc_chip_11cxx_lib/src/ssp_11xx.c **** 			if ((Chip_SSP_GetStatus(pSSP, SSP_STAT_TNF) == SET) && (tx_cnt < buffer_len)) {
 253:../lpc11cx4-library/lpc_chip_11cxx_lib/src/ssp_11xx.c **** 				Chip_SSP_SendFrame(pSSP, *wdata16);
 254:../lpc11cx4-library/lpc_chip_11cxx_lib/src/ssp_11xx.c **** 				wdata16++;
 255:../lpc11cx4-library/lpc_chip_11cxx_lib/src/ssp_11xx.c **** 				tx_cnt += 2;
 256:../lpc11cx4-library/lpc_chip_11cxx_lib/src/ssp_11xx.c **** 			}
 257:../lpc11cx4-library/lpc_chip_11cxx_lib/src/ssp_11xx.c **** 
 258:../lpc11cx4-library/lpc_chip_11cxx_lib/src/ssp_11xx.c **** 			/* Check overrun error */
 259:../lpc11cx4-library/lpc_chip_11cxx_lib/src/ssp_11xx.c **** 			if (Chip_SSP_GetRawIntStatus(pSSP, SSP_RORRIS) == SET) {
 260:../lpc11cx4-library/lpc_chip_11cxx_lib/src/ssp_11xx.c **** 				return ERROR;
 261:../lpc11cx4-library/lpc_chip_11cxx_lib/src/ssp_11xx.c **** 			}
 262:../lpc11cx4-library/lpc_chip_11cxx_lib/src/ssp_11xx.c **** 
 263:../lpc11cx4-library/lpc_chip_11cxx_lib/src/ssp_11xx.c **** 			/* Check for any data available in RX FIFO */
 264:../lpc11cx4-library/lpc_chip_11cxx_lib/src/ssp_11xx.c **** 			while (Chip_SSP_GetStatus(pSSP, SSP_STAT_RNE) == SET) {
 265:../lpc11cx4-library/lpc_chip_11cxx_lib/src/ssp_11xx.c **** 				Chip_SSP_ReceiveFrame(pSSP);	/* read dummy data */
 266:../lpc11cx4-library/lpc_chip_11cxx_lib/src/ssp_11xx.c **** 				rx_cnt += 2;
 267:../lpc11cx4-library/lpc_chip_11cxx_lib/src/ssp_11xx.c **** 			}
 268:../lpc11cx4-library/lpc_chip_11cxx_lib/src/ssp_11xx.c **** 		}
 269:../lpc11cx4-library/lpc_chip_11cxx_lib/src/ssp_11xx.c **** 	}
 270:../lpc11cx4-library/lpc_chip_11cxx_lib/src/ssp_11xx.c **** 	else {
 271:../lpc11cx4-library/lpc_chip_11cxx_lib/src/ssp_11xx.c **** 		uint8_t *wdata8;
 272:../lpc11cx4-library/lpc_chip_11cxx_lib/src/ssp_11xx.c **** 
 273:../lpc11cx4-library/lpc_chip_11cxx_lib/src/ssp_11xx.c **** 		wdata8 = buffer;
 274:../lpc11cx4-library/lpc_chip_11cxx_lib/src/ssp_11xx.c **** 
 275:../lpc11cx4-library/lpc_chip_11cxx_lib/src/ssp_11xx.c **** 		while (tx_cnt < buffer_len || rx_cnt < buffer_len) {
 767              		.loc 1 275 0
ARM GAS  /tmp/cc7TFFKb.s 			page 27


 768 0034 9642     		cmp	r6, r2	@ tx_cnt, buffer_len
 769 0036 11D3     		bcc	.L94	@,
 770              	.L125:
 771              		.loc 1 275 0 is_stmt 0 discriminator 1
 772 0038 9342     		cmp	r3, r2	@ rx_cnt, buffer_len
 773 003a 42D2     		bcs	.L122	@,
 774              	.LVL47:
 775              	.LBB345:
 776              	.LBB334:
 284:../lpc11cx4-library/lpc_chip_11cxx_lib/inc/ssp_11xx.h **** }
 777              		.loc 2 284 0 is_stmt 1
 778 003c C468     		ldr	r4, [r0, #12]	@ D.6818, pSSP_25(D)->SR
 779              	.L99:
 780              	.LVL48:
 781              	.LBE334:
 782              	.LBE345:
 783              	.LBB346:
 784              	.LBB339:
 311:../lpc11cx4-library/lpc_chip_11cxx_lib/inc/ssp_11xx.h **** }
 785              		.loc 2 311 0
 786 003e 8469     		ldr	r4, [r0, #24]	@ D.6818, pSSP_25(D)->RIS
 787              	.LBE339:
 788              	.LBE346:
 276:../lpc11cx4-library/lpc_chip_11cxx_lib/src/ssp_11xx.c **** 			/* write data to buffer */
 277:../lpc11cx4-library/lpc_chip_11cxx_lib/src/ssp_11xx.c **** 			if ((Chip_SSP_GetStatus(pSSP, SSP_STAT_TNF) == SET) && (tx_cnt < buffer_len)) {
 278:../lpc11cx4-library/lpc_chip_11cxx_lib/src/ssp_11xx.c **** 				Chip_SSP_SendFrame(pSSP, *wdata8);
 279:../lpc11cx4-library/lpc_chip_11cxx_lib/src/ssp_11xx.c **** 				wdata8++;
 280:../lpc11cx4-library/lpc_chip_11cxx_lib/src/ssp_11xx.c **** 				tx_cnt++;
 281:../lpc11cx4-library/lpc_chip_11cxx_lib/src/ssp_11xx.c **** 			}
 282:../lpc11cx4-library/lpc_chip_11cxx_lib/src/ssp_11xx.c **** 
 283:../lpc11cx4-library/lpc_chip_11cxx_lib/src/ssp_11xx.c **** 			/* Check overrun error */
 284:../lpc11cx4-library/lpc_chip_11cxx_lib/src/ssp_11xx.c **** 			if (Chip_SSP_GetRawIntStatus(pSSP, SSP_RORRIS) == SET) {
 789              		.loc 1 284 0
 790 0040 2742     		tst	r7, r4	@ tmp185, D.6818
 791 0042 19D1     		bne	.L91	@,
 792              	.L126:
 793              	.LVL49:
 794              	.LBB347:
 795              	.LBB343:
 284:../lpc11cx4-library/lpc_chip_11cxx_lib/inc/ssp_11xx.h **** }
 796              		.loc 2 284 0
 797 0044 C468     		ldr	r4, [r0, #12]	@ D.6818,
 798              	.LBE343:
 799              	.LBE347:
 285:../lpc11cx4-library/lpc_chip_11cxx_lib/src/ssp_11xx.c **** 				return ERROR;
 286:../lpc11cx4-library/lpc_chip_11cxx_lib/src/ssp_11xx.c **** 			}
 287:../lpc11cx4-library/lpc_chip_11cxx_lib/src/ssp_11xx.c **** 
 288:../lpc11cx4-library/lpc_chip_11cxx_lib/src/ssp_11xx.c **** 			/* Check for any data available in RX FIFO */
 289:../lpc11cx4-library/lpc_chip_11cxx_lib/src/ssp_11xx.c **** 			while (Chip_SSP_GetStatus(pSSP, SSP_STAT_RNE) == SET && rx_cnt < buffer_len) {
 800              		.loc 1 289 0
 801 0046 2542     		tst	r5, r4	@ tmp186, D.6818
 802 0048 F4D0     		beq	.L83	@,
 803              	.L121:
 804 004a 9342     		cmp	r3, r2	@ rx_cnt, buffer_len
 805 004c F2D2     		bcs	.L83	@,
 806              	.LVL50:
 807              	.LBB348:
ARM GAS  /tmp/cc7TFFKb.s 			page 28


 808              	.LBB349:
 366:../lpc11cx4-library/lpc_chip_11cxx_lib/inc/ssp_11xx.h **** }
 809              		.loc 2 366 0
 810 004e 8468     		ldr	r4, [r0, #8]	@ D.6818, pSSP_25(D)->DR
 811              	.LBE349:
 812              	.LBE348:
 813              	.LBB350:
 814              	.LBB344:
 284:../lpc11cx4-library/lpc_chip_11cxx_lib/inc/ssp_11xx.h **** }
 815              		.loc 2 284 0
 816 0050 C468     		ldr	r4, [r0, #12]	@ D.6818,
 817              	.LBE344:
 818              	.LBE350:
 290:../lpc11cx4-library/lpc_chip_11cxx_lib/src/ssp_11xx.c **** 				Chip_SSP_ReceiveFrame(pSSP);	/* read dummy data */
 291:../lpc11cx4-library/lpc_chip_11cxx_lib/src/ssp_11xx.c **** 				rx_cnt++;
 819              		.loc 1 291 0
 820 0052 0133     		add	r3, r3, #1	@ rx_cnt,
 821              	.LVL51:
 289:../lpc11cx4-library/lpc_chip_11cxx_lib/src/ssp_11xx.c **** 				Chip_SSP_ReceiveFrame(pSSP);	/* read dummy data */
 822              		.loc 1 289 0
 823 0054 2542     		tst	r5, r4	@ tmp186, D.6818
 824 0056 F8D1     		bne	.L121	@,
 275:../lpc11cx4-library/lpc_chip_11cxx_lib/src/ssp_11xx.c **** 			/* write data to buffer */
 825              		.loc 1 275 0
 826 0058 9642     		cmp	r6, r2	@ tx_cnt, buffer_len
 827 005a EDD2     		bcs	.L125	@,
 828              	.LVL52:
 829              	.L94:
 277:../lpc11cx4-library/lpc_chip_11cxx_lib/src/ssp_11xx.c **** 				Chip_SSP_SendFrame(pSSP, *wdata8);
 830              		.loc 1 277 0
 831 005c 6146     		mov	r1, ip	@ tmp184, tmp184
 832              	.LBB351:
 833              	.LBB335:
 284:../lpc11cx4-library/lpc_chip_11cxx_lib/inc/ssp_11xx.h **** }
 834              		.loc 2 284 0
 835 005e C468     		ldr	r4, [r0, #12]	@ D.6818, pSSP_25(D)->SR
 836              	.LBE335:
 837              	.LBE351:
 277:../lpc11cx4-library/lpc_chip_11cxx_lib/src/ssp_11xx.c **** 				Chip_SSP_SendFrame(pSSP, *wdata8);
 838              		.loc 1 277 0
 839 0060 2142     		tst	r1, r4	@ tmp184, D.6818
 840 0062 ECD0     		beq	.L99	@,
 841              	.LVL53:
 842              	.LBB352:
 843              	.LBB353:
 844              		.loc 2 377 0
 845 0064 4146     		mov	r1, r8	@ buffer, buffer
 846 0066 0C78     		ldrb	r4, [r1]	@ D.6818, *buffer_13
 847              	.LBE353:
 848              	.LBE352:
 279:../lpc11cx4-library/lpc_chip_11cxx_lib/src/ssp_11xx.c **** 				tx_cnt++;
 849              		.loc 1 279 0
 850 0068 0121     		mov	r1, #1	@ tmp193,
 851 006a 8946     		mov	r9, r1	@ tmp193, tmp193
 852              	.LBB355:
 853              	.LBB354:
 854              		.loc 2 377 0
ARM GAS  /tmp/cc7TFFKb.s 			page 29


 855 006c 8460     		str	r4, [r0, #8]	@ D.6818, pSSP_25(D)->DR
 856              	.LVL54:
 857              	.LBE354:
 858              	.LBE355:
 859              	.LBB356:
 860              	.LBB340:
 311:../lpc11cx4-library/lpc_chip_11cxx_lib/inc/ssp_11xx.h **** }
 861              		.loc 2 311 0
 862 006e 8469     		ldr	r4, [r0, #24]	@ D.6818, pSSP_25(D)->RIS
 863              	.LVL55:
 864              	.LBE340:
 865              	.LBE356:
 279:../lpc11cx4-library/lpc_chip_11cxx_lib/src/ssp_11xx.c **** 				tx_cnt++;
 866              		.loc 1 279 0
 867 0070 C844     		add	r8, r8, r9	@ buffer, tmp193
 868              	.LVL56:
 280:../lpc11cx4-library/lpc_chip_11cxx_lib/src/ssp_11xx.c **** 			}
 869              		.loc 1 280 0
 870 0072 0136     		add	r6, r6, #1	@ tx_cnt,
 871              	.LVL57:
 284:../lpc11cx4-library/lpc_chip_11cxx_lib/src/ssp_11xx.c **** 				return ERROR;
 872              		.loc 1 284 0
 873 0074 2742     		tst	r7, r4	@ tmp185, D.6818
 874 0076 E5D0     		beq	.L126	@,
 875              	.LVL58:
 876              	.L91:
 877              	.LBE357:
 878              	.LBB358:
 260:../lpc11cx4-library/lpc_chip_11cxx_lib/src/ssp_11xx.c **** 			}
 879              		.loc 1 260 0
 880 0078 0020     		mov	r0, #0	@ D.6819,
 881              	.LVL59:
 882              	.L119:
 883              	.LBE358:
 292:../lpc11cx4-library/lpc_chip_11cxx_lib/src/ssp_11xx.c **** 			}
 293:../lpc11cx4-library/lpc_chip_11cxx_lib/src/ssp_11xx.c **** 		}
 294:../lpc11cx4-library/lpc_chip_11cxx_lib/src/ssp_11xx.c **** 	}
 295:../lpc11cx4-library/lpc_chip_11cxx_lib/src/ssp_11xx.c **** 
 296:../lpc11cx4-library/lpc_chip_11cxx_lib/src/ssp_11xx.c **** 	return tx_cnt;
 297:../lpc11cx4-library/lpc_chip_11cxx_lib/src/ssp_11xx.c **** 
 298:../lpc11cx4-library/lpc_chip_11cxx_lib/src/ssp_11xx.c **** }
 884              		.loc 1 298 0
 885              		@ sp needed	@
 886              	.LVL60:
 887 007a 0CBC     		pop	{r2, r3}
 888 007c 9046     		mov	r8, r2
 889 007e 9946     		mov	r9, r3
 890 0080 F0BD     		pop	{r4, r5, r6, r7, pc}
 891              	.LVL61:
 892              	.L82:
 893              	.LBB381:
 894              	.LBB359:
 895              	.LBB360:
 284:../lpc11cx4-library/lpc_chip_11cxx_lib/inc/ssp_11xx.h **** }
 896              		.loc 2 284 0
 897 0082 0221     		mov	r1, #2	@ tmp180,
 898              	.LVL62:
ARM GAS  /tmp/cc7TFFKb.s 			page 30


 899              	.LBE360:
 900              	.LBE359:
 901              	.LBE381:
 245:../lpc11cx4-library/lpc_chip_11cxx_lib/src/ssp_11xx.c **** 		uint16_t *wdata16;
 902              		.loc 1 245 0
 903 0084 0023     		mov	r3, #0	@ rx_cnt,
 904 0086 0026     		mov	r6, #0	@ tx_cnt,
 905              	.LBB382:
 906              	.LBB364:
 907              	.LBB361:
 284:../lpc11cx4-library/lpc_chip_11cxx_lib/inc/ssp_11xx.h **** }
 908              		.loc 2 284 0
 909 0088 8C46     		mov	ip, r1	@ tmp180, tmp180
 910              	.LBE361:
 911              	.LBE364:
 912              	.LBB365:
 913              	.LBB366:
 311:../lpc11cx4-library/lpc_chip_11cxx_lib/inc/ssp_11xx.h **** }
 914              		.loc 2 311 0
 915 008a 0127     		mov	r7, #1	@ tmp181,
 916              	.LBE366:
 917              	.LBE365:
 918              	.LBB368:
 919              	.LBB369:
 284:../lpc11cx4-library/lpc_chip_11cxx_lib/inc/ssp_11xx.h **** }
 920              		.loc 2 284 0
 921 008c 0425     		mov	r5, #4	@ tmp182,
 922              	.LVL63:
 923              	.L84:
 924              	.LBE369:
 925              	.LBE368:
 250:../lpc11cx4-library/lpc_chip_11cxx_lib/src/ssp_11xx.c **** 			/* write data to buffer */
 926              		.loc 1 250 0
 927 008e 9642     		cmp	r6, r2	@ tx_cnt, buffer_len
 928 0090 0BD3     		bcc	.L89	@,
 250:../lpc11cx4-library/lpc_chip_11cxx_lib/src/ssp_11xx.c **** 			/* write data to buffer */
 929              		.loc 1 250 0 is_stmt 0 discriminator 1
 930 0092 9342     		cmp	r3, r2	@ rx_cnt, buffer_len
 931 0094 15D2     		bcs	.L122	@,
 932              	.LVL64:
 933              	.LBB371:
 934              	.LBB362:
 284:../lpc11cx4-library/lpc_chip_11cxx_lib/inc/ssp_11xx.h **** }
 935              		.loc 2 284 0 is_stmt 1
 936 0096 C468     		ldr	r4, [r0, #12]	@ D.6818, pSSP_25(D)->SR
 937              	.L97:
 938              	.LVL65:
 939              	.LBE362:
 940              	.LBE371:
 941              	.LBB372:
 942              	.LBB367:
 311:../lpc11cx4-library/lpc_chip_11cxx_lib/inc/ssp_11xx.h **** }
 943              		.loc 2 311 0
 944 0098 8469     		ldr	r4, [r0, #24]	@ D.6818, pSSP_25(D)->RIS
 945              	.LBE367:
 946              	.LBE372:
 259:../lpc11cx4-library/lpc_chip_11cxx_lib/src/ssp_11xx.c **** 				return ERROR;
ARM GAS  /tmp/cc7TFFKb.s 			page 31


 947              		.loc 1 259 0
 948 009a 2742     		tst	r7, r4	@ tmp181, D.6818
 949 009c ECD1     		bne	.L91	@,
 950              	.LVL66:
 951              	.L120:
 952              	.LBB373:
 953              	.LBB370:
 284:../lpc11cx4-library/lpc_chip_11cxx_lib/inc/ssp_11xx.h **** }
 954              		.loc 2 284 0
 955 009e C468     		ldr	r4, [r0, #12]	@ D.6818,
 956              	.LBE370:
 957              	.LBE373:
 264:../lpc11cx4-library/lpc_chip_11cxx_lib/src/ssp_11xx.c **** 				Chip_SSP_ReceiveFrame(pSSP);	/* read dummy data */
 958              		.loc 1 264 0
 959 00a0 2542     		tst	r5, r4	@ tmp182, D.6818
 960 00a2 F4D0     		beq	.L84	@,
 961              	.LVL67:
 962              	.LBB374:
 963              	.LBB375:
 366:../lpc11cx4-library/lpc_chip_11cxx_lib/inc/ssp_11xx.h **** }
 964              		.loc 2 366 0
 965 00a4 8468     		ldr	r4, [r0, #8]	@ D.6818, pSSP_25(D)->DR
 966              	.LBE375:
 967              	.LBE374:
 266:../lpc11cx4-library/lpc_chip_11cxx_lib/src/ssp_11xx.c **** 			}
 968              		.loc 1 266 0
 969 00a6 0233     		add	r3, r3, #2	@ rx_cnt,
 970              	.LVL68:
 971 00a8 F9E7     		b	.L120	@
 972              	.LVL69:
 973              	.L89:
 252:../lpc11cx4-library/lpc_chip_11cxx_lib/src/ssp_11xx.c **** 				Chip_SSP_SendFrame(pSSP, *wdata16);
 974              		.loc 1 252 0
 975 00aa 6146     		mov	r1, ip	@ tmp180, tmp180
 976              	.LBB376:
 977              	.LBB363:
 284:../lpc11cx4-library/lpc_chip_11cxx_lib/inc/ssp_11xx.h **** }
 978              		.loc 2 284 0
 979 00ac C468     		ldr	r4, [r0, #12]	@ D.6818, pSSP_25(D)->SR
 980              	.LBE363:
 981              	.LBE376:
 252:../lpc11cx4-library/lpc_chip_11cxx_lib/src/ssp_11xx.c **** 				Chip_SSP_SendFrame(pSSP, *wdata16);
 982              		.loc 1 252 0
 983 00ae 2142     		tst	r1, r4	@ tmp180, D.6818
 984 00b0 F2D0     		beq	.L97	@,
 985              	.LVL70:
 986              	.LBB377:
 987              	.LBB378:
 988              		.loc 2 377 0
 989 00b2 4146     		mov	r1, r8	@ buffer, buffer
 990 00b4 0C88     		ldrh	r4, [r1]	@ D.6818, MEM[(uint16_t *)buffer_11]
 991              	.LBE378:
 992              	.LBE377:
 254:../lpc11cx4-library/lpc_chip_11cxx_lib/src/ssp_11xx.c **** 				tx_cnt += 2;
 993              		.loc 1 254 0
 994 00b6 0221     		mov	r1, #2	@ tmp196,
 995 00b8 8946     		mov	r9, r1	@ tmp196, tmp196
ARM GAS  /tmp/cc7TFFKb.s 			page 32


 996              	.LBB380:
 997              	.LBB379:
 998              		.loc 2 377 0
 999 00ba 8460     		str	r4, [r0, #8]	@ D.6818, pSSP_25(D)->DR
 1000              	.LVL71:
 1001              	.LBE379:
 1002              	.LBE380:
 254:../lpc11cx4-library/lpc_chip_11cxx_lib/src/ssp_11xx.c **** 				tx_cnt += 2;
 1003              		.loc 1 254 0
 1004 00bc C844     		add	r8, r8, r9	@ buffer, tmp196
 1005              	.LVL72:
 255:../lpc11cx4-library/lpc_chip_11cxx_lib/src/ssp_11xx.c **** 			}
 1006              		.loc 1 255 0
 1007 00be 0236     		add	r6, r6, #2	@ tx_cnt,
 1008              	.LVL73:
 1009 00c0 EAE7     		b	.L97	@
 1010              	.LVL74:
 1011              	.L122:
 1012              	.LBE382:
 1013              	.LBB383:
 1014 00c2 301C     		mov	r0, r6	@ D.6819, tx_cnt
 1015              	.LVL75:
 1016 00c4 D9E7     		b	.L119	@
 1017              	.LBE383:
 1018              		.cfi_endproc
 1019              	.LFE208:
 1020              		.size	Chip_SSP_WriteFrames_Blocking, .-Chip_SSP_WriteFrames_Blocking
 1021 00c6 C046     		.section	.text.Chip_SSP_ReadFrames_Blocking,"ax",%progbits
 1022              		.align	2
 1023              		.global	Chip_SSP_ReadFrames_Blocking
 1024              		.code	16
 1025              		.thumb_func
 1026              		.type	Chip_SSP_ReadFrames_Blocking, %function
 1027              	Chip_SSP_ReadFrames_Blocking:
 1028              	.LFB209:
 299:../lpc11cx4-library/lpc_chip_11cxx_lib/src/ssp_11xx.c **** 
 300:../lpc11cx4-library/lpc_chip_11cxx_lib/src/ssp_11xx.c **** /* SSP Polling Read in blocking mode */
 301:../lpc11cx4-library/lpc_chip_11cxx_lib/src/ssp_11xx.c **** uint32_t Chip_SSP_ReadFrames_Blocking(LPC_SSP_T *pSSP, uint8_t *buffer, uint32_t buffer_len)
 302:../lpc11cx4-library/lpc_chip_11cxx_lib/src/ssp_11xx.c **** {
 1029              		.loc 1 302 0
 1030              		.cfi_startproc
 1031              	.LVL76:
 1032 0000 F0B5     		push	{r4, r5, r6, r7, lr}	@
 1033              		.cfi_def_cfa_offset 20
 1034              		.cfi_offset 4, -20
 1035              		.cfi_offset 5, -16
 1036              		.cfi_offset 6, -12
 1037              		.cfi_offset 7, -8
 1038              		.cfi_offset 14, -4
 1039 0002 4F46     		mov	r7, r9	@,
 1040 0004 4646     		mov	r6, r8	@,
 1041              	.LBB384:
 1042              	.LBB385:
 284:../lpc11cx4-library/lpc_chip_11cxx_lib/inc/ssp_11xx.h **** }
 1043              		.loc 2 284 0
 1044 0006 C368     		ldr	r3, [r0, #12]	@ D.6839, pSSP_25(D)->SR
 1045              	.LBE385:
ARM GAS  /tmp/cc7TFFKb.s 			page 33


 1046              	.LBE384:
 1047              		.loc 1 302 0
 1048 0008 C0B4     		push	{r6, r7}	@
 1049              		.cfi_def_cfa_offset 28
 1050              		.cfi_offset 8, -28
 1051              		.cfi_offset 9, -24
 303:../lpc11cx4-library/lpc_chip_11cxx_lib/src/ssp_11xx.c **** 	uint32_t rx_cnt = 0, tx_cnt = 0;
 304:../lpc11cx4-library/lpc_chip_11cxx_lib/src/ssp_11xx.c **** 
 305:../lpc11cx4-library/lpc_chip_11cxx_lib/src/ssp_11xx.c **** 	/* Clear all remaining frames in RX FIFO */
 306:../lpc11cx4-library/lpc_chip_11cxx_lib/src/ssp_11xx.c **** 	while (Chip_SSP_GetStatus(pSSP, SSP_STAT_RNE)) {
 1052              		.loc 1 306 0
 1053 000a 5B07     		lsl	r3, r3, #29	@ tmp216, D.6839,
 1054 000c 04D5     		bpl	.L128	@,
 1055              	.LBB388:
 1056              	.LBB386:
 284:../lpc11cx4-library/lpc_chip_11cxx_lib/inc/ssp_11xx.h **** }
 1057              		.loc 2 284 0
 1058 000e 0424     		mov	r4, #4	@ tmp215,
 1059              	.L160:
 1060              	.LVL77:
 1061              	.LBE386:
 1062              	.LBE388:
 1063              	.LBB389:
 1064              	.LBB390:
 366:../lpc11cx4-library/lpc_chip_11cxx_lib/inc/ssp_11xx.h **** }
 1065              		.loc 2 366 0
 1066 0010 8368     		ldr	r3, [r0, #8]	@ D.6839, pSSP_25(D)->DR
 1067              	.LBE390:
 1068              	.LBE389:
 1069              	.LBB391:
 1070              	.LBB387:
 284:../lpc11cx4-library/lpc_chip_11cxx_lib/inc/ssp_11xx.h **** }
 1071              		.loc 2 284 0
 1072 0012 C368     		ldr	r3, [r0, #12]	@ D.6839, pSSP_25(D)->SR
 1073              	.LBE387:
 1074              	.LBE391:
 1075              		.loc 1 306 0
 1076 0014 1C42     		tst	r4, r3	@ tmp215, D.6839
 1077 0016 FBD1     		bne	.L160	@,
 1078              	.LVL78:
 1079              	.L128:
 1080              	.LBB392:
 1081              	.LBB393:
 336:../lpc11cx4-library/lpc_chip_11cxx_lib/inc/ssp_11xx.h **** }
 1082              		.loc 2 336 0
 1083 0018 0323     		mov	r3, #3	@ tmp177,
 1084              	.LBE393:
 1085              	.LBE392:
 307:../lpc11cx4-library/lpc_chip_11cxx_lib/src/ssp_11xx.c **** 		Chip_SSP_ReceiveFrame(pSSP);
 308:../lpc11cx4-library/lpc_chip_11cxx_lib/src/ssp_11xx.c **** 	}
 309:../lpc11cx4-library/lpc_chip_11cxx_lib/src/ssp_11xx.c **** 
 310:../lpc11cx4-library/lpc_chip_11cxx_lib/src/ssp_11xx.c **** 	/* Clear status */
 311:../lpc11cx4-library/lpc_chip_11cxx_lib/src/ssp_11xx.c **** 	Chip_SSP_ClearIntPending(pSSP, SSP_INT_CLEAR_BITMASK);
 312:../lpc11cx4-library/lpc_chip_11cxx_lib/src/ssp_11xx.c **** 
 313:../lpc11cx4-library/lpc_chip_11cxx_lib/src/ssp_11xx.c **** 	if (Chip_SSP_GetDataSize(pSSP) > SSP_BITS_8) {
 1086              		.loc 1 313 0
 1087 001a 0F24     		mov	r4, #15	@ tmp182,
ARM GAS  /tmp/cc7TFFKb.s 			page 34


 1088              	.LBB395:
 1089              	.LBB394:
 336:../lpc11cx4-library/lpc_chip_11cxx_lib/inc/ssp_11xx.h **** }
 1090              		.loc 2 336 0
 1091 001c 0362     		str	r3, [r0, #32]	@ tmp177, pSSP_25(D)->ICR
 1092              	.LVL79:
 1093              	.LBE394:
 1094              	.LBE395:
 1095              	.LBB396:
 1096              	.LBB397:
 322:../lpc11cx4-library/lpc_chip_11cxx_lib/inc/ssp_11xx.h **** }
 1097              		.loc 2 322 0
 1098 001e 0368     		ldr	r3, [r0]	@ D.6839, pSSP_25(D)->CR0
 1099              	.LBE397:
 1100              	.LBE396:
 1101              		.loc 1 313 0
 1102 0020 0026     		mov	r6, #0	@ tx_cnt,
 1103 0022 2340     		and	r3, r4	@ tmp183, tmp182
 1104 0024 072B     		cmp	r3, #7	@ tmp183,
 1105 0026 2ED8     		bhi	.L130	@,
 1106              	.LBB398:
 1107              	.LBB399:
 1108              	.LBB400:
 284:../lpc11cx4-library/lpc_chip_11cxx_lib/inc/ssp_11xx.h **** }
 1109              		.loc 2 284 0
 1110 0028 0D3C     		sub	r4, r4, #13	@ tmp211,
 1111 002a A446     		mov	ip, r4	@ tmp211, tmp211
 1112              	.LBE400:
 1113              	.LBE399:
 1114              	.LBB403:
 1115              	.LBB404:
 1116              		.loc 2 377 0
 1117 002c FD34     		add	r4, r4, #253	@ tmp212,
 1118 002e A046     		mov	r8, r4	@ tmp212, tmp212
 1119              	.LBE404:
 1120              	.LBE403:
 1121              	.LBB407:
 1122              	.LBB408:
 311:../lpc11cx4-library/lpc_chip_11cxx_lib/inc/ssp_11xx.h **** }
 1123              		.loc 2 311 0
 1124 0030 FE3C     		sub	r4, r4, #254	@ tmp213,
 1125              	.LBE408:
 1126              	.LBE407:
 1127              	.LBE398:
 1128              		.loc 1 313 0
 1129 0032 0023     		mov	r3, #0	@ rx_cnt,
 1130              	.LBB427:
 1131              	.LBB412:
 1132              	.LBB409:
 311:../lpc11cx4-library/lpc_chip_11cxx_lib/inc/ssp_11xx.h **** }
 1133              		.loc 2 311 0
 1134 0034 A146     		mov	r9, r4	@ tmp213, tmp213
 1135              	.LBE409:
 1136              	.LBE412:
 1137              	.LBB413:
 1138              	.LBB414:
 284:../lpc11cx4-library/lpc_chip_11cxx_lib/inc/ssp_11xx.h **** }
ARM GAS  /tmp/cc7TFFKb.s 			page 35


 1139              		.loc 2 284 0
 1140 0036 0425     		mov	r5, #4	@ tmp214,
 1141              	.LVL80:
 1142              	.L131:
 1143              	.LBE414:
 1144              	.LBE413:
 314:../lpc11cx4-library/lpc_chip_11cxx_lib/src/ssp_11xx.c **** 		uint16_t *rdata16;
 315:../lpc11cx4-library/lpc_chip_11cxx_lib/src/ssp_11xx.c **** 
 316:../lpc11cx4-library/lpc_chip_11cxx_lib/src/ssp_11xx.c **** 		rdata16 = (uint16_t *) buffer;
 317:../lpc11cx4-library/lpc_chip_11cxx_lib/src/ssp_11xx.c **** 
 318:../lpc11cx4-library/lpc_chip_11cxx_lib/src/ssp_11xx.c **** 		while (tx_cnt < buffer_len || rx_cnt < buffer_len) {
 319:../lpc11cx4-library/lpc_chip_11cxx_lib/src/ssp_11xx.c **** 			/* write data to buffer */
 320:../lpc11cx4-library/lpc_chip_11cxx_lib/src/ssp_11xx.c **** 			if ((Chip_SSP_GetStatus(pSSP, SSP_STAT_TNF) == SET) && (tx_cnt < buffer_len)) {
 321:../lpc11cx4-library/lpc_chip_11cxx_lib/src/ssp_11xx.c **** 				Chip_SSP_SendFrame(pSSP, 0xFFFF);	/* just send dummy data */
 322:../lpc11cx4-library/lpc_chip_11cxx_lib/src/ssp_11xx.c **** 				tx_cnt += 2;
 323:../lpc11cx4-library/lpc_chip_11cxx_lib/src/ssp_11xx.c **** 			}
 324:../lpc11cx4-library/lpc_chip_11cxx_lib/src/ssp_11xx.c **** 
 325:../lpc11cx4-library/lpc_chip_11cxx_lib/src/ssp_11xx.c **** 			/* Check overrun error */
 326:../lpc11cx4-library/lpc_chip_11cxx_lib/src/ssp_11xx.c **** 			if (Chip_SSP_GetRawIntStatus(pSSP, SSP_RORRIS) == SET) {
 327:../lpc11cx4-library/lpc_chip_11cxx_lib/src/ssp_11xx.c **** 				return ERROR;
 328:../lpc11cx4-library/lpc_chip_11cxx_lib/src/ssp_11xx.c **** 			}
 329:../lpc11cx4-library/lpc_chip_11cxx_lib/src/ssp_11xx.c **** 
 330:../lpc11cx4-library/lpc_chip_11cxx_lib/src/ssp_11xx.c **** 			/* Check for any data available in RX FIFO */
 331:../lpc11cx4-library/lpc_chip_11cxx_lib/src/ssp_11xx.c **** 			while (Chip_SSP_GetStatus(pSSP, SSP_STAT_RNE) == SET && rx_cnt < buffer_len) {
 332:../lpc11cx4-library/lpc_chip_11cxx_lib/src/ssp_11xx.c **** 				*rdata16 = Chip_SSP_ReceiveFrame(pSSP);
 333:../lpc11cx4-library/lpc_chip_11cxx_lib/src/ssp_11xx.c **** 				rdata16++;
 334:../lpc11cx4-library/lpc_chip_11cxx_lib/src/ssp_11xx.c **** 				rx_cnt += 2;
 335:../lpc11cx4-library/lpc_chip_11cxx_lib/src/ssp_11xx.c **** 			}
 336:../lpc11cx4-library/lpc_chip_11cxx_lib/src/ssp_11xx.c **** 		}
 337:../lpc11cx4-library/lpc_chip_11cxx_lib/src/ssp_11xx.c **** 	}
 338:../lpc11cx4-library/lpc_chip_11cxx_lib/src/ssp_11xx.c **** 	else {
 339:../lpc11cx4-library/lpc_chip_11cxx_lib/src/ssp_11xx.c **** 		uint8_t *rdata8;
 340:../lpc11cx4-library/lpc_chip_11cxx_lib/src/ssp_11xx.c **** 
 341:../lpc11cx4-library/lpc_chip_11cxx_lib/src/ssp_11xx.c **** 		rdata8 = buffer;
 342:../lpc11cx4-library/lpc_chip_11cxx_lib/src/ssp_11xx.c **** 
 343:../lpc11cx4-library/lpc_chip_11cxx_lib/src/ssp_11xx.c **** 		while (tx_cnt < buffer_len || rx_cnt < buffer_len) {
 1145              		.loc 1 343 0
 1146 0038 9642     		cmp	r6, r2	@ tx_cnt, buffer_len
 1147 003a 14D3     		bcc	.L142	@,
 1148              	.L176:
 1149              		.loc 1 343 0 is_stmt 0 discriminator 1
 1150 003c 9342     		cmp	r3, r2	@ rx_cnt, buffer_len
 1151 003e 49D2     		bcs	.L173	@,
 1152              	.LVL81:
 1153              	.LBB417:
 1154              	.LBB401:
 284:../lpc11cx4-library/lpc_chip_11cxx_lib/inc/ssp_11xx.h **** }
 1155              		.loc 2 284 0 is_stmt 1
 1156 0040 C468     		ldr	r4, [r0, #12]	@ D.6839, pSSP_25(D)->SR
 1157              	.L146:
 1158              	.LVL82:
 1159              	.LBE401:
 1160              	.LBE417:
 344:../lpc11cx4-library/lpc_chip_11cxx_lib/src/ssp_11xx.c **** 			/* write data to buffer */
 345:../lpc11cx4-library/lpc_chip_11cxx_lib/src/ssp_11xx.c **** 			if ((Chip_SSP_GetStatus(pSSP, SSP_STAT_TNF) == SET) && (tx_cnt < buffer_len)) {
 346:../lpc11cx4-library/lpc_chip_11cxx_lib/src/ssp_11xx.c **** 				Chip_SSP_SendFrame(pSSP, 0xFF);	/* just send dummy data		 */
 347:../lpc11cx4-library/lpc_chip_11cxx_lib/src/ssp_11xx.c **** 				tx_cnt++;
ARM GAS  /tmp/cc7TFFKb.s 			page 36


 348:../lpc11cx4-library/lpc_chip_11cxx_lib/src/ssp_11xx.c **** 			}
 349:../lpc11cx4-library/lpc_chip_11cxx_lib/src/ssp_11xx.c **** 
 350:../lpc11cx4-library/lpc_chip_11cxx_lib/src/ssp_11xx.c **** 			/* Check overrun error */
 351:../lpc11cx4-library/lpc_chip_11cxx_lib/src/ssp_11xx.c **** 			if (Chip_SSP_GetRawIntStatus(pSSP, SSP_RORRIS) == SET) {
 1161              		.loc 1 351 0
 1162 0042 4F46     		mov	r7, r9	@ tmp213, tmp213
 1163              	.LBB418:
 1164              	.LBB410:
 311:../lpc11cx4-library/lpc_chip_11cxx_lib/inc/ssp_11xx.h **** }
 1165              		.loc 2 311 0
 1166 0044 8469     		ldr	r4, [r0, #24]	@ D.6839, pSSP_25(D)->RIS
 1167              	.LBE410:
 1168              	.LBE418:
 1169              		.loc 1 351 0
 1170 0046 2742     		tst	r7, r4	@ tmp213, D.6839
 1171 0048 18D1     		bne	.L139	@,
 1172              	.L177:
 1173              	.LVL83:
 1174              	.LBB419:
 1175              	.LBB415:
 284:../lpc11cx4-library/lpc_chip_11cxx_lib/inc/ssp_11xx.h **** }
 1176              		.loc 2 284 0
 1177 004a C468     		ldr	r4, [r0, #12]	@ D.6839,
 1178              	.LBE415:
 1179              	.LBE419:
 352:../lpc11cx4-library/lpc_chip_11cxx_lib/src/ssp_11xx.c **** 				return ERROR;
 353:../lpc11cx4-library/lpc_chip_11cxx_lib/src/ssp_11xx.c **** 			}
 354:../lpc11cx4-library/lpc_chip_11cxx_lib/src/ssp_11xx.c **** 
 355:../lpc11cx4-library/lpc_chip_11cxx_lib/src/ssp_11xx.c **** 			/* Check for any data available in RX FIFO */
 356:../lpc11cx4-library/lpc_chip_11cxx_lib/src/ssp_11xx.c **** 			while (Chip_SSP_GetStatus(pSSP, SSP_STAT_RNE) == SET && rx_cnt < buffer_len) {
 1180              		.loc 1 356 0
 1181 004c 2542     		tst	r5, r4	@ tmp214, D.6839
 1182 004e F3D0     		beq	.L131	@,
 1183              	.L172:
 1184 0050 9342     		cmp	r3, r2	@ rx_cnt, buffer_len
 1185 0052 F1D2     		bcs	.L131	@,
 1186              	.LVL84:
 1187              	.LBB420:
 1188              	.LBB421:
 366:../lpc11cx4-library/lpc_chip_11cxx_lib/inc/ssp_11xx.h **** }
 1189              		.loc 2 366 0
 1190 0054 8468     		ldr	r4, [r0, #8]	@ D.6839, pSSP_25(D)->DR
 1191              	.LBE421:
 1192              	.LBE420:
 357:../lpc11cx4-library/lpc_chip_11cxx_lib/src/ssp_11xx.c **** 				*rdata8 = Chip_SSP_ReceiveFrame(pSSP);
 358:../lpc11cx4-library/lpc_chip_11cxx_lib/src/ssp_11xx.c **** 				rdata8++;
 359:../lpc11cx4-library/lpc_chip_11cxx_lib/src/ssp_11xx.c **** 				rx_cnt++;
 1193              		.loc 1 359 0
 1194 0056 0133     		add	r3, r3, #1	@ rx_cnt,
 1195              	.LVL85:
 357:../lpc11cx4-library/lpc_chip_11cxx_lib/src/ssp_11xx.c **** 				*rdata8 = Chip_SSP_ReceiveFrame(pSSP);
 1196              		.loc 1 357 0
 1197 0058 0C70     		strb	r4, [r1]	@ D.6839, MEM[base: buffer_102, offset: 0B]
 1198              	.LBB422:
 1199              	.LBB416:
 284:../lpc11cx4-library/lpc_chip_11cxx_lib/inc/ssp_11xx.h **** }
 1200              		.loc 2 284 0
ARM GAS  /tmp/cc7TFFKb.s 			page 37


 1201 005a C468     		ldr	r4, [r0, #12]	@ D.6839,
 1202              	.LBE416:
 1203              	.LBE422:
 358:../lpc11cx4-library/lpc_chip_11cxx_lib/src/ssp_11xx.c **** 				rx_cnt++;
 1204              		.loc 1 358 0
 1205 005c 0131     		add	r1, r1, #1	@ buffer,
 1206              	.LVL86:
 356:../lpc11cx4-library/lpc_chip_11cxx_lib/src/ssp_11xx.c **** 				*rdata8 = Chip_SSP_ReceiveFrame(pSSP);
 1207              		.loc 1 356 0
 1208 005e 2542     		tst	r5, r4	@ tmp214, D.6839
 1209 0060 F6D1     		bne	.L172	@,
 343:../lpc11cx4-library/lpc_chip_11cxx_lib/src/ssp_11xx.c **** 			/* write data to buffer */
 1210              		.loc 1 343 0
 1211 0062 9642     		cmp	r6, r2	@ tx_cnt, buffer_len
 1212 0064 EAD2     		bcs	.L176	@,
 1213              	.LVL87:
 1214              	.L142:
 345:../lpc11cx4-library/lpc_chip_11cxx_lib/src/ssp_11xx.c **** 				Chip_SSP_SendFrame(pSSP, 0xFF);	/* just send dummy data		 */
 1215              		.loc 1 345 0
 1216 0066 6746     		mov	r7, ip	@ tmp211, tmp211
 1217              	.LBB423:
 1218              	.LBB402:
 284:../lpc11cx4-library/lpc_chip_11cxx_lib/inc/ssp_11xx.h **** }
 1219              		.loc 2 284 0
 1220 0068 C468     		ldr	r4, [r0, #12]	@ D.6839, pSSP_25(D)->SR
 1221              	.LBE402:
 1222              	.LBE423:
 345:../lpc11cx4-library/lpc_chip_11cxx_lib/src/ssp_11xx.c **** 				Chip_SSP_SendFrame(pSSP, 0xFF);	/* just send dummy data		 */
 1223              		.loc 1 345 0
 1224 006a 2742     		tst	r7, r4	@ tmp211, D.6839
 1225 006c E9D0     		beq	.L146	@,
 1226              	.LVL88:
 1227              	.LBB424:
 1228              	.LBB405:
 1229              		.loc 2 377 0
 1230 006e 4446     		mov	r4, r8	@ tmp212, tmp212
 1231              	.LBE405:
 1232              	.LBE424:
 351:../lpc11cx4-library/lpc_chip_11cxx_lib/src/ssp_11xx.c **** 				return ERROR;
 1233              		.loc 1 351 0
 1234 0070 4F46     		mov	r7, r9	@ tmp213, tmp213
 1235              	.LBB425:
 1236              	.LBB406:
 1237              		.loc 2 377 0
 1238 0072 8460     		str	r4, [r0, #8]	@ tmp212, pSSP_25(D)->DR
 1239              	.LBE406:
 1240              	.LBE425:
 1241              	.LBB426:
 1242              	.LBB411:
 311:../lpc11cx4-library/lpc_chip_11cxx_lib/inc/ssp_11xx.h **** }
 1243              		.loc 2 311 0
 1244 0074 8469     		ldr	r4, [r0, #24]	@ D.6839, pSSP_25(D)->RIS
 1245              	.LBE411:
 1246              	.LBE426:
 347:../lpc11cx4-library/lpc_chip_11cxx_lib/src/ssp_11xx.c **** 			}
 1247              		.loc 1 347 0
 1248 0076 0136     		add	r6, r6, #1	@ tx_cnt,
ARM GAS  /tmp/cc7TFFKb.s 			page 38


 1249              	.LVL89:
 351:../lpc11cx4-library/lpc_chip_11cxx_lib/src/ssp_11xx.c **** 				return ERROR;
 1250              		.loc 1 351 0
 1251 0078 2742     		tst	r7, r4	@ tmp213, D.6839
 1252 007a E6D0     		beq	.L177	@,
 1253              	.LVL90:
 1254              	.L139:
 1255              	.LBE427:
 1256              	.LBB428:
 327:../lpc11cx4-library/lpc_chip_11cxx_lib/src/ssp_11xx.c **** 			}
 1257              		.loc 1 327 0
 1258 007c 0020     		mov	r0, #0	@ D.6838,
 1259              	.LVL91:
 1260              	.L170:
 1261              	.LBE428:
 360:../lpc11cx4-library/lpc_chip_11cxx_lib/src/ssp_11xx.c **** 			}
 361:../lpc11cx4-library/lpc_chip_11cxx_lib/src/ssp_11xx.c **** 		}
 362:../lpc11cx4-library/lpc_chip_11cxx_lib/src/ssp_11xx.c **** 	}
 363:../lpc11cx4-library/lpc_chip_11cxx_lib/src/ssp_11xx.c **** 
 364:../lpc11cx4-library/lpc_chip_11cxx_lib/src/ssp_11xx.c **** 	return rx_cnt;
 365:../lpc11cx4-library/lpc_chip_11cxx_lib/src/ssp_11xx.c **** 
 366:../lpc11cx4-library/lpc_chip_11cxx_lib/src/ssp_11xx.c **** }
 1262              		.loc 1 366 0
 1263              		@ sp needed	@
 1264              	.LVL92:
 1265 007e 0CBC     		pop	{r2, r3}
 1266 0080 9046     		mov	r8, r2
 1267 0082 9946     		mov	r9, r3
 1268 0084 F0BD     		pop	{r4, r5, r6, r7, pc}
 1269              	.LVL93:
 1270              	.L130:
 1271              	.LBB459:
 1272              	.LBB429:
 1273              	.LBB430:
 284:../lpc11cx4-library/lpc_chip_11cxx_lib/inc/ssp_11xx.h **** }
 1274              		.loc 2 284 0
 1275 0086 0224     		mov	r4, #2	@ tmp206,
 1276 0088 A446     		mov	ip, r4	@ tmp206, tmp206
 1277              	.LBE430:
 1278              	.LBE429:
 1279              	.LBB433:
 1280              	.LBB434:
 1281              		.loc 2 377 0
 1282 008a 134C     		ldr	r4, .L179	@ tmp207,
 1283              	.LBE434:
 1284              	.LBE433:
 1285              	.LBE459:
 313:../lpc11cx4-library/lpc_chip_11cxx_lib/src/ssp_11xx.c **** 		uint16_t *rdata16;
 1286              		.loc 1 313 0
 1287 008c 0023     		mov	r3, #0	@ rx_cnt,
 1288              	.LBB460:
 1289              	.LBB438:
 1290              	.LBB435:
 1291              		.loc 2 377 0
 1292 008e A046     		mov	r8, r4	@ tmp207, tmp207
 1293              	.LBE435:
 1294              	.LBE438:
ARM GAS  /tmp/cc7TFFKb.s 			page 39


 1295              	.LBB439:
 1296              	.LBB440:
 311:../lpc11cx4-library/lpc_chip_11cxx_lib/inc/ssp_11xx.h **** }
 1297              		.loc 2 311 0
 1298 0090 0124     		mov	r4, #1	@ tmp208,
 1299              	.LBE440:
 1300              	.LBE439:
 1301              	.LBB443:
 1302              	.LBB444:
 284:../lpc11cx4-library/lpc_chip_11cxx_lib/inc/ssp_11xx.h **** }
 1303              		.loc 2 284 0
 1304 0092 0425     		mov	r5, #4	@ tmp209,
 1305              	.LBE444:
 1306              	.LBE443:
 1307              	.LBB447:
 1308              	.LBB441:
 311:../lpc11cx4-library/lpc_chip_11cxx_lib/inc/ssp_11xx.h **** }
 1309              		.loc 2 311 0
 1310 0094 A146     		mov	r9, r4	@ tmp208, tmp208
 1311              	.LVL94:
 1312              	.L132:
 1313              	.LBE441:
 1314              	.LBE447:
 318:../lpc11cx4-library/lpc_chip_11cxx_lib/src/ssp_11xx.c **** 			/* write data to buffer */
 1315              		.loc 1 318 0
 1316 0096 9642     		cmp	r6, r2	@ tx_cnt, buffer_len
 1317 0098 14D3     		bcc	.L137	@,
 1318              	.L178:
 318:../lpc11cx4-library/lpc_chip_11cxx_lib/src/ssp_11xx.c **** 			/* write data to buffer */
 1319              		.loc 1 318 0 is_stmt 0 discriminator 1
 1320 009a 9342     		cmp	r3, r2	@ rx_cnt, buffer_len
 1321 009c 1AD2     		bcs	.L173	@,
 1322              	.LVL95:
 1323              	.LBB448:
 1324              	.LBB431:
 284:../lpc11cx4-library/lpc_chip_11cxx_lib/inc/ssp_11xx.h **** }
 1325              		.loc 2 284 0 is_stmt 1
 1326 009e C468     		ldr	r4, [r0, #12]	@ D.6839, pSSP_25(D)->SR
 1327              	.L145:
 1328              	.LVL96:
 1329              	.LBE431:
 1330              	.LBE448:
 326:../lpc11cx4-library/lpc_chip_11cxx_lib/src/ssp_11xx.c **** 				return ERROR;
 1331              		.loc 1 326 0
 1332 00a0 4F46     		mov	r7, r9	@ tmp208, tmp208
 1333              	.LBB449:
 1334              	.LBB442:
 311:../lpc11cx4-library/lpc_chip_11cxx_lib/inc/ssp_11xx.h **** }
 1335              		.loc 2 311 0
 1336 00a2 8469     		ldr	r4, [r0, #24]	@ D.6839, pSSP_25(D)->RIS
 1337              	.LBE442:
 1338              	.LBE449:
 326:../lpc11cx4-library/lpc_chip_11cxx_lib/src/ssp_11xx.c **** 				return ERROR;
 1339              		.loc 1 326 0
 1340 00a4 2742     		tst	r7, r4	@ tmp208, D.6839
 1341 00a6 E9D1     		bne	.L139	@,
 1342              	.LVL97:
ARM GAS  /tmp/cc7TFFKb.s 			page 40


 1343              	.LBB450:
 1344              	.LBB445:
 284:../lpc11cx4-library/lpc_chip_11cxx_lib/inc/ssp_11xx.h **** }
 1345              		.loc 2 284 0
 1346 00a8 C468     		ldr	r4, [r0, #12]	@ D.6839,
 1347              	.LBE445:
 1348              	.LBE450:
 331:../lpc11cx4-library/lpc_chip_11cxx_lib/src/ssp_11xx.c **** 				*rdata16 = Chip_SSP_ReceiveFrame(pSSP);
 1349              		.loc 1 331 0
 1350 00aa 2542     		tst	r5, r4	@ tmp209, D.6839
 1351 00ac F3D0     		beq	.L132	@,
 1352              	.L171:
 1353 00ae 9342     		cmp	r3, r2	@ rx_cnt, buffer_len
 1354 00b0 F1D2     		bcs	.L132	@,
 1355              	.LVL98:
 1356              	.LBB451:
 1357              	.LBB452:
 366:../lpc11cx4-library/lpc_chip_11cxx_lib/inc/ssp_11xx.h **** }
 1358              		.loc 2 366 0
 1359 00b2 8468     		ldr	r4, [r0, #8]	@ D.6839, pSSP_25(D)->DR
 1360              	.LBE452:
 1361              	.LBE451:
 334:../lpc11cx4-library/lpc_chip_11cxx_lib/src/ssp_11xx.c **** 			}
 1362              		.loc 1 334 0
 1363 00b4 0233     		add	r3, r3, #2	@ rx_cnt,
 1364              	.LVL99:
 1365              	.LBB454:
 1366              	.LBB453:
 366:../lpc11cx4-library/lpc_chip_11cxx_lib/inc/ssp_11xx.h **** }
 1367              		.loc 2 366 0
 1368 00b6 0C80     		strh	r4, [r1]	@ D.6839, MEM[base: buffer_73, offset: 0B]
 1369              	.LBE453:
 1370              	.LBE454:
 1371              	.LBB455:
 1372              	.LBB446:
 284:../lpc11cx4-library/lpc_chip_11cxx_lib/inc/ssp_11xx.h **** }
 1373              		.loc 2 284 0
 1374 00b8 C468     		ldr	r4, [r0, #12]	@ D.6839,
 1375              	.LBE446:
 1376              	.LBE455:
 333:../lpc11cx4-library/lpc_chip_11cxx_lib/src/ssp_11xx.c **** 				rx_cnt += 2;
 1377              		.loc 1 333 0
 1378 00ba 0231     		add	r1, r1, #2	@ buffer,
 1379              	.LVL100:
 331:../lpc11cx4-library/lpc_chip_11cxx_lib/src/ssp_11xx.c **** 				*rdata16 = Chip_SSP_ReceiveFrame(pSSP);
 1380              		.loc 1 331 0
 1381 00bc 2542     		tst	r5, r4	@ tmp209, D.6839
 1382 00be F6D1     		bne	.L171	@,
 318:../lpc11cx4-library/lpc_chip_11cxx_lib/src/ssp_11xx.c **** 			/* write data to buffer */
 1383              		.loc 1 318 0
 1384 00c0 9642     		cmp	r6, r2	@ tx_cnt, buffer_len
 1385 00c2 EAD2     		bcs	.L178	@,
 1386              	.LVL101:
 1387              	.L137:
 320:../lpc11cx4-library/lpc_chip_11cxx_lib/src/ssp_11xx.c **** 				Chip_SSP_SendFrame(pSSP, 0xFFFF);	/* just send dummy data */
 1388              		.loc 1 320 0
 1389 00c4 6746     		mov	r7, ip	@ tmp206, tmp206
ARM GAS  /tmp/cc7TFFKb.s 			page 41


 1390              	.LBB456:
 1391              	.LBB432:
 284:../lpc11cx4-library/lpc_chip_11cxx_lib/inc/ssp_11xx.h **** }
 1392              		.loc 2 284 0
 1393 00c6 C468     		ldr	r4, [r0, #12]	@ D.6839, pSSP_25(D)->SR
 1394              	.LBE432:
 1395              	.LBE456:
 320:../lpc11cx4-library/lpc_chip_11cxx_lib/src/ssp_11xx.c **** 				Chip_SSP_SendFrame(pSSP, 0xFFFF);	/* just send dummy data */
 1396              		.loc 1 320 0
 1397 00c8 2742     		tst	r7, r4	@ tmp206, D.6839
 1398 00ca E9D0     		beq	.L145	@,
 1399              	.LVL102:
 1400              	.LBB457:
 1401              	.LBB436:
 1402              		.loc 2 377 0
 1403 00cc 4446     		mov	r4, r8	@ tmp207, tmp207
 1404              	.LBE436:
 1405              	.LBE457:
 322:../lpc11cx4-library/lpc_chip_11cxx_lib/src/ssp_11xx.c **** 			}
 1406              		.loc 1 322 0
 1407 00ce 0236     		add	r6, r6, #2	@ tx_cnt,
 1408              	.LVL103:
 1409              	.LBB458:
 1410              	.LBB437:
 1411              		.loc 2 377 0
 1412 00d0 8460     		str	r4, [r0, #8]	@ tmp207, pSSP_25(D)->DR
 1413 00d2 E5E7     		b	.L145	@
 1414              	.LVL104:
 1415              	.L173:
 1416              	.LBE437:
 1417              	.LBE458:
 1418              	.LBE460:
 1419              	.LBB461:
 1420 00d4 181C     		mov	r0, r3	@ D.6838, rx_cnt
 1421              	.LVL105:
 1422 00d6 D2E7     		b	.L170	@
 1423              	.L180:
 1424              		.align	2
 1425              	.L179:
 1426 00d8 FFFF0000 		.word	65535
 1427              	.LBE461:
 1428              		.cfi_endproc
 1429              	.LFE209:
 1430              		.size	Chip_SSP_ReadFrames_Blocking, .-Chip_SSP_ReadFrames_Blocking
 1431              		.section	.text.Chip_SSP_Int_FlushData,"ax",%progbits
 1432              		.align	2
 1433              		.global	Chip_SSP_Int_FlushData
 1434              		.code	16
 1435              		.thumb_func
 1436              		.type	Chip_SSP_Int_FlushData, %function
 1437              	Chip_SSP_Int_FlushData:
 1438              	.LFB210:
 367:../lpc11cx4-library/lpc_chip_11cxx_lib/src/ssp_11xx.c **** 
 368:../lpc11cx4-library/lpc_chip_11cxx_lib/src/ssp_11xx.c **** /* Clean all data in RX FIFO of SSP */
 369:../lpc11cx4-library/lpc_chip_11cxx_lib/src/ssp_11xx.c **** void Chip_SSP_Int_FlushData(LPC_SSP_T *pSSP)
 370:../lpc11cx4-library/lpc_chip_11cxx_lib/src/ssp_11xx.c **** {
 1439              		.loc 1 370 0
ARM GAS  /tmp/cc7TFFKb.s 			page 42


 1440              		.cfi_startproc
 1441              	.LVL106:
 1442              	.LBB462:
 1443              	.LBB463:
 284:../lpc11cx4-library/lpc_chip_11cxx_lib/inc/ssp_11xx.h **** }
 1444              		.loc 2 284 0
 1445 0000 C368     		ldr	r3, [r0, #12]	@ D.6845, pSSP_4(D)->SR
 1446              	.LBE463:
 1447              	.LBE462:
 371:../lpc11cx4-library/lpc_chip_11cxx_lib/src/ssp_11xx.c **** 	if (Chip_SSP_GetStatus(pSSP, SSP_STAT_BSY)) {
 1448              		.loc 1 371 0
 1449 0002 DB06     		lsl	r3, r3, #27	@ tmp131, D.6845,
 1450 0004 03D5     		bpl	.L185	@,
 1451              	.LBB464:
 1452              	.LBB465:
 284:../lpc11cx4-library/lpc_chip_11cxx_lib/inc/ssp_11xx.h **** }
 1453              		.loc 2 284 0 discriminator 1
 1454 0006 1022     		mov	r2, #16	@ tmp130,
 1455              	.L187:
 1456              	.LVL107:
 1457 0008 C368     		ldr	r3, [r0, #12]	@ D.6845, pSSP_4(D)->SR
 1458              	.LBE465:
 1459              	.LBE464:
 372:../lpc11cx4-library/lpc_chip_11cxx_lib/src/ssp_11xx.c **** 		while (Chip_SSP_GetStatus(pSSP, SSP_STAT_BSY)) {}
 1460              		.loc 1 372 0 discriminator 1
 1461 000a 1A42     		tst	r2, r3	@ tmp130, D.6845
 1462 000c FCD1     		bne	.L187	@,
 1463              	.LVL108:
 1464              	.L185:
 1465              	.LBB466:
 1466              	.LBB467:
 284:../lpc11cx4-library/lpc_chip_11cxx_lib/inc/ssp_11xx.h **** }
 1467              		.loc 2 284 0
 1468 000e C368     		ldr	r3, [r0, #12]	@ D.6845, pSSP_4(D)->SR
 1469 0010 0422     		mov	r2, #4	@ tmp129,
 1470              	.LBE467:
 1471              	.LBE466:
 373:../lpc11cx4-library/lpc_chip_11cxx_lib/src/ssp_11xx.c **** 	}
 374:../lpc11cx4-library/lpc_chip_11cxx_lib/src/ssp_11xx.c **** 
 375:../lpc11cx4-library/lpc_chip_11cxx_lib/src/ssp_11xx.c **** 	/* Clear all remaining frames in RX FIFO */
 376:../lpc11cx4-library/lpc_chip_11cxx_lib/src/ssp_11xx.c **** 	while (Chip_SSP_GetStatus(pSSP, SSP_STAT_RNE)) {
 1472              		.loc 1 376 0
 1473 0012 5B07     		lsl	r3, r3, #29	@ tmp132, D.6845,
 1474 0014 03D5     		bpl	.L184	@,
 1475              	.L186:
 1476              	.LVL109:
 1477              	.LBB469:
 1478              	.LBB470:
 366:../lpc11cx4-library/lpc_chip_11cxx_lib/inc/ssp_11xx.h **** }
 1479              		.loc 2 366 0
 1480 0016 8368     		ldr	r3, [r0, #8]	@ D.6845, pSSP_4(D)->DR
 1481              	.LBE470:
 1482              	.LBE469:
 1483              	.LBB471:
 1484              	.LBB468:
 284:../lpc11cx4-library/lpc_chip_11cxx_lib/inc/ssp_11xx.h **** }
 1485              		.loc 2 284 0
ARM GAS  /tmp/cc7TFFKb.s 			page 43


 1486 0018 C368     		ldr	r3, [r0, #12]	@ D.6845, pSSP_4(D)->SR
 1487              	.LBE468:
 1488              	.LBE471:
 1489              		.loc 1 376 0
 1490 001a 1A42     		tst	r2, r3	@ tmp129, D.6845
 1491 001c FBD1     		bne	.L186	@,
 1492              	.LVL110:
 1493              	.L184:
 1494              	.LBB472:
 1495              	.LBB473:
 336:../lpc11cx4-library/lpc_chip_11cxx_lib/inc/ssp_11xx.h **** }
 1496              		.loc 2 336 0
 1497 001e 0323     		mov	r3, #3	@ tmp128,
 1498              	.LBE473:
 1499              	.LBE472:
 377:../lpc11cx4-library/lpc_chip_11cxx_lib/src/ssp_11xx.c **** 		Chip_SSP_ReceiveFrame(pSSP);
 378:../lpc11cx4-library/lpc_chip_11cxx_lib/src/ssp_11xx.c **** 	}
 379:../lpc11cx4-library/lpc_chip_11cxx_lib/src/ssp_11xx.c **** 
 380:../lpc11cx4-library/lpc_chip_11cxx_lib/src/ssp_11xx.c **** 	/* Clear status */
 381:../lpc11cx4-library/lpc_chip_11cxx_lib/src/ssp_11xx.c **** 	Chip_SSP_ClearIntPending(pSSP, SSP_INT_CLEAR_BITMASK);
 382:../lpc11cx4-library/lpc_chip_11cxx_lib/src/ssp_11xx.c **** }
 1500              		.loc 1 382 0
 1501              		@ sp needed	@
 1502              	.LBB475:
 1503              	.LBB474:
 336:../lpc11cx4-library/lpc_chip_11cxx_lib/inc/ssp_11xx.h **** }
 1504              		.loc 2 336 0
 1505 0020 0362     		str	r3, [r0, #32]	@ tmp128, pSSP_4(D)->ICR
 1506              	.LBE474:
 1507              	.LBE475:
 1508              		.loc 1 382 0
 1509 0022 7047     		bx	lr
 1510              		.cfi_endproc
 1511              	.LFE210:
 1512              		.size	Chip_SSP_Int_FlushData, .-Chip_SSP_Int_FlushData
 1513              		.section	.text.Chip_SSP_Int_RWFrames8Bits,"ax",%progbits
 1514              		.align	2
 1515              		.global	Chip_SSP_Int_RWFrames8Bits
 1516              		.code	16
 1517              		.thumb_func
 1518              		.type	Chip_SSP_Int_RWFrames8Bits, %function
 1519              	Chip_SSP_Int_RWFrames8Bits:
 1520              	.LFB211:
 383:../lpc11cx4-library/lpc_chip_11cxx_lib/src/ssp_11xx.c **** 
 384:../lpc11cx4-library/lpc_chip_11cxx_lib/src/ssp_11xx.c **** /* SSP Interrupt Read/Write with 8-bit frame width */
 385:../lpc11cx4-library/lpc_chip_11cxx_lib/src/ssp_11xx.c **** Status Chip_SSP_Int_RWFrames8Bits(LPC_SSP_T *pSSP, Chip_SSP_DATA_SETUP_T *xf_setup)
 386:../lpc11cx4-library/lpc_chip_11cxx_lib/src/ssp_11xx.c **** {
 1521              		.loc 1 386 0
 1522              		.cfi_startproc
 1523              	.LVL111:
 1524 0000 F0B5     		push	{r4, r5, r6, r7, lr}	@
 1525              		.cfi_def_cfa_offset 20
 1526              		.cfi_offset 4, -20
 1527              		.cfi_offset 5, -16
 1528              		.cfi_offset 6, -12
 1529              		.cfi_offset 7, -8
 1530              		.cfi_offset 14, -4
ARM GAS  /tmp/cc7TFFKb.s 			page 44


 1531 0002 4746     		mov	r7, r8	@,
 1532              	.LBB476:
 1533              	.LBB477:
 311:../lpc11cx4-library/lpc_chip_11cxx_lib/inc/ssp_11xx.h **** }
 1534              		.loc 2 311 0
 1535 0004 8369     		ldr	r3, [r0, #24]	@ D.6849, pSSP_5(D)->RIS
 1536              	.LBE477:
 1537              	.LBE476:
 1538              		.loc 1 386 0
 1539 0006 80B4     		push	{r7}	@
 1540              		.cfi_def_cfa_offset 24
 1541              		.cfi_offset 8, -24
 387:../lpc11cx4-library/lpc_chip_11cxx_lib/src/ssp_11xx.c **** 	/* Check overrun error in RIS register */
 388:../lpc11cx4-library/lpc_chip_11cxx_lib/src/ssp_11xx.c **** 	if (Chip_SSP_GetRawIntStatus(pSSP, SSP_RORRIS) == SET) {
 1542              		.loc 1 388 0
 1543 0008 DB07     		lsl	r3, r3, #31	@ tmp157, D.6849,
 1544 000a 31D4     		bmi	.L194	@,
 389:../lpc11cx4-library/lpc_chip_11cxx_lib/src/ssp_11xx.c **** 		return ERROR;
 390:../lpc11cx4-library/lpc_chip_11cxx_lib/src/ssp_11xx.c **** 	}
 391:../lpc11cx4-library/lpc_chip_11cxx_lib/src/ssp_11xx.c **** 
 392:../lpc11cx4-library/lpc_chip_11cxx_lib/src/ssp_11xx.c **** 	if ((xf_setup->tx_cnt != xf_setup->length) || (xf_setup->rx_cnt != xf_setup->length)) {
 1545              		.loc 1 392 0
 1546 000c 4B68     		ldr	r3, [r1, #4]	@ D.6849, xf_setup_6(D)->tx_cnt
 1547 000e 0A69     		ldr	r2, [r1, #16]	@ tmp159, xf_setup_6(D)->length
 1548 0010 9342     		cmp	r3, r2	@ D.6849, tmp159
 1549 0012 31D0     		beq	.L207	@,
 1550              	.L193:
 1551 0014 051C     		mov	r5, r0	@ pSSP, pSSP
 1552 0016 0C1C     		mov	r4, r1	@ xf_setup, xf_setup
 393:../lpc11cx4-library/lpc_chip_11cxx_lib/src/ssp_11xx.c **** 		/* check if RX FIFO contains data */
 394:../lpc11cx4-library/lpc_chip_11cxx_lib/src/ssp_11xx.c **** 		SSP_Read1BFifo(pSSP, xf_setup);
 1553              		.loc 1 394 0
 1554 0018 FFF7FEFF 		bl	SSP_Read1BFifo	@
 1555              	.LVL112:
 1556              	.LBB478:
 1557              	.LBB479:
 284:../lpc11cx4-library/lpc_chip_11cxx_lib/inc/ssp_11xx.h **** }
 1558              		.loc 2 284 0
 1559 001c EB68     		ldr	r3, [r5, #12]	@ D.6849, pSSP_5(D)->SR
 1560              	.LBE479:
 1561              	.LBE478:
 395:../lpc11cx4-library/lpc_chip_11cxx_lib/src/ssp_11xx.c **** 
 396:../lpc11cx4-library/lpc_chip_11cxx_lib/src/ssp_11xx.c **** 		while ((Chip_SSP_GetStatus(pSSP, SSP_STAT_TNF)) && (xf_setup->tx_cnt != xf_setup->length)) {
 1562              		.loc 1 396 0
 1563 001e 9B07     		lsl	r3, r3, #30	@ tmp158, D.6849,
 1564 0020 2ED5     		bpl	.L196	@,
 1565 0022 6368     		ldr	r3, [r4, #4]	@ D.6849, xf_setup_6(D)->tx_cnt
 1566 0024 2269     		ldr	r2, [r4, #16]	@ tmp163, xf_setup_6(D)->length
 1567 0026 9342     		cmp	r3, r2	@ D.6849, tmp163
 1568 0028 2AD0     		beq	.L196	@,
 1569              	.LBB482:
 1570              	.LBB483:
 1571              	.LBB484:
 1572              	.LBB485:
 1573              		.loc 2 377 0
 1574 002a FF22     		mov	r2, #255	@ tmp152,
 1575              	.LBE485:
ARM GAS  /tmp/cc7TFFKb.s 			page 45


 1576              	.LBE484:
 1577              	.LBE483:
 1578              	.LBE482:
 1579              	.LBB495:
 1580              	.LBB496:
 311:../lpc11cx4-library/lpc_chip_11cxx_lib/inc/ssp_11xx.h **** }
 1581              		.loc 2 311 0
 1582 002c 0126     		mov	r6, #1	@ tmp153,
 1583              	.LBE496:
 1584              	.LBE495:
 1585              	.LBB499:
 1586              	.LBB492:
 1587              	.LBB488:
 1588              	.LBB486:
 1589              		.loc 2 377 0
 1590 002e 9046     		mov	r8, r2	@ tmp152, tmp152
 1591              	.LBE486:
 1592              	.LBE488:
 1593              	.LBE492:
 1594              	.LBE499:
 1595              	.LBB500:
 1596              	.LBB480:
 284:../lpc11cx4-library/lpc_chip_11cxx_lib/inc/ssp_11xx.h **** }
 1597              		.loc 2 284 0
 1598 0030 0227     		mov	r7, #2	@ tmp154,
 1599 0032 12E0     		b	.L199	@
 1600              	.LVL113:
 1601              	.L208:
 1602              	.LBE480:
 1603              	.LBE500:
 1604              	.LBB501:
 1605              	.LBB493:
 1606              	.LBB489:
 1607              	.LBB490:
 1608              		.loc 2 377 0
 1609 0034 D35C     		ldrb	r3, [r2, r3]	@ D.6849, *_24
 1610              	.LVL114:
 1611 0036 AB60     		str	r3, [r5, #8]	@ D.6849,
 1612              	.LBE490:
 1613              	.LBE489:
  69:../lpc11cx4-library/lpc_chip_11cxx_lib/src/ssp_11xx.c **** }
 1614              		.loc 1 69 0
 1615 0038 6368     		ldr	r3, [r4, #4]	@ tmp167, MEM[(uint32_t *)xf_setup_6(D) + 4B]
 1616              	.LVL115:
 1617 003a 0133     		add	r3, r3, #1	@ D.6849,
 1618 003c 6360     		str	r3, [r4, #4]	@ D.6849, MEM[(uint32_t *)xf_setup_6(D) + 4B]
 1619              	.LVL116:
 1620              	.LBE493:
 1621              	.LBE501:
 1622              	.LBB502:
 1623              	.LBB497:
 311:../lpc11cx4-library/lpc_chip_11cxx_lib/inc/ssp_11xx.h **** }
 1624              		.loc 2 311 0
 1625 003e AB69     		ldr	r3, [r5, #24]	@ D.6849, pSSP_5(D)->RIS
 1626              	.LBE497:
 1627              	.LBE502:
 397:../lpc11cx4-library/lpc_chip_11cxx_lib/src/ssp_11xx.c **** 			/* Write data to buffer */
ARM GAS  /tmp/cc7TFFKb.s 			page 46


 398:../lpc11cx4-library/lpc_chip_11cxx_lib/src/ssp_11xx.c **** 			SSP_Write1BFifo(pSSP, xf_setup);
 399:../lpc11cx4-library/lpc_chip_11cxx_lib/src/ssp_11xx.c **** 
 400:../lpc11cx4-library/lpc_chip_11cxx_lib/src/ssp_11xx.c **** 			/* Check overrun error in RIS register */
 401:../lpc11cx4-library/lpc_chip_11cxx_lib/src/ssp_11xx.c **** 			if (Chip_SSP_GetRawIntStatus(pSSP, SSP_RORRIS) == SET) {
 1628              		.loc 1 401 0
 1629 0040 1E42     		tst	r6, r3	@ tmp153, D.6849
 1630 0042 15D1     		bne	.L194	@,
 1631              	.LVL117:
 1632              	.L209:
 402:../lpc11cx4-library/lpc_chip_11cxx_lib/src/ssp_11xx.c **** 				return ERROR;
 403:../lpc11cx4-library/lpc_chip_11cxx_lib/src/ssp_11xx.c **** 			}
 404:../lpc11cx4-library/lpc_chip_11cxx_lib/src/ssp_11xx.c **** 
 405:../lpc11cx4-library/lpc_chip_11cxx_lib/src/ssp_11xx.c **** 			/*  Check for any data available in RX FIFO */
 406:../lpc11cx4-library/lpc_chip_11cxx_lib/src/ssp_11xx.c **** 			SSP_Read1BFifo(pSSP, xf_setup);
 1633              		.loc 1 406 0
 1634 0044 281C     		mov	r0, r5	@, pSSP
 1635 0046 211C     		mov	r1, r4	@, xf_setup
 1636 0048 FFF7FEFF 		bl	SSP_Read1BFifo	@
 1637              	.LVL118:
 1638              	.LBB503:
 1639              	.LBB481:
 284:../lpc11cx4-library/lpc_chip_11cxx_lib/inc/ssp_11xx.h **** }
 1640              		.loc 2 284 0
 1641 004c EB68     		ldr	r3, [r5, #12]	@ D.6849, pSSP_5(D)->SR
 1642              	.LBE481:
 1643              	.LBE503:
 396:../lpc11cx4-library/lpc_chip_11cxx_lib/src/ssp_11xx.c **** 			/* Write data to buffer */
 1644              		.loc 1 396 0
 1645 004e 1F42     		tst	r7, r3	@ tmp154, D.6849
 1646 0050 16D0     		beq	.L196	@,
 396:../lpc11cx4-library/lpc_chip_11cxx_lib/src/ssp_11xx.c **** 			/* Write data to buffer */
 1647              		.loc 1 396 0 is_stmt 0 discriminator 1
 1648 0052 6368     		ldr	r3, [r4, #4]	@ D.6849, xf_setup_6(D)->tx_cnt
 1649 0054 2269     		ldr	r2, [r4, #16]	@ tmp168, xf_setup_6(D)->length
 1650 0056 9342     		cmp	r3, r2	@ D.6849, tmp168
 1651 0058 12D0     		beq	.L196	@,
 1652              	.LVL119:
 1653              	.L199:
 1654 005a 2268     		ldr	r2, [r4]	@ D.6850, MEM[(void * *)xf_setup_6(D)]
 1655              	.LVL120:
 1656              	.LBB504:
 1657              	.LBB494:
  62:../lpc11cx4-library/lpc_chip_11cxx_lib/src/ssp_11xx.c **** 		Chip_SSP_SendFrame(pSSP, (*(uint8_t *) ((uint32_t) xf_setup->tx_data + xf_setup->tx_cnt)));
 1658              		.loc 1 62 0 is_stmt 1
 1659 005c 002A     		cmp	r2, #0	@ D.6850,
 1660 005e E9D1     		bne	.L208	@,
 1661              	.LVL121:
 1662              	.LBB491:
 1663              	.LBB487:
 1664              		.loc 2 377 0
 1665 0060 4346     		mov	r3, r8	@ tmp152, tmp152
 1666 0062 AB60     		str	r3, [r5, #8]	@ tmp152,
 1667              	.LBE487:
 1668              	.LBE491:
  69:../lpc11cx4-library/lpc_chip_11cxx_lib/src/ssp_11xx.c **** }
 1669              		.loc 1 69 0
 1670 0064 6368     		ldr	r3, [r4, #4]	@ tmp167, MEM[(uint32_t *)xf_setup_6(D) + 4B]
ARM GAS  /tmp/cc7TFFKb.s 			page 47


 1671 0066 0133     		add	r3, r3, #1	@ D.6849,
 1672 0068 6360     		str	r3, [r4, #4]	@ D.6849, MEM[(uint32_t *)xf_setup_6(D) + 4B]
 1673              	.LVL122:
 1674              	.LBE494:
 1675              	.LBE504:
 1676              	.LBB505:
 1677              	.LBB498:
 311:../lpc11cx4-library/lpc_chip_11cxx_lib/inc/ssp_11xx.h **** }
 1678              		.loc 2 311 0
 1679 006a AB69     		ldr	r3, [r5, #24]	@ D.6849, pSSP_5(D)->RIS
 1680              	.LBE498:
 1681              	.LBE505:
 401:../lpc11cx4-library/lpc_chip_11cxx_lib/src/ssp_11xx.c **** 				return ERROR;
 1682              		.loc 1 401 0
 1683 006c 1E42     		tst	r6, r3	@ tmp153, D.6849
 1684 006e E9D0     		beq	.L209	@,
 1685              	.LVL123:
 1686              	.L194:
 389:../lpc11cx4-library/lpc_chip_11cxx_lib/src/ssp_11xx.c **** 	}
 1687              		.loc 1 389 0
 1688 0070 0020     		mov	r0, #0	@ D.6848,
 1689              	.L192:
 407:../lpc11cx4-library/lpc_chip_11cxx_lib/src/ssp_11xx.c **** 		}
 408:../lpc11cx4-library/lpc_chip_11cxx_lib/src/ssp_11xx.c **** 
 409:../lpc11cx4-library/lpc_chip_11cxx_lib/src/ssp_11xx.c **** 		return SUCCESS;
 410:../lpc11cx4-library/lpc_chip_11cxx_lib/src/ssp_11xx.c **** 	}
 411:../lpc11cx4-library/lpc_chip_11cxx_lib/src/ssp_11xx.c **** 
 412:../lpc11cx4-library/lpc_chip_11cxx_lib/src/ssp_11xx.c **** 	return ERROR;
 413:../lpc11cx4-library/lpc_chip_11cxx_lib/src/ssp_11xx.c **** }
 1690              		.loc 1 413 0
 1691              		@ sp needed	@
 1692 0072 04BC     		pop	{r2}
 1693 0074 9046     		mov	r8, r2
 1694 0076 F0BD     		pop	{r4, r5, r6, r7, pc}
 1695              	.LVL124:
 1696              	.L207:
 392:../lpc11cx4-library/lpc_chip_11cxx_lib/src/ssp_11xx.c **** 		/* check if RX FIFO contains data */
 1697              		.loc 1 392 0 discriminator 1
 1698 0078 CA68     		ldr	r2, [r1, #12]	@ tmp161, xf_setup_6(D)->rx_cnt
 1699 007a 9342     		cmp	r3, r2	@ D.6849, tmp161
 1700 007c CAD1     		bne	.L193	@,
 1701 007e F7E7     		b	.L194	@
 1702              	.LVL125:
 1703              	.L196:
 409:../lpc11cx4-library/lpc_chip_11cxx_lib/src/ssp_11xx.c **** 	}
 1704              		.loc 1 409 0
 1705 0080 0120     		mov	r0, #1	@ D.6848,
 1706 0082 F6E7     		b	.L192	@
 1707              		.cfi_endproc
 1708              	.LFE211:
 1709              		.size	Chip_SSP_Int_RWFrames8Bits, .-Chip_SSP_Int_RWFrames8Bits
 1710              		.section	.text.Chip_SSP_Int_RWFrames16Bits,"ax",%progbits
 1711              		.align	2
 1712              		.global	Chip_SSP_Int_RWFrames16Bits
 1713              		.code	16
 1714              		.thumb_func
 1715              		.type	Chip_SSP_Int_RWFrames16Bits, %function
ARM GAS  /tmp/cc7TFFKb.s 			page 48


 1716              	Chip_SSP_Int_RWFrames16Bits:
 1717              	.LFB212:
 414:../lpc11cx4-library/lpc_chip_11cxx_lib/src/ssp_11xx.c **** 
 415:../lpc11cx4-library/lpc_chip_11cxx_lib/src/ssp_11xx.c **** /* SSP Interrupt Read/Write with 16-bit frame width */
 416:../lpc11cx4-library/lpc_chip_11cxx_lib/src/ssp_11xx.c **** Status Chip_SSP_Int_RWFrames16Bits(LPC_SSP_T *pSSP, Chip_SSP_DATA_SETUP_T *xf_setup)
 417:../lpc11cx4-library/lpc_chip_11cxx_lib/src/ssp_11xx.c **** {
 1718              		.loc 1 417 0
 1719              		.cfi_startproc
 1720              	.LVL126:
 1721 0000 F0B5     		push	{r4, r5, r6, r7, lr}	@
 1722              		.cfi_def_cfa_offset 20
 1723              		.cfi_offset 4, -20
 1724              		.cfi_offset 5, -16
 1725              		.cfi_offset 6, -12
 1726              		.cfi_offset 7, -8
 1727              		.cfi_offset 14, -4
 1728 0002 4746     		mov	r7, r8	@,
 1729              	.LBB506:
 1730              	.LBB507:
 311:../lpc11cx4-library/lpc_chip_11cxx_lib/inc/ssp_11xx.h **** }
 1731              		.loc 2 311 0
 1732 0004 8369     		ldr	r3, [r0, #24]	@ D.6868, pSSP_5(D)->RIS
 1733              	.LBE507:
 1734              	.LBE506:
 1735              		.loc 1 417 0
 1736 0006 80B4     		push	{r7}	@
 1737              		.cfi_def_cfa_offset 24
 1738              		.cfi_offset 8, -24
 418:../lpc11cx4-library/lpc_chip_11cxx_lib/src/ssp_11xx.c **** 	/* Check overrun error in RIS register */
 419:../lpc11cx4-library/lpc_chip_11cxx_lib/src/ssp_11xx.c **** 	if (Chip_SSP_GetRawIntStatus(pSSP, SSP_RORRIS) == SET) {
 1739              		.loc 1 419 0
 1740 0008 DB07     		lsl	r3, r3, #31	@ tmp179, D.6868,
 1741 000a 54D4     		bmi	.L214	@,
 420:../lpc11cx4-library/lpc_chip_11cxx_lib/src/ssp_11xx.c **** 		return ERROR;
 421:../lpc11cx4-library/lpc_chip_11cxx_lib/src/ssp_11xx.c **** 	}
 422:../lpc11cx4-library/lpc_chip_11cxx_lib/src/ssp_11xx.c **** 
 423:../lpc11cx4-library/lpc_chip_11cxx_lib/src/ssp_11xx.c **** 	if ((xf_setup->tx_cnt != xf_setup->length) || (xf_setup->rx_cnt != xf_setup->length)) {
 1742              		.loc 1 423 0
 1743 000c 0D69     		ldr	r5, [r1, #16]	@ D.6868, xf_setup_7(D)->length
 1744 000e 4B68     		ldr	r3, [r1, #4]	@ tmp181, xf_setup_7(D)->tx_cnt
 1745 0010 AB42     		cmp	r3, r5	@ tmp181, D.6868
 1746 0012 52D0     		beq	.L244	@,
 1747              	.L213:
 1748              	.LVL127:
 1749              	.LBB508:
 1750              	.LBB509:
 1751              	.LBB510:
 1752              	.LBB511:
 284:../lpc11cx4-library/lpc_chip_11cxx_lib/inc/ssp_11xx.h **** }
 1753              		.loc 2 284 0
 1754 0014 C368     		ldr	r3, [r0, #12]	@ D.6868, pSSP_5(D)->SR
 1755              	.LBE511:
 1756              	.LBE510:
  77:../lpc11cx4-library/lpc_chip_11cxx_lib/src/ssp_11xx.c **** 		   (xf_setup->rx_cnt < xf_setup->length)) {
 1757              		.loc 1 77 0
 1758 0016 5B07     		lsl	r3, r3, #29	@ tmp180, D.6868,
 1759 0018 11D5     		bpl	.L217	@,
ARM GAS  /tmp/cc7TFFKb.s 			page 49


  78:../lpc11cx4-library/lpc_chip_11cxx_lib/src/ssp_11xx.c **** 		rDat = Chip_SSP_ReceiveFrame(pSSP);
 1760              		.loc 1 78 0
 1761 001a CB68     		ldr	r3, [r1, #12]	@ D.6868, xf_setup_7(D)->rx_cnt
  77:../lpc11cx4-library/lpc_chip_11cxx_lib/src/ssp_11xx.c **** 		   (xf_setup->rx_cnt < xf_setup->length)) {
 1762              		.loc 1 77 0
 1763 001c 9D42     		cmp	r5, r3	@ D.6868, D.6868
 1764 001e 0ED9     		bls	.L217	@,
 1765 0020 8C68     		ldr	r4, [r1, #8]	@ D.6869, xf_setup_7(D)->rx_data
 1766              	.LBB514:
 1767              	.LBB512:
 284:../lpc11cx4-library/lpc_chip_11cxx_lib/inc/ssp_11xx.h **** }
 1768              		.loc 2 284 0
 1769 0022 0426     		mov	r6, #4	@ tmp176,
 1770 0024 01E0     		b	.L220	@
 1771              	.LVL128:
 1772              	.L245:
 1773              	.LBE512:
 1774              	.LBE514:
  77:../lpc11cx4-library/lpc_chip_11cxx_lib/src/ssp_11xx.c **** 		   (xf_setup->rx_cnt < xf_setup->length)) {
 1775              		.loc 1 77 0
 1776 0026 9D42     		cmp	r5, r3	@ D.6868, D.6868
 1777 0028 08D9     		bls	.L241	@,
 1778              	.LVL129:
 1779              	.L220:
 1780              	.LBB515:
 1781              	.LBB516:
 366:../lpc11cx4-library/lpc_chip_11cxx_lib/inc/ssp_11xx.h **** }
 1782              		.loc 2 366 0
 1783 002a 8268     		ldr	r2, [r0, #8]	@ D.6868, pSSP_5(D)->DR
 1784 002c 92B2     		uxth	r2, r2	@ D.6870, D.6868
 1785              	.LBE516:
 1786              	.LBE515:
  80:../lpc11cx4-library/lpc_chip_11cxx_lib/src/ssp_11xx.c **** 			*(uint16_t *) ((uint32_t) xf_setup->rx_data + xf_setup->rx_cnt) = rDat;
 1787              		.loc 1 80 0
 1788 002e 002C     		cmp	r4, #0	@ D.6869,
 1789 0030 00D0     		beq	.L218	@,
  81:../lpc11cx4-library/lpc_chip_11cxx_lib/src/ssp_11xx.c **** 		}
 1790              		.loc 1 81 0
 1791 0032 E252     		strh	r2, [r4, r3]	@ D.6870, MEM[base: _86, index: _73, offset: 0B]
 1792              	.L218:
 1793              	.LBB517:
 1794              	.LBB513:
 284:../lpc11cx4-library/lpc_chip_11cxx_lib/inc/ssp_11xx.h **** }
 1795              		.loc 2 284 0
 1796 0034 C268     		ldr	r2, [r0, #12]	@ D.6868, pSSP_5(D)->SR
 1797              	.LBE513:
 1798              	.LBE517:
  84:../lpc11cx4-library/lpc_chip_11cxx_lib/src/ssp_11xx.c **** 	}
 1799              		.loc 1 84 0
 1800 0036 0233     		add	r3, r3, #2	@ D.6868,
  77:../lpc11cx4-library/lpc_chip_11cxx_lib/src/ssp_11xx.c **** 		   (xf_setup->rx_cnt < xf_setup->length)) {
 1801              		.loc 1 77 0
 1802 0038 1642     		tst	r6, r2	@ tmp176, D.6868
 1803 003a F4D1     		bne	.L245	@,
 1804              	.L241:
 1805 003c CB60     		str	r3, [r1, #12]	@ D.6868, xf_setup_7(D)->rx_cnt
 1806              	.LVL130:
ARM GAS  /tmp/cc7TFFKb.s 			page 50


 1807              	.L217:
 1808              	.LBE509:
 1809              	.LBE508:
 1810              	.LBB518:
 1811              	.LBB519:
 1812              	.LBB520:
 1813              	.LBB521:
 1814              		.loc 2 377 0
 1815 003e 214B     		ldr	r3, .L249	@ tmp173,
 1816              	.LBE521:
 1817              	.LBE520:
 1818              	.LBE519:
 1819              	.LBE518:
 1820              	.LBB537:
 1821              	.LBB538:
 284:../lpc11cx4-library/lpc_chip_11cxx_lib/inc/ssp_11xx.h **** }
 1822              		.loc 2 284 0
 1823 0040 0227     		mov	r7, #2	@ tmp172,
 1824              	.LBE538:
 1825              	.LBE537:
 1826              	.LBB541:
 1827              	.LBB532:
 1828              	.LBB525:
 1829              	.LBB522:
 1830              		.loc 2 377 0
 1831 0042 9846     		mov	r8, r3	@ tmp173, tmp173
 1832              	.LBE522:
 1833              	.LBE525:
 1834              	.LBE532:
 1835              	.LBE541:
 1836              	.LBB542:
 1837              	.LBB543:
 311:../lpc11cx4-library/lpc_chip_11cxx_lib/inc/ssp_11xx.h **** }
 1838              		.loc 2 311 0
 1839 0044 0123     		mov	r3, #1	@ tmp174,
 1840              	.LBE543:
 1841              	.LBE542:
 1842              	.LBB547:
 1843              	.LBB548:
 1844              	.LBB549:
 1845              	.LBB550:
 284:../lpc11cx4-library/lpc_chip_11cxx_lib/inc/ssp_11xx.h **** }
 1846              		.loc 2 284 0
 1847 0046 0426     		mov	r6, #4	@ tmp175,
 1848              	.LBE550:
 1849              	.LBE549:
 1850              	.LBE548:
 1851              	.LBE547:
 1852              	.LBB558:
 1853              	.LBB544:
 311:../lpc11cx4-library/lpc_chip_11cxx_lib/inc/ssp_11xx.h **** }
 1854              		.loc 2 311 0
 1855 0048 9C46     		mov	ip, r3	@ tmp174, tmp174
 1856              	.L216:
 1857              	.LVL131:
 1858              	.LBE544:
 1859              	.LBE558:
ARM GAS  /tmp/cc7TFFKb.s 			page 51


 1860              	.LBB559:
 1861              	.LBB539:
 284:../lpc11cx4-library/lpc_chip_11cxx_lib/inc/ssp_11xx.h **** }
 1862              		.loc 2 284 0
 1863 004a C368     		ldr	r3, [r0, #12]	@ D.6868, pSSP_5(D)->SR
 1864              	.LBE539:
 1865              	.LBE559:
 424:../lpc11cx4-library/lpc_chip_11cxx_lib/src/ssp_11xx.c **** 		/* check if RX FIFO contains data */
 425:../lpc11cx4-library/lpc_chip_11cxx_lib/src/ssp_11xx.c **** 		SSP_Read2BFifo(pSSP, xf_setup);
 426:../lpc11cx4-library/lpc_chip_11cxx_lib/src/ssp_11xx.c **** 
 427:../lpc11cx4-library/lpc_chip_11cxx_lib/src/ssp_11xx.c **** 		while ((Chip_SSP_GetStatus(pSSP, SSP_STAT_TNF)) && (xf_setup->tx_cnt != xf_setup->length)) {
 1866              		.loc 1 427 0
 1867 004c 1F42     		tst	r7, r3	@ tmp172, D.6868
 1868 004e 25D0     		beq	.L229	@,
 1869              	.L247:
 1870              		.loc 1 427 0 is_stmt 0 discriminator 1
 1871 0050 4B68     		ldr	r3, [r1, #4]	@ D.6868, xf_setup_7(D)->tx_cnt
 1872 0052 9D42     		cmp	r5, r3	@ D.6868, D.6868
 1873 0054 22D0     		beq	.L229	@,
 1874 0056 0A68     		ldr	r2, [r1]	@ D.6869, MEM[(void * *)xf_setup_7(D)]
 1875              	.LVL132:
 1876              	.LBB560:
 1877              	.LBB533:
  48:../lpc11cx4-library/lpc_chip_11cxx_lib/src/ssp_11xx.c **** 		Chip_SSP_SendFrame(pSSP, (*(uint16_t *) ((uint32_t) xf_setup->tx_data +
 1878              		.loc 1 48 0 is_stmt 1
 1879 0058 002A     		cmp	r2, #0	@ D.6869,
 1880 005a 23D0     		beq	.L221	@,
 1881              	.LVL133:
 1882              	.LBB526:
 1883              	.LBB527:
 1884              		.loc 2 377 0
 1885 005c D35A     		ldrh	r3, [r2, r3]	@ D.6868, *_37
 1886              	.LVL134:
 1887              	.LBE527:
 1888              	.LBE526:
 1889              	.LBE533:
 1890              	.LBE560:
 428:../lpc11cx4-library/lpc_chip_11cxx_lib/src/ssp_11xx.c **** 			/* Write data to buffer */
 429:../lpc11cx4-library/lpc_chip_11cxx_lib/src/ssp_11xx.c **** 			SSP_Write2BFifo(pSSP, xf_setup);
 430:../lpc11cx4-library/lpc_chip_11cxx_lib/src/ssp_11xx.c **** 
 431:../lpc11cx4-library/lpc_chip_11cxx_lib/src/ssp_11xx.c **** 			/* Check overrun error in RIS register */
 432:../lpc11cx4-library/lpc_chip_11cxx_lib/src/ssp_11xx.c **** 			if (Chip_SSP_GetRawIntStatus(pSSP, SSP_RORRIS) == SET) {
 1891              		.loc 1 432 0
 1892 005e 6246     		mov	r2, ip	@ tmp174, tmp174
 1893              	.LVL135:
 1894              	.LBB561:
 1895              	.LBB534:
 1896              	.LBB529:
 1897              	.LBB528:
 1898              		.loc 2 377 0
 1899 0060 8360     		str	r3, [r0, #8]	@ D.6868,
 1900              	.LVL136:
 1901              	.LBE528:
 1902              	.LBE529:
  56:../lpc11cx4-library/lpc_chip_11cxx_lib/src/ssp_11xx.c **** }
 1903              		.loc 1 56 0
 1904 0062 4B68     		ldr	r3, [r1, #4]	@ tmp188, MEM[(uint32_t *)xf_setup_7(D) + 4B]
ARM GAS  /tmp/cc7TFFKb.s 			page 52


 1905              	.LVL137:
 1906 0064 0233     		add	r3, r3, #2	@ D.6868,
 1907 0066 4B60     		str	r3, [r1, #4]	@ D.6868, MEM[(uint32_t *)xf_setup_7(D) + 4B]
 1908              	.LVL138:
 1909              	.LBE534:
 1910              	.LBE561:
 1911              	.LBB562:
 1912              	.LBB545:
 311:../lpc11cx4-library/lpc_chip_11cxx_lib/inc/ssp_11xx.h **** }
 1913              		.loc 2 311 0
 1914 0068 8369     		ldr	r3, [r0, #24]	@ D.6868, pSSP_5(D)->RIS
 1915              	.LBE545:
 1916              	.LBE562:
 1917              		.loc 1 432 0
 1918 006a 1A42     		tst	r2, r3	@ tmp174, D.6868
 1919 006c 23D1     		bne	.L214	@,
 1920              	.LVL139:
 1921              	.L248:
 1922              	.LBB563:
 1923              	.LBB557:
 1924              	.LBB553:
 1925              	.LBB551:
 284:../lpc11cx4-library/lpc_chip_11cxx_lib/inc/ssp_11xx.h **** }
 1926              		.loc 2 284 0
 1927 006e C368     		ldr	r3, [r0, #12]	@ D.6868, pSSP_5(D)->SR
 1928              	.LBE551:
 1929              	.LBE553:
  77:../lpc11cx4-library/lpc_chip_11cxx_lib/src/ssp_11xx.c **** 		   (xf_setup->rx_cnt < xf_setup->length)) {
 1930              		.loc 1 77 0
 1931 0070 1E42     		tst	r6, r3	@ tmp175, D.6868
 1932 0072 EAD0     		beq	.L216	@,
  78:../lpc11cx4-library/lpc_chip_11cxx_lib/src/ssp_11xx.c **** 		rDat = Chip_SSP_ReceiveFrame(pSSP);
 1933              		.loc 1 78 0
 1934 0074 CB68     		ldr	r3, [r1, #12]	@ D.6868, xf_setup_7(D)->rx_cnt
  77:../lpc11cx4-library/lpc_chip_11cxx_lib/src/ssp_11xx.c **** 		   (xf_setup->rx_cnt < xf_setup->length)) {
 1935              		.loc 1 77 0
 1936 0076 9D42     		cmp	r5, r3	@ D.6868, D.6868
 1937 0078 E7D9     		bls	.L216	@,
 1938 007a 8C68     		ldr	r4, [r1, #8]	@ D.6869, xf_setup_7(D)->rx_data
 1939 007c 01E0     		b	.L227	@
 1940              	.LVL140:
 1941              	.L246:
 1942 007e 9D42     		cmp	r5, r3	@ D.6868, D.6868
 1943 0080 08D9     		bls	.L242	@,
 1944              	.LVL141:
 1945              	.L227:
 1946              	.LBB554:
 1947              	.LBB555:
 366:../lpc11cx4-library/lpc_chip_11cxx_lib/inc/ssp_11xx.h **** }
 1948              		.loc 2 366 0
 1949 0082 8268     		ldr	r2, [r0, #8]	@ D.6868, pSSP_5(D)->DR
 1950 0084 92B2     		uxth	r2, r2	@ D.6870, D.6868
 1951              	.LBE555:
 1952              	.LBE554:
  80:../lpc11cx4-library/lpc_chip_11cxx_lib/src/ssp_11xx.c **** 			*(uint16_t *) ((uint32_t) xf_setup->rx_data + xf_setup->rx_cnt) = rDat;
 1953              		.loc 1 80 0
 1954 0086 002C     		cmp	r4, #0	@ D.6869,
ARM GAS  /tmp/cc7TFFKb.s 			page 53


 1955 0088 00D0     		beq	.L225	@,
  81:../lpc11cx4-library/lpc_chip_11cxx_lib/src/ssp_11xx.c **** 		}
 1956              		.loc 1 81 0
 1957 008a E252     		strh	r2, [r4, r3]	@ D.6870, MEM[base: _58, index: _72, offset: 0B]
 1958              	.L225:
 1959              	.LBB556:
 1960              	.LBB552:
 284:../lpc11cx4-library/lpc_chip_11cxx_lib/inc/ssp_11xx.h **** }
 1961              		.loc 2 284 0
 1962 008c C268     		ldr	r2, [r0, #12]	@ D.6868, pSSP_5(D)->SR
 1963              	.LBE552:
 1964              	.LBE556:
  84:../lpc11cx4-library/lpc_chip_11cxx_lib/src/ssp_11xx.c **** 	}
 1965              		.loc 1 84 0
 1966 008e 0233     		add	r3, r3, #2	@ D.6868,
  77:../lpc11cx4-library/lpc_chip_11cxx_lib/src/ssp_11xx.c **** 		   (xf_setup->rx_cnt < xf_setup->length)) {
 1967              		.loc 1 77 0
 1968 0090 1642     		tst	r6, r2	@ tmp175, D.6868
 1969 0092 F4D1     		bne	.L246	@,
 1970              	.L242:
 1971 0094 CB60     		str	r3, [r1, #12]	@ D.6868, xf_setup_7(D)->rx_cnt
 1972              	.LBE557:
 1973              	.LBE563:
 1974              	.LBB564:
 1975              	.LBB540:
 284:../lpc11cx4-library/lpc_chip_11cxx_lib/inc/ssp_11xx.h **** }
 1976              		.loc 2 284 0
 1977 0096 C368     		ldr	r3, [r0, #12]	@ D.6868, pSSP_5(D)->SR
 1978              	.LBE540:
 1979              	.LBE564:
 427:../lpc11cx4-library/lpc_chip_11cxx_lib/src/ssp_11xx.c **** 			/* Write data to buffer */
 1980              		.loc 1 427 0
 1981 0098 1F42     		tst	r7, r3	@ tmp172, D.6868
 1982 009a D9D1     		bne	.L247	@,
 1983              	.LVL142:
 1984              	.L229:
 433:../lpc11cx4-library/lpc_chip_11cxx_lib/src/ssp_11xx.c **** 				return ERROR;
 434:../lpc11cx4-library/lpc_chip_11cxx_lib/src/ssp_11xx.c **** 			}
 435:../lpc11cx4-library/lpc_chip_11cxx_lib/src/ssp_11xx.c **** 
 436:../lpc11cx4-library/lpc_chip_11cxx_lib/src/ssp_11xx.c **** 			/*  Check for any data available in RX FIFO			 */
 437:../lpc11cx4-library/lpc_chip_11cxx_lib/src/ssp_11xx.c **** 			SSP_Read2BFifo(pSSP, xf_setup);
 438:../lpc11cx4-library/lpc_chip_11cxx_lib/src/ssp_11xx.c **** 		}
 439:../lpc11cx4-library/lpc_chip_11cxx_lib/src/ssp_11xx.c **** 
 440:../lpc11cx4-library/lpc_chip_11cxx_lib/src/ssp_11xx.c **** 		return SUCCESS;
 1985              		.loc 1 440 0
 1986 009c 0120     		mov	r0, #1	@ D.6867,
 1987              	.LVL143:
 1988              	.L212:
 441:../lpc11cx4-library/lpc_chip_11cxx_lib/src/ssp_11xx.c **** 	}
 442:../lpc11cx4-library/lpc_chip_11cxx_lib/src/ssp_11xx.c **** 
 443:../lpc11cx4-library/lpc_chip_11cxx_lib/src/ssp_11xx.c **** 	return ERROR;
 444:../lpc11cx4-library/lpc_chip_11cxx_lib/src/ssp_11xx.c **** }
 1989              		.loc 1 444 0
 1990              		@ sp needed	@
 1991 009e 04BC     		pop	{r2}
 1992 00a0 9046     		mov	r8, r2
 1993 00a2 F0BD     		pop	{r4, r5, r6, r7, pc}
ARM GAS  /tmp/cc7TFFKb.s 			page 54


 1994              	.LVL144:
 1995              	.L221:
 1996              	.LBB565:
 1997              	.LBB535:
 1998              	.LBB530:
 1999              	.LBB523:
 2000              		.loc 2 377 0
 2001 00a4 4346     		mov	r3, r8	@ tmp173, tmp173
 2002              	.LBE523:
 2003              	.LBE530:
 2004              	.LBE535:
 2005              	.LBE565:
 432:../lpc11cx4-library/lpc_chip_11cxx_lib/src/ssp_11xx.c **** 				return ERROR;
 2006              		.loc 1 432 0
 2007 00a6 6246     		mov	r2, ip	@ tmp174, tmp174
 2008              	.LBB566:
 2009              	.LBB536:
 2010              	.LBB531:
 2011              	.LBB524:
 2012              		.loc 2 377 0
 2013 00a8 8360     		str	r3, [r0, #8]	@ tmp173,
 2014              	.LBE524:
 2015              	.LBE531:
  56:../lpc11cx4-library/lpc_chip_11cxx_lib/src/ssp_11xx.c **** }
 2016              		.loc 1 56 0
 2017 00aa 4B68     		ldr	r3, [r1, #4]	@ tmp188, MEM[(uint32_t *)xf_setup_7(D) + 4B]
 2018 00ac 0233     		add	r3, r3, #2	@ D.6868,
 2019 00ae 4B60     		str	r3, [r1, #4]	@ D.6868, MEM[(uint32_t *)xf_setup_7(D) + 4B]
 2020              	.LVL145:
 2021              	.LBE536:
 2022              	.LBE566:
 2023              	.LBB567:
 2024              	.LBB546:
 311:../lpc11cx4-library/lpc_chip_11cxx_lib/inc/ssp_11xx.h **** }
 2025              		.loc 2 311 0
 2026 00b0 8369     		ldr	r3, [r0, #24]	@ D.6868, pSSP_5(D)->RIS
 2027              	.LBE546:
 2028              	.LBE567:
 432:../lpc11cx4-library/lpc_chip_11cxx_lib/src/ssp_11xx.c **** 				return ERROR;
 2029              		.loc 1 432 0
 2030 00b2 1A42     		tst	r2, r3	@ tmp174, D.6868
 2031 00b4 DBD0     		beq	.L248	@,
 2032              	.LVL146:
 2033              	.L214:
 420:../lpc11cx4-library/lpc_chip_11cxx_lib/src/ssp_11xx.c **** 	}
 2034              		.loc 1 420 0
 2035 00b6 0020     		mov	r0, #0	@ D.6867,
 2036              	.LVL147:
 2037 00b8 F1E7     		b	.L212	@
 2038              	.LVL148:
 2039              	.L244:
 423:../lpc11cx4-library/lpc_chip_11cxx_lib/src/ssp_11xx.c **** 		/* check if RX FIFO contains data */
 2040              		.loc 1 423 0 discriminator 1
 2041 00ba CB68     		ldr	r3, [r1, #12]	@ tmp183, xf_setup_7(D)->rx_cnt
 2042 00bc 9D42     		cmp	r5, r3	@ D.6868, tmp183
 2043 00be A9D1     		bne	.L213	@,
 420:../lpc11cx4-library/lpc_chip_11cxx_lib/src/ssp_11xx.c **** 	}
ARM GAS  /tmp/cc7TFFKb.s 			page 55


 2044              		.loc 1 420 0
 2045 00c0 0020     		mov	r0, #0	@ D.6867,
 2046              	.LVL149:
 2047 00c2 ECE7     		b	.L212	@
 2048              	.L250:
 2049              		.align	2
 2050              	.L249:
 2051 00c4 FFFF0000 		.word	65535
 2052              		.cfi_endproc
 2053              	.LFE212:
 2054              		.size	Chip_SSP_Int_RWFrames16Bits, .-Chip_SSP_Int_RWFrames16Bits
 2055              		.section	.text.Chip_SSP_SetMaster,"ax",%progbits
 2056              		.align	2
 2057              		.global	Chip_SSP_SetMaster
 2058              		.code	16
 2059              		.thumb_func
 2060              		.type	Chip_SSP_SetMaster, %function
 2061              	Chip_SSP_SetMaster:
 2062              	.LFB213:
 445:../lpc11cx4-library/lpc_chip_11cxx_lib/src/ssp_11xx.c **** 
 446:../lpc11cx4-library/lpc_chip_11cxx_lib/src/ssp_11xx.c **** /* Set the SSP operating modes, master or slave */
 447:../lpc11cx4-library/lpc_chip_11cxx_lib/src/ssp_11xx.c **** void Chip_SSP_SetMaster(LPC_SSP_T *pSSP, bool master)
 448:../lpc11cx4-library/lpc_chip_11cxx_lib/src/ssp_11xx.c **** {
 2063              		.loc 1 448 0
 2064              		.cfi_startproc
 2065              	.LVL150:
 449:../lpc11cx4-library/lpc_chip_11cxx_lib/src/ssp_11xx.c **** 	if (master) {
 2066              		.loc 1 449 0
 2067 0000 0029     		cmp	r1, #0	@ master,
 2068 0002 04D1     		bne	.L254	@,
 2069              	.LVL151:
 2070              	.LBB568:
 2071              	.LBB569:
 378:../lpc11cx4-library/lpc_chip_11cxx_lib/inc/ssp_11xx.h **** }
 379:../lpc11cx4-library/lpc_chip_11cxx_lib/inc/ssp_11xx.h **** 
 380:../lpc11cx4-library/lpc_chip_11cxx_lib/inc/ssp_11xx.h **** /**
 381:../lpc11cx4-library/lpc_chip_11cxx_lib/inc/ssp_11xx.h ****  * @brief	Set up output clocks per bit for SSP bus
 382:../lpc11cx4-library/lpc_chip_11cxx_lib/inc/ssp_11xx.h ****  * @param	pSSP		: The base of SSP peripheral on the chip
 383:../lpc11cx4-library/lpc_chip_11cxx_lib/inc/ssp_11xx.h ****  * @param	clk_rate	fs: The number of prescaler-output clocks per bit on the bus, minus one
 384:../lpc11cx4-library/lpc_chip_11cxx_lib/inc/ssp_11xx.h ****  * @param	prescale	: The factor by which the Prescaler divides the SSP peripheral clock PCLK
 385:../lpc11cx4-library/lpc_chip_11cxx_lib/inc/ssp_11xx.h ****  * @return	 Nothing
 386:../lpc11cx4-library/lpc_chip_11cxx_lib/inc/ssp_11xx.h ****  * @note	The bit frequency is PCLK / (prescale x[clk_rate+1])
 387:../lpc11cx4-library/lpc_chip_11cxx_lib/inc/ssp_11xx.h ****  */
 388:../lpc11cx4-library/lpc_chip_11cxx_lib/inc/ssp_11xx.h **** void Chip_SSP_SetClockRate(LPC_SSP_T *pSSP, uint32_t clk_rate, uint32_t prescale);
 389:../lpc11cx4-library/lpc_chip_11cxx_lib/inc/ssp_11xx.h **** 
 390:../lpc11cx4-library/lpc_chip_11cxx_lib/inc/ssp_11xx.h **** /**
 391:../lpc11cx4-library/lpc_chip_11cxx_lib/inc/ssp_11xx.h ****  * @brief	Set up the SSP frame format
 392:../lpc11cx4-library/lpc_chip_11cxx_lib/inc/ssp_11xx.h ****  * @param	pSSP		: The base of SSP peripheral on the chip
 393:../lpc11cx4-library/lpc_chip_11cxx_lib/inc/ssp_11xx.h ****  * @param	bits		: The number of bits transferred in each frame, should be SSP_BITS_4 to SSP_BITS_16
 394:../lpc11cx4-library/lpc_chip_11cxx_lib/inc/ssp_11xx.h ****  * @param	frameFormat	: Frame format, should be :
 395:../lpc11cx4-library/lpc_chip_11cxx_lib/inc/ssp_11xx.h ****  *							- SSP_FRAMEFORMAT_SPI
 396:../lpc11cx4-library/lpc_chip_11cxx_lib/inc/ssp_11xx.h ****  *							- SSP_FRAME_FORMAT_TI
 397:../lpc11cx4-library/lpc_chip_11cxx_lib/inc/ssp_11xx.h ****  *							- SSP_FRAMEFORMAT_MICROWIRE
 398:../lpc11cx4-library/lpc_chip_11cxx_lib/inc/ssp_11xx.h ****  * @param	clockMode	: Select Clock polarity and Clock phase, should be :
 399:../lpc11cx4-library/lpc_chip_11cxx_lib/inc/ssp_11xx.h ****  *							- SSP_CLOCK_CPHA0_CPOL0
 400:../lpc11cx4-library/lpc_chip_11cxx_lib/inc/ssp_11xx.h ****  *							- SSP_CLOCK_CPHA0_CPOL1
 401:../lpc11cx4-library/lpc_chip_11cxx_lib/inc/ssp_11xx.h ****  *							- SSP_CLOCK_CPHA1_CPOL0
ARM GAS  /tmp/cc7TFFKb.s 			page 56


 402:../lpc11cx4-library/lpc_chip_11cxx_lib/inc/ssp_11xx.h ****  *							- SSP_CLOCK_CPHA1_CPOL1
 403:../lpc11cx4-library/lpc_chip_11cxx_lib/inc/ssp_11xx.h ****  * @return	 Nothing
 404:../lpc11cx4-library/lpc_chip_11cxx_lib/inc/ssp_11xx.h ****  * @note	Note: The clockFormat is only used in SPI mode
 405:../lpc11cx4-library/lpc_chip_11cxx_lib/inc/ssp_11xx.h ****  */
 406:../lpc11cx4-library/lpc_chip_11cxx_lib/inc/ssp_11xx.h **** STATIC INLINE void Chip_SSP_SetFormat(LPC_SSP_T *pSSP, uint32_t bits, uint32_t frameFormat, uint32_
 407:../lpc11cx4-library/lpc_chip_11cxx_lib/inc/ssp_11xx.h **** {
 408:../lpc11cx4-library/lpc_chip_11cxx_lib/inc/ssp_11xx.h **** 	pSSP->CR0 = (pSSP->CR0 & ~0xFF) | bits | frameFormat | clockMode;
 409:../lpc11cx4-library/lpc_chip_11cxx_lib/inc/ssp_11xx.h **** }
 410:../lpc11cx4-library/lpc_chip_11cxx_lib/inc/ssp_11xx.h **** 
 411:../lpc11cx4-library/lpc_chip_11cxx_lib/inc/ssp_11xx.h **** /**
 412:../lpc11cx4-library/lpc_chip_11cxx_lib/inc/ssp_11xx.h ****  * @brief	Set the SSP working as master or slave mode
 413:../lpc11cx4-library/lpc_chip_11cxx_lib/inc/ssp_11xx.h ****  * @param	pSSP	: The base of SSP peripheral on the chip
 414:../lpc11cx4-library/lpc_chip_11cxx_lib/inc/ssp_11xx.h ****  * @param	mode	: Operating mode, should be
 415:../lpc11cx4-library/lpc_chip_11cxx_lib/inc/ssp_11xx.h ****  *						- SSP_MODE_MASTER
 416:../lpc11cx4-library/lpc_chip_11cxx_lib/inc/ssp_11xx.h ****  *						- SSP_MODE_SLAVE
 417:../lpc11cx4-library/lpc_chip_11cxx_lib/inc/ssp_11xx.h ****  * @return	 Nothing
 418:../lpc11cx4-library/lpc_chip_11cxx_lib/inc/ssp_11xx.h ****  */
 419:../lpc11cx4-library/lpc_chip_11cxx_lib/inc/ssp_11xx.h **** STATIC INLINE void Chip_SSP_Set_Mode(LPC_SSP_T *pSSP, uint32_t mode)
 420:../lpc11cx4-library/lpc_chip_11cxx_lib/inc/ssp_11xx.h **** {
 421:../lpc11cx4-library/lpc_chip_11cxx_lib/inc/ssp_11xx.h **** 	pSSP->CR1 = (pSSP->CR1 & ~(1 << 2)) | mode;
 2072              		.loc 2 421 0
 2073 0004 0423     		mov	r3, #4	@ D.6875,
 2074 0006 4268     		ldr	r2, [r0, #4]	@ D.6875, pSSP_4(D)->CR1
 2075 0008 1343     		orr	r3, r2	@ D.6875, D.6875
 2076 000a 4360     		str	r3, [r0, #4]	@ D.6875,
 2077              	.LVL152:
 2078              	.L251:
 2079              	.LBE569:
 2080              	.LBE568:
 450:../lpc11cx4-library/lpc_chip_11cxx_lib/src/ssp_11xx.c **** 		Chip_SSP_Set_Mode(pSSP, SSP_MODE_MASTER);
 451:../lpc11cx4-library/lpc_chip_11cxx_lib/src/ssp_11xx.c **** 	}
 452:../lpc11cx4-library/lpc_chip_11cxx_lib/src/ssp_11xx.c **** 	else {
 453:../lpc11cx4-library/lpc_chip_11cxx_lib/src/ssp_11xx.c **** 		Chip_SSP_Set_Mode(pSSP, SSP_MODE_SLAVE);
 454:../lpc11cx4-library/lpc_chip_11cxx_lib/src/ssp_11xx.c **** 	}
 455:../lpc11cx4-library/lpc_chip_11cxx_lib/src/ssp_11xx.c **** }
 2081              		.loc 1 455 0
 2082              		@ sp needed	@
 2083 000c 7047     		bx	lr
 2084              	.L254:
 2085              	.LVL153:
 2086              	.LBB570:
 2087              	.LBB571:
 2088              		.loc 2 421 0
 2089 000e 0422     		mov	r2, #4	@ tmp117,
 2090 0010 4368     		ldr	r3, [r0, #4]	@ D.6875, pSSP_4(D)->CR1
 2091 0012 9343     		bic	r3, r2	@ D.6875, tmp117
 2092 0014 4360     		str	r3, [r0, #4]	@ D.6875,
 2093 0016 F9E7     		b	.L251	@
 2094              	.LBE571:
 2095              	.LBE570:
 2096              		.cfi_endproc
 2097              	.LFE213:
 2098              		.size	Chip_SSP_SetMaster, .-Chip_SSP_SetMaster
 2099              		.global	__aeabi_uidiv
 2100              		.section	.text.Chip_SSP_SetBitRate,"ax",%progbits
 2101              		.align	2
 2102              		.global	Chip_SSP_SetBitRate
ARM GAS  /tmp/cc7TFFKb.s 			page 57


 2103              		.code	16
 2104              		.thumb_func
 2105              		.type	Chip_SSP_SetBitRate, %function
 2106              	Chip_SSP_SetBitRate:
 2107              	.LFB214:
 456:../lpc11cx4-library/lpc_chip_11cxx_lib/src/ssp_11xx.c **** 
 457:../lpc11cx4-library/lpc_chip_11cxx_lib/src/ssp_11xx.c **** /* Set the clock frequency for SSP interface */
 458:../lpc11cx4-library/lpc_chip_11cxx_lib/src/ssp_11xx.c **** void Chip_SSP_SetBitRate(LPC_SSP_T *pSSP, uint32_t bitRate)
 459:../lpc11cx4-library/lpc_chip_11cxx_lib/src/ssp_11xx.c **** {
 2108              		.loc 1 459 0
 2109              		.cfi_startproc
 2110              	.LVL154:
 2111 0000 F8B5     		push	{r3, r4, r5, r6, r7, lr}	@
 2112              		.cfi_def_cfa_offset 24
 2113              		.cfi_offset 3, -24
 2114              		.cfi_offset 4, -20
 2115              		.cfi_offset 5, -16
 2116              		.cfi_offset 6, -12
 2117              		.cfi_offset 7, -8
 2118              		.cfi_offset 14, -4
 2119 0002 4F46     		mov	r7, r9	@,
 2120 0004 4646     		mov	r6, r8	@,
 2121 0006 C0B4     		push	{r6, r7}	@
 2122              		.cfi_def_cfa_offset 32
 2123              		.cfi_offset 8, -32
 2124              		.cfi_offset 9, -28
 2125              		.loc 1 459 0
 2126 0008 8846     		mov	r8, r1	@ bitRate, bitRate
 2127 000a 071C     		mov	r7, r0	@ pSSP, pSSP
 2128              	.LVL155:
 2129              	.LBB572:
 2130              	.LBB573:
 152:../lpc11cx4-library/lpc_chip_11cxx_lib/src/ssp_11xx.c **** 
 2131              		.loc 1 152 0
 2132 000c FFF7FEFF 		bl	Chip_Clock_GetMainClockRate	@
 2133              	.LVL156:
 154:../lpc11cx4-library/lpc_chip_11cxx_lib/src/ssp_11xx.c **** 		sspCLK /= Chip_Clock_GetSSP0ClockDiv();
 2134              		.loc 1 154 0
 2135 0010 1C4B     		ldr	r3, .L266	@ tmp126,
 2136 0012 9F42     		cmp	r7, r3	@ pSSP, tmp126
 2137 0014 2BD0     		beq	.L264	@,
 2138              	.LBB574:
 2139              	.LBB575:
 2140              		.file 3 "../lpc11cx4-library/lpc_chip_11cxx_lib/inc/clock_11xx.h"
   1:../lpc11cx4-library/lpc_chip_11cxx_lib/inc/clock_11xx.h **** /*
   2:../lpc11cx4-library/lpc_chip_11cxx_lib/inc/clock_11xx.h ****  * @brief LPC11XX Clock control functions
   3:../lpc11cx4-library/lpc_chip_11cxx_lib/inc/clock_11xx.h ****  *
   4:../lpc11cx4-library/lpc_chip_11cxx_lib/inc/clock_11xx.h ****  * @note
   5:../lpc11cx4-library/lpc_chip_11cxx_lib/inc/clock_11xx.h ****  * Copyright(C) NXP Semiconductors, 2012
   6:../lpc11cx4-library/lpc_chip_11cxx_lib/inc/clock_11xx.h ****  * All rights reserved.
   7:../lpc11cx4-library/lpc_chip_11cxx_lib/inc/clock_11xx.h ****  *
   8:../lpc11cx4-library/lpc_chip_11cxx_lib/inc/clock_11xx.h ****  * @par
   9:../lpc11cx4-library/lpc_chip_11cxx_lib/inc/clock_11xx.h ****  * Software that is described herein is for illustrative purposes only
  10:../lpc11cx4-library/lpc_chip_11cxx_lib/inc/clock_11xx.h ****  * which provides customers with programming information regarding the
  11:../lpc11cx4-library/lpc_chip_11cxx_lib/inc/clock_11xx.h ****  * LPC products.  This software is supplied "AS IS" without any warranties of
  12:../lpc11cx4-library/lpc_chip_11cxx_lib/inc/clock_11xx.h ****  * any kind, and NXP Semiconductors and its licensor disclaim any and
  13:../lpc11cx4-library/lpc_chip_11cxx_lib/inc/clock_11xx.h ****  * all warranties, express or implied, including all implied warranties of
ARM GAS  /tmp/cc7TFFKb.s 			page 58


  14:../lpc11cx4-library/lpc_chip_11cxx_lib/inc/clock_11xx.h ****  * merchantability, fitness for a particular purpose and non-infringement of
  15:../lpc11cx4-library/lpc_chip_11cxx_lib/inc/clock_11xx.h ****  * intellectual property rights.  NXP Semiconductors assumes no responsibility
  16:../lpc11cx4-library/lpc_chip_11cxx_lib/inc/clock_11xx.h ****  * or liability for the use of the software, conveys no license or rights under any
  17:../lpc11cx4-library/lpc_chip_11cxx_lib/inc/clock_11xx.h ****  * patent, copyright, mask work right, or any other intellectual property rights in
  18:../lpc11cx4-library/lpc_chip_11cxx_lib/inc/clock_11xx.h ****  * or to any products. NXP Semiconductors reserves the right to make changes
  19:../lpc11cx4-library/lpc_chip_11cxx_lib/inc/clock_11xx.h ****  * in the software without notification. NXP Semiconductors also makes no
  20:../lpc11cx4-library/lpc_chip_11cxx_lib/inc/clock_11xx.h ****  * representation or warranty that such application will be suitable for the
  21:../lpc11cx4-library/lpc_chip_11cxx_lib/inc/clock_11xx.h ****  * specified use without further testing or modification.
  22:../lpc11cx4-library/lpc_chip_11cxx_lib/inc/clock_11xx.h ****  *
  23:../lpc11cx4-library/lpc_chip_11cxx_lib/inc/clock_11xx.h ****  * @par
  24:../lpc11cx4-library/lpc_chip_11cxx_lib/inc/clock_11xx.h ****  * Permission to use, copy, modify, and distribute this software and its
  25:../lpc11cx4-library/lpc_chip_11cxx_lib/inc/clock_11xx.h ****  * documentation is hereby granted, under NXP Semiconductors' and its
  26:../lpc11cx4-library/lpc_chip_11cxx_lib/inc/clock_11xx.h ****  * licensor's relevant copyrights in the software, without fee, provided that it
  27:../lpc11cx4-library/lpc_chip_11cxx_lib/inc/clock_11xx.h ****  * is used in conjunction with NXP Semiconductors microcontrollers.  This
  28:../lpc11cx4-library/lpc_chip_11cxx_lib/inc/clock_11xx.h ****  * copyright, permission, and disclaimer notice must appear in all copies of
  29:../lpc11cx4-library/lpc_chip_11cxx_lib/inc/clock_11xx.h ****  * this code.
  30:../lpc11cx4-library/lpc_chip_11cxx_lib/inc/clock_11xx.h ****  */
  31:../lpc11cx4-library/lpc_chip_11cxx_lib/inc/clock_11xx.h **** 
  32:../lpc11cx4-library/lpc_chip_11cxx_lib/inc/clock_11xx.h **** #ifndef __CLOCK_11XX_H_
  33:../lpc11cx4-library/lpc_chip_11cxx_lib/inc/clock_11xx.h **** #define __CLOCK_11XX_H_
  34:../lpc11cx4-library/lpc_chip_11cxx_lib/inc/clock_11xx.h **** 
  35:../lpc11cx4-library/lpc_chip_11cxx_lib/inc/clock_11xx.h **** #ifdef __cplusplus
  36:../lpc11cx4-library/lpc_chip_11cxx_lib/inc/clock_11xx.h **** extern "C" {
  37:../lpc11cx4-library/lpc_chip_11cxx_lib/inc/clock_11xx.h **** #endif
  38:../lpc11cx4-library/lpc_chip_11cxx_lib/inc/clock_11xx.h **** 
  39:../lpc11cx4-library/lpc_chip_11cxx_lib/inc/clock_11xx.h **** /** @defgroup CLOCK_11XX CHIP: LPC11xx Clock Control block driver
  40:../lpc11cx4-library/lpc_chip_11cxx_lib/inc/clock_11xx.h ****  * @ingroup CHIP_11XX_Drivers
  41:../lpc11cx4-library/lpc_chip_11cxx_lib/inc/clock_11xx.h ****  * @{
  42:../lpc11cx4-library/lpc_chip_11cxx_lib/inc/clock_11xx.h ****  */
  43:../lpc11cx4-library/lpc_chip_11cxx_lib/inc/clock_11xx.h **** 
  44:../lpc11cx4-library/lpc_chip_11cxx_lib/inc/clock_11xx.h **** /** Internal oscillator frequency */
  45:../lpc11cx4-library/lpc_chip_11cxx_lib/inc/clock_11xx.h **** #define SYSCTL_IRC_FREQ (12000000)
  46:../lpc11cx4-library/lpc_chip_11cxx_lib/inc/clock_11xx.h **** 
  47:../lpc11cx4-library/lpc_chip_11cxx_lib/inc/clock_11xx.h **** /**
  48:../lpc11cx4-library/lpc_chip_11cxx_lib/inc/clock_11xx.h ****  * @brief	Set System PLL divider values
  49:../lpc11cx4-library/lpc_chip_11cxx_lib/inc/clock_11xx.h ****  * @param	msel    : PLL feedback divider value. M = msel + 1.
  50:../lpc11cx4-library/lpc_chip_11cxx_lib/inc/clock_11xx.h ****  * @param	psel    : PLL post divider value. P =  (1<<psel).
  51:../lpc11cx4-library/lpc_chip_11cxx_lib/inc/clock_11xx.h ****  * @return	Nothing
  52:../lpc11cx4-library/lpc_chip_11cxx_lib/inc/clock_11xx.h ****  * @note	See the user manual for how to setup the PLL.
  53:../lpc11cx4-library/lpc_chip_11cxx_lib/inc/clock_11xx.h ****  */
  54:../lpc11cx4-library/lpc_chip_11cxx_lib/inc/clock_11xx.h **** STATIC INLINE void Chip_Clock_SetupSystemPLL(uint8_t msel, uint8_t psel)
  55:../lpc11cx4-library/lpc_chip_11cxx_lib/inc/clock_11xx.h **** {
  56:../lpc11cx4-library/lpc_chip_11cxx_lib/inc/clock_11xx.h **** 	LPC_SYSCTL->SYSPLLCTRL = (msel & 0x1F) | ((psel & 0x3) << 5);
  57:../lpc11cx4-library/lpc_chip_11cxx_lib/inc/clock_11xx.h **** }
  58:../lpc11cx4-library/lpc_chip_11cxx_lib/inc/clock_11xx.h **** 
  59:../lpc11cx4-library/lpc_chip_11cxx_lib/inc/clock_11xx.h **** /**
  60:../lpc11cx4-library/lpc_chip_11cxx_lib/inc/clock_11xx.h ****  * @brief	Read System PLL lock status
  61:../lpc11cx4-library/lpc_chip_11cxx_lib/inc/clock_11xx.h ****  * @return	true of the PLL is locked. false if not locked
  62:../lpc11cx4-library/lpc_chip_11cxx_lib/inc/clock_11xx.h ****  */
  63:../lpc11cx4-library/lpc_chip_11cxx_lib/inc/clock_11xx.h **** STATIC INLINE bool Chip_Clock_IsSystemPLLLocked(void)
  64:../lpc11cx4-library/lpc_chip_11cxx_lib/inc/clock_11xx.h **** {
  65:../lpc11cx4-library/lpc_chip_11cxx_lib/inc/clock_11xx.h **** 	return (bool) ((LPC_SYSCTL->SYSPLLSTAT & 1) != 0);
  66:../lpc11cx4-library/lpc_chip_11cxx_lib/inc/clock_11xx.h **** }
  67:../lpc11cx4-library/lpc_chip_11cxx_lib/inc/clock_11xx.h **** 
  68:../lpc11cx4-library/lpc_chip_11cxx_lib/inc/clock_11xx.h **** /**
  69:../lpc11cx4-library/lpc_chip_11cxx_lib/inc/clock_11xx.h ****  * Clock sources for system and USB PLLs
  70:../lpc11cx4-library/lpc_chip_11cxx_lib/inc/clock_11xx.h ****  */
ARM GAS  /tmp/cc7TFFKb.s 			page 59


  71:../lpc11cx4-library/lpc_chip_11cxx_lib/inc/clock_11xx.h **** typedef enum CHIP_SYSCTL_PLLCLKSRC {
  72:../lpc11cx4-library/lpc_chip_11cxx_lib/inc/clock_11xx.h **** 	SYSCTL_PLLCLKSRC_IRC = 0,		/*!< Internal oscillator in */
  73:../lpc11cx4-library/lpc_chip_11cxx_lib/inc/clock_11xx.h **** 	SYSCTL_PLLCLKSRC_MAINOSC,		/*!< Crystal (main) oscillator in */
  74:../lpc11cx4-library/lpc_chip_11cxx_lib/inc/clock_11xx.h **** #if defined(CHIP_LPC11AXX)
  75:../lpc11cx4-library/lpc_chip_11cxx_lib/inc/clock_11xx.h **** 	SYSCTL_PLLCLKSRC_EXT_CLKIN,	/*!< External clock in (11Axx only) */
  76:../lpc11cx4-library/lpc_chip_11cxx_lib/inc/clock_11xx.h **** #else
  77:../lpc11cx4-library/lpc_chip_11cxx_lib/inc/clock_11xx.h **** 	SYSCTL_PLLCLKSRC_RESERVED1,	/*!< Reserved */
  78:../lpc11cx4-library/lpc_chip_11cxx_lib/inc/clock_11xx.h **** #endif
  79:../lpc11cx4-library/lpc_chip_11cxx_lib/inc/clock_11xx.h **** 	SYSCTL_PLLCLKSRC_RESERVED2,	/*!< Reserved */
  80:../lpc11cx4-library/lpc_chip_11cxx_lib/inc/clock_11xx.h **** } CHIP_SYSCTL_PLLCLKSRC_T;
  81:../lpc11cx4-library/lpc_chip_11cxx_lib/inc/clock_11xx.h **** 
  82:../lpc11cx4-library/lpc_chip_11cxx_lib/inc/clock_11xx.h **** /**
  83:../lpc11cx4-library/lpc_chip_11cxx_lib/inc/clock_11xx.h ****  * @brief	Set System PLL clock source
  84:../lpc11cx4-library/lpc_chip_11cxx_lib/inc/clock_11xx.h ****  * @param	src	: Clock source for system PLL
  85:../lpc11cx4-library/lpc_chip_11cxx_lib/inc/clock_11xx.h ****  * @return	Nothing
  86:../lpc11cx4-library/lpc_chip_11cxx_lib/inc/clock_11xx.h ****  * @note	This function will also toggle the clock source update register
  87:../lpc11cx4-library/lpc_chip_11cxx_lib/inc/clock_11xx.h ****  * to update the clock source.
  88:../lpc11cx4-library/lpc_chip_11cxx_lib/inc/clock_11xx.h ****  */
  89:../lpc11cx4-library/lpc_chip_11cxx_lib/inc/clock_11xx.h **** void Chip_Clock_SetSystemPLLSource(CHIP_SYSCTL_PLLCLKSRC_T src);
  90:../lpc11cx4-library/lpc_chip_11cxx_lib/inc/clock_11xx.h **** 
  91:../lpc11cx4-library/lpc_chip_11cxx_lib/inc/clock_11xx.h **** #if defined(CHIP_LPC11UXX)
  92:../lpc11cx4-library/lpc_chip_11cxx_lib/inc/clock_11xx.h **** /**
  93:../lpc11cx4-library/lpc_chip_11cxx_lib/inc/clock_11xx.h ****  * @brief	Set USB PLL divider values
  94:../lpc11cx4-library/lpc_chip_11cxx_lib/inc/clock_11xx.h ****  * @param	msel    : PLL feedback divider value. M = msel + 1.
  95:../lpc11cx4-library/lpc_chip_11cxx_lib/inc/clock_11xx.h ****  * @param	psel    : PLL post divider value. P = (1<<psel).
  96:../lpc11cx4-library/lpc_chip_11cxx_lib/inc/clock_11xx.h ****  * @return	Nothing
  97:../lpc11cx4-library/lpc_chip_11cxx_lib/inc/clock_11xx.h ****  * @note	See the user manual for how to setup the PLL.
  98:../lpc11cx4-library/lpc_chip_11cxx_lib/inc/clock_11xx.h ****  */
  99:../lpc11cx4-library/lpc_chip_11cxx_lib/inc/clock_11xx.h **** STATIC INLINE void Chip_Clock_SetupUSBPLL(uint8_t msel, uint8_t psel)
 100:../lpc11cx4-library/lpc_chip_11cxx_lib/inc/clock_11xx.h **** {
 101:../lpc11cx4-library/lpc_chip_11cxx_lib/inc/clock_11xx.h **** 	LPC_SYSCTL->USBPLLCTRL = (msel & 0x1F) | ((psel & 0x3) << 5);
 102:../lpc11cx4-library/lpc_chip_11cxx_lib/inc/clock_11xx.h **** }
 103:../lpc11cx4-library/lpc_chip_11cxx_lib/inc/clock_11xx.h **** 
 104:../lpc11cx4-library/lpc_chip_11cxx_lib/inc/clock_11xx.h **** /**
 105:../lpc11cx4-library/lpc_chip_11cxx_lib/inc/clock_11xx.h ****  * @brief	Read USB PLL lock status
 106:../lpc11cx4-library/lpc_chip_11cxx_lib/inc/clock_11xx.h ****  * @return	true of the PLL is locked. false if not locked
 107:../lpc11cx4-library/lpc_chip_11cxx_lib/inc/clock_11xx.h ****  */
 108:../lpc11cx4-library/lpc_chip_11cxx_lib/inc/clock_11xx.h **** STATIC INLINE bool Chip_Clock_IsUSBPLLLocked(void)
 109:../lpc11cx4-library/lpc_chip_11cxx_lib/inc/clock_11xx.h **** {
 110:../lpc11cx4-library/lpc_chip_11cxx_lib/inc/clock_11xx.h **** 	return (bool) ((LPC_SYSCTL->USBPLLSTAT & 1) != 0);
 111:../lpc11cx4-library/lpc_chip_11cxx_lib/inc/clock_11xx.h **** }
 112:../lpc11cx4-library/lpc_chip_11cxx_lib/inc/clock_11xx.h **** 
 113:../lpc11cx4-library/lpc_chip_11cxx_lib/inc/clock_11xx.h **** /**
 114:../lpc11cx4-library/lpc_chip_11cxx_lib/inc/clock_11xx.h ****  * @brief	Set USB PLL clock source
 115:../lpc11cx4-library/lpc_chip_11cxx_lib/inc/clock_11xx.h ****  * @param	src	: Clock source for USB PLL
 116:../lpc11cx4-library/lpc_chip_11cxx_lib/inc/clock_11xx.h ****  * @return	Nothing
 117:../lpc11cx4-library/lpc_chip_11cxx_lib/inc/clock_11xx.h ****  * @note	This function will also toggle the clock source update register
 118:../lpc11cx4-library/lpc_chip_11cxx_lib/inc/clock_11xx.h ****  * to update the clock source.
 119:../lpc11cx4-library/lpc_chip_11cxx_lib/inc/clock_11xx.h ****  */
 120:../lpc11cx4-library/lpc_chip_11cxx_lib/inc/clock_11xx.h **** void Chip_Clock_SetUSBPLLSource(CHIP_SYSCTL_PLLCLKSRC_T src);
 121:../lpc11cx4-library/lpc_chip_11cxx_lib/inc/clock_11xx.h **** 
 122:../lpc11cx4-library/lpc_chip_11cxx_lib/inc/clock_11xx.h **** #endif /*defined(CHIP_LPC11UXX)*/
 123:../lpc11cx4-library/lpc_chip_11cxx_lib/inc/clock_11xx.h **** 
 124:../lpc11cx4-library/lpc_chip_11cxx_lib/inc/clock_11xx.h **** /**
 125:../lpc11cx4-library/lpc_chip_11cxx_lib/inc/clock_11xx.h ****  * @brief	Bypass System Oscillator and set oscillator frequency range
 126:../lpc11cx4-library/lpc_chip_11cxx_lib/inc/clock_11xx.h ****  * @param	bypass	: Flag to bypass oscillator
 127:../lpc11cx4-library/lpc_chip_11cxx_lib/inc/clock_11xx.h ****  * @param	highfr	: Flag to set oscillator range from 15-25 MHz
ARM GAS  /tmp/cc7TFFKb.s 			page 60


 128:../lpc11cx4-library/lpc_chip_11cxx_lib/inc/clock_11xx.h ****  * @return	Nothing
 129:../lpc11cx4-library/lpc_chip_11cxx_lib/inc/clock_11xx.h ****  * @note	Sets the PLL input to bypass the oscillator. This would be
 130:../lpc11cx4-library/lpc_chip_11cxx_lib/inc/clock_11xx.h ****  * used if an external clock that is not an oscillator is attached
 131:../lpc11cx4-library/lpc_chip_11cxx_lib/inc/clock_11xx.h ****  * to the XTALIN pin.
 132:../lpc11cx4-library/lpc_chip_11cxx_lib/inc/clock_11xx.h ****  */
 133:../lpc11cx4-library/lpc_chip_11cxx_lib/inc/clock_11xx.h **** void Chip_Clock_SetPLLBypass(bool bypass, bool highfr);
 134:../lpc11cx4-library/lpc_chip_11cxx_lib/inc/clock_11xx.h **** 
 135:../lpc11cx4-library/lpc_chip_11cxx_lib/inc/clock_11xx.h **** /**
 136:../lpc11cx4-library/lpc_chip_11cxx_lib/inc/clock_11xx.h ****  * Watchdog and low frequency oscillator frequencies plus or minus 40%
 137:../lpc11cx4-library/lpc_chip_11cxx_lib/inc/clock_11xx.h ****  */
 138:../lpc11cx4-library/lpc_chip_11cxx_lib/inc/clock_11xx.h **** typedef enum CHIP_WDTLFO_OSC {
 139:../lpc11cx4-library/lpc_chip_11cxx_lib/inc/clock_11xx.h **** 	WDTLFO_OSC_ILLEGAL,
 140:../lpc11cx4-library/lpc_chip_11cxx_lib/inc/clock_11xx.h **** 	WDTLFO_OSC_0_60,	/*!< 0.6 MHz watchdog/LFO rate */
 141:../lpc11cx4-library/lpc_chip_11cxx_lib/inc/clock_11xx.h **** 	WDTLFO_OSC_1_05,	/*!< 1.05 MHz watchdog/LFO rate */
 142:../lpc11cx4-library/lpc_chip_11cxx_lib/inc/clock_11xx.h **** 	WDTLFO_OSC_1_40,	/*!< 1.4 MHz watchdog/LFO rate */
 143:../lpc11cx4-library/lpc_chip_11cxx_lib/inc/clock_11xx.h **** 	WDTLFO_OSC_1_75,	/*!< 1.75 MHz watchdog/LFO rate */
 144:../lpc11cx4-library/lpc_chip_11cxx_lib/inc/clock_11xx.h **** 	WDTLFO_OSC_2_10,	/*!< 2.1 MHz watchdog/LFO rate */
 145:../lpc11cx4-library/lpc_chip_11cxx_lib/inc/clock_11xx.h **** 	WDTLFO_OSC_2_40,	/*!< 2.4 MHz watchdog/LFO rate */
 146:../lpc11cx4-library/lpc_chip_11cxx_lib/inc/clock_11xx.h **** 	WDTLFO_OSC_2_70,	/*!< 2.7 MHz watchdog/LFO rate */
 147:../lpc11cx4-library/lpc_chip_11cxx_lib/inc/clock_11xx.h **** 	WDTLFO_OSC_3_00,	/*!< 3.0 MHz watchdog/LFO rate */
 148:../lpc11cx4-library/lpc_chip_11cxx_lib/inc/clock_11xx.h **** 	WDTLFO_OSC_3_25,	/*!< 3.25 MHz watchdog/LFO rate */
 149:../lpc11cx4-library/lpc_chip_11cxx_lib/inc/clock_11xx.h **** 	WDTLFO_OSC_3_50,	/*!< 3.5 MHz watchdog/LFO rate */
 150:../lpc11cx4-library/lpc_chip_11cxx_lib/inc/clock_11xx.h **** 	WDTLFO_OSC_3_75,	/*!< 3.75 MHz watchdog/LFO rate */
 151:../lpc11cx4-library/lpc_chip_11cxx_lib/inc/clock_11xx.h **** 	WDTLFO_OSC_4_00,	/*!< 4.0 MHz watchdog/LFO rate */
 152:../lpc11cx4-library/lpc_chip_11cxx_lib/inc/clock_11xx.h **** 	WDTLFO_OSC_4_20,	/*!< 4.2 MHz watchdog/LFO rate */
 153:../lpc11cx4-library/lpc_chip_11cxx_lib/inc/clock_11xx.h **** 	WDTLFO_OSC_4_40,	/*!< 4.4 MHz watchdog/LFO rate */
 154:../lpc11cx4-library/lpc_chip_11cxx_lib/inc/clock_11xx.h **** 	WDTLFO_OSC_4_60		/*!< 4.6 MHz watchdog/LFO rate */
 155:../lpc11cx4-library/lpc_chip_11cxx_lib/inc/clock_11xx.h **** } CHIP_WDTLFO_OSC_T;
 156:../lpc11cx4-library/lpc_chip_11cxx_lib/inc/clock_11xx.h **** 
 157:../lpc11cx4-library/lpc_chip_11cxx_lib/inc/clock_11xx.h **** /**
 158:../lpc11cx4-library/lpc_chip_11cxx_lib/inc/clock_11xx.h ****  * @brief	Setup Watchdog oscillator rate and divider
 159:../lpc11cx4-library/lpc_chip_11cxx_lib/inc/clock_11xx.h ****  * @param	wdtclk	: Selected watchdog clock rate
 160:../lpc11cx4-library/lpc_chip_11cxx_lib/inc/clock_11xx.h ****  * @param	div		: Watchdog divider value, even value between 2 and 64
 161:../lpc11cx4-library/lpc_chip_11cxx_lib/inc/clock_11xx.h ****  * @return	Nothing
 162:../lpc11cx4-library/lpc_chip_11cxx_lib/inc/clock_11xx.h ****  * @note	Watchdog rate = selected rate divided by divider rate
 163:../lpc11cx4-library/lpc_chip_11cxx_lib/inc/clock_11xx.h ****  */
 164:../lpc11cx4-library/lpc_chip_11cxx_lib/inc/clock_11xx.h **** STATIC INLINE void Chip_Clock_SetWDTOSC(CHIP_WDTLFO_OSC_T wdtclk, uint8_t div)
 165:../lpc11cx4-library/lpc_chip_11cxx_lib/inc/clock_11xx.h **** {
 166:../lpc11cx4-library/lpc_chip_11cxx_lib/inc/clock_11xx.h **** 	LPC_SYSCTL->WDTOSCCTRL  = (((uint32_t) wdtclk) << 5) | ((div >> 1) - 1);
 167:../lpc11cx4-library/lpc_chip_11cxx_lib/inc/clock_11xx.h **** }
 168:../lpc11cx4-library/lpc_chip_11cxx_lib/inc/clock_11xx.h **** 
 169:../lpc11cx4-library/lpc_chip_11cxx_lib/inc/clock_11xx.h **** #if defined(CHIP_LPC11AXX)
 170:../lpc11cx4-library/lpc_chip_11cxx_lib/inc/clock_11xx.h **** /**
 171:../lpc11cx4-library/lpc_chip_11cxx_lib/inc/clock_11xx.h ****  * @brief	Setup low frequency oscillator rate and divider
 172:../lpc11cx4-library/lpc_chip_11cxx_lib/inc/clock_11xx.h ****  * @param	lfoclk	: Selected low frequency clock rate
 173:../lpc11cx4-library/lpc_chip_11cxx_lib/inc/clock_11xx.h ****  * @param	div		: Low frequency divider value, even value between 2 and 64
 174:../lpc11cx4-library/lpc_chip_11cxx_lib/inc/clock_11xx.h ****  * @return	Nothing
 175:../lpc11cx4-library/lpc_chip_11cxx_lib/inc/clock_11xx.h ****  * @note	Low frequency oscillator rate = selected rate divided by divider rate
 176:../lpc11cx4-library/lpc_chip_11cxx_lib/inc/clock_11xx.h ****  */
 177:../lpc11cx4-library/lpc_chip_11cxx_lib/inc/clock_11xx.h **** STATIC INLINE void Chip_Clock_SetLFOSC(CHIP_WDTLFO_OSC_T lfoclk, uint8_t div)
 178:../lpc11cx4-library/lpc_chip_11cxx_lib/inc/clock_11xx.h **** {
 179:../lpc11cx4-library/lpc_chip_11cxx_lib/inc/clock_11xx.h **** 	LPC_SYSCTL->LFOSCCTRL  = (((uint32_t) lfoclk) << 5) | ((div >> 1) - 1);
 180:../lpc11cx4-library/lpc_chip_11cxx_lib/inc/clock_11xx.h **** }
 181:../lpc11cx4-library/lpc_chip_11cxx_lib/inc/clock_11xx.h **** 
 182:../lpc11cx4-library/lpc_chip_11cxx_lib/inc/clock_11xx.h **** #endif /*CHIP_LPC11AXX*/
 183:../lpc11cx4-library/lpc_chip_11cxx_lib/inc/clock_11xx.h **** 
 184:../lpc11cx4-library/lpc_chip_11cxx_lib/inc/clock_11xx.h **** /**
ARM GAS  /tmp/cc7TFFKb.s 			page 61


 185:../lpc11cx4-library/lpc_chip_11cxx_lib/inc/clock_11xx.h ****  * Clock sources for main system clock
 186:../lpc11cx4-library/lpc_chip_11cxx_lib/inc/clock_11xx.h ****  */
 187:../lpc11cx4-library/lpc_chip_11cxx_lib/inc/clock_11xx.h **** typedef enum CHIP_SYSCTL_MAINCLKSRC {
 188:../lpc11cx4-library/lpc_chip_11cxx_lib/inc/clock_11xx.h **** 	SYSCTL_MAINCLKSRC_IRC = 0,		/*!< Internal oscillator */
 189:../lpc11cx4-library/lpc_chip_11cxx_lib/inc/clock_11xx.h **** 	SYSCTL_MAINCLKSRC_PLLIN,		/*!< System PLL input */
 190:../lpc11cx4-library/lpc_chip_11cxx_lib/inc/clock_11xx.h **** 	SYSCTL_MAINCLKSRC_LFOSC,		/*!< LF oscillator rate (11Axx only) */
 191:../lpc11cx4-library/lpc_chip_11cxx_lib/inc/clock_11xx.h **** 	SYSCTL_MAINCLKSRC_WDTOSC = SYSCTL_MAINCLKSRC_LFOSC,	/*!< Watchdog oscillator rate */
 192:../lpc11cx4-library/lpc_chip_11cxx_lib/inc/clock_11xx.h **** 	SYSCTL_MAINCLKSRC_PLLOUT,		/*!< System PLL output */
 193:../lpc11cx4-library/lpc_chip_11cxx_lib/inc/clock_11xx.h **** } CHIP_SYSCTL_MAINCLKSRC_T;
 194:../lpc11cx4-library/lpc_chip_11cxx_lib/inc/clock_11xx.h **** 
 195:../lpc11cx4-library/lpc_chip_11cxx_lib/inc/clock_11xx.h **** /**
 196:../lpc11cx4-library/lpc_chip_11cxx_lib/inc/clock_11xx.h ****  * @brief	Set main system clock source
 197:../lpc11cx4-library/lpc_chip_11cxx_lib/inc/clock_11xx.h ****  * @param	src	: Clock source for main system
 198:../lpc11cx4-library/lpc_chip_11cxx_lib/inc/clock_11xx.h ****  * @return	Nothing
 199:../lpc11cx4-library/lpc_chip_11cxx_lib/inc/clock_11xx.h ****  * @note	This function will also toggle the clock source update register
 200:../lpc11cx4-library/lpc_chip_11cxx_lib/inc/clock_11xx.h ****  * to update the clock source.
 201:../lpc11cx4-library/lpc_chip_11cxx_lib/inc/clock_11xx.h ****  */
 202:../lpc11cx4-library/lpc_chip_11cxx_lib/inc/clock_11xx.h **** void Chip_Clock_SetMainClockSource(CHIP_SYSCTL_MAINCLKSRC_T src);
 203:../lpc11cx4-library/lpc_chip_11cxx_lib/inc/clock_11xx.h **** 
 204:../lpc11cx4-library/lpc_chip_11cxx_lib/inc/clock_11xx.h **** /**
 205:../lpc11cx4-library/lpc_chip_11cxx_lib/inc/clock_11xx.h ****  * @brief   Returns the main clock source
 206:../lpc11cx4-library/lpc_chip_11cxx_lib/inc/clock_11xx.h ****  * @return	Which clock is used for the core clock source?
 207:../lpc11cx4-library/lpc_chip_11cxx_lib/inc/clock_11xx.h ****  */
 208:../lpc11cx4-library/lpc_chip_11cxx_lib/inc/clock_11xx.h **** STATIC INLINE CHIP_SYSCTL_MAINCLKSRC_T Chip_Clock_GetMainClockSource(void)
 209:../lpc11cx4-library/lpc_chip_11cxx_lib/inc/clock_11xx.h **** {
 210:../lpc11cx4-library/lpc_chip_11cxx_lib/inc/clock_11xx.h **** 	return (CHIP_SYSCTL_MAINCLKSRC_T) (LPC_SYSCTL->MAINCLKSEL);
 211:../lpc11cx4-library/lpc_chip_11cxx_lib/inc/clock_11xx.h **** }
 212:../lpc11cx4-library/lpc_chip_11cxx_lib/inc/clock_11xx.h **** 
 213:../lpc11cx4-library/lpc_chip_11cxx_lib/inc/clock_11xx.h **** /**
 214:../lpc11cx4-library/lpc_chip_11cxx_lib/inc/clock_11xx.h ****  * @brief	Set system clock divider
 215:../lpc11cx4-library/lpc_chip_11cxx_lib/inc/clock_11xx.h ****  * @param	div	: divider for system clock
 216:../lpc11cx4-library/lpc_chip_11cxx_lib/inc/clock_11xx.h ****  * @return	Nothing
 217:../lpc11cx4-library/lpc_chip_11cxx_lib/inc/clock_11xx.h ****  * @note	Use 0 to disable, or a divider value of 1 to 255. The system clock
 218:../lpc11cx4-library/lpc_chip_11cxx_lib/inc/clock_11xx.h ****  * rate is the main system clock divided by this value.
 219:../lpc11cx4-library/lpc_chip_11cxx_lib/inc/clock_11xx.h ****  */
 220:../lpc11cx4-library/lpc_chip_11cxx_lib/inc/clock_11xx.h **** STATIC INLINE void Chip_Clock_SetSysClockDiv(uint32_t div)
 221:../lpc11cx4-library/lpc_chip_11cxx_lib/inc/clock_11xx.h **** {
 222:../lpc11cx4-library/lpc_chip_11cxx_lib/inc/clock_11xx.h **** 	LPC_SYSCTL->SYSAHBCLKDIV  = div;
 223:../lpc11cx4-library/lpc_chip_11cxx_lib/inc/clock_11xx.h **** }
 224:../lpc11cx4-library/lpc_chip_11cxx_lib/inc/clock_11xx.h **** 
 225:../lpc11cx4-library/lpc_chip_11cxx_lib/inc/clock_11xx.h **** /**
 226:../lpc11cx4-library/lpc_chip_11cxx_lib/inc/clock_11xx.h ****  * System and peripheral clocks
 227:../lpc11cx4-library/lpc_chip_11cxx_lib/inc/clock_11xx.h ****  */
 228:../lpc11cx4-library/lpc_chip_11cxx_lib/inc/clock_11xx.h **** typedef enum CHIP_SYSCTL_CLOCK {
 229:../lpc11cx4-library/lpc_chip_11cxx_lib/inc/clock_11xx.h **** 	SYSCTL_CLOCK_SYS = 0,				/*!< 0: System clock */
 230:../lpc11cx4-library/lpc_chip_11cxx_lib/inc/clock_11xx.h **** 	SYSCTL_CLOCK_ROM,					/*!<1:  ROM clock */
 231:../lpc11cx4-library/lpc_chip_11cxx_lib/inc/clock_11xx.h **** 	SYSCTL_CLOCK_RAM,					/*!< 2: RAM clock */
 232:../lpc11cx4-library/lpc_chip_11cxx_lib/inc/clock_11xx.h **** 	SYSCTL_CLOCK_FLASHREG,				/*!< 3: FLASH register interface clock */
 233:../lpc11cx4-library/lpc_chip_11cxx_lib/inc/clock_11xx.h **** 	SYSCTL_CLOCK_FLASHARRAY,			/*!< 4: FLASH array access clock */
 234:../lpc11cx4-library/lpc_chip_11cxx_lib/inc/clock_11xx.h **** #if defined(CHIP_LPC110X)
 235:../lpc11cx4-library/lpc_chip_11cxx_lib/inc/clock_11xx.h **** 	SYSCTL_CLOCK_RESERVED5,				/*!< 5: Reserved */
 236:../lpc11cx4-library/lpc_chip_11cxx_lib/inc/clock_11xx.h **** #else
 237:../lpc11cx4-library/lpc_chip_11cxx_lib/inc/clock_11xx.h **** 	SYSCTL_CLOCK_I2C,					/*!< 5: I2C clock, not on LPC110x */
 238:../lpc11cx4-library/lpc_chip_11cxx_lib/inc/clock_11xx.h **** #endif
 239:../lpc11cx4-library/lpc_chip_11cxx_lib/inc/clock_11xx.h **** 	SYSCTL_CLOCK_GPIO,					/*!< 6: GPIO clock */
 240:../lpc11cx4-library/lpc_chip_11cxx_lib/inc/clock_11xx.h **** 	SYSCTL_CLOCK_CT16B0,				/*!< 7: 16-bit Counter/timer 0 clock */
 241:../lpc11cx4-library/lpc_chip_11cxx_lib/inc/clock_11xx.h **** 	SYSCTL_CLOCK_CT16B1,				/*!< 8: 16-bit Counter/timer 1 clock */
ARM GAS  /tmp/cc7TFFKb.s 			page 62


 242:../lpc11cx4-library/lpc_chip_11cxx_lib/inc/clock_11xx.h **** 	SYSCTL_CLOCK_CT32B0,				/*!< 9: 32-bit Counter/timer 0 clock */
 243:../lpc11cx4-library/lpc_chip_11cxx_lib/inc/clock_11xx.h **** 	SYSCTL_CLOCK_CT32B1,				/*!< 10: 32-bit Counter/timer 1 clock */
 244:../lpc11cx4-library/lpc_chip_11cxx_lib/inc/clock_11xx.h **** 	SYSCTL_CLOCK_SSP0,					/*!< 11: SSP0 clock */
 245:../lpc11cx4-library/lpc_chip_11cxx_lib/inc/clock_11xx.h **** 	SYSCTL_CLOCK_UART0,					/*!< 12: UART0 clock */
 246:../lpc11cx4-library/lpc_chip_11cxx_lib/inc/clock_11xx.h **** 	SYSCTL_CLOCK_ADC,					/*!< 13: ADC clock */
 247:../lpc11cx4-library/lpc_chip_11cxx_lib/inc/clock_11xx.h **** #if defined(CHIP_LPC11UXX)
 248:../lpc11cx4-library/lpc_chip_11cxx_lib/inc/clock_11xx.h **** 	SYSCTL_CLOCK_USB,					/*!< 14: USB clock, LPC11Uxx only */
 249:../lpc11cx4-library/lpc_chip_11cxx_lib/inc/clock_11xx.h **** #else
 250:../lpc11cx4-library/lpc_chip_11cxx_lib/inc/clock_11xx.h **** 	SYSCTL_CLOCK_RESERVED14,			/*!< 14: Reserved */
 251:../lpc11cx4-library/lpc_chip_11cxx_lib/inc/clock_11xx.h **** #endif
 252:../lpc11cx4-library/lpc_chip_11cxx_lib/inc/clock_11xx.h **** 	SYSCTL_CLOCK_WDT,					/*!< 15: Watchdog timer clock */
 253:../lpc11cx4-library/lpc_chip_11cxx_lib/inc/clock_11xx.h **** 	SYSCTL_CLOCK_IOCON,					/*!< 16: IOCON block clock */
 254:../lpc11cx4-library/lpc_chip_11cxx_lib/inc/clock_11xx.h **** #if defined(CHIP_LPC11CXX)
 255:../lpc11cx4-library/lpc_chip_11cxx_lib/inc/clock_11xx.h **** 	SYSCTL_CLOCK_CAN,					/*!< 17: CAN clock, LPC11Cxx only */
 256:../lpc11cx4-library/lpc_chip_11cxx_lib/inc/clock_11xx.h **** #else
 257:../lpc11cx4-library/lpc_chip_11cxx_lib/inc/clock_11xx.h **** 	SYSCTL_CLOCK_RESERVED17,			/*!< 17: Reserved */
 258:../lpc11cx4-library/lpc_chip_11cxx_lib/inc/clock_11xx.h **** #endif
 259:../lpc11cx4-library/lpc_chip_11cxx_lib/inc/clock_11xx.h **** #if !(defined(CHIP_LPC110X) || defined(CHIP_LPC11XXLV))  
 260:../lpc11cx4-library/lpc_chip_11cxx_lib/inc/clock_11xx.h **** 	SYSCTL_CLOCK_SSP1,					/*!< 18: SSP1 clock, LPC11A/C/E/Uxx//1125 only */
 261:../lpc11cx4-library/lpc_chip_11cxx_lib/inc/clock_11xx.h **** #if !defined(CHIP_LPC11CXX)
 262:../lpc11cx4-library/lpc_chip_11cxx_lib/inc/clock_11xx.h **** 	SYSCTL_CLOCK_PINT,					/*!< 19: GPIO Pin int register interface clock, LPC11A/E/Uxx only */
 263:../lpc11cx4-library/lpc_chip_11cxx_lib/inc/clock_11xx.h **** #if defined(CHIP_LPC11AXX)
 264:../lpc11cx4-library/lpc_chip_11cxx_lib/inc/clock_11xx.h **** 	SYSCTL_CLOCK_ACOMP,					/*!< 20: Analog comparator clock, LPC11Axx only */
 265:../lpc11cx4-library/lpc_chip_11cxx_lib/inc/clock_11xx.h **** 	SYSCTL_CLOCK_DAC,					/*!< 21: DAC clock, LPC11Axx only */
 266:../lpc11cx4-library/lpc_chip_11cxx_lib/inc/clock_11xx.h **** #else
 267:../lpc11cx4-library/lpc_chip_11cxx_lib/inc/clock_11xx.h **** 	SYSCTL_CLOCK_RESERVED20,			/*!< 20: Reserved */
 268:../lpc11cx4-library/lpc_chip_11cxx_lib/inc/clock_11xx.h **** 	SYSCTL_CLOCK_RESERVED21,			/*!< 21: Reserved */
 269:../lpc11cx4-library/lpc_chip_11cxx_lib/inc/clock_11xx.h **** #endif
 270:../lpc11cx4-library/lpc_chip_11cxx_lib/inc/clock_11xx.h **** 	SYSCTL_CLOCK_RESERVED22,			/*!< 22: Reserved */
 271:../lpc11cx4-library/lpc_chip_11cxx_lib/inc/clock_11xx.h **** 	SYSCTL_CLOCK_P0INT,					/*!< 23: GPIO GROUP1 interrupt register clock, LPC11Axx only */
 272:../lpc11cx4-library/lpc_chip_11cxx_lib/inc/clock_11xx.h **** 	SYSCTL_CLOCK_GROUP0INT = SYSCTL_CLOCK_P0INT,/*!< 23: GPIO GROUP0 interrupt register interface cloc
 273:../lpc11cx4-library/lpc_chip_11cxx_lib/inc/clock_11xx.h **** 	SYSCTL_CLOCK_P1INT,					/*!< 24: GPIO GROUP1 interrupt register clock, LPC11Axx only */
 274:../lpc11cx4-library/lpc_chip_11cxx_lib/inc/clock_11xx.h **** 	SYSCTL_CLOCK_GROUP1INT = SYSCTL_CLOCK_P1INT,/*!< 24: GPIO GROUP1 interrupt register interface cloc
 275:../lpc11cx4-library/lpc_chip_11cxx_lib/inc/clock_11xx.h **** 	SYSCTL_CLOCK_RESERVED25,			/*!< 25: Reserved */
 276:../lpc11cx4-library/lpc_chip_11cxx_lib/inc/clock_11xx.h **** #if defined(CHIP_LPC11EXX)  || defined(CHIP_LPC11UXX)
 277:../lpc11cx4-library/lpc_chip_11cxx_lib/inc/clock_11xx.h **** 	SYSCTL_CLOCK_RAM1,					/*!< 26: SRAM block (0x20000000) clock, LPC11E/Uxx only */
 278:../lpc11cx4-library/lpc_chip_11cxx_lib/inc/clock_11xx.h **** #else
 279:../lpc11cx4-library/lpc_chip_11cxx_lib/inc/clock_11xx.h **** 	SYSCTL_CLOCK_RESERVED26,			/*!< 26: Reserved */
 280:../lpc11cx4-library/lpc_chip_11cxx_lib/inc/clock_11xx.h **** #endif
 281:../lpc11cx4-library/lpc_chip_11cxx_lib/inc/clock_11xx.h **** #if defined(CHIP_LPC11UXX)
 282:../lpc11cx4-library/lpc_chip_11cxx_lib/inc/clock_11xx.h **** 	SYSCTL_CLOCK_USBRAM,				/*!< 27: USB SRAM block clock, LPC11Uxx only */
 283:../lpc11cx4-library/lpc_chip_11cxx_lib/inc/clock_11xx.h **** #else
 284:../lpc11cx4-library/lpc_chip_11cxx_lib/inc/clock_11xx.h **** 	SYSCTL_CLOCK_RESERVED27,			/*!< 27: Reserved */
 285:../lpc11cx4-library/lpc_chip_11cxx_lib/inc/clock_11xx.h **** #endif
 286:../lpc11cx4-library/lpc_chip_11cxx_lib/inc/clock_11xx.h **** #endif /* !defined(CHIP_LPC11CXX) */
 287:../lpc11cx4-library/lpc_chip_11cxx_lib/inc/clock_11xx.h **** #endif /* !(defined(CHIP_LPC110X) || defined(CHIP_LPC11XXLV)) */
 288:../lpc11cx4-library/lpc_chip_11cxx_lib/inc/clock_11xx.h **** } CHIP_SYSCTL_CLOCK_T;
 289:../lpc11cx4-library/lpc_chip_11cxx_lib/inc/clock_11xx.h **** 
 290:../lpc11cx4-library/lpc_chip_11cxx_lib/inc/clock_11xx.h **** /**
 291:../lpc11cx4-library/lpc_chip_11cxx_lib/inc/clock_11xx.h ****  * @brief	Enable a system or peripheral clock
 292:../lpc11cx4-library/lpc_chip_11cxx_lib/inc/clock_11xx.h ****  * @param	clk	: Clock to enable
 293:../lpc11cx4-library/lpc_chip_11cxx_lib/inc/clock_11xx.h ****  * @return	Nothing
 294:../lpc11cx4-library/lpc_chip_11cxx_lib/inc/clock_11xx.h ****  */
 295:../lpc11cx4-library/lpc_chip_11cxx_lib/inc/clock_11xx.h **** STATIC INLINE void Chip_Clock_EnablePeriphClock(CHIP_SYSCTL_CLOCK_T clk)
 296:../lpc11cx4-library/lpc_chip_11cxx_lib/inc/clock_11xx.h **** {
 297:../lpc11cx4-library/lpc_chip_11cxx_lib/inc/clock_11xx.h **** 	LPC_SYSCTL->SYSAHBCLKCTRL |= (1 << clk);
 298:../lpc11cx4-library/lpc_chip_11cxx_lib/inc/clock_11xx.h **** }
ARM GAS  /tmp/cc7TFFKb.s 			page 63


 299:../lpc11cx4-library/lpc_chip_11cxx_lib/inc/clock_11xx.h **** 
 300:../lpc11cx4-library/lpc_chip_11cxx_lib/inc/clock_11xx.h **** /**
 301:../lpc11cx4-library/lpc_chip_11cxx_lib/inc/clock_11xx.h ****  * @brief	Disable a system or peripheral clock
 302:../lpc11cx4-library/lpc_chip_11cxx_lib/inc/clock_11xx.h ****  * @param	clk	: Clock to disable
 303:../lpc11cx4-library/lpc_chip_11cxx_lib/inc/clock_11xx.h ****  * @return	Nothing
 304:../lpc11cx4-library/lpc_chip_11cxx_lib/inc/clock_11xx.h ****  */
 305:../lpc11cx4-library/lpc_chip_11cxx_lib/inc/clock_11xx.h **** STATIC INLINE void Chip_Clock_DisablePeriphClock(CHIP_SYSCTL_CLOCK_T clk)
 306:../lpc11cx4-library/lpc_chip_11cxx_lib/inc/clock_11xx.h **** {
 307:../lpc11cx4-library/lpc_chip_11cxx_lib/inc/clock_11xx.h **** 	LPC_SYSCTL->SYSAHBCLKCTRL &= ~(1 << clk);
 308:../lpc11cx4-library/lpc_chip_11cxx_lib/inc/clock_11xx.h **** }
 309:../lpc11cx4-library/lpc_chip_11cxx_lib/inc/clock_11xx.h **** 
 310:../lpc11cx4-library/lpc_chip_11cxx_lib/inc/clock_11xx.h **** /**
 311:../lpc11cx4-library/lpc_chip_11cxx_lib/inc/clock_11xx.h ****  * @brief	Set SSP0 divider
 312:../lpc11cx4-library/lpc_chip_11cxx_lib/inc/clock_11xx.h ****  * @param	div	: divider for SSP0 clock
 313:../lpc11cx4-library/lpc_chip_11cxx_lib/inc/clock_11xx.h ****  * @return	Nothing
 314:../lpc11cx4-library/lpc_chip_11cxx_lib/inc/clock_11xx.h ****  * @note	Use 0 to disable, or a divider value of 1 to 255. The SSP0 clock
 315:../lpc11cx4-library/lpc_chip_11cxx_lib/inc/clock_11xx.h ****  * rate is the main system clock divided by this value.
 316:../lpc11cx4-library/lpc_chip_11cxx_lib/inc/clock_11xx.h ****  */
 317:../lpc11cx4-library/lpc_chip_11cxx_lib/inc/clock_11xx.h **** STATIC INLINE void Chip_Clock_SetSSP0ClockDiv(uint32_t div)
 318:../lpc11cx4-library/lpc_chip_11cxx_lib/inc/clock_11xx.h **** {
 319:../lpc11cx4-library/lpc_chip_11cxx_lib/inc/clock_11xx.h **** 	LPC_SYSCTL->SSP0CLKDIV  = div;
 320:../lpc11cx4-library/lpc_chip_11cxx_lib/inc/clock_11xx.h **** }
 321:../lpc11cx4-library/lpc_chip_11cxx_lib/inc/clock_11xx.h **** 
 322:../lpc11cx4-library/lpc_chip_11cxx_lib/inc/clock_11xx.h **** /**
 323:../lpc11cx4-library/lpc_chip_11cxx_lib/inc/clock_11xx.h ****  * @brief	Return SSP0 divider
 324:../lpc11cx4-library/lpc_chip_11cxx_lib/inc/clock_11xx.h ****  * @return	divider for SSP0 clock
 325:../lpc11cx4-library/lpc_chip_11cxx_lib/inc/clock_11xx.h ****  * @note	A value of 0 means the clock is disabled.
 326:../lpc11cx4-library/lpc_chip_11cxx_lib/inc/clock_11xx.h ****  */
 327:../lpc11cx4-library/lpc_chip_11cxx_lib/inc/clock_11xx.h **** STATIC INLINE uint32_t Chip_Clock_GetSSP0ClockDiv(void)
 328:../lpc11cx4-library/lpc_chip_11cxx_lib/inc/clock_11xx.h **** {
 329:../lpc11cx4-library/lpc_chip_11cxx_lib/inc/clock_11xx.h **** 	return LPC_SYSCTL->SSP0CLKDIV;
 330:../lpc11cx4-library/lpc_chip_11cxx_lib/inc/clock_11xx.h **** }
 331:../lpc11cx4-library/lpc_chip_11cxx_lib/inc/clock_11xx.h **** 
 332:../lpc11cx4-library/lpc_chip_11cxx_lib/inc/clock_11xx.h **** /**
 333:../lpc11cx4-library/lpc_chip_11cxx_lib/inc/clock_11xx.h ****  * @brief	Set UART divider clock
 334:../lpc11cx4-library/lpc_chip_11cxx_lib/inc/clock_11xx.h ****  * @param	div	: divider for UART clock
 335:../lpc11cx4-library/lpc_chip_11cxx_lib/inc/clock_11xx.h ****  * @return	Nothing
 336:../lpc11cx4-library/lpc_chip_11cxx_lib/inc/clock_11xx.h ****  * @note	Use 0 to disable, or a divider value of 1 to 255. The UART clock
 337:../lpc11cx4-library/lpc_chip_11cxx_lib/inc/clock_11xx.h ****  * rate is the main system clock divided by this value.
 338:../lpc11cx4-library/lpc_chip_11cxx_lib/inc/clock_11xx.h ****  */
 339:../lpc11cx4-library/lpc_chip_11cxx_lib/inc/clock_11xx.h **** STATIC INLINE void Chip_Clock_SetUARTClockDiv(uint32_t div)
 340:../lpc11cx4-library/lpc_chip_11cxx_lib/inc/clock_11xx.h **** {
 341:../lpc11cx4-library/lpc_chip_11cxx_lib/inc/clock_11xx.h **** 	LPC_SYSCTL->USARTCLKDIV  = div;
 342:../lpc11cx4-library/lpc_chip_11cxx_lib/inc/clock_11xx.h **** }
 343:../lpc11cx4-library/lpc_chip_11cxx_lib/inc/clock_11xx.h **** 
 344:../lpc11cx4-library/lpc_chip_11cxx_lib/inc/clock_11xx.h **** /**
 345:../lpc11cx4-library/lpc_chip_11cxx_lib/inc/clock_11xx.h ****  * @brief	Return UART divider
 346:../lpc11cx4-library/lpc_chip_11cxx_lib/inc/clock_11xx.h ****  * @return	divider for UART clock
 347:../lpc11cx4-library/lpc_chip_11cxx_lib/inc/clock_11xx.h ****  * @note	A value of 0 means the clock is disabled.
 348:../lpc11cx4-library/lpc_chip_11cxx_lib/inc/clock_11xx.h ****  */
 349:../lpc11cx4-library/lpc_chip_11cxx_lib/inc/clock_11xx.h **** STATIC INLINE uint32_t Chip_Clock_GetUARTClockDiv(void)
 350:../lpc11cx4-library/lpc_chip_11cxx_lib/inc/clock_11xx.h **** {
 351:../lpc11cx4-library/lpc_chip_11cxx_lib/inc/clock_11xx.h **** 	return LPC_SYSCTL->USARTCLKDIV;
 352:../lpc11cx4-library/lpc_chip_11cxx_lib/inc/clock_11xx.h **** }
 353:../lpc11cx4-library/lpc_chip_11cxx_lib/inc/clock_11xx.h **** 
 354:../lpc11cx4-library/lpc_chip_11cxx_lib/inc/clock_11xx.h **** #if defined(CHIP_LPC11CXX) || defined(CHIP_LPC11EXX) || defined(CHIP_LPC11AXX) || defined(CHIP_LPC1
 355:../lpc11cx4-library/lpc_chip_11cxx_lib/inc/clock_11xx.h **** /**
ARM GAS  /tmp/cc7TFFKb.s 			page 64


 356:../lpc11cx4-library/lpc_chip_11cxx_lib/inc/clock_11xx.h ****  * @brief	Set SSP1 divider clock
 357:../lpc11cx4-library/lpc_chip_11cxx_lib/inc/clock_11xx.h ****  * @param	div	: divider for SSP1 clock
 358:../lpc11cx4-library/lpc_chip_11cxx_lib/inc/clock_11xx.h ****  * @return	Nothing
 359:../lpc11cx4-library/lpc_chip_11cxx_lib/inc/clock_11xx.h ****  * @note	Use 0 to disable, or a divider value of 1 to 255. The SSP1 clock
 360:../lpc11cx4-library/lpc_chip_11cxx_lib/inc/clock_11xx.h ****  * rate is the main system clock divided by this value.
 361:../lpc11cx4-library/lpc_chip_11cxx_lib/inc/clock_11xx.h ****  */
 362:../lpc11cx4-library/lpc_chip_11cxx_lib/inc/clock_11xx.h **** STATIC INLINE void Chip_Clock_SetSSP1ClockDiv(uint32_t div)
 363:../lpc11cx4-library/lpc_chip_11cxx_lib/inc/clock_11xx.h **** {
 364:../lpc11cx4-library/lpc_chip_11cxx_lib/inc/clock_11xx.h **** 	LPC_SYSCTL->SSP1CLKDIV  = div;
 365:../lpc11cx4-library/lpc_chip_11cxx_lib/inc/clock_11xx.h **** }
 366:../lpc11cx4-library/lpc_chip_11cxx_lib/inc/clock_11xx.h **** 
 367:../lpc11cx4-library/lpc_chip_11cxx_lib/inc/clock_11xx.h **** /**
 368:../lpc11cx4-library/lpc_chip_11cxx_lib/inc/clock_11xx.h ****  * @brief	Return SSP1 divider
 369:../lpc11cx4-library/lpc_chip_11cxx_lib/inc/clock_11xx.h ****  * @return	divider for SSP1 clock
 370:../lpc11cx4-library/lpc_chip_11cxx_lib/inc/clock_11xx.h ****  * @note	A value of 0 means the clock is disabled.
 371:../lpc11cx4-library/lpc_chip_11cxx_lib/inc/clock_11xx.h ****  */
 372:../lpc11cx4-library/lpc_chip_11cxx_lib/inc/clock_11xx.h **** STATIC INLINE uint32_t Chip_Clock_GetSSP1ClockDiv(void)
 373:../lpc11cx4-library/lpc_chip_11cxx_lib/inc/clock_11xx.h **** {
 374:../lpc11cx4-library/lpc_chip_11cxx_lib/inc/clock_11xx.h **** 	return LPC_SYSCTL->SSP1CLKDIV;
 2141              		.loc 3 374 0
 2142 0016 9C23     		mov	r3, #156	@ tmp133,
 2143 0018 1B4A     		ldr	r2, .L266+4	@ tmp132,
 2144 001a D158     		ldr	r1, [r2, r3]	@ D.6879,
 2145              	.LBE575:
 2146              	.LBE574:
 159:../lpc11cx4-library/lpc_chip_11cxx_lib/src/ssp_11xx.c **** 	}
 2147              		.loc 1 159 0
 2148 001c FFF7FEFF 		bl	__aeabi_uidiv	@
 2149              	.LVL157:
 2150 0020 8146     		mov	r9, r0	@ ssp_clk,
 2151              	.LVL158:
 2152              	.L257:
 2153              	.LBE573:
 2154              	.LBE572:
 460:../lpc11cx4-library/lpc_chip_11cxx_lib/src/ssp_11xx.c **** 	uint32_t ssp_clk, cr0_div, cmp_clk, prescale;
 461:../lpc11cx4-library/lpc_chip_11cxx_lib/src/ssp_11xx.c **** 
 462:../lpc11cx4-library/lpc_chip_11cxx_lib/src/ssp_11xx.c **** 	ssp_clk = Chip_SSP_GetPCLKkRate(pSSP);
 463:../lpc11cx4-library/lpc_chip_11cxx_lib/src/ssp_11xx.c **** 
 464:../lpc11cx4-library/lpc_chip_11cxx_lib/src/ssp_11xx.c **** 	cr0_div = 0;
 465:../lpc11cx4-library/lpc_chip_11cxx_lib/src/ssp_11xx.c **** 	cmp_clk = 0xFFFFFFFF;
 466:../lpc11cx4-library/lpc_chip_11cxx_lib/src/ssp_11xx.c **** 	prescale = 2;
 467:../lpc11cx4-library/lpc_chip_11cxx_lib/src/ssp_11xx.c **** 
 468:../lpc11cx4-library/lpc_chip_11cxx_lib/src/ssp_11xx.c **** 	while (cmp_clk > bitRate) {
 2155              		.loc 1 468 0
 2156 0022 4346     		mov	r3, r8	@ bitRate, bitRate
 2157 0024 0133     		add	r3, r3, #1	@ tmp147, bitRate,
 2158 0026 29D0     		beq	.L262	@,
 2159 0028 0226     		mov	r6, #2	@ prescale,
 2160 002a 0024     		mov	r4, #0	@ cr0_div,
 2161              	.LVL159:
 469:../lpc11cx4-library/lpc_chip_11cxx_lib/src/ssp_11xx.c **** 		cmp_clk = ssp_clk / ((cr0_div + 1) * prescale);
 2162              		.loc 1 469 0
 2163 002c 311C     		mov	r1, r6	@ D.6878, prescale
 2164 002e 651C     		add	r5, r4, #1	@ cr0_div, cr0_div,
 2165              	.LVL160:
 2166 0030 6943     		mul	r1, r5	@ D.6878, cr0_div
 2167 0032 4846     		mov	r0, r9	@, ssp_clk
ARM GAS  /tmp/cc7TFFKb.s 			page 65


 2168 0034 FFF7FEFF 		bl	__aeabi_uidiv	@
 2169              	.LVL161:
 470:../lpc11cx4-library/lpc_chip_11cxx_lib/src/ssp_11xx.c **** 		if (cmp_clk > bitRate) {
 2170              		.loc 1 470 0
 2171 0038 8045     		cmp	r8, r0	@ bitRate, cmp_clk
 2172 003a 0CD2     		bcs	.L259	@,
 2173              	.LVL162:
 2174              	.L265:
 471:../lpc11cx4-library/lpc_chip_11cxx_lib/src/ssp_11xx.c **** 			cr0_div++;
 472:../lpc11cx4-library/lpc_chip_11cxx_lib/src/ssp_11xx.c **** 			if (cr0_div > 0xFF) {
 2175              		.loc 1 472 0
 2176 003c FF2D     		cmp	r5, #255	@ cr0_div,
 2177 003e 01D9     		bls	.L260	@,
 2178              	.LVL163:
 473:../lpc11cx4-library/lpc_chip_11cxx_lib/src/ssp_11xx.c **** 				cr0_div = 0;
 2179              		.loc 1 473 0
 2180 0040 0025     		mov	r5, #0	@ cr0_div,
 474:../lpc11cx4-library/lpc_chip_11cxx_lib/src/ssp_11xx.c **** 				prescale += 2;
 2181              		.loc 1 474 0
 2182 0042 0236     		add	r6, r6, #2	@ prescale,
 2183              	.LVL164:
 2184              	.L260:
 468:../lpc11cx4-library/lpc_chip_11cxx_lib/src/ssp_11xx.c **** 		cmp_clk = ssp_clk / ((cr0_div + 1) * prescale);
 2185              		.loc 1 468 0
 2186 0044 2C1C     		mov	r4, r5	@ cr0_div, cr0_div
 2187              	.LVL165:
 469:../lpc11cx4-library/lpc_chip_11cxx_lib/src/ssp_11xx.c **** 		if (cmp_clk > bitRate) {
 2188              		.loc 1 469 0
 2189 0046 311C     		mov	r1, r6	@ D.6878, prescale
 2190 0048 651C     		add	r5, r4, #1	@ cr0_div, cr0_div,
 2191              	.LVL166:
 2192 004a 6943     		mul	r1, r5	@ D.6878, cr0_div
 2193 004c 4846     		mov	r0, r9	@, ssp_clk
 2194 004e FFF7FEFF 		bl	__aeabi_uidiv	@
 2195              	.LVL167:
 470:../lpc11cx4-library/lpc_chip_11cxx_lib/src/ssp_11xx.c **** 			cr0_div++;
 2196              		.loc 1 470 0
 2197 0052 8045     		cmp	r8, r0	@ bitRate, cmp_clk
 2198 0054 F2D3     		bcc	.L265	@,
 2199              	.LVL168:
 2200              	.L259:
 2201 0056 2406     		lsl	r4, r4, #24	@ tmp145, cr0_div,
 2202              	.LVL169:
 2203 0058 240C     		lsr	r4, r4, #16	@ D.6878, tmp145,
 2204              	.LVL170:
 2205              	.L258:
 2206              	.LBB579:
 2207              	.LBB580:
 174:../lpc11cx4-library/lpc_chip_11cxx_lib/src/ssp_11xx.c **** 	pSSP->CR0 = temp | (SSP_CR0_SCR(clk_rate));
 2208              		.loc 1 174 0
 2209 005a 3A68     		ldr	r2, [r7]	@ D.6878, pSSP_5(D)->CR0
 2210              	.LVL171:
 2211 005c 0B4B     		ldr	r3, .L266+8	@ tmp143,
 2212              	.LBE580:
 2213              	.LBE579:
 475:../lpc11cx4-library/lpc_chip_11cxx_lib/src/ssp_11xx.c **** 			}
 476:../lpc11cx4-library/lpc_chip_11cxx_lib/src/ssp_11xx.c **** 		}
ARM GAS  /tmp/cc7TFFKb.s 			page 66


 477:../lpc11cx4-library/lpc_chip_11cxx_lib/src/ssp_11xx.c **** 	}
 478:../lpc11cx4-library/lpc_chip_11cxx_lib/src/ssp_11xx.c **** 
 479:../lpc11cx4-library/lpc_chip_11cxx_lib/src/ssp_11xx.c **** 	Chip_SSP_SetClockRate(pSSP, cr0_div, prescale);
 480:../lpc11cx4-library/lpc_chip_11cxx_lib/src/ssp_11xx.c **** }
 2214              		.loc 1 480 0
 2215              		@ sp needed	@
 2216              	.LBB582:
 2217              	.LBB581:
 174:../lpc11cx4-library/lpc_chip_11cxx_lib/src/ssp_11xx.c **** 	pSSP->CR0 = temp | (SSP_CR0_SCR(clk_rate));
 2218              		.loc 1 174 0
 2219 005e 1340     		and	r3, r2	@ temp, D.6878
 2220              	.LVL172:
 175:../lpc11cx4-library/lpc_chip_11cxx_lib/src/ssp_11xx.c **** 	pSSP->CPSR = prescale;
 2221              		.loc 1 175 0
 2222 0060 1C43     		orr	r4, r3	@ D.6878, temp
 2223 0062 3C60     		str	r4, [r7]	@ D.6878, pSSP_5(D)->CR0
 176:../lpc11cx4-library/lpc_chip_11cxx_lib/src/ssp_11xx.c **** }
 2224              		.loc 1 176 0
 2225 0064 3E61     		str	r6, [r7, #16]	@ prescale, pSSP_5(D)->CPSR
 2226              	.LVL173:
 2227              	.LVL174:
 2228              	.LVL175:
 2229              	.LVL176:
 2230              	.LBE581:
 2231              	.LBE582:
 2232              		.loc 1 480 0
 2233 0066 0CBC     		pop	{r2, r3}
 2234 0068 9046     		mov	r8, r2
 2235 006a 9946     		mov	r9, r3
 2236 006c F8BD     		pop	{r3, r4, r5, r6, r7, pc}
 2237              	.LVL177:
 2238              	.L264:
 2239              	.LBB583:
 2240              	.LBB578:
 2241              	.LBB576:
 2242              	.LBB577:
 329:../lpc11cx4-library/lpc_chip_11cxx_lib/inc/clock_11xx.h **** }
 2243              		.loc 3 329 0
 2244 006e 9423     		mov	r3, #148	@ tmp128,
 2245 0070 054A     		ldr	r2, .L266+4	@ tmp127,
 2246 0072 D158     		ldr	r1, [r2, r3]	@ D.6879,
 2247              	.LBE577:
 2248              	.LBE576:
 155:../lpc11cx4-library/lpc_chip_11cxx_lib/src/ssp_11xx.c **** 	}
 2249              		.loc 1 155 0
 2250 0074 FFF7FEFF 		bl	__aeabi_uidiv	@
 2251              	.LVL178:
 2252 0078 8146     		mov	r9, r0	@ ssp_clk,
 2253              	.LVL179:
 2254 007a D2E7     		b	.L257	@
 2255              	.LVL180:
 2256              	.L262:
 2257              	.LBE578:
 2258              	.LBE583:
 468:../lpc11cx4-library/lpc_chip_11cxx_lib/src/ssp_11xx.c **** 		cmp_clk = ssp_clk / ((cr0_div + 1) * prescale);
 2259              		.loc 1 468 0
 2260 007c 0024     		mov	r4, #0	@ D.6878,
ARM GAS  /tmp/cc7TFFKb.s 			page 67


 466:../lpc11cx4-library/lpc_chip_11cxx_lib/src/ssp_11xx.c **** 
 2261              		.loc 1 466 0
 2262 007e 0226     		mov	r6, #2	@ prescale,
 2263 0080 EBE7     		b	.L258	@
 2264              	.L267:
 2265 0082 C046     		.align	2
 2266              	.L266:
 2267 0084 00000440 		.word	1074003968
 2268 0088 00800440 		.word	1074036736
 2269 008c FF00FFFF 		.word	-65281
 2270              		.cfi_endproc
 2271              	.LFE214:
 2272              		.size	Chip_SSP_SetBitRate, .-Chip_SSP_SetBitRate
 2273              		.section	.text.Chip_SSP_Init,"ax",%progbits
 2274              		.align	2
 2275              		.global	Chip_SSP_Init
 2276              		.code	16
 2277              		.thumb_func
 2278              		.type	Chip_SSP_Init, %function
 2279              	Chip_SSP_Init:
 2280              	.LFB215:
 481:../lpc11cx4-library/lpc_chip_11cxx_lib/src/ssp_11xx.c **** 
 482:../lpc11cx4-library/lpc_chip_11cxx_lib/src/ssp_11xx.c **** /* Initialize the SSP */
 483:../lpc11cx4-library/lpc_chip_11cxx_lib/src/ssp_11xx.c **** void Chip_SSP_Init(LPC_SSP_T *pSSP)
 484:../lpc11cx4-library/lpc_chip_11cxx_lib/src/ssp_11xx.c **** {
 2281              		.loc 1 484 0
 2282              		.cfi_startproc
 2283              	.LVL181:
 2284              	.LBB584:
 2285              	.LBB585:
 109:../lpc11cx4-library/lpc_chip_11cxx_lib/src/ssp_11xx.c **** 		clkSSP = SYSCTL_CLOCK_SSP0;
 2286              		.loc 1 109 0
 2287 0000 184B     		ldr	r3, .L276	@ tmp126,
 2288              	.LBE585:
 2289              	.LBE584:
 2290              		.loc 1 484 0
 2291 0002 10B5     		push	{r4, lr}	@
 2292              		.cfi_def_cfa_offset 8
 2293              		.cfi_offset 4, -8
 2294              		.cfi_offset 14, -4
 2295              	.LBB587:
 2296              	.LBB586:
 109:../lpc11cx4-library/lpc_chip_11cxx_lib/src/ssp_11xx.c **** 		clkSSP = SYSCTL_CLOCK_SSP0;
 2297              		.loc 1 109 0
 2298 0004 9842     		cmp	r0, r3	@ pSSP, tmp126
 2299 0006 20D0     		beq	.L275	@,
 2300              	.LVL182:
 2301              	.LBE586:
 2302              	.LBE587:
 2303              	.LBB588:
 2304              	.LBB589:
 297:../lpc11cx4-library/lpc_chip_11cxx_lib/inc/clock_11xx.h **** }
 2305              		.loc 3 297 0
 2306 0008 8021     		mov	r1, #128	@ tmp145,
 2307 000a 8024     		mov	r4, #128	@ tmp146,
 2308 000c 164B     		ldr	r3, .L276+4	@ tmp144,
 2309 000e E402     		lsl	r4, r4, #11	@ tmp146, tmp146,
ARM GAS  /tmp/cc7TFFKb.s 			page 68


 2310 0010 5A58     		ldr	r2, [r3, r1]	@ D.6882, MEM[(struct LPC_SYSCTL_T *)1074036736B].SYSAHBCLKCTRL
 2311 0012 2243     		orr	r2, r4	@ D.6882, tmp146
 2312 0014 5A50     		str	r2, [r3, r1]	@ D.6882, MEM[(struct LPC_SYSCTL_T *)1074036736B].SYSAHBCLKCTRL
 2313              	.LVL183:
 2314              	.LBE589:
 2315              	.LBE588:
 2316              	.LBB591:
 2317              	.LBB592:
 2318              	.LBB593:
 364:../lpc11cx4-library/lpc_chip_11cxx_lib/inc/clock_11xx.h **** }
 2319              		.loc 3 364 0
 2320 0016 9C22     		mov	r2, #156	@ tmp150,
 2321 0018 7F39     		sub	r1, r1, #127	@ tmp151,
 2322 001a 9950     		str	r1, [r3, r2]	@ tmp151, MEM[(struct LPC_SYSCTL_T *)1074036736B].SSP1CLKDIV
 2323              	.LVL184:
 2324 001c 0331     		add	r1, r1, #3	@ D.6882,
 2325 001e A13A     		sub	r2, r2, #161	@ D.6882,
 2326              	.LVL185:
 2327              	.L271:
 2328              	.LBE593:
 2329              	.LBE592:
 2330              	.LBE591:
 2331              	.LBB596:
 2332              	.LBB597:
 2333              	.LBB598:
 2334              		.file 4 "../lpc11cx4-library/lpc_chip_11cxx_lib/inc/sysctl_11xx.h"
   1:../lpc11cx4-library/lpc_chip_11cxx_lib/inc/sysctl_11xx.h **** /*
   2:../lpc11cx4-library/lpc_chip_11cxx_lib/inc/sysctl_11xx.h ****  * @brief LPC11XX System Control registers and control functions
   3:../lpc11cx4-library/lpc_chip_11cxx_lib/inc/sysctl_11xx.h ****  *
   4:../lpc11cx4-library/lpc_chip_11cxx_lib/inc/sysctl_11xx.h ****  * @note
   5:../lpc11cx4-library/lpc_chip_11cxx_lib/inc/sysctl_11xx.h ****  * Copyright(C) NXP Semiconductors, 2012
   6:../lpc11cx4-library/lpc_chip_11cxx_lib/inc/sysctl_11xx.h ****  * All rights reserved.
   7:../lpc11cx4-library/lpc_chip_11cxx_lib/inc/sysctl_11xx.h ****  *
   8:../lpc11cx4-library/lpc_chip_11cxx_lib/inc/sysctl_11xx.h ****  * @par
   9:../lpc11cx4-library/lpc_chip_11cxx_lib/inc/sysctl_11xx.h ****  * Software that is described herein is for illustrative purposes only
  10:../lpc11cx4-library/lpc_chip_11cxx_lib/inc/sysctl_11xx.h ****  * which provides customers with programming information regarding the
  11:../lpc11cx4-library/lpc_chip_11cxx_lib/inc/sysctl_11xx.h ****  * LPC products.  This software is supplied "AS IS" without any warranties of
  12:../lpc11cx4-library/lpc_chip_11cxx_lib/inc/sysctl_11xx.h ****  * any kind, and NXP Semiconductors and its licensor disclaim any and
  13:../lpc11cx4-library/lpc_chip_11cxx_lib/inc/sysctl_11xx.h ****  * all warranties, express or implied, including all implied warranties of
  14:../lpc11cx4-library/lpc_chip_11cxx_lib/inc/sysctl_11xx.h ****  * merchantability, fitness for a particular purpose and non-infringement of
  15:../lpc11cx4-library/lpc_chip_11cxx_lib/inc/sysctl_11xx.h ****  * intellectual property rights.  NXP Semiconductors assumes no responsibility
  16:../lpc11cx4-library/lpc_chip_11cxx_lib/inc/sysctl_11xx.h ****  * or liability for the use of the software, conveys no license or rights under any
  17:../lpc11cx4-library/lpc_chip_11cxx_lib/inc/sysctl_11xx.h ****  * patent, copyright, mask work right, or any other intellectual property rights in
  18:../lpc11cx4-library/lpc_chip_11cxx_lib/inc/sysctl_11xx.h ****  * or to any products. NXP Semiconductors reserves the right to make changes
  19:../lpc11cx4-library/lpc_chip_11cxx_lib/inc/sysctl_11xx.h ****  * in the software without notification. NXP Semiconductors also makes no
  20:../lpc11cx4-library/lpc_chip_11cxx_lib/inc/sysctl_11xx.h ****  * representation or warranty that such application will be suitable for the
  21:../lpc11cx4-library/lpc_chip_11cxx_lib/inc/sysctl_11xx.h ****  * specified use without further testing or modification.
  22:../lpc11cx4-library/lpc_chip_11cxx_lib/inc/sysctl_11xx.h ****  *
  23:../lpc11cx4-library/lpc_chip_11cxx_lib/inc/sysctl_11xx.h ****  * @par
  24:../lpc11cx4-library/lpc_chip_11cxx_lib/inc/sysctl_11xx.h ****  * Permission to use, copy, modify, and distribute this software and its
  25:../lpc11cx4-library/lpc_chip_11cxx_lib/inc/sysctl_11xx.h ****  * documentation is hereby granted, under NXP Semiconductors' and its
  26:../lpc11cx4-library/lpc_chip_11cxx_lib/inc/sysctl_11xx.h ****  * licensor's relevant copyrights in the software, without fee, provided that it
  27:../lpc11cx4-library/lpc_chip_11cxx_lib/inc/sysctl_11xx.h ****  * is used in conjunction with NXP Semiconductors microcontrollers.  This
  28:../lpc11cx4-library/lpc_chip_11cxx_lib/inc/sysctl_11xx.h ****  * copyright, permission, and disclaimer notice must appear in all copies of
  29:../lpc11cx4-library/lpc_chip_11cxx_lib/inc/sysctl_11xx.h ****  * this code.
  30:../lpc11cx4-library/lpc_chip_11cxx_lib/inc/sysctl_11xx.h ****  */
  31:../lpc11cx4-library/lpc_chip_11cxx_lib/inc/sysctl_11xx.h **** 
ARM GAS  /tmp/cc7TFFKb.s 			page 69


  32:../lpc11cx4-library/lpc_chip_11cxx_lib/inc/sysctl_11xx.h **** #ifndef __SYSCTL_11XX_H_
  33:../lpc11cx4-library/lpc_chip_11cxx_lib/inc/sysctl_11xx.h **** #define __SYSCTL_11XX_H_
  34:../lpc11cx4-library/lpc_chip_11cxx_lib/inc/sysctl_11xx.h **** 
  35:../lpc11cx4-library/lpc_chip_11cxx_lib/inc/sysctl_11xx.h **** #ifdef __cplusplus
  36:../lpc11cx4-library/lpc_chip_11cxx_lib/inc/sysctl_11xx.h **** extern "C" {
  37:../lpc11cx4-library/lpc_chip_11cxx_lib/inc/sysctl_11xx.h **** #endif
  38:../lpc11cx4-library/lpc_chip_11cxx_lib/inc/sysctl_11xx.h **** 
  39:../lpc11cx4-library/lpc_chip_11cxx_lib/inc/sysctl_11xx.h **** /** @defgroup SYSCTL_11XX CHIP: LPC11xx System Control block driver
  40:../lpc11cx4-library/lpc_chip_11cxx_lib/inc/sysctl_11xx.h ****  * @ingroup CHIP_11XX_Drivers
  41:../lpc11cx4-library/lpc_chip_11cxx_lib/inc/sysctl_11xx.h ****  * @{
  42:../lpc11cx4-library/lpc_chip_11cxx_lib/inc/sysctl_11xx.h ****  */
  43:../lpc11cx4-library/lpc_chip_11cxx_lib/inc/sysctl_11xx.h **** 
  44:../lpc11cx4-library/lpc_chip_11cxx_lib/inc/sysctl_11xx.h **** /**
  45:../lpc11cx4-library/lpc_chip_11cxx_lib/inc/sysctl_11xx.h ****  * @brief LPC11XX System Control block structure
  46:../lpc11cx4-library/lpc_chip_11cxx_lib/inc/sysctl_11xx.h ****  */
  47:../lpc11cx4-library/lpc_chip_11cxx_lib/inc/sysctl_11xx.h **** typedef struct {			/*!< SYSCTL Structure */
  48:../lpc11cx4-library/lpc_chip_11cxx_lib/inc/sysctl_11xx.h **** 	__IO uint32_t  SYSMEMREMAP;		/*!< System Memory remap register */
  49:../lpc11cx4-library/lpc_chip_11cxx_lib/inc/sysctl_11xx.h **** 	__IO uint32_t  PRESETCTRL;		/*!< Peripheral reset Control register */
  50:../lpc11cx4-library/lpc_chip_11cxx_lib/inc/sysctl_11xx.h **** 	__IO uint32_t  SYSPLLCTRL;		/*!< System PLL control register */
  51:../lpc11cx4-library/lpc_chip_11cxx_lib/inc/sysctl_11xx.h **** 	__I  uint32_t  SYSPLLSTAT;		/*!< System PLL status register */
  52:../lpc11cx4-library/lpc_chip_11cxx_lib/inc/sysctl_11xx.h **** 	__IO uint32_t  USBPLLCTRL;		/*!< USB PLL control register, LPC11UXX only*/
  53:../lpc11cx4-library/lpc_chip_11cxx_lib/inc/sysctl_11xx.h **** 	__I  uint32_t  USBPLLSTAT;		/*!< USB PLL status register, LPC11UXX only */
  54:../lpc11cx4-library/lpc_chip_11cxx_lib/inc/sysctl_11xx.h **** 	__I  uint32_t  RESERVED1[2];
  55:../lpc11cx4-library/lpc_chip_11cxx_lib/inc/sysctl_11xx.h **** 	__IO uint32_t  SYSOSCCTRL;		/*!< System Oscillator control register */
  56:../lpc11cx4-library/lpc_chip_11cxx_lib/inc/sysctl_11xx.h **** 	__IO uint32_t  WDTOSCCTRL;		/*!< Watchdog Oscillator control register */
  57:../lpc11cx4-library/lpc_chip_11cxx_lib/inc/sysctl_11xx.h **** 	__IO uint32_t  IRCCTRL;			/*!< IRC control register, not on LPC11UXX and LPC11EXX */
  58:../lpc11cx4-library/lpc_chip_11cxx_lib/inc/sysctl_11xx.h **** 	__IO uint32_t  LFOSCCTRL;		/*!< LF oscillator control, LPC11AXX only */
  59:../lpc11cx4-library/lpc_chip_11cxx_lib/inc/sysctl_11xx.h **** 	__IO uint32_t  SYSRSTSTAT;		/*!< System Reset Status register           */
  60:../lpc11cx4-library/lpc_chip_11cxx_lib/inc/sysctl_11xx.h **** 	__I  uint32_t  RESERVED2[3];
  61:../lpc11cx4-library/lpc_chip_11cxx_lib/inc/sysctl_11xx.h **** 	__IO uint32_t  SYSPLLCLKSEL;	/*!< System PLL clock source select register */
  62:../lpc11cx4-library/lpc_chip_11cxx_lib/inc/sysctl_11xx.h **** 	__IO uint32_t  SYSPLLCLKUEN;	/*!< System PLL clock source update enable register*/
  63:../lpc11cx4-library/lpc_chip_11cxx_lib/inc/sysctl_11xx.h **** 	__IO uint32_t  USBPLLCLKSEL;	/*!< USB PLL clock source select register, LPC11UXX only */
  64:../lpc11cx4-library/lpc_chip_11cxx_lib/inc/sysctl_11xx.h **** 	__IO uint32_t  USBPLLCLKUEN;	/*!< USB PLL clock source update enable register, LPC11UXX only */
  65:../lpc11cx4-library/lpc_chip_11cxx_lib/inc/sysctl_11xx.h **** 	__I  uint32_t  RESERVED3[8];
  66:../lpc11cx4-library/lpc_chip_11cxx_lib/inc/sysctl_11xx.h **** 	__IO uint32_t  MAINCLKSEL;	/*!< Main clock source select register		*/
  67:../lpc11cx4-library/lpc_chip_11cxx_lib/inc/sysctl_11xx.h **** 	__IO uint32_t  MAINCLKUEN;	/*!< Main clock source update enable register	*/
  68:../lpc11cx4-library/lpc_chip_11cxx_lib/inc/sysctl_11xx.h **** 	__IO uint32_t  SYSAHBCLKDIV;	/*!< System Clock divider register */
  69:../lpc11cx4-library/lpc_chip_11cxx_lib/inc/sysctl_11xx.h **** 	__I  uint32_t  RESERVED4;
  70:../lpc11cx4-library/lpc_chip_11cxx_lib/inc/sysctl_11xx.h **** 	__IO uint32_t  SYSAHBCLKCTRL;	/*!< System clock control register */
  71:../lpc11cx4-library/lpc_chip_11cxx_lib/inc/sysctl_11xx.h **** 	__I  uint32_t  RESERVED5[4];
  72:../lpc11cx4-library/lpc_chip_11cxx_lib/inc/sysctl_11xx.h **** 	__IO uint32_t  SSP0CLKDIV;	/*!< SSP0 clock divider register   */
  73:../lpc11cx4-library/lpc_chip_11cxx_lib/inc/sysctl_11xx.h **** 	__IO uint32_t  USARTCLKDIV;	/*!< UART clock divider register   */
  74:../lpc11cx4-library/lpc_chip_11cxx_lib/inc/sysctl_11xx.h **** 	__IO uint32_t  SSP1CLKDIV;	/*!< SSP1 clock divider register, not on CHIP_LPC110X, CHIP_LPC11XXLV *
  75:../lpc11cx4-library/lpc_chip_11cxx_lib/inc/sysctl_11xx.h **** 	__I  uint32_t  RESERVED6[8];
  76:../lpc11cx4-library/lpc_chip_11cxx_lib/inc/sysctl_11xx.h **** 	__IO uint32_t  USBCLKSEL;	/*!< USB clock source select register, LPC11UXX only */
  77:../lpc11cx4-library/lpc_chip_11cxx_lib/inc/sysctl_11xx.h **** 	__IO uint32_t  USBCLKUEN;	/*!< USB clock source update enable register, LPC11UXX only */
  78:../lpc11cx4-library/lpc_chip_11cxx_lib/inc/sysctl_11xx.h **** 	__IO uint32_t  USBCLKDIV;	/*!< USB clock source divider register, LPC11UXX only */
  79:../lpc11cx4-library/lpc_chip_11cxx_lib/inc/sysctl_11xx.h **** 	__I  uint32_t  RESERVED7;
  80:../lpc11cx4-library/lpc_chip_11cxx_lib/inc/sysctl_11xx.h **** 	__IO uint32_t  WDTCLKSEL;	/*!< WDT clock source select register, some parts only */
  81:../lpc11cx4-library/lpc_chip_11cxx_lib/inc/sysctl_11xx.h **** 	__IO uint32_t  WDTCLKUEN;	/*!< WDT clock source update enable register, some parts only */
  82:../lpc11cx4-library/lpc_chip_11cxx_lib/inc/sysctl_11xx.h **** 	__IO uint32_t  WDTCLKDIV;	/*!< WDT clock divider register, some parts only */
  83:../lpc11cx4-library/lpc_chip_11cxx_lib/inc/sysctl_11xx.h **** 	__I  uint32_t  RESERVED8;
  84:../lpc11cx4-library/lpc_chip_11cxx_lib/inc/sysctl_11xx.h **** 	__IO uint32_t  CLKOUTSEL;	/*!< Clock out source select register, not on LPC1102/04 */
  85:../lpc11cx4-library/lpc_chip_11cxx_lib/inc/sysctl_11xx.h **** 	__IO uint32_t  CLKOUTUEN;	/*!< Clock out source update enable register, not on LPC1102/04 */
  86:../lpc11cx4-library/lpc_chip_11cxx_lib/inc/sysctl_11xx.h **** 	__IO uint32_t  CLKOUTDIV;	/*!< Clock out divider register, not on LPC1102/04 */
  87:../lpc11cx4-library/lpc_chip_11cxx_lib/inc/sysctl_11xx.h **** 	__I  uint32_t  RESERVED9[5];
  88:../lpc11cx4-library/lpc_chip_11cxx_lib/inc/sysctl_11xx.h **** 	__I  uint32_t  PIOPORCAP[2];/*!< POR captured PIO status registers, index 1 on LPC1102/04 */
ARM GAS  /tmp/cc7TFFKb.s 			page 70


  89:../lpc11cx4-library/lpc_chip_11cxx_lib/inc/sysctl_11xx.h **** 	__I  uint32_t  RESERVED10[18];
  90:../lpc11cx4-library/lpc_chip_11cxx_lib/inc/sysctl_11xx.h **** 	__IO uint32_t  BODCTRL;		/*!< Brown Out Detect register */
  91:../lpc11cx4-library/lpc_chip_11cxx_lib/inc/sysctl_11xx.h **** 	__IO uint32_t  SYSTCKCAL;	/*!< System tick counter calibration register */
  92:../lpc11cx4-library/lpc_chip_11cxx_lib/inc/sysctl_11xx.h **** 	__I  uint32_t  RESERVED11[6];
  93:../lpc11cx4-library/lpc_chip_11cxx_lib/inc/sysctl_11xx.h **** 	__IO uint32_t  IRQLATENCY;	/*!< IRQ delay register, on LPC11UXX and LPC11EXX only */
  94:../lpc11cx4-library/lpc_chip_11cxx_lib/inc/sysctl_11xx.h **** 	__IO uint32_t  NMISRC;		/*!< NMI source control register,some parts only */
  95:../lpc11cx4-library/lpc_chip_11cxx_lib/inc/sysctl_11xx.h **** 	__IO uint32_t  PINTSEL[8];	/*!< GPIO pin interrupt select register 0-7, not on CHIP_LPC110X, CHIP_
  96:../lpc11cx4-library/lpc_chip_11cxx_lib/inc/sysctl_11xx.h **** 	__IO uint32_t  USBCLKCTRL;	/*!< USB clock control register, LPC11UXX only */
  97:../lpc11cx4-library/lpc_chip_11cxx_lib/inc/sysctl_11xx.h **** 	__I  uint32_t  USBCLKST;	/*!< USB clock status register, LPC11UXX only */
  98:../lpc11cx4-library/lpc_chip_11cxx_lib/inc/sysctl_11xx.h **** 	__I  uint32_t  RESERVED12[24];
  99:../lpc11cx4-library/lpc_chip_11cxx_lib/inc/sysctl_11xx.h **** 	__IO uint32_t  STARTAPRP0;	/*!< Start loigc 0 interrupt wake up enable register 0, on CHIP_LPC110X
 100:../lpc11cx4-library/lpc_chip_11cxx_lib/inc/sysctl_11xx.h **** 	__IO uint32_t  STARTERP0;	/*!< Start loigc signal enable register 0, not on LPC11AXX */
 101:../lpc11cx4-library/lpc_chip_11cxx_lib/inc/sysctl_11xx.h **** 	__IO uint32_t  STARTRSRP0CLR;	/*!< Start loigc reset register 0, on CHIP_LPC110X, CHIP_LPC11XXLV, 
 102:../lpc11cx4-library/lpc_chip_11cxx_lib/inc/sysctl_11xx.h **** 	__IO uint32_t  STARTSRP0;		/*!< Start loigc status register 0, on CHIP_LPC110X, CHIP_LPC11XXLV, CH
 103:../lpc11cx4-library/lpc_chip_11cxx_lib/inc/sysctl_11xx.h **** 	__I  uint32_t  RESERVED13;
 104:../lpc11cx4-library/lpc_chip_11cxx_lib/inc/sysctl_11xx.h **** 	__IO uint32_t  STARTERP1;	/*!< Start logic 1 interrupt wake up enable register 1, on LPC11UXX and 
 105:../lpc11cx4-library/lpc_chip_11cxx_lib/inc/sysctl_11xx.h **** 	__I  uint32_t  RESERVED14[6];
 106:../lpc11cx4-library/lpc_chip_11cxx_lib/inc/sysctl_11xx.h **** 	__IO uint32_t  PDSLEEPCFG;	/*!< Power down states in deep sleep mode register, not on LPC11AXX */
 107:../lpc11cx4-library/lpc_chip_11cxx_lib/inc/sysctl_11xx.h **** 	__IO uint32_t  PDWAKECFG;	/*!< Power down states in wake up from deep sleep register, not on LPC11
 108:../lpc11cx4-library/lpc_chip_11cxx_lib/inc/sysctl_11xx.h **** 	__IO uint32_t  PDRUNCFG;	/*!< Power configuration register*/
 109:../lpc11cx4-library/lpc_chip_11cxx_lib/inc/sysctl_11xx.h **** 	__I  uint32_t  RESERVED15[110];
 110:../lpc11cx4-library/lpc_chip_11cxx_lib/inc/sysctl_11xx.h **** 	__I  uint32_t  DEVICEID;	/*!< Device ID register */
 111:../lpc11cx4-library/lpc_chip_11cxx_lib/inc/sysctl_11xx.h **** } LPC_SYSCTL_T;
 112:../lpc11cx4-library/lpc_chip_11cxx_lib/inc/sysctl_11xx.h **** 
 113:../lpc11cx4-library/lpc_chip_11cxx_lib/inc/sysctl_11xx.h **** /**
 114:../lpc11cx4-library/lpc_chip_11cxx_lib/inc/sysctl_11xx.h ****  * System memory remap modes used to remap interrupt vectors
 115:../lpc11cx4-library/lpc_chip_11cxx_lib/inc/sysctl_11xx.h ****  */
 116:../lpc11cx4-library/lpc_chip_11cxx_lib/inc/sysctl_11xx.h **** typedef enum CHIP_SYSCTL_BOOT_MODE_REMAP {
 117:../lpc11cx4-library/lpc_chip_11cxx_lib/inc/sysctl_11xx.h **** 	REMAP_BOOT_LOADER_MODE,	/*!< Interrupt vectors are re-mapped to Boot ROM */
 118:../lpc11cx4-library/lpc_chip_11cxx_lib/inc/sysctl_11xx.h **** 	REMAP_USER_RAM_MODE,	/*!< Interrupt vectors are re-mapped to Static RAM */
 119:../lpc11cx4-library/lpc_chip_11cxx_lib/inc/sysctl_11xx.h **** 	REMAP_USER_FLASH_MODE	/*!< Interrupt vectors are not re-mapped and reside in Flash */
 120:../lpc11cx4-library/lpc_chip_11cxx_lib/inc/sysctl_11xx.h **** } CHIP_SYSCTL_BOOT_MODE_REMAP_T;
 121:../lpc11cx4-library/lpc_chip_11cxx_lib/inc/sysctl_11xx.h **** 
 122:../lpc11cx4-library/lpc_chip_11cxx_lib/inc/sysctl_11xx.h **** /**
 123:../lpc11cx4-library/lpc_chip_11cxx_lib/inc/sysctl_11xx.h ****  * @brief	Re-map interrupt vectors
 124:../lpc11cx4-library/lpc_chip_11cxx_lib/inc/sysctl_11xx.h ****  * @param	remap	: system memory map value
 125:../lpc11cx4-library/lpc_chip_11cxx_lib/inc/sysctl_11xx.h ****  * @return	Nothing
 126:../lpc11cx4-library/lpc_chip_11cxx_lib/inc/sysctl_11xx.h ****  */
 127:../lpc11cx4-library/lpc_chip_11cxx_lib/inc/sysctl_11xx.h **** STATIC INLINE void Chip_SYSCTL_Map(CHIP_SYSCTL_BOOT_MODE_REMAP_T remap)
 128:../lpc11cx4-library/lpc_chip_11cxx_lib/inc/sysctl_11xx.h **** {
 129:../lpc11cx4-library/lpc_chip_11cxx_lib/inc/sysctl_11xx.h **** 	LPC_SYSCTL->SYSMEMREMAP = (uint32_t) remap;
 130:../lpc11cx4-library/lpc_chip_11cxx_lib/inc/sysctl_11xx.h **** }
 131:../lpc11cx4-library/lpc_chip_11cxx_lib/inc/sysctl_11xx.h **** 
 132:../lpc11cx4-library/lpc_chip_11cxx_lib/inc/sysctl_11xx.h **** /**
 133:../lpc11cx4-library/lpc_chip_11cxx_lib/inc/sysctl_11xx.h ****  * Peripheral reset identifiers, not available on all devices
 134:../lpc11cx4-library/lpc_chip_11cxx_lib/inc/sysctl_11xx.h ****  */
 135:../lpc11cx4-library/lpc_chip_11cxx_lib/inc/sysctl_11xx.h **** typedef enum {
 136:../lpc11cx4-library/lpc_chip_11cxx_lib/inc/sysctl_11xx.h **** 	RESET_SSP0,			/*!< SSP0 reset control */
 137:../lpc11cx4-library/lpc_chip_11cxx_lib/inc/sysctl_11xx.h **** 	RESET_I2C0,			/*!< I2C0 reset control */
 138:../lpc11cx4-library/lpc_chip_11cxx_lib/inc/sysctl_11xx.h **** 	RESET_SSP1,			/*!< SSP1 reset control */
 139:../lpc11cx4-library/lpc_chip_11cxx_lib/inc/sysctl_11xx.h **** #if !defined(CHIP_LPC1125)
 140:../lpc11cx4-library/lpc_chip_11cxx_lib/inc/sysctl_11xx.h **** 	RESET_CAN0,			/*!< CAN0 reset control */
 141:../lpc11cx4-library/lpc_chip_11cxx_lib/inc/sysctl_11xx.h **** 	RESET_UART0,		/*!< UART0 reset control */
 142:../lpc11cx4-library/lpc_chip_11cxx_lib/inc/sysctl_11xx.h **** 	RESET_TIMER0_16,	/*!< 16-bit Timer 0 reset control */
 143:../lpc11cx4-library/lpc_chip_11cxx_lib/inc/sysctl_11xx.h **** 	RESET_TIMER1_16,	/*!< 16-bit Timer 1 reset control */
 144:../lpc11cx4-library/lpc_chip_11cxx_lib/inc/sysctl_11xx.h **** 	RESET_TIMER0_32,	/*!< 32-bit Timer 0 reset control */
 145:../lpc11cx4-library/lpc_chip_11cxx_lib/inc/sysctl_11xx.h **** 	RESET_TIMER1_32,	/*!< 32-bit Timer 1 reset control */
ARM GAS  /tmp/cc7TFFKb.s 			page 71


 146:../lpc11cx4-library/lpc_chip_11cxx_lib/inc/sysctl_11xx.h **** 	RESET_ACMP,			/*!< Analog comparator reset control */
 147:../lpc11cx4-library/lpc_chip_11cxx_lib/inc/sysctl_11xx.h **** 	RESET_DAC0,			/*!< DAC reset control */
 148:../lpc11cx4-library/lpc_chip_11cxx_lib/inc/sysctl_11xx.h **** 	RESET_ADC0			/*!< ADC reset control */
 149:../lpc11cx4-library/lpc_chip_11cxx_lib/inc/sysctl_11xx.h **** #endif
 150:../lpc11cx4-library/lpc_chip_11cxx_lib/inc/sysctl_11xx.h **** } CHIP_SYSCTL_PERIPH_RESET_T;
 151:../lpc11cx4-library/lpc_chip_11cxx_lib/inc/sysctl_11xx.h **** 
 152:../lpc11cx4-library/lpc_chip_11cxx_lib/inc/sysctl_11xx.h **** /**
 153:../lpc11cx4-library/lpc_chip_11cxx_lib/inc/sysctl_11xx.h ****  * @brief	Assert reset for a peripheral
 154:../lpc11cx4-library/lpc_chip_11cxx_lib/inc/sysctl_11xx.h ****  * @param	periph	: Peripheral to assert reset for
 155:../lpc11cx4-library/lpc_chip_11cxx_lib/inc/sysctl_11xx.h ****  * @return	Nothing
