ARM GAS  /tmp/cc7TFFKb.s 			page 1


   1              		.cpu cortex-m0
   2              		.fpu softvfp
   3              		.eabi_attribute 20, 1	@ Tag_ABI_FP_denormal
   4              		.eabi_attribute 21, 1	@ Tag_ABI_FP_exceptions
   5              		.eabi_attribute 23, 3	@ Tag_ABI_FP_number_model
   6              		.eabi_attribute 24, 1	@ Tag_ABI_align8_needed
   7              		.eabi_attribute 25, 1	@ Tag_ABI_align8_preserved
   8              		.eabi_attribute 26, 1	@ Tag_ABI_enum_size
   9              		.eabi_attribute 30, 2	@ Tag_ABI_optimization_goals
  10              		.eabi_attribute 34, 0	@ Tag_CPU_unaligned_access
  11              		.eabi_attribute 18, 4	@ Tag_ABI_PCS_wchar_t
  12              		.file	"ssp_11xx.c"
  13              	@ GNU C (GNU Tools for ARM Embedded Processors) version 4.9.3 20150303 (release) [ARM/embedded-4_9-
  14              	@	compiled by GNU C version 4.8.2, GMP version 5.1.3, MPFR version 3.1.2-p3, MPC version 1.0.1
  15              	@ GGC heuristics: --param ggc-min-expand=100 --param ggc-min-heapsize=131072
  16              	@ options passed:  -I . -I ../lpc11cx4-library/lpc_chip_11cxx_lib/inc
  17              	@ -I ../lpc11cx4-library/evt_lib/inc -I inc -imultilib armv6-m
  18              	@ -iprefix /usr/bin/../lib/gcc/arm-none-eabi/4.9.3/
  19              	@ -isysroot /usr/bin/../arm-none-eabi -MD bin/ssp_11xx.d -MF bin/ssp_11xx.d
  20              	@ -MP -MQ bin/ssp_11xx.o -D__USES_INITFINI__ -D CORE_M0
  21              	@ ../lpc11cx4-library/lpc_chip_11cxx_lib/src/ssp_11xx.c -mcpu=cortex-m0
  22              	@ -mthumb -auxbase-strip bin/ssp_11xx.o -g -ggdb3 -O2 -Wall
  23              	@ -Wstrict-prototypes -Wextra -std=gnu90 -ffunction-sections
  24              	@ -fdata-sections -fverbose-asm
  25              	@ options enabled:  -faggressive-loop-optimizations -fauto-inc-dec
  26              	@ -fbranch-count-reg -fcaller-saves -fcombine-stack-adjustments -fcommon
  27              	@ -fcompare-elim -fcprop-registers -fcrossjumping -fcse-follow-jumps
  28              	@ -fdata-sections -fdefer-pop -fdelete-null-pointer-checks -fdevirtualize
  29              	@ -fdevirtualize-speculatively -fdwarf2-cfi-asm -fearly-inlining
  30              	@ -feliminate-unused-debug-types -fexpensive-optimizations
  31              	@ -fforward-propagate -ffunction-cse -ffunction-sections -fgcse -fgcse-lm
  32              	@ -fgnu-runtime -fgnu-unique -fguess-branch-probability
  33              	@ -fhoist-adjacent-loads -fident -fif-conversion -fif-conversion2
  34              	@ -findirect-inlining -finline -finline-atomics
  35              	@ -finline-functions-called-once -finline-small-functions -fipa-cp
  36              	@ -fipa-profile -fipa-pure-const -fipa-reference -fipa-sra
  37              	@ -fira-hoist-pressure -fira-share-save-slots -fira-share-spill-slots
  38              	@ -fisolate-erroneous-paths-dereference -fivopts -fkeep-static-consts
  39              	@ -fleading-underscore -flifetime-dse -fmath-errno -fmerge-constants
  40              	@ -fmerge-debug-strings -fmove-loop-invariants -fomit-frame-pointer
  41              	@ -foptimize-sibling-calls -foptimize-strlen -fpartial-inlining -fpeephole
  42              	@ -fpeephole2 -fprefetch-loop-arrays -freg-struct-return -freorder-blocks
  43              	@ -freorder-functions -frerun-cse-after-loop
  44              	@ -fsched-critical-path-heuristic -fsched-dep-count-heuristic
  45              	@ -fsched-group-heuristic -fsched-interblock -fsched-last-insn-heuristic
  46              	@ -fsched-pressure -fsched-rank-heuristic -fsched-spec
  47              	@ -fsched-spec-insn-heuristic -fsched-stalled-insns-dep -fschedule-insns2
  48              	@ -fsection-anchors -fshow-column -fshrink-wrap -fsigned-zeros
  49              	@ -fsplit-ivs-in-unroller -fsplit-wide-types -fstrict-aliasing
  50              	@ -fstrict-overflow -fstrict-volatile-bitfields -fsync-libcalls
  51              	@ -fthread-jumps -ftoplevel-reorder -ftrapping-math -ftree-bit-ccp
  52              	@ -ftree-builtin-call-dce -ftree-ccp -ftree-ch -ftree-coalesce-vars
  53              	@ -ftree-copy-prop -ftree-copyrename -ftree-cselim -ftree-dce
  54              	@ -ftree-dominator-opts -ftree-dse -ftree-forwprop -ftree-fre
  55              	@ -ftree-loop-if-convert -ftree-loop-im -ftree-loop-ivcanon
  56              	@ -ftree-loop-optimize -ftree-parallelize-loops= -ftree-phiprop -ftree-pre
  57              	@ -ftree-pta -ftree-reassoc -ftree-scev-cprop -ftree-sink -ftree-slsr
ARM GAS  /tmp/cc7TFFKb.s 			page 2


  58              	@ -ftree-sra -ftree-switch-conversion -ftree-tail-merge -ftree-ter
  59              	@ -ftree-vrp -funit-at-a-time -fvar-tracking -fvar-tracking-assignments
  60              	@ -fverbose-asm -fzero-initialized-in-bss -mlittle-endian -mlra
  61              	@ -mpic-data-is-text-relative -msched-prolog -mthumb
  62              	@ -mvectorize-with-neon-quad
  63              	
  64              		.text
  65              	.Ltext0:
  66              		.cfi_sections	.debug_frame
  67              		.section	.text.SSP_Read1BFifo,"ax",%progbits
  68              		.align	2
  69              		.code	16
  70              		.thumb_func
  71              		.type	SSP_Read1BFifo, %function
  72              	SSP_Read1BFifo:
  73              	.LFB201:
  74              		.file 1 "../lpc11cx4-library/lpc_chip_11cxx_lib/src/ssp_11xx.c"
   1:../lpc11cx4-library/lpc_chip_11cxx_lib/src/ssp_11xx.c **** /*
   2:../lpc11cx4-library/lpc_chip_11cxx_lib/src/ssp_11xx.c ****  * @brief LPC11xx SSP Registers and control functions
   3:../lpc11cx4-library/lpc_chip_11cxx_lib/src/ssp_11xx.c ****  *
   4:../lpc11cx4-library/lpc_chip_11cxx_lib/src/ssp_11xx.c ****  * @note
   5:../lpc11cx4-library/lpc_chip_11cxx_lib/src/ssp_11xx.c ****  * Copyright(C) NXP Semiconductors, 2012
   6:../lpc11cx4-library/lpc_chip_11cxx_lib/src/ssp_11xx.c ****  * All rights reserved.
   7:../lpc11cx4-library/lpc_chip_11cxx_lib/src/ssp_11xx.c ****  *
   8:../lpc11cx4-library/lpc_chip_11cxx_lib/src/ssp_11xx.c ****  * @par
   9:../lpc11cx4-library/lpc_chip_11cxx_lib/src/ssp_11xx.c ****  * Software that is described herein is for illustrative purposes only
  10:../lpc11cx4-library/lpc_chip_11cxx_lib/src/ssp_11xx.c ****  * which provides customers with programming information regarding the
  11:../lpc11cx4-library/lpc_chip_11cxx_lib/src/ssp_11xx.c ****  * LPC products.  This software is supplied "AS IS" without any warranties of
  12:../lpc11cx4-library/lpc_chip_11cxx_lib/src/ssp_11xx.c ****  * any kind, and NXP Semiconductors and its licensor disclaim any and
  13:../lpc11cx4-library/lpc_chip_11cxx_lib/src/ssp_11xx.c ****  * all warranties, express or implied, including all implied warranties of
  14:../lpc11cx4-library/lpc_chip_11cxx_lib/src/ssp_11xx.c ****  * merchantability, fitness for a particular purpose and non-infringement of
  15:../lpc11cx4-library/lpc_chip_11cxx_lib/src/ssp_11xx.c ****  * intellectual property rights.  NXP Semiconductors assumes no responsibility
  16:../lpc11cx4-library/lpc_chip_11cxx_lib/src/ssp_11xx.c ****  * or liability for the use of the software, conveys no license or rights under any
  17:../lpc11cx4-library/lpc_chip_11cxx_lib/src/ssp_11xx.c ****  * patent, copyright, mask work right, or any other intellectual property rights in
  18:../lpc11cx4-library/lpc_chip_11cxx_lib/src/ssp_11xx.c ****  * or to any products. NXP Semiconductors reserves the right to make changes
  19:../lpc11cx4-library/lpc_chip_11cxx_lib/src/ssp_11xx.c ****  * in the software without notification. NXP Semiconductors also makes no
  20:../lpc11cx4-library/lpc_chip_11cxx_lib/src/ssp_11xx.c ****  * representation or warranty that such application will be suitable for the
  21:../lpc11cx4-library/lpc_chip_11cxx_lib/src/ssp_11xx.c ****  * specified use without further testing or modification.
  22:../lpc11cx4-library/lpc_chip_11cxx_lib/src/ssp_11xx.c ****  *
  23:../lpc11cx4-library/lpc_chip_11cxx_lib/src/ssp_11xx.c ****  * @par
  24:../lpc11cx4-library/lpc_chip_11cxx_lib/src/ssp_11xx.c ****  * Permission to use, copy, modify, and distribute this software and its
  25:../lpc11cx4-library/lpc_chip_11cxx_lib/src/ssp_11xx.c ****  * documentation is hereby granted, under NXP Semiconductors' and its
  26:../lpc11cx4-library/lpc_chip_11cxx_lib/src/ssp_11xx.c ****  * licensor's relevant copyrights in the software, without fee, provided that it
  27:../lpc11cx4-library/lpc_chip_11cxx_lib/src/ssp_11xx.c ****  * is used in conjunction with NXP Semiconductors microcontrollers.  This
  28:../lpc11cx4-library/lpc_chip_11cxx_lib/src/ssp_11xx.c ****  * copyright, permission, and disclaimer notice must appear in all copies of
  29:../lpc11cx4-library/lpc_chip_11cxx_lib/src/ssp_11xx.c ****  * this code.
  30:../lpc11cx4-library/lpc_chip_11cxx_lib/src/ssp_11xx.c ****  */
  31:../lpc11cx4-library/lpc_chip_11cxx_lib/src/ssp_11xx.c **** 
  32:../lpc11cx4-library/lpc_chip_11cxx_lib/src/ssp_11xx.c **** #include "chip.h"
  33:../lpc11cx4-library/lpc_chip_11cxx_lib/src/ssp_11xx.c **** 
  34:../lpc11cx4-library/lpc_chip_11cxx_lib/src/ssp_11xx.c **** /*****************************************************************************
  35:../lpc11cx4-library/lpc_chip_11cxx_lib/src/ssp_11xx.c ****  * Private types/enumerations/variables
  36:../lpc11cx4-library/lpc_chip_11cxx_lib/src/ssp_11xx.c ****  ****************************************************************************/
  37:../lpc11cx4-library/lpc_chip_11cxx_lib/src/ssp_11xx.c **** 
  38:../lpc11cx4-library/lpc_chip_11cxx_lib/src/ssp_11xx.c **** /*****************************************************************************
  39:../lpc11cx4-library/lpc_chip_11cxx_lib/src/ssp_11xx.c ****  * Public types/enumerations/variables
  40:../lpc11cx4-library/lpc_chip_11cxx_lib/src/ssp_11xx.c ****  ****************************************************************************/
ARM GAS  /tmp/cc7TFFKb.s 			page 3


  41:../lpc11cx4-library/lpc_chip_11cxx_lib/src/ssp_11xx.c **** 
  42:../lpc11cx4-library/lpc_chip_11cxx_lib/src/ssp_11xx.c **** /*****************************************************************************
  43:../lpc11cx4-library/lpc_chip_11cxx_lib/src/ssp_11xx.c ****  * Private functions
  44:../lpc11cx4-library/lpc_chip_11cxx_lib/src/ssp_11xx.c ****  ****************************************************************************/
  45:../lpc11cx4-library/lpc_chip_11cxx_lib/src/ssp_11xx.c **** 
  46:../lpc11cx4-library/lpc_chip_11cxx_lib/src/ssp_11xx.c **** STATIC void SSP_Write2BFifo(LPC_SSP_T *pSSP, Chip_SSP_DATA_SETUP_T *xf_setup)
  47:../lpc11cx4-library/lpc_chip_11cxx_lib/src/ssp_11xx.c **** {
  48:../lpc11cx4-library/lpc_chip_11cxx_lib/src/ssp_11xx.c **** 	if (xf_setup->tx_data) {
  49:../lpc11cx4-library/lpc_chip_11cxx_lib/src/ssp_11xx.c **** 		Chip_SSP_SendFrame(pSSP, (*(uint16_t *) ((uint32_t) xf_setup->tx_data +
  50:../lpc11cx4-library/lpc_chip_11cxx_lib/src/ssp_11xx.c **** 												 xf_setup->tx_cnt)));
  51:../lpc11cx4-library/lpc_chip_11cxx_lib/src/ssp_11xx.c **** 	}
  52:../lpc11cx4-library/lpc_chip_11cxx_lib/src/ssp_11xx.c **** 	else {
  53:../lpc11cx4-library/lpc_chip_11cxx_lib/src/ssp_11xx.c **** 		Chip_SSP_SendFrame(pSSP, 0xFFFF);
  54:../lpc11cx4-library/lpc_chip_11cxx_lib/src/ssp_11xx.c **** 	}
  55:../lpc11cx4-library/lpc_chip_11cxx_lib/src/ssp_11xx.c **** 
  56:../lpc11cx4-library/lpc_chip_11cxx_lib/src/ssp_11xx.c **** 	xf_setup->tx_cnt += 2;
  57:../lpc11cx4-library/lpc_chip_11cxx_lib/src/ssp_11xx.c **** }
  58:../lpc11cx4-library/lpc_chip_11cxx_lib/src/ssp_11xx.c **** 
  59:../lpc11cx4-library/lpc_chip_11cxx_lib/src/ssp_11xx.c **** /** SSP macro: write 1 bytes to FIFO buffer */
  60:../lpc11cx4-library/lpc_chip_11cxx_lib/src/ssp_11xx.c **** STATIC void SSP_Write1BFifo(LPC_SSP_T *pSSP, Chip_SSP_DATA_SETUP_T *xf_setup)
  61:../lpc11cx4-library/lpc_chip_11cxx_lib/src/ssp_11xx.c **** {
  62:../lpc11cx4-library/lpc_chip_11cxx_lib/src/ssp_11xx.c **** 	if (xf_setup->tx_data) {
  63:../lpc11cx4-library/lpc_chip_11cxx_lib/src/ssp_11xx.c **** 		Chip_SSP_SendFrame(pSSP, (*(uint8_t *) ((uint32_t) xf_setup->tx_data + xf_setup->tx_cnt)));
  64:../lpc11cx4-library/lpc_chip_11cxx_lib/src/ssp_11xx.c **** 	}
  65:../lpc11cx4-library/lpc_chip_11cxx_lib/src/ssp_11xx.c **** 	else {
  66:../lpc11cx4-library/lpc_chip_11cxx_lib/src/ssp_11xx.c **** 		Chip_SSP_SendFrame(pSSP, 0xFF);
  67:../lpc11cx4-library/lpc_chip_11cxx_lib/src/ssp_11xx.c **** 	}
  68:../lpc11cx4-library/lpc_chip_11cxx_lib/src/ssp_11xx.c **** 
  69:../lpc11cx4-library/lpc_chip_11cxx_lib/src/ssp_11xx.c **** 	xf_setup->tx_cnt++;
  70:../lpc11cx4-library/lpc_chip_11cxx_lib/src/ssp_11xx.c **** }
  71:../lpc11cx4-library/lpc_chip_11cxx_lib/src/ssp_11xx.c **** 
  72:../lpc11cx4-library/lpc_chip_11cxx_lib/src/ssp_11xx.c **** /** SSP macro: read 1 bytes from FIFO buffer */
  73:../lpc11cx4-library/lpc_chip_11cxx_lib/src/ssp_11xx.c **** STATIC void SSP_Read2BFifo(LPC_SSP_T *pSSP, Chip_SSP_DATA_SETUP_T *xf_setup)
  74:../lpc11cx4-library/lpc_chip_11cxx_lib/src/ssp_11xx.c **** {
  75:../lpc11cx4-library/lpc_chip_11cxx_lib/src/ssp_11xx.c **** 	uint16_t rDat;
  76:../lpc11cx4-library/lpc_chip_11cxx_lib/src/ssp_11xx.c **** 
  77:../lpc11cx4-library/lpc_chip_11cxx_lib/src/ssp_11xx.c **** 	while ((Chip_SSP_GetStatus(pSSP, SSP_STAT_RNE) == SET) &&
  78:../lpc11cx4-library/lpc_chip_11cxx_lib/src/ssp_11xx.c **** 		   (xf_setup->rx_cnt < xf_setup->length)) {
  79:../lpc11cx4-library/lpc_chip_11cxx_lib/src/ssp_11xx.c **** 		rDat = Chip_SSP_ReceiveFrame(pSSP);
  80:../lpc11cx4-library/lpc_chip_11cxx_lib/src/ssp_11xx.c **** 		if (xf_setup->rx_data) {
  81:../lpc11cx4-library/lpc_chip_11cxx_lib/src/ssp_11xx.c **** 			*(uint16_t *) ((uint32_t) xf_setup->rx_data + xf_setup->rx_cnt) = rDat;
  82:../lpc11cx4-library/lpc_chip_11cxx_lib/src/ssp_11xx.c **** 		}
  83:../lpc11cx4-library/lpc_chip_11cxx_lib/src/ssp_11xx.c **** 
  84:../lpc11cx4-library/lpc_chip_11cxx_lib/src/ssp_11xx.c **** 		xf_setup->rx_cnt += 2;
  85:../lpc11cx4-library/lpc_chip_11cxx_lib/src/ssp_11xx.c **** 	}
  86:../lpc11cx4-library/lpc_chip_11cxx_lib/src/ssp_11xx.c **** }
  87:../lpc11cx4-library/lpc_chip_11cxx_lib/src/ssp_11xx.c **** 
  88:../lpc11cx4-library/lpc_chip_11cxx_lib/src/ssp_11xx.c **** /** SSP macro: read 2 bytes from FIFO buffer */
  89:../lpc11cx4-library/lpc_chip_11cxx_lib/src/ssp_11xx.c **** STATIC void SSP_Read1BFifo(LPC_SSP_T *pSSP, Chip_SSP_DATA_SETUP_T *xf_setup)
  90:../lpc11cx4-library/lpc_chip_11cxx_lib/src/ssp_11xx.c **** {
  75              		.loc 1 90 0
  76              		.cfi_startproc
  77              	.LVL0:
  78              	.LBB224:
  79              	.LBB225:
  80              		.file 2 "../lpc11cx4-library/lpc_chip_11cxx_lib/inc/ssp_11xx.h"
   1:../lpc11cx4-library/lpc_chip_11cxx_lib/inc/ssp_11xx.h **** /*
ARM GAS  /tmp/cc7TFFKb.s 			page 4


   2:../lpc11cx4-library/lpc_chip_11cxx_lib/inc/ssp_11xx.h ****  * @brief LPC11xx SSP Registers and control functions
   3:../lpc11cx4-library/lpc_chip_11cxx_lib/inc/ssp_11xx.h ****  *
   4:../lpc11cx4-library/lpc_chip_11cxx_lib/inc/ssp_11xx.h ****  * @note
   5:../lpc11cx4-library/lpc_chip_11cxx_lib/inc/ssp_11xx.h ****  * Copyright(C) NXP Semiconductors, 2012
   6:../lpc11cx4-library/lpc_chip_11cxx_lib/inc/ssp_11xx.h ****  * All rights reserved.
   7:../lpc11cx4-library/lpc_chip_11cxx_lib/inc/ssp_11xx.h ****  *
   8:../lpc11cx4-library/lpc_chip_11cxx_lib/inc/ssp_11xx.h ****  * @par
   9:../lpc11cx4-library/lpc_chip_11cxx_lib/inc/ssp_11xx.h ****  * Software that is described herein is for illustrative purposes only
  10:../lpc11cx4-library/lpc_chip_11cxx_lib/inc/ssp_11xx.h ****  * which provides customers with programming information regarding the
  11:../lpc11cx4-library/lpc_chip_11cxx_lib/inc/ssp_11xx.h ****  * LPC products.  This software is supplied "AS IS" without any warranties of
  12:../lpc11cx4-library/lpc_chip_11cxx_lib/inc/ssp_11xx.h ****  * any kind, and NXP Semiconductors and its licensor disclaim any and
  13:../lpc11cx4-library/lpc_chip_11cxx_lib/inc/ssp_11xx.h ****  * all warranties, express or implied, including all implied warranties of
  14:../lpc11cx4-library/lpc_chip_11cxx_lib/inc/ssp_11xx.h ****  * merchantability, fitness for a particular purpose and non-infringement of
  15:../lpc11cx4-library/lpc_chip_11cxx_lib/inc/ssp_11xx.h ****  * intellectual property rights.  NXP Semiconductors assumes no responsibility
  16:../lpc11cx4-library/lpc_chip_11cxx_lib/inc/ssp_11xx.h ****  * or liability for the use of the software, conveys no license or rights under any
  17:../lpc11cx4-library/lpc_chip_11cxx_lib/inc/ssp_11xx.h ****  * patent, copyright, mask work right, or any other intellectual property rights in
  18:../lpc11cx4-library/lpc_chip_11cxx_lib/inc/ssp_11xx.h ****  * or to any products. NXP Semiconductors reserves the right to make changes
  19:../lpc11cx4-library/lpc_chip_11cxx_lib/inc/ssp_11xx.h ****  * in the software without notification. NXP Semiconductors also makes no
  20:../lpc11cx4-library/lpc_chip_11cxx_lib/inc/ssp_11xx.h ****  * representation or warranty that such application will be suitable for the
  21:../lpc11cx4-library/lpc_chip_11cxx_lib/inc/ssp_11xx.h ****  * specified use without further testing or modification.
  22:../lpc11cx4-library/lpc_chip_11cxx_lib/inc/ssp_11xx.h ****  *
  23:../lpc11cx4-library/lpc_chip_11cxx_lib/inc/ssp_11xx.h ****  * @par
  24:../lpc11cx4-library/lpc_chip_11cxx_lib/inc/ssp_11xx.h ****  * Permission to use, copy, modify, and distribute this software and its
  25:../lpc11cx4-library/lpc_chip_11cxx_lib/inc/ssp_11xx.h ****  * documentation is hereby granted, under NXP Semiconductors' and its
  26:../lpc11cx4-library/lpc_chip_11cxx_lib/inc/ssp_11xx.h ****  * licensor's relevant copyrights in the software, without fee, provided that it
  27:../lpc11cx4-library/lpc_chip_11cxx_lib/inc/ssp_11xx.h ****  * is used in conjunction with NXP Semiconductors microcontrollers.  This
  28:../lpc11cx4-library/lpc_chip_11cxx_lib/inc/ssp_11xx.h ****  * copyright, permission, and disclaimer notice must appear in all copies of
  29:../lpc11cx4-library/lpc_chip_11cxx_lib/inc/ssp_11xx.h ****  * this code.
  30:../lpc11cx4-library/lpc_chip_11cxx_lib/inc/ssp_11xx.h ****  */
  31:../lpc11cx4-library/lpc_chip_11cxx_lib/inc/ssp_11xx.h **** 
  32:../lpc11cx4-library/lpc_chip_11cxx_lib/inc/ssp_11xx.h **** #ifndef __SSP_11XX_H_
  33:../lpc11cx4-library/lpc_chip_11cxx_lib/inc/ssp_11xx.h **** #define __SSP_11XX_H_
  34:../lpc11cx4-library/lpc_chip_11cxx_lib/inc/ssp_11xx.h **** 
  35:../lpc11cx4-library/lpc_chip_11cxx_lib/inc/ssp_11xx.h **** #ifdef __cplusplus
  36:../lpc11cx4-library/lpc_chip_11cxx_lib/inc/ssp_11xx.h **** extern "C" {
  37:../lpc11cx4-library/lpc_chip_11cxx_lib/inc/ssp_11xx.h **** #endif
  38:../lpc11cx4-library/lpc_chip_11cxx_lib/inc/ssp_11xx.h **** 
  39:../lpc11cx4-library/lpc_chip_11cxx_lib/inc/ssp_11xx.h **** /** @defgroup SSP_11XX CHIP: LPC11xx SSP register block and driver
  40:../lpc11cx4-library/lpc_chip_11cxx_lib/inc/ssp_11xx.h ****  * @ingroup CHIP_11XX_Drivers
  41:../lpc11cx4-library/lpc_chip_11cxx_lib/inc/ssp_11xx.h ****  * @{
  42:../lpc11cx4-library/lpc_chip_11cxx_lib/inc/ssp_11xx.h ****  */
  43:../lpc11cx4-library/lpc_chip_11cxx_lib/inc/ssp_11xx.h **** 
  44:../lpc11cx4-library/lpc_chip_11cxx_lib/inc/ssp_11xx.h **** /**
  45:../lpc11cx4-library/lpc_chip_11cxx_lib/inc/ssp_11xx.h ****  * @brief SSP register block structure
  46:../lpc11cx4-library/lpc_chip_11cxx_lib/inc/ssp_11xx.h ****  */
  47:../lpc11cx4-library/lpc_chip_11cxx_lib/inc/ssp_11xx.h **** typedef struct {			/*!< SSPn Structure         */
  48:../lpc11cx4-library/lpc_chip_11cxx_lib/inc/ssp_11xx.h **** 	__IO uint32_t CR0;		/*!< Control Register 0. Selects the serial clock rate, bus type, and data siz
  49:../lpc11cx4-library/lpc_chip_11cxx_lib/inc/ssp_11xx.h **** 	__IO uint32_t CR1;		/*!< Control Register 1. Selects master/slave and other modes. */
  50:../lpc11cx4-library/lpc_chip_11cxx_lib/inc/ssp_11xx.h **** 	__IO uint32_t DR;		/*!< Data Register. Writes fill the transmit FIFO, and reads empty the receive 
  51:../lpc11cx4-library/lpc_chip_11cxx_lib/inc/ssp_11xx.h **** 	__I  uint32_t SR;		/*!< Status Register        */
  52:../lpc11cx4-library/lpc_chip_11cxx_lib/inc/ssp_11xx.h **** 	__IO uint32_t CPSR;		/*!< Clock Prescale Register */
  53:../lpc11cx4-library/lpc_chip_11cxx_lib/inc/ssp_11xx.h **** 	__IO uint32_t IMSC;		/*!< Interrupt Mask Set and Clear Register */
  54:../lpc11cx4-library/lpc_chip_11cxx_lib/inc/ssp_11xx.h **** 	__I  uint32_t RIS;		/*!< Raw Interrupt Status Register */
  55:../lpc11cx4-library/lpc_chip_11cxx_lib/inc/ssp_11xx.h **** 	__I  uint32_t MIS;		/*!< Masked Interrupt Status Register */
  56:../lpc11cx4-library/lpc_chip_11cxx_lib/inc/ssp_11xx.h **** 	__O  uint32_t ICR;		/*!< SSPICR Interrupt Clear Register */
  57:../lpc11cx4-library/lpc_chip_11cxx_lib/inc/ssp_11xx.h **** } LPC_SSP_T;
  58:../lpc11cx4-library/lpc_chip_11cxx_lib/inc/ssp_11xx.h **** 
ARM GAS  /tmp/cc7TFFKb.s 			page 5


  59:../lpc11cx4-library/lpc_chip_11cxx_lib/inc/ssp_11xx.h **** /**
  60:../lpc11cx4-library/lpc_chip_11cxx_lib/inc/ssp_11xx.h ****  * Macro defines for CR0 register
  61:../lpc11cx4-library/lpc_chip_11cxx_lib/inc/ssp_11xx.h ****  */
  62:../lpc11cx4-library/lpc_chip_11cxx_lib/inc/ssp_11xx.h **** 
  63:../lpc11cx4-library/lpc_chip_11cxx_lib/inc/ssp_11xx.h **** /** SSP data size select, must be 4 bits to 16 bits */
  64:../lpc11cx4-library/lpc_chip_11cxx_lib/inc/ssp_11xx.h **** #define SSP_CR0_DSS(n)          ((uint32_t) ((n) & 0xF))
  65:../lpc11cx4-library/lpc_chip_11cxx_lib/inc/ssp_11xx.h **** /** SSP control 0 Motorola SPI mode */
  66:../lpc11cx4-library/lpc_chip_11cxx_lib/inc/ssp_11xx.h **** #define SSP_CR0_FRF_SPI         ((uint32_t) (0 << 4))
  67:../lpc11cx4-library/lpc_chip_11cxx_lib/inc/ssp_11xx.h **** /** SSP control 0 TI synchronous serial mode */
  68:../lpc11cx4-library/lpc_chip_11cxx_lib/inc/ssp_11xx.h **** #define SSP_CR0_FRF_TI          ((uint32_t) (1 << 4))
  69:../lpc11cx4-library/lpc_chip_11cxx_lib/inc/ssp_11xx.h **** /** SSP control 0 National Micro-wire mode */
  70:../lpc11cx4-library/lpc_chip_11cxx_lib/inc/ssp_11xx.h **** #define SSP_CR0_FRF_MICROWIRE   ((uint32_t) (2 << 4))
  71:../lpc11cx4-library/lpc_chip_11cxx_lib/inc/ssp_11xx.h **** /** SPI clock polarity bit (used in SPI mode only), (1) = maintains the
  72:../lpc11cx4-library/lpc_chip_11cxx_lib/inc/ssp_11xx.h ****    bus clock high between frames, (0) = low */
  73:../lpc11cx4-library/lpc_chip_11cxx_lib/inc/ssp_11xx.h **** #define SSP_CR0_CPOL_LO     ((uint32_t) (0))
  74:../lpc11cx4-library/lpc_chip_11cxx_lib/inc/ssp_11xx.h **** #define SSP_CR0_CPOL_HI     ((uint32_t) (1 << 6))
  75:../lpc11cx4-library/lpc_chip_11cxx_lib/inc/ssp_11xx.h **** /** SPI clock out phase bit (used in SPI mode only), (1) = captures data
  76:../lpc11cx4-library/lpc_chip_11cxx_lib/inc/ssp_11xx.h ****    on the second clock transition of the frame, (0) = first */
  77:../lpc11cx4-library/lpc_chip_11cxx_lib/inc/ssp_11xx.h **** #define SSP_CR0_CPHA_FIRST  ((uint32_t) (0))
  78:../lpc11cx4-library/lpc_chip_11cxx_lib/inc/ssp_11xx.h **** #define SSP_CR0_CPHA_SECOND ((uint32_t) (1 << 7))
  79:../lpc11cx4-library/lpc_chip_11cxx_lib/inc/ssp_11xx.h **** /** SSP serial clock rate value load macro, divider rate is
  80:../lpc11cx4-library/lpc_chip_11cxx_lib/inc/ssp_11xx.h ****    PERIPH_CLK / (cpsr * (SCR + 1)) */
  81:../lpc11cx4-library/lpc_chip_11cxx_lib/inc/ssp_11xx.h **** #define SSP_CR0_SCR(n)      ((uint32_t) ((n & 0xFF) << 8))
  82:../lpc11cx4-library/lpc_chip_11cxx_lib/inc/ssp_11xx.h **** /** SSP CR0 bit mask */
  83:../lpc11cx4-library/lpc_chip_11cxx_lib/inc/ssp_11xx.h **** #define SSP_CR0_BITMASK     ((uint32_t) (0xFFFF))
  84:../lpc11cx4-library/lpc_chip_11cxx_lib/inc/ssp_11xx.h **** /** SSP CR0 bit mask */
  85:../lpc11cx4-library/lpc_chip_11cxx_lib/inc/ssp_11xx.h **** #define SSP_CR0_BITMASK     ((uint32_t) (0xFFFF))
  86:../lpc11cx4-library/lpc_chip_11cxx_lib/inc/ssp_11xx.h **** /** SSP serial clock rate value load macro, divider rate is
  87:../lpc11cx4-library/lpc_chip_11cxx_lib/inc/ssp_11xx.h ****    PERIPH_CLK / (cpsr * (SCR + 1)) */
  88:../lpc11cx4-library/lpc_chip_11cxx_lib/inc/ssp_11xx.h **** #define SSP_CR0_SCR(n)      ((uint32_t) ((n & 0xFF) << 8))
  89:../lpc11cx4-library/lpc_chip_11cxx_lib/inc/ssp_11xx.h **** 
  90:../lpc11cx4-library/lpc_chip_11cxx_lib/inc/ssp_11xx.h **** /**
  91:../lpc11cx4-library/lpc_chip_11cxx_lib/inc/ssp_11xx.h ****  * Macro defines for CR1 register
  92:../lpc11cx4-library/lpc_chip_11cxx_lib/inc/ssp_11xx.h ****  */
  93:../lpc11cx4-library/lpc_chip_11cxx_lib/inc/ssp_11xx.h **** 
  94:../lpc11cx4-library/lpc_chip_11cxx_lib/inc/ssp_11xx.h **** /** SSP control 1 loopback mode enable bit */
  95:../lpc11cx4-library/lpc_chip_11cxx_lib/inc/ssp_11xx.h **** #define SSP_CR1_LBM_EN      ((uint32_t) (1 << 0))
  96:../lpc11cx4-library/lpc_chip_11cxx_lib/inc/ssp_11xx.h **** /** SSP control 1 enable bit */
  97:../lpc11cx4-library/lpc_chip_11cxx_lib/inc/ssp_11xx.h **** #define SSP_CR1_SSP_EN      ((uint32_t) (1 << 1))
  98:../lpc11cx4-library/lpc_chip_11cxx_lib/inc/ssp_11xx.h **** /** SSP control 1 slave enable */
  99:../lpc11cx4-library/lpc_chip_11cxx_lib/inc/ssp_11xx.h **** #define SSP_CR1_SLAVE_EN    ((uint32_t) (1 << 2))
 100:../lpc11cx4-library/lpc_chip_11cxx_lib/inc/ssp_11xx.h **** #define SSP_CR1_MASTER_EN   ((uint32_t) (0))
 101:../lpc11cx4-library/lpc_chip_11cxx_lib/inc/ssp_11xx.h **** /** SSP control 1 slave out disable bit, disables transmit line in slave
 102:../lpc11cx4-library/lpc_chip_11cxx_lib/inc/ssp_11xx.h ****    mode */
 103:../lpc11cx4-library/lpc_chip_11cxx_lib/inc/ssp_11xx.h **** #define SSP_CR1_SO_DISABLE  ((uint32_t) (1 << 3))
 104:../lpc11cx4-library/lpc_chip_11cxx_lib/inc/ssp_11xx.h **** /** SSP CR1 bit mask */
 105:../lpc11cx4-library/lpc_chip_11cxx_lib/inc/ssp_11xx.h **** #define SSP_CR1_BITMASK     ((uint32_t) (0x0F))
 106:../lpc11cx4-library/lpc_chip_11cxx_lib/inc/ssp_11xx.h **** 
 107:../lpc11cx4-library/lpc_chip_11cxx_lib/inc/ssp_11xx.h **** /** SSP CPSR bit mask */
 108:../lpc11cx4-library/lpc_chip_11cxx_lib/inc/ssp_11xx.h **** #define SSP_CPSR_BITMASK    ((uint32_t) (0xFF))
 109:../lpc11cx4-library/lpc_chip_11cxx_lib/inc/ssp_11xx.h **** /**
 110:../lpc11cx4-library/lpc_chip_11cxx_lib/inc/ssp_11xx.h ****  * Macro defines for DR register
 111:../lpc11cx4-library/lpc_chip_11cxx_lib/inc/ssp_11xx.h ****  */
 112:../lpc11cx4-library/lpc_chip_11cxx_lib/inc/ssp_11xx.h **** 
 113:../lpc11cx4-library/lpc_chip_11cxx_lib/inc/ssp_11xx.h **** /** SSP data bit mask */
 114:../lpc11cx4-library/lpc_chip_11cxx_lib/inc/ssp_11xx.h **** #define SSP_DR_BITMASK(n)   ((n) & 0xFFFF)
 115:../lpc11cx4-library/lpc_chip_11cxx_lib/inc/ssp_11xx.h **** 
ARM GAS  /tmp/cc7TFFKb.s 			page 6


 116:../lpc11cx4-library/lpc_chip_11cxx_lib/inc/ssp_11xx.h **** /**
 117:../lpc11cx4-library/lpc_chip_11cxx_lib/inc/ssp_11xx.h ****  * Macro defines for SR register
 118:../lpc11cx4-library/lpc_chip_11cxx_lib/inc/ssp_11xx.h ****  */
 119:../lpc11cx4-library/lpc_chip_11cxx_lib/inc/ssp_11xx.h **** 
 120:../lpc11cx4-library/lpc_chip_11cxx_lib/inc/ssp_11xx.h **** /** SSP SR bit mask */
 121:../lpc11cx4-library/lpc_chip_11cxx_lib/inc/ssp_11xx.h **** #define SSP_SR_BITMASK  ((uint32_t) (0x1F))
 122:../lpc11cx4-library/lpc_chip_11cxx_lib/inc/ssp_11xx.h **** 
 123:../lpc11cx4-library/lpc_chip_11cxx_lib/inc/ssp_11xx.h **** /** ICR bit mask */
 124:../lpc11cx4-library/lpc_chip_11cxx_lib/inc/ssp_11xx.h **** #define SSP_ICR_BITMASK ((uint32_t) (0x03))
 125:../lpc11cx4-library/lpc_chip_11cxx_lib/inc/ssp_11xx.h **** 
 126:../lpc11cx4-library/lpc_chip_11cxx_lib/inc/ssp_11xx.h **** /**
 127:../lpc11cx4-library/lpc_chip_11cxx_lib/inc/ssp_11xx.h ****  * @brief SSP Type of Status
 128:../lpc11cx4-library/lpc_chip_11cxx_lib/inc/ssp_11xx.h ****  */
 129:../lpc11cx4-library/lpc_chip_11cxx_lib/inc/ssp_11xx.h **** typedef enum _SSP_STATUS {
 130:../lpc11cx4-library/lpc_chip_11cxx_lib/inc/ssp_11xx.h **** 	SSP_STAT_TFE = ((uint32_t)(1 << 0)),/**< TX FIFO Empty */
 131:../lpc11cx4-library/lpc_chip_11cxx_lib/inc/ssp_11xx.h **** 	SSP_STAT_TNF = ((uint32_t)(1 << 1)),/**< TX FIFO not full */
 132:../lpc11cx4-library/lpc_chip_11cxx_lib/inc/ssp_11xx.h **** 	SSP_STAT_RNE = ((uint32_t)(1 << 2)),/**< RX FIFO not empty */
 133:../lpc11cx4-library/lpc_chip_11cxx_lib/inc/ssp_11xx.h **** 	SSP_STAT_RFF = ((uint32_t)(1 << 3)),/**< RX FIFO full */
 134:../lpc11cx4-library/lpc_chip_11cxx_lib/inc/ssp_11xx.h **** 	SSP_STAT_BSY = ((uint32_t)(1 << 4)),/**< SSP Busy */
 135:../lpc11cx4-library/lpc_chip_11cxx_lib/inc/ssp_11xx.h **** } SSP_STATUS_T;
 136:../lpc11cx4-library/lpc_chip_11cxx_lib/inc/ssp_11xx.h **** 
 137:../lpc11cx4-library/lpc_chip_11cxx_lib/inc/ssp_11xx.h **** /**
 138:../lpc11cx4-library/lpc_chip_11cxx_lib/inc/ssp_11xx.h ****  * @brief SSP Type of Interrupt Mask
 139:../lpc11cx4-library/lpc_chip_11cxx_lib/inc/ssp_11xx.h ****  */
 140:../lpc11cx4-library/lpc_chip_11cxx_lib/inc/ssp_11xx.h **** typedef enum _SSP_INTMASK {
 141:../lpc11cx4-library/lpc_chip_11cxx_lib/inc/ssp_11xx.h **** 	SSP_RORIM = ((uint32_t)(1 << 0)),	/**< Overun */
 142:../lpc11cx4-library/lpc_chip_11cxx_lib/inc/ssp_11xx.h **** 	SSP_RTIM = ((uint32_t)(1 << 1)),/**< TimeOut */
 143:../lpc11cx4-library/lpc_chip_11cxx_lib/inc/ssp_11xx.h **** 	SSP_RXIM = ((uint32_t)(1 << 2)),/**< Rx FIFO is at least half full */
 144:../lpc11cx4-library/lpc_chip_11cxx_lib/inc/ssp_11xx.h **** 	SSP_TXIM = ((uint32_t)(1 << 3)),/**< Tx FIFO is at least half empty */
 145:../lpc11cx4-library/lpc_chip_11cxx_lib/inc/ssp_11xx.h **** 	SSP_INT_MASK_BITMASK = ((uint32_t)(0xF)),
 146:../lpc11cx4-library/lpc_chip_11cxx_lib/inc/ssp_11xx.h **** } SSP_INTMASK_T;
 147:../lpc11cx4-library/lpc_chip_11cxx_lib/inc/ssp_11xx.h **** 
 148:../lpc11cx4-library/lpc_chip_11cxx_lib/inc/ssp_11xx.h **** /**
 149:../lpc11cx4-library/lpc_chip_11cxx_lib/inc/ssp_11xx.h ****  * @brief SSP Type of Mask Interrupt Status
 150:../lpc11cx4-library/lpc_chip_11cxx_lib/inc/ssp_11xx.h ****  */
 151:../lpc11cx4-library/lpc_chip_11cxx_lib/inc/ssp_11xx.h **** typedef enum _SSP_MASKINTSTATUS {
 152:../lpc11cx4-library/lpc_chip_11cxx_lib/inc/ssp_11xx.h **** 	SSP_RORMIS = ((uint32_t)(1 << 0)),	/**< Overun */
 153:../lpc11cx4-library/lpc_chip_11cxx_lib/inc/ssp_11xx.h **** 	SSP_RTMIS = ((uint32_t)(1 << 1)),	/**< TimeOut */
 154:../lpc11cx4-library/lpc_chip_11cxx_lib/inc/ssp_11xx.h **** 	SSP_RXMIS = ((uint32_t)(1 << 2)),	/**< Rx FIFO is at least half full */
 155:../lpc11cx4-library/lpc_chip_11cxx_lib/inc/ssp_11xx.h **** 	SSP_TXMIS = ((uint32_t)(1 << 3)),	/**< Tx FIFO is at least half empty */
 156:../lpc11cx4-library/lpc_chip_11cxx_lib/inc/ssp_11xx.h **** 	SSP_MASK_INT_STAT_BITMASK = ((uint32_t)(0xF)),
 157:../lpc11cx4-library/lpc_chip_11cxx_lib/inc/ssp_11xx.h **** } SSP_MASKINTSTATUS_T;
 158:../lpc11cx4-library/lpc_chip_11cxx_lib/inc/ssp_11xx.h **** 
 159:../lpc11cx4-library/lpc_chip_11cxx_lib/inc/ssp_11xx.h **** /**
 160:../lpc11cx4-library/lpc_chip_11cxx_lib/inc/ssp_11xx.h ****  * @brief SSP Type of Raw Interrupt Status
 161:../lpc11cx4-library/lpc_chip_11cxx_lib/inc/ssp_11xx.h ****  */
 162:../lpc11cx4-library/lpc_chip_11cxx_lib/inc/ssp_11xx.h **** typedef enum _SSP_RAWINTSTATUS {
 163:../lpc11cx4-library/lpc_chip_11cxx_lib/inc/ssp_11xx.h **** 	SSP_RORRIS = ((uint32_t)(1 << 0)),	/**< Overun */
 164:../lpc11cx4-library/lpc_chip_11cxx_lib/inc/ssp_11xx.h **** 	SSP_RTRIS = ((uint32_t)(1 << 1)),	/**< TimeOut */
 165:../lpc11cx4-library/lpc_chip_11cxx_lib/inc/ssp_11xx.h **** 	SSP_RXRIS = ((uint32_t)(1 << 2)),	/**< Rx FIFO is at least half full */
 166:../lpc11cx4-library/lpc_chip_11cxx_lib/inc/ssp_11xx.h **** 	SSP_TXRIS = ((uint32_t)(1 << 3)),	/**< Tx FIFO is at least half empty */
 167:../lpc11cx4-library/lpc_chip_11cxx_lib/inc/ssp_11xx.h **** 	SSP_RAW_INT_STAT_BITMASK = ((uint32_t)(0xF)),
 168:../lpc11cx4-library/lpc_chip_11cxx_lib/inc/ssp_11xx.h **** } SSP_RAWINTSTATUS_T;
 169:../lpc11cx4-library/lpc_chip_11cxx_lib/inc/ssp_11xx.h **** 
 170:../lpc11cx4-library/lpc_chip_11cxx_lib/inc/ssp_11xx.h **** typedef enum _SSP_INTCLEAR {
 171:../lpc11cx4-library/lpc_chip_11cxx_lib/inc/ssp_11xx.h **** 	SSP_RORIC = 0x0,
 172:../lpc11cx4-library/lpc_chip_11cxx_lib/inc/ssp_11xx.h **** 	SSP_RTIC = 0x1,
ARM GAS  /tmp/cc7TFFKb.s 			page 7


 173:../lpc11cx4-library/lpc_chip_11cxx_lib/inc/ssp_11xx.h **** 	SSP_INT_CLEAR_BITMASK = 0x3,
 174:../lpc11cx4-library/lpc_chip_11cxx_lib/inc/ssp_11xx.h **** } SSP_INTCLEAR_T;
 175:../lpc11cx4-library/lpc_chip_11cxx_lib/inc/ssp_11xx.h **** 
 176:../lpc11cx4-library/lpc_chip_11cxx_lib/inc/ssp_11xx.h **** /*
 177:../lpc11cx4-library/lpc_chip_11cxx_lib/inc/ssp_11xx.h ****  * @brief SSP clock format
 178:../lpc11cx4-library/lpc_chip_11cxx_lib/inc/ssp_11xx.h ****  */
 179:../lpc11cx4-library/lpc_chip_11cxx_lib/inc/ssp_11xx.h **** typedef enum CHIP_SSP_CLOCK_FORMAT {
 180:../lpc11cx4-library/lpc_chip_11cxx_lib/inc/ssp_11xx.h **** 	SSP_CLOCK_CPHA0_CPOL0 = (0 << 6),		/**< CPHA = 0, CPOL = 0 */
 181:../lpc11cx4-library/lpc_chip_11cxx_lib/inc/ssp_11xx.h **** 	SSP_CLOCK_CPHA0_CPOL1 = (1u << 6),		/**< CPHA = 0, CPOL = 1 */
 182:../lpc11cx4-library/lpc_chip_11cxx_lib/inc/ssp_11xx.h **** 	SSP_CLOCK_CPHA1_CPOL0 = (2u << 6),		/**< CPHA = 1, CPOL = 0 */
 183:../lpc11cx4-library/lpc_chip_11cxx_lib/inc/ssp_11xx.h **** 	SSP_CLOCK_CPHA1_CPOL1 = (3u << 6),		/**< CPHA = 1, CPOL = 1 */
 184:../lpc11cx4-library/lpc_chip_11cxx_lib/inc/ssp_11xx.h **** 	SSP_CLOCK_MODE0 = SSP_CLOCK_CPHA0_CPOL0,/**< alias */
 185:../lpc11cx4-library/lpc_chip_11cxx_lib/inc/ssp_11xx.h **** 	SSP_CLOCK_MODE1 = SSP_CLOCK_CPHA1_CPOL0,/**< alias */
 186:../lpc11cx4-library/lpc_chip_11cxx_lib/inc/ssp_11xx.h **** 	SSP_CLOCK_MODE2 = SSP_CLOCK_CPHA0_CPOL1,/**< alias */
 187:../lpc11cx4-library/lpc_chip_11cxx_lib/inc/ssp_11xx.h **** 	SSP_CLOCK_MODE3 = SSP_CLOCK_CPHA1_CPOL1,/**< alias */
 188:../lpc11cx4-library/lpc_chip_11cxx_lib/inc/ssp_11xx.h **** } CHIP_SSP_CLOCK_MODE_T;
 189:../lpc11cx4-library/lpc_chip_11cxx_lib/inc/ssp_11xx.h **** 
 190:../lpc11cx4-library/lpc_chip_11cxx_lib/inc/ssp_11xx.h **** /*
 191:../lpc11cx4-library/lpc_chip_11cxx_lib/inc/ssp_11xx.h ****  * @brief SSP frame format
 192:../lpc11cx4-library/lpc_chip_11cxx_lib/inc/ssp_11xx.h ****  */
 193:../lpc11cx4-library/lpc_chip_11cxx_lib/inc/ssp_11xx.h **** typedef enum CHIP_SSP_FRAME_FORMAT {
 194:../lpc11cx4-library/lpc_chip_11cxx_lib/inc/ssp_11xx.h **** 	SSP_FRAMEFORMAT_SPI = (0 << 4),			/**< Frame format: SPI */
 195:../lpc11cx4-library/lpc_chip_11cxx_lib/inc/ssp_11xx.h **** 	CHIP_SSP_FRAME_FORMAT_TI = (1u << 4),			/**< Frame format: TI SSI */
 196:../lpc11cx4-library/lpc_chip_11cxx_lib/inc/ssp_11xx.h **** 	SSP_FRAMEFORMAT_MICROWIRE = (2u << 4),	/**< Frame format: Microwire */
 197:../lpc11cx4-library/lpc_chip_11cxx_lib/inc/ssp_11xx.h **** } CHIP_SSP_FRAME_FORMAT_T;
 198:../lpc11cx4-library/lpc_chip_11cxx_lib/inc/ssp_11xx.h **** 
 199:../lpc11cx4-library/lpc_chip_11cxx_lib/inc/ssp_11xx.h **** /*
 200:../lpc11cx4-library/lpc_chip_11cxx_lib/inc/ssp_11xx.h ****  * @brief Number of bits per frame
 201:../lpc11cx4-library/lpc_chip_11cxx_lib/inc/ssp_11xx.h ****  */
 202:../lpc11cx4-library/lpc_chip_11cxx_lib/inc/ssp_11xx.h **** typedef enum CHIP_SSP_BITS {
 203:../lpc11cx4-library/lpc_chip_11cxx_lib/inc/ssp_11xx.h **** 	SSP_BITS_4 = (3u << 0),		/*!< 4 bits/frame */
 204:../lpc11cx4-library/lpc_chip_11cxx_lib/inc/ssp_11xx.h **** 	SSP_BITS_5 = (4u << 0),		/*!< 5 bits/frame */
 205:../lpc11cx4-library/lpc_chip_11cxx_lib/inc/ssp_11xx.h **** 	SSP_BITS_6 = (5u << 0),		/*!< 6 bits/frame */
 206:../lpc11cx4-library/lpc_chip_11cxx_lib/inc/ssp_11xx.h **** 	SSP_BITS_7 = (6u << 0),		/*!< 7 bits/frame */
 207:../lpc11cx4-library/lpc_chip_11cxx_lib/inc/ssp_11xx.h **** 	SSP_BITS_8 = (7u << 0),		/*!< 8 bits/frame */
 208:../lpc11cx4-library/lpc_chip_11cxx_lib/inc/ssp_11xx.h **** 	SSP_BITS_9 = (8u << 0),		/*!< 9 bits/frame */
 209:../lpc11cx4-library/lpc_chip_11cxx_lib/inc/ssp_11xx.h **** 	SSP_BITS_10 = (9u << 0),	/*!< 10 bits/frame */
 210:../lpc11cx4-library/lpc_chip_11cxx_lib/inc/ssp_11xx.h **** 	SSP_BITS_11 = (10u << 0),	/*!< 11 bits/frame */
 211:../lpc11cx4-library/lpc_chip_11cxx_lib/inc/ssp_11xx.h **** 	SSP_BITS_12 = (11u << 0),	/*!< 12 bits/frame */
 212:../lpc11cx4-library/lpc_chip_11cxx_lib/inc/ssp_11xx.h **** 	SSP_BITS_13 = (12u << 0),	/*!< 13 bits/frame */
 213:../lpc11cx4-library/lpc_chip_11cxx_lib/inc/ssp_11xx.h **** 	SSP_BITS_14 = (13u << 0),	/*!< 14 bits/frame */
 214:../lpc11cx4-library/lpc_chip_11cxx_lib/inc/ssp_11xx.h **** 	SSP_BITS_15 = (14u << 0),	/*!< 15 bits/frame */
 215:../lpc11cx4-library/lpc_chip_11cxx_lib/inc/ssp_11xx.h **** 	SSP_BITS_16 = (15u << 0),	/*!< 16 bits/frame */
 216:../lpc11cx4-library/lpc_chip_11cxx_lib/inc/ssp_11xx.h **** } CHIP_SSP_BITS_T;
 217:../lpc11cx4-library/lpc_chip_11cxx_lib/inc/ssp_11xx.h **** 
 218:../lpc11cx4-library/lpc_chip_11cxx_lib/inc/ssp_11xx.h **** /*
 219:../lpc11cx4-library/lpc_chip_11cxx_lib/inc/ssp_11xx.h ****  * @brief SSP config format
 220:../lpc11cx4-library/lpc_chip_11cxx_lib/inc/ssp_11xx.h ****  */
 221:../lpc11cx4-library/lpc_chip_11cxx_lib/inc/ssp_11xx.h **** typedef struct SSP_ConfigFormat {
 222:../lpc11cx4-library/lpc_chip_11cxx_lib/inc/ssp_11xx.h **** 	CHIP_SSP_BITS_T bits;					/*!< Format config: bits/frame */
 223:../lpc11cx4-library/lpc_chip_11cxx_lib/inc/ssp_11xx.h **** 	CHIP_SSP_CLOCK_MODE_T clockMode;	/*!< Format config: clock phase/polarity */
 224:../lpc11cx4-library/lpc_chip_11cxx_lib/inc/ssp_11xx.h **** 	CHIP_SSP_FRAME_FORMAT_T frameFormat;	/*!< Format config: SPI/TI/Microwire */
 225:../lpc11cx4-library/lpc_chip_11cxx_lib/inc/ssp_11xx.h **** } SSP_ConfigFormat;
 226:../lpc11cx4-library/lpc_chip_11cxx_lib/inc/ssp_11xx.h **** 
 227:../lpc11cx4-library/lpc_chip_11cxx_lib/inc/ssp_11xx.h **** /**
 228:../lpc11cx4-library/lpc_chip_11cxx_lib/inc/ssp_11xx.h ****  * @brief	Enable SSP operation
 229:../lpc11cx4-library/lpc_chip_11cxx_lib/inc/ssp_11xx.h ****  * @param	pSSP		: The base of SSP peripheral on the chip
ARM GAS  /tmp/cc7TFFKb.s 			page 8


 230:../lpc11cx4-library/lpc_chip_11cxx_lib/inc/ssp_11xx.h ****  * @return	 Nothing
 231:../lpc11cx4-library/lpc_chip_11cxx_lib/inc/ssp_11xx.h ****  */
 232:../lpc11cx4-library/lpc_chip_11cxx_lib/inc/ssp_11xx.h **** STATIC INLINE void Chip_SSP_Enable(LPC_SSP_T *pSSP)
 233:../lpc11cx4-library/lpc_chip_11cxx_lib/inc/ssp_11xx.h **** {
 234:../lpc11cx4-library/lpc_chip_11cxx_lib/inc/ssp_11xx.h **** 	pSSP->CR1 |= SSP_CR1_SSP_EN;
 235:../lpc11cx4-library/lpc_chip_11cxx_lib/inc/ssp_11xx.h **** }
 236:../lpc11cx4-library/lpc_chip_11cxx_lib/inc/ssp_11xx.h **** 
 237:../lpc11cx4-library/lpc_chip_11cxx_lib/inc/ssp_11xx.h **** /**
 238:../lpc11cx4-library/lpc_chip_11cxx_lib/inc/ssp_11xx.h ****  * @brief	Disable SSP operation
 239:../lpc11cx4-library/lpc_chip_11cxx_lib/inc/ssp_11xx.h ****  * @param	pSSP		: The base of SSP peripheral on the chip
 240:../lpc11cx4-library/lpc_chip_11cxx_lib/inc/ssp_11xx.h ****  * @return	 Nothing
 241:../lpc11cx4-library/lpc_chip_11cxx_lib/inc/ssp_11xx.h ****  */
 242:../lpc11cx4-library/lpc_chip_11cxx_lib/inc/ssp_11xx.h **** STATIC INLINE void Chip_SSP_Disable(LPC_SSP_T *pSSP)
 243:../lpc11cx4-library/lpc_chip_11cxx_lib/inc/ssp_11xx.h **** {
 244:../lpc11cx4-library/lpc_chip_11cxx_lib/inc/ssp_11xx.h **** 	pSSP->CR1 &= (~SSP_CR1_SSP_EN) & SSP_CR1_BITMASK;
 245:../lpc11cx4-library/lpc_chip_11cxx_lib/inc/ssp_11xx.h **** }
 246:../lpc11cx4-library/lpc_chip_11cxx_lib/inc/ssp_11xx.h **** 
 247:../lpc11cx4-library/lpc_chip_11cxx_lib/inc/ssp_11xx.h **** /**
 248:../lpc11cx4-library/lpc_chip_11cxx_lib/inc/ssp_11xx.h ****  * @brief	Enable loopback mode
 249:../lpc11cx4-library/lpc_chip_11cxx_lib/inc/ssp_11xx.h ****  * @param	pSSP		: The base of SSP peripheral on the chip
 250:../lpc11cx4-library/lpc_chip_11cxx_lib/inc/ssp_11xx.h ****  * @return	 Nothing
 251:../lpc11cx4-library/lpc_chip_11cxx_lib/inc/ssp_11xx.h ****  * @note	Serial input is taken from the serial output (MOSI or MISO) rather
 252:../lpc11cx4-library/lpc_chip_11cxx_lib/inc/ssp_11xx.h ****  * than the serial input pin
 253:../lpc11cx4-library/lpc_chip_11cxx_lib/inc/ssp_11xx.h ****  */
 254:../lpc11cx4-library/lpc_chip_11cxx_lib/inc/ssp_11xx.h **** STATIC INLINE void Chip_SSP_EnableLoopBack(LPC_SSP_T *pSSP)
 255:../lpc11cx4-library/lpc_chip_11cxx_lib/inc/ssp_11xx.h **** {
 256:../lpc11cx4-library/lpc_chip_11cxx_lib/inc/ssp_11xx.h **** 	pSSP->CR1 |= SSP_CR1_LBM_EN;
 257:../lpc11cx4-library/lpc_chip_11cxx_lib/inc/ssp_11xx.h **** }
 258:../lpc11cx4-library/lpc_chip_11cxx_lib/inc/ssp_11xx.h **** 
 259:../lpc11cx4-library/lpc_chip_11cxx_lib/inc/ssp_11xx.h **** /**
 260:../lpc11cx4-library/lpc_chip_11cxx_lib/inc/ssp_11xx.h ****  * @brief	Disable loopback mode
 261:../lpc11cx4-library/lpc_chip_11cxx_lib/inc/ssp_11xx.h ****  * @param	pSSP		: The base of SSP peripheral on the chip
 262:../lpc11cx4-library/lpc_chip_11cxx_lib/inc/ssp_11xx.h ****  * @return	 Nothing
 263:../lpc11cx4-library/lpc_chip_11cxx_lib/inc/ssp_11xx.h ****  * @note	Serial input is taken from the serial output (MOSI or MISO) rather
 264:../lpc11cx4-library/lpc_chip_11cxx_lib/inc/ssp_11xx.h ****  * than the serial input pin
 265:../lpc11cx4-library/lpc_chip_11cxx_lib/inc/ssp_11xx.h ****  */
 266:../lpc11cx4-library/lpc_chip_11cxx_lib/inc/ssp_11xx.h **** STATIC INLINE void Chip_SSP_DisableLoopBack(LPC_SSP_T *pSSP)
 267:../lpc11cx4-library/lpc_chip_11cxx_lib/inc/ssp_11xx.h **** {
 268:../lpc11cx4-library/lpc_chip_11cxx_lib/inc/ssp_11xx.h **** 	pSSP->CR1 &= (~SSP_CR1_LBM_EN) & SSP_CR1_BITMASK;
 269:../lpc11cx4-library/lpc_chip_11cxx_lib/inc/ssp_11xx.h **** }
 270:../lpc11cx4-library/lpc_chip_11cxx_lib/inc/ssp_11xx.h **** 
 271:../lpc11cx4-library/lpc_chip_11cxx_lib/inc/ssp_11xx.h **** /**
 272:../lpc11cx4-library/lpc_chip_11cxx_lib/inc/ssp_11xx.h ****  * @brief	Get the current status of SSP controller
 273:../lpc11cx4-library/lpc_chip_11cxx_lib/inc/ssp_11xx.h ****  * @param	pSSP	: The base of SSP peripheral on the chip
 274:../lpc11cx4-library/lpc_chip_11cxx_lib/inc/ssp_11xx.h ****  * @param	Stat	: Type of status, should be :
 275:../lpc11cx4-library/lpc_chip_11cxx_lib/inc/ssp_11xx.h ****  *						- SSP_STAT_TFE
 276:../lpc11cx4-library/lpc_chip_11cxx_lib/inc/ssp_11xx.h ****  *						- SSP_STAT_TNF
 277:../lpc11cx4-library/lpc_chip_11cxx_lib/inc/ssp_11xx.h ****  *						- SSP_STAT_RNE
 278:../lpc11cx4-library/lpc_chip_11cxx_lib/inc/ssp_11xx.h ****  *						- SSP_STAT_RFF
 279:../lpc11cx4-library/lpc_chip_11cxx_lib/inc/ssp_11xx.h ****  *						- SSP_STAT_BSY
 280:../lpc11cx4-library/lpc_chip_11cxx_lib/inc/ssp_11xx.h ****  * @return	 SSP controller status, SET or RESET
 281:../lpc11cx4-library/lpc_chip_11cxx_lib/inc/ssp_11xx.h ****  */
 282:../lpc11cx4-library/lpc_chip_11cxx_lib/inc/ssp_11xx.h **** STATIC INLINE FlagStatus Chip_SSP_GetStatus(LPC_SSP_T *pSSP, SSP_STATUS_T Stat)
 283:../lpc11cx4-library/lpc_chip_11cxx_lib/inc/ssp_11xx.h **** {
 284:../lpc11cx4-library/lpc_chip_11cxx_lib/inc/ssp_11xx.h **** 	return (pSSP->SR & Stat) ? SET : RESET;
  81              		.loc 2 284 0
  82 0000 C368     		ldr	r3, [r0, #12]	@ D.6782, pSSP_4(D)->SR
ARM GAS  /tmp/cc7TFFKb.s 			page 9


  83              	.LBE225:
  84              	.LBE224:
  85              		.loc 1 90 0
  86 0002 30B5     		push	{r4, r5, lr}	@
  87              		.cfi_def_cfa_offset 12
  88              		.cfi_offset 4, -12
  89              		.cfi_offset 5, -8
  90              		.cfi_offset 14, -4
  91:../lpc11cx4-library/lpc_chip_11cxx_lib/src/ssp_11xx.c **** 	uint16_t rDat;
  92:../lpc11cx4-library/lpc_chip_11cxx_lib/src/ssp_11xx.c **** 
  93:../lpc11cx4-library/lpc_chip_11cxx_lib/src/ssp_11xx.c **** 	while ((Chip_SSP_GetStatus(pSSP, SSP_STAT_RNE) == SET) &&
  91              		.loc 1 93 0
  92 0004 5B07     		lsl	r3, r3, #29	@ tmp136, D.6782,
  93 0006 13D5     		bpl	.L1	@,
  94:../lpc11cx4-library/lpc_chip_11cxx_lib/src/ssp_11xx.c **** 		   (xf_setup->rx_cnt < xf_setup->length)) {
  94              		.loc 1 94 0
  95 0008 CB68     		ldr	r3, [r1, #12]	@ xf_setup_5(D)->rx_cnt, xf_setup_5(D)->rx_cnt
  93:../lpc11cx4-library/lpc_chip_11cxx_lib/src/ssp_11xx.c **** 		   (xf_setup->rx_cnt < xf_setup->length)) {
  96              		.loc 1 93 0
  97 000a 0A69     		ldr	r2, [r1, #16]	@ tmp137, xf_setup_5(D)->length
  98 000c 9342     		cmp	r3, r2	@ xf_setup_5(D)->rx_cnt, tmp137
  99 000e 0FD2     		bcs	.L1	@,
 100              	.LBB228:
 101              	.LBB226:
 102              		.loc 2 284 0
 103 0010 0425     		mov	r5, #4	@ tmp135,
 104 0012 02E0     		b	.L5	@
 105              	.LVL1:
 106              	.L14:
 107              	.LBE226:
 108              	.LBE228:
  93:../lpc11cx4-library/lpc_chip_11cxx_lib/src/ssp_11xx.c **** 		   (xf_setup->rx_cnt < xf_setup->length)) {
 109              		.loc 1 93 0 discriminator 1
 110 0014 0A69     		ldr	r2, [r1, #16]	@ tmp139, xf_setup_5(D)->length
 111 0016 9A42     		cmp	r2, r3	@ tmp139, xf_setup_5(D)->rx_cnt
 112 0018 0AD9     		bls	.L1	@,
 113              	.LVL2:
 114              	.L5:
  95:../lpc11cx4-library/lpc_chip_11cxx_lib/src/ssp_11xx.c **** 		rDat = Chip_SSP_ReceiveFrame(pSSP);
  96:../lpc11cx4-library/lpc_chip_11cxx_lib/src/ssp_11xx.c **** 		if (xf_setup->rx_data) {
 115              		.loc 1 96 0
 116 001a 8A68     		ldr	r2, [r1, #8]	@ D.6783, xf_setup_5(D)->rx_data
 117              	.LBB229:
 118              	.LBB230:
 285:../lpc11cx4-library/lpc_chip_11cxx_lib/inc/ssp_11xx.h **** }
 286:../lpc11cx4-library/lpc_chip_11cxx_lib/inc/ssp_11xx.h **** 
 287:../lpc11cx4-library/lpc_chip_11cxx_lib/inc/ssp_11xx.h **** /**
 288:../lpc11cx4-library/lpc_chip_11cxx_lib/inc/ssp_11xx.h ****  * @brief	Get the masked interrupt status
 289:../lpc11cx4-library/lpc_chip_11cxx_lib/inc/ssp_11xx.h ****  * @param	pSSP	: The base of SSP peripheral on the chip
 290:../lpc11cx4-library/lpc_chip_11cxx_lib/inc/ssp_11xx.h ****  * @return	 SSP Masked Interrupt Status Register value
 291:../lpc11cx4-library/lpc_chip_11cxx_lib/inc/ssp_11xx.h ****  * @note	The return value contains a 1 for each interrupt condition that is asserted and enabled (m
 292:../lpc11cx4-library/lpc_chip_11cxx_lib/inc/ssp_11xx.h ****  */
 293:../lpc11cx4-library/lpc_chip_11cxx_lib/inc/ssp_11xx.h **** STATIC INLINE uint32_t Chip_SSP_GetIntStatus(LPC_SSP_T *pSSP)
 294:../lpc11cx4-library/lpc_chip_11cxx_lib/inc/ssp_11xx.h **** {
 295:../lpc11cx4-library/lpc_chip_11cxx_lib/inc/ssp_11xx.h **** 	return pSSP->MIS;
 296:../lpc11cx4-library/lpc_chip_11cxx_lib/inc/ssp_11xx.h **** }
 297:../lpc11cx4-library/lpc_chip_11cxx_lib/inc/ssp_11xx.h **** 
ARM GAS  /tmp/cc7TFFKb.s 			page 10


 298:../lpc11cx4-library/lpc_chip_11cxx_lib/inc/ssp_11xx.h **** /**
 299:../lpc11cx4-library/lpc_chip_11cxx_lib/inc/ssp_11xx.h ****  * @brief	Get the raw interrupt status
 300:../lpc11cx4-library/lpc_chip_11cxx_lib/inc/ssp_11xx.h ****  * @param	pSSP	: The base of SSP peripheral on the chip
 301:../lpc11cx4-library/lpc_chip_11cxx_lib/inc/ssp_11xx.h ****  * @param	RawInt	: Interrupt condition to be get status, shoud be :
 302:../lpc11cx4-library/lpc_chip_11cxx_lib/inc/ssp_11xx.h ****  *						- SSP_RORRIS
 303:../lpc11cx4-library/lpc_chip_11cxx_lib/inc/ssp_11xx.h ****  *						- SSP_RTRIS
 304:../lpc11cx4-library/lpc_chip_11cxx_lib/inc/ssp_11xx.h ****  *						- SSP_RXRIS
 305:../lpc11cx4-library/lpc_chip_11cxx_lib/inc/ssp_11xx.h ****  *						- SSP_TXRIS
 306:../lpc11cx4-library/lpc_chip_11cxx_lib/inc/ssp_11xx.h ****  * @return	 Raw interrupt status corresponding to interrupt condition , SET or RESET
 307:../lpc11cx4-library/lpc_chip_11cxx_lib/inc/ssp_11xx.h ****  * @note	Get the status of each interrupt condition ,regardless of whether or not the interrupt is 
 308:../lpc11cx4-library/lpc_chip_11cxx_lib/inc/ssp_11xx.h ****  */
 309:../lpc11cx4-library/lpc_chip_11cxx_lib/inc/ssp_11xx.h **** STATIC INLINE IntStatus Chip_SSP_GetRawIntStatus(LPC_SSP_T *pSSP, SSP_RAWINTSTATUS_T RawInt)
 310:../lpc11cx4-library/lpc_chip_11cxx_lib/inc/ssp_11xx.h **** {
 311:../lpc11cx4-library/lpc_chip_11cxx_lib/inc/ssp_11xx.h **** 	return (pSSP->RIS & RawInt) ? SET : RESET;
 312:../lpc11cx4-library/lpc_chip_11cxx_lib/inc/ssp_11xx.h **** }
 313:../lpc11cx4-library/lpc_chip_11cxx_lib/inc/ssp_11xx.h **** 
 314:../lpc11cx4-library/lpc_chip_11cxx_lib/inc/ssp_11xx.h **** /**
 315:../lpc11cx4-library/lpc_chip_11cxx_lib/inc/ssp_11xx.h ****  * @brief	Get the number of bits transferred in each frame
 316:../lpc11cx4-library/lpc_chip_11cxx_lib/inc/ssp_11xx.h ****  * @param	pSSP	: The base of SSP peripheral on the chip
 317:../lpc11cx4-library/lpc_chip_11cxx_lib/inc/ssp_11xx.h ****  * @return	 the number of bits transferred in each frame minus one
 318:../lpc11cx4-library/lpc_chip_11cxx_lib/inc/ssp_11xx.h ****  * @note	The return value is 0x03 -> 0xF corresponding to 4bit -> 16bit transfer
 319:../lpc11cx4-library/lpc_chip_11cxx_lib/inc/ssp_11xx.h ****  */
 320:../lpc11cx4-library/lpc_chip_11cxx_lib/inc/ssp_11xx.h **** STATIC INLINE uint8_t Chip_SSP_GetDataSize(LPC_SSP_T *pSSP)
 321:../lpc11cx4-library/lpc_chip_11cxx_lib/inc/ssp_11xx.h **** {
 322:../lpc11cx4-library/lpc_chip_11cxx_lib/inc/ssp_11xx.h **** 	return SSP_CR0_DSS(pSSP->CR0);
 323:../lpc11cx4-library/lpc_chip_11cxx_lib/inc/ssp_11xx.h **** }
 324:../lpc11cx4-library/lpc_chip_11cxx_lib/inc/ssp_11xx.h **** 
 325:../lpc11cx4-library/lpc_chip_11cxx_lib/inc/ssp_11xx.h **** /**
 326:../lpc11cx4-library/lpc_chip_11cxx_lib/inc/ssp_11xx.h ****  * @brief	Clear the corresponding interrupt condition(s) in the SSP controller
 327:../lpc11cx4-library/lpc_chip_11cxx_lib/inc/ssp_11xx.h ****  * @param	pSSP	: The base of SSP peripheral on the chip
 328:../lpc11cx4-library/lpc_chip_11cxx_lib/inc/ssp_11xx.h ****  * @param	IntClear: Type of cleared interrupt, should be :
 329:../lpc11cx4-library/lpc_chip_11cxx_lib/inc/ssp_11xx.h ****  *						- SSP_RORIC
 330:../lpc11cx4-library/lpc_chip_11cxx_lib/inc/ssp_11xx.h ****  *						- SSP_RTIC
 331:../lpc11cx4-library/lpc_chip_11cxx_lib/inc/ssp_11xx.h ****  * @return	 Nothing
 332:../lpc11cx4-library/lpc_chip_11cxx_lib/inc/ssp_11xx.h ****  * @note	Software can clear one or more interrupt condition(s) in the SSP controller
 333:../lpc11cx4-library/lpc_chip_11cxx_lib/inc/ssp_11xx.h ****  */
 334:../lpc11cx4-library/lpc_chip_11cxx_lib/inc/ssp_11xx.h **** STATIC INLINE void Chip_SSP_ClearIntPending(LPC_SSP_T *pSSP, SSP_INTCLEAR_T IntClear)
 335:../lpc11cx4-library/lpc_chip_11cxx_lib/inc/ssp_11xx.h **** {
 336:../lpc11cx4-library/lpc_chip_11cxx_lib/inc/ssp_11xx.h **** 	pSSP->ICR = IntClear;
 337:../lpc11cx4-library/lpc_chip_11cxx_lib/inc/ssp_11xx.h **** }
 338:../lpc11cx4-library/lpc_chip_11cxx_lib/inc/ssp_11xx.h **** 
 339:../lpc11cx4-library/lpc_chip_11cxx_lib/inc/ssp_11xx.h **** /**
 340:../lpc11cx4-library/lpc_chip_11cxx_lib/inc/ssp_11xx.h ****  * @brief	Enable interrupt for the SSP
 341:../lpc11cx4-library/lpc_chip_11cxx_lib/inc/ssp_11xx.h ****  * @param	pSSP		: The base of SSP peripheral on the chip
 342:../lpc11cx4-library/lpc_chip_11cxx_lib/inc/ssp_11xx.h ****  * @return	 Nothing
 343:../lpc11cx4-library/lpc_chip_11cxx_lib/inc/ssp_11xx.h ****  */
 344:../lpc11cx4-library/lpc_chip_11cxx_lib/inc/ssp_11xx.h **** STATIC INLINE void Chip_SSP_Int_Enable(LPC_SSP_T *pSSP)
 345:../lpc11cx4-library/lpc_chip_11cxx_lib/inc/ssp_11xx.h **** {
 346:../lpc11cx4-library/lpc_chip_11cxx_lib/inc/ssp_11xx.h **** 	pSSP->IMSC |= SSP_TXIM;
 347:../lpc11cx4-library/lpc_chip_11cxx_lib/inc/ssp_11xx.h **** }
 348:../lpc11cx4-library/lpc_chip_11cxx_lib/inc/ssp_11xx.h **** 
 349:../lpc11cx4-library/lpc_chip_11cxx_lib/inc/ssp_11xx.h **** /**
 350:../lpc11cx4-library/lpc_chip_11cxx_lib/inc/ssp_11xx.h ****  * @brief	Disable interrupt for the SSP
 351:../lpc11cx4-library/lpc_chip_11cxx_lib/inc/ssp_11xx.h ****  * @param	pSSP		: The base of SSP peripheral on the chip
 352:../lpc11cx4-library/lpc_chip_11cxx_lib/inc/ssp_11xx.h ****  * @return	 Nothing
 353:../lpc11cx4-library/lpc_chip_11cxx_lib/inc/ssp_11xx.h ****  */
 354:../lpc11cx4-library/lpc_chip_11cxx_lib/inc/ssp_11xx.h **** STATIC INLINE void Chip_SSP_Int_Disable(LPC_SSP_T *pSSP)
ARM GAS  /tmp/cc7TFFKb.s 			page 11


 355:../lpc11cx4-library/lpc_chip_11cxx_lib/inc/ssp_11xx.h **** {
 356:../lpc11cx4-library/lpc_chip_11cxx_lib/inc/ssp_11xx.h **** 	pSSP->IMSC &= (~SSP_TXIM);
 357:../lpc11cx4-library/lpc_chip_11cxx_lib/inc/ssp_11xx.h **** }
 358:../lpc11cx4-library/lpc_chip_11cxx_lib/inc/ssp_11xx.h **** 
 359:../lpc11cx4-library/lpc_chip_11cxx_lib/inc/ssp_11xx.h **** /**
 360:../lpc11cx4-library/lpc_chip_11cxx_lib/inc/ssp_11xx.h ****  * @brief	Get received SSP data
 361:../lpc11cx4-library/lpc_chip_11cxx_lib/inc/ssp_11xx.h ****  * @param	pSSP	: The base of SSP peripheral on the chip
 362:../lpc11cx4-library/lpc_chip_11cxx_lib/inc/ssp_11xx.h ****  * @return	 SSP 16-bit data received
 363:../lpc11cx4-library/lpc_chip_11cxx_lib/inc/ssp_11xx.h ****  */
 364:../lpc11cx4-library/lpc_chip_11cxx_lib/inc/ssp_11xx.h **** STATIC INLINE uint16_t Chip_SSP_ReceiveFrame(LPC_SSP_T *pSSP)
 365:../lpc11cx4-library/lpc_chip_11cxx_lib/inc/ssp_11xx.h **** {
 366:../lpc11cx4-library/lpc_chip_11cxx_lib/inc/ssp_11xx.h **** 	return (uint16_t) (SSP_DR_BITMASK(pSSP->DR));
 119              		.loc 2 366 0
 120 001c 8468     		ldr	r4, [r0, #8]	@ D.6782, pSSP_4(D)->DR
 121              	.LBE230:
 122              	.LBE229:
 123              		.loc 1 96 0
 124 001e 002A     		cmp	r2, #0	@ D.6783,
 125 0020 01D0     		beq	.L4	@,
  97:../lpc11cx4-library/lpc_chip_11cxx_lib/src/ssp_11xx.c **** 			*(uint8_t *) ((uint32_t) xf_setup->rx_data + xf_setup->rx_cnt) = rDat;
 126              		.loc 1 97 0
 127 0022 D454     		strb	r4, [r2, r3]	@ D.6782, *_12
 128 0024 CB68     		ldr	r3, [r1, #12]	@ xf_setup_5(D)->rx_cnt, xf_setup_5(D)->rx_cnt
 129              	.L4:
 130              	.LBB231:
 131              	.LBB227:
 284:../lpc11cx4-library/lpc_chip_11cxx_lib/inc/ssp_11xx.h **** }
 132              		.loc 2 284 0
 133 0026 C268     		ldr	r2, [r0, #12]	@ D.6782, pSSP_4(D)->SR
 134              	.LBE227:
 135              	.LBE231:
  98:../lpc11cx4-library/lpc_chip_11cxx_lib/src/ssp_11xx.c **** 		}
  99:../lpc11cx4-library/lpc_chip_11cxx_lib/src/ssp_11xx.c **** 
 100:../lpc11cx4-library/lpc_chip_11cxx_lib/src/ssp_11xx.c **** 		xf_setup->rx_cnt++;
 136              		.loc 1 100 0
 137 0028 0133     		add	r3, r3, #1	@ xf_setup_5(D)->rx_cnt,
 138 002a CB60     		str	r3, [r1, #12]	@ xf_setup_5(D)->rx_cnt, xf_setup_5(D)->rx_cnt
  93:../lpc11cx4-library/lpc_chip_11cxx_lib/src/ssp_11xx.c **** 		   (xf_setup->rx_cnt < xf_setup->length)) {
 139              		.loc 1 93 0
 140 002c 1542     		tst	r5, r2	@ tmp135, D.6782
 141 002e F1D1     		bne	.L14	@,
 142              	.LVL3:
 143              	.L1:
 101:../lpc11cx4-library/lpc_chip_11cxx_lib/src/ssp_11xx.c **** 	}
 102:../lpc11cx4-library/lpc_chip_11cxx_lib/src/ssp_11xx.c **** }
 144              		.loc 1 102 0
 145              		@ sp needed	@
 146 0030 30BD     		pop	{r4, r5, pc}
 147              		.cfi_endproc
 148              	.LFE201:
 149              		.size	SSP_Read1BFifo, .-SSP_Read1BFifo
 150 0032 C046     		.section	.text.Chip_SSP_SetClockRate,"ax",%progbits
 151              		.align	2
 152              		.global	Chip_SSP_SetClockRate
 153              		.code	16
 154              		.thumb_func
 155              		.type	Chip_SSP_SetClockRate, %function
ARM GAS  /tmp/cc7TFFKb.s 			page 12


 156              	Chip_SSP_SetClockRate:
 157              	.LFB206:
 103:../lpc11cx4-library/lpc_chip_11cxx_lib/src/ssp_11xx.c **** 
 104:../lpc11cx4-library/lpc_chip_11cxx_lib/src/ssp_11xx.c **** /* Returns clock for the peripheral block */
 105:../lpc11cx4-library/lpc_chip_11cxx_lib/src/ssp_11xx.c **** STATIC CHIP_SYSCTL_CLOCK_T Chip_SSP_GetClockIndex(LPC_SSP_T *pSSP)
 106:../lpc11cx4-library/lpc_chip_11cxx_lib/src/ssp_11xx.c **** {
 107:../lpc11cx4-library/lpc_chip_11cxx_lib/src/ssp_11xx.c **** 	CHIP_SYSCTL_CLOCK_T clkSSP;
 108:../lpc11cx4-library/lpc_chip_11cxx_lib/src/ssp_11xx.c **** 
 109:../lpc11cx4-library/lpc_chip_11cxx_lib/src/ssp_11xx.c **** 	if (pSSP == LPC_SSP0) {
 110:../lpc11cx4-library/lpc_chip_11cxx_lib/src/ssp_11xx.c **** 		clkSSP = SYSCTL_CLOCK_SSP0;
 111:../lpc11cx4-library/lpc_chip_11cxx_lib/src/ssp_11xx.c **** 	}
 112:../lpc11cx4-library/lpc_chip_11cxx_lib/src/ssp_11xx.c **** #if defined(CHIP_LPC11CXX) || defined(CHIP_LPC11EXX) || defined(CHIP_LPC11AXX) || defined(CHIP_LPC1
 113:../lpc11cx4-library/lpc_chip_11cxx_lib/src/ssp_11xx.c **** 	else {
 114:../lpc11cx4-library/lpc_chip_11cxx_lib/src/ssp_11xx.c **** 		clkSSP = SYSCTL_CLOCK_SSP1;
 115:../lpc11cx4-library/lpc_chip_11cxx_lib/src/ssp_11xx.c **** 	}
 116:../lpc11cx4-library/lpc_chip_11cxx_lib/src/ssp_11xx.c **** #endif
 117:../lpc11cx4-library/lpc_chip_11cxx_lib/src/ssp_11xx.c **** 		
 118:../lpc11cx4-library/lpc_chip_11cxx_lib/src/ssp_11xx.c **** 	return clkSSP;
 119:../lpc11cx4-library/lpc_chip_11cxx_lib/src/ssp_11xx.c **** }
 120:../lpc11cx4-library/lpc_chip_11cxx_lib/src/ssp_11xx.c **** 
 121:../lpc11cx4-library/lpc_chip_11cxx_lib/src/ssp_11xx.c **** /* Returns reset ID for the peripheral block */
 122:../lpc11cx4-library/lpc_chip_11cxx_lib/src/ssp_11xx.c **** STATIC CHIP_SYSCTL_PERIPH_RESET_T Chip_SSP_GetResetIndex(LPC_SSP_T *pSSP)
 123:../lpc11cx4-library/lpc_chip_11cxx_lib/src/ssp_11xx.c **** {
 124:../lpc11cx4-library/lpc_chip_11cxx_lib/src/ssp_11xx.c **** 	CHIP_SYSCTL_PERIPH_RESET_T resetSSP;
 125:../lpc11cx4-library/lpc_chip_11cxx_lib/src/ssp_11xx.c **** 
 126:../lpc11cx4-library/lpc_chip_11cxx_lib/src/ssp_11xx.c **** 	if (pSSP == LPC_SSP0) {
 127:../lpc11cx4-library/lpc_chip_11cxx_lib/src/ssp_11xx.c **** 		resetSSP = RESET_SSP0;
 128:../lpc11cx4-library/lpc_chip_11cxx_lib/src/ssp_11xx.c **** 	}
 129:../lpc11cx4-library/lpc_chip_11cxx_lib/src/ssp_11xx.c **** 	else {
 130:../lpc11cx4-library/lpc_chip_11cxx_lib/src/ssp_11xx.c **** 		resetSSP = RESET_SSP1;
 131:../lpc11cx4-library/lpc_chip_11cxx_lib/src/ssp_11xx.c **** 	}
 132:../lpc11cx4-library/lpc_chip_11cxx_lib/src/ssp_11xx.c **** 
 133:../lpc11cx4-library/lpc_chip_11cxx_lib/src/ssp_11xx.c **** 	return resetSSP;
 134:../lpc11cx4-library/lpc_chip_11cxx_lib/src/ssp_11xx.c **** }
 135:../lpc11cx4-library/lpc_chip_11cxx_lib/src/ssp_11xx.c **** 
 136:../lpc11cx4-library/lpc_chip_11cxx_lib/src/ssp_11xx.c **** /* Returns reset ID for the peripheral block */
 137:../lpc11cx4-library/lpc_chip_11cxx_lib/src/ssp_11xx.c **** STATIC void Chip_SSP_SetSSPClkDivider(LPC_SSP_T *pSSP, uint32_t div)
 138:../lpc11cx4-library/lpc_chip_11cxx_lib/src/ssp_11xx.c **** {
 139:../lpc11cx4-library/lpc_chip_11cxx_lib/src/ssp_11xx.c **** 	if (pSSP == LPC_SSP0) {
 140:../lpc11cx4-library/lpc_chip_11cxx_lib/src/ssp_11xx.c **** 		Chip_Clock_SetSSP0ClockDiv(div);
 141:../lpc11cx4-library/lpc_chip_11cxx_lib/src/ssp_11xx.c **** 	}
 142:../lpc11cx4-library/lpc_chip_11cxx_lib/src/ssp_11xx.c **** #if defined(CHIP_LPC11CXX) || defined(CHIP_LPC11EXX) || defined(CHIP_LPC11AXX) || defined(CHIP_LPC1
 143:../lpc11cx4-library/lpc_chip_11cxx_lib/src/ssp_11xx.c **** 	else {
 144:../lpc11cx4-library/lpc_chip_11cxx_lib/src/ssp_11xx.c **** 		Chip_Clock_SetSSP1ClockDiv(div);
 145:../lpc11cx4-library/lpc_chip_11cxx_lib/src/ssp_11xx.c **** 	}
 146:../lpc11cx4-library/lpc_chip_11cxx_lib/src/ssp_11xx.c **** #endif
 147:../lpc11cx4-library/lpc_chip_11cxx_lib/src/ssp_11xx.c **** }
 148:../lpc11cx4-library/lpc_chip_11cxx_lib/src/ssp_11xx.c **** 
 149:../lpc11cx4-library/lpc_chip_11cxx_lib/src/ssp_11xx.c **** /* Returns SSP peripheral clock for the peripheral block */
 150:../lpc11cx4-library/lpc_chip_11cxx_lib/src/ssp_11xx.c **** STATIC uint32_t Chip_SSP_GetPCLKkRate(LPC_SSP_T *pSSP)
 151:../lpc11cx4-library/lpc_chip_11cxx_lib/src/ssp_11xx.c **** {
 152:../lpc11cx4-library/lpc_chip_11cxx_lib/src/ssp_11xx.c **** 	uint32_t sspCLK = Chip_Clock_GetMainClockRate();
 153:../lpc11cx4-library/lpc_chip_11cxx_lib/src/ssp_11xx.c **** 
 154:../lpc11cx4-library/lpc_chip_11cxx_lib/src/ssp_11xx.c **** 	if (pSSP == LPC_SSP0) {
 155:../lpc11cx4-library/lpc_chip_11cxx_lib/src/ssp_11xx.c **** 		sspCLK /= Chip_Clock_GetSSP0ClockDiv();
 156:../lpc11cx4-library/lpc_chip_11cxx_lib/src/ssp_11xx.c **** 	}
 157:../lpc11cx4-library/lpc_chip_11cxx_lib/src/ssp_11xx.c **** #if defined(CHIP_LPC11CXX) || defined(CHIP_LPC11EXX) || defined(CHIP_LPC11AXX) || defined(CHIP_LPC1
ARM GAS  /tmp/cc7TFFKb.s 			page 13


 158:../lpc11cx4-library/lpc_chip_11cxx_lib/src/ssp_11xx.c **** 	else {
 159:../lpc11cx4-library/lpc_chip_11cxx_lib/src/ssp_11xx.c **** 		sspCLK /= Chip_Clock_GetSSP1ClockDiv();
 160:../lpc11cx4-library/lpc_chip_11cxx_lib/src/ssp_11xx.c **** 	}
 161:../lpc11cx4-library/lpc_chip_11cxx_lib/src/ssp_11xx.c **** #endif
 162:../lpc11cx4-library/lpc_chip_11cxx_lib/src/ssp_11xx.c **** 	
 163:../lpc11cx4-library/lpc_chip_11cxx_lib/src/ssp_11xx.c ****     return sspCLK;
 164:../lpc11cx4-library/lpc_chip_11cxx_lib/src/ssp_11xx.c **** }
 165:../lpc11cx4-library/lpc_chip_11cxx_lib/src/ssp_11xx.c **** 
 166:../lpc11cx4-library/lpc_chip_11cxx_lib/src/ssp_11xx.c **** /*****************************************************************************
 167:../lpc11cx4-library/lpc_chip_11cxx_lib/src/ssp_11xx.c ****  * Public functions
 168:../lpc11cx4-library/lpc_chip_11cxx_lib/src/ssp_11xx.c ****  ****************************************************************************/
 169:../lpc11cx4-library/lpc_chip_11cxx_lib/src/ssp_11xx.c **** 
 170:../lpc11cx4-library/lpc_chip_11cxx_lib/src/ssp_11xx.c **** /*Set up output clocks per bit for SSP bus*/
 171:../lpc11cx4-library/lpc_chip_11cxx_lib/src/ssp_11xx.c **** void Chip_SSP_SetClockRate(LPC_SSP_T *pSSP, uint32_t clk_rate, uint32_t prescale)
 172:../lpc11cx4-library/lpc_chip_11cxx_lib/src/ssp_11xx.c **** {
 158              		.loc 1 172 0
 159              		.cfi_startproc
 160              	.LVL4:
 161 0000 10B5     		push	{r4, lr}	@
 162              		.cfi_def_cfa_offset 8
 163              		.cfi_offset 4, -8
 164              		.cfi_offset 14, -4
 173:../lpc11cx4-library/lpc_chip_11cxx_lib/src/ssp_11xx.c **** 	uint32_t temp;
 174:../lpc11cx4-library/lpc_chip_11cxx_lib/src/ssp_11xx.c **** 	temp = pSSP->CR0 & (~(SSP_CR0_SCR(0xFF)));
 165              		.loc 1 174 0
 166 0002 044B     		ldr	r3, .L16	@ tmp122,
 167 0004 0468     		ldr	r4, [r0]	@ D.6788, pSSP_2(D)->CR0
 168              	.LVL5:
 175:../lpc11cx4-library/lpc_chip_11cxx_lib/src/ssp_11xx.c **** 	pSSP->CR0 = temp | (SSP_CR0_SCR(clk_rate));
 169              		.loc 1 175 0
 170 0006 0906     		lsl	r1, r1, #24	@ tmp120, clk_rate,
 171              	.LVL6:
 174:../lpc11cx4-library/lpc_chip_11cxx_lib/src/ssp_11xx.c **** 	pSSP->CR0 = temp | (SSP_CR0_SCR(clk_rate));
 172              		.loc 1 174 0
 173 0008 2340     		and	r3, r4	@ temp, D.6788
 174              	.LVL7:
 175              		.loc 1 175 0
 176 000a 090C     		lsr	r1, r1, #16	@ D.6788, tmp120,
 177 000c 1943     		orr	r1, r3	@ D.6788, temp
 178 000e 0160     		str	r1, [r0]	@ D.6788, pSSP_2(D)->CR0
 176:../lpc11cx4-library/lpc_chip_11cxx_lib/src/ssp_11xx.c **** 	pSSP->CPSR = prescale;
 177:../lpc11cx4-library/lpc_chip_11cxx_lib/src/ssp_11xx.c **** }
 179              		.loc 1 177 0
 180              		@ sp needed	@
 176:../lpc11cx4-library/lpc_chip_11cxx_lib/src/ssp_11xx.c **** 	pSSP->CPSR = prescale;
 181              		.loc 1 176 0
 182 0010 0261     		str	r2, [r0, #16]	@ prescale, pSSP_2(D)->CPSR
 183              		.loc 1 177 0
 184 0012 10BD     		pop	{r4, pc}
 185              	.L17:
 186              		.align	2
 187              	.L16:
 188 0014 FF00FFFF 		.word	-65281
 189              		.cfi_endproc
 190              	.LFE206:
 191              		.size	Chip_SSP_SetClockRate, .-Chip_SSP_SetClockRate
 192              		.section	.text.Chip_SSP_RWFrames_Blocking,"ax",%progbits
ARM GAS  /tmp/cc7TFFKb.s 			page 14


 193              		.align	2
 194              		.global	Chip_SSP_RWFrames_Blocking
 195              		.code	16
 196              		.thumb_func
 197              		.type	Chip_SSP_RWFrames_Blocking, %function
 198              	Chip_SSP_RWFrames_Blocking:
 199              	.LFB207:
 178:../lpc11cx4-library/lpc_chip_11cxx_lib/src/ssp_11xx.c **** 
 179:../lpc11cx4-library/lpc_chip_11cxx_lib/src/ssp_11xx.c **** /* SSP Polling Read/Write in blocking mode */
 180:../lpc11cx4-library/lpc_chip_11cxx_lib/src/ssp_11xx.c **** uint32_t Chip_SSP_RWFrames_Blocking(LPC_SSP_T *pSSP, Chip_SSP_DATA_SETUP_T *xf_setup)
 181:../lpc11cx4-library/lpc_chip_11cxx_lib/src/ssp_11xx.c **** {
 200              		.loc 1 181 0
 201              		.cfi_startproc
 202              	.LVL8:
 203 0000 F0B5     		push	{r4, r5, r6, r7, lr}	@
 204              		.cfi_def_cfa_offset 20
 205              		.cfi_offset 4, -20
 206              		.cfi_offset 5, -16
 207              		.cfi_offset 6, -12
 208              		.cfi_offset 7, -8
 209              		.cfi_offset 14, -4
 210 0002 4746     		mov	r7, r8	@,
 211              	.LBB232:
 212              	.LBB233:
 284:../lpc11cx4-library/lpc_chip_11cxx_lib/inc/ssp_11xx.h **** }
 213              		.loc 2 284 0
 214 0004 C368     		ldr	r3, [r0, #12]	@ D.6801, pSSP_10(D)->SR
 215              	.LBE233:
 216              	.LBE232:
 217              		.loc 1 181 0
 218 0006 80B4     		push	{r7}	@
 219              		.cfi_def_cfa_offset 24
 220              		.cfi_offset 8, -24
 221              		.loc 1 181 0
 222 0008 041C     		mov	r4, r0	@ pSSP, pSSP
 223 000a 0E1C     		mov	r6, r1	@ xf_setup, xf_setup
 182:../lpc11cx4-library/lpc_chip_11cxx_lib/src/ssp_11xx.c **** 	/* Clear all remaining frames in RX FIFO */
 183:../lpc11cx4-library/lpc_chip_11cxx_lib/src/ssp_11xx.c **** 	while (Chip_SSP_GetStatus(pSSP, SSP_STAT_RNE)) {
 224              		.loc 1 183 0
 225 000c 5B07     		lsl	r3, r3, #29	@ tmp242, D.6801,
 226 000e 04D5     		bpl	.L19	@,
 227              	.LBB236:
 228              	.LBB234:
 284:../lpc11cx4-library/lpc_chip_11cxx_lib/inc/ssp_11xx.h **** }
 229              		.loc 2 284 0
 230 0010 0422     		mov	r2, #4	@ tmp240,
 231              	.L60:
 232              	.LVL9:
 233              	.LBE234:
 234              	.LBE236:
 235              	.LBB237:
 236              	.LBB238:
 237              		.loc 2 366 0
 238 0012 A368     		ldr	r3, [r4, #8]	@ D.6801, pSSP_10(D)->DR
 239              	.LBE238:
 240              	.LBE237:
 241              	.LBB239:
ARM GAS  /tmp/cc7TFFKb.s 			page 15


 242              	.LBB235:
 284:../lpc11cx4-library/lpc_chip_11cxx_lib/inc/ssp_11xx.h **** }
 243              		.loc 2 284 0
 244 0014 E368     		ldr	r3, [r4, #12]	@ D.6801, pSSP_10(D)->SR
 245              	.LBE235:
 246              	.LBE239:
 247              		.loc 1 183 0
 248 0016 1A42     		tst	r2, r3	@ tmp240, D.6801
 249 0018 FBD1     		bne	.L60	@,
 250              	.LVL10:
 251              	.L19:
 252              	.LBB240:
 253              	.LBB241:
 336:../lpc11cx4-library/lpc_chip_11cxx_lib/inc/ssp_11xx.h **** }
 254              		.loc 2 336 0
 255 001a 0323     		mov	r3, #3	@ tmp195,
 256              	.LBE241:
 257              	.LBE240:
 184:../lpc11cx4-library/lpc_chip_11cxx_lib/src/ssp_11xx.c **** 		Chip_SSP_ReceiveFrame(pSSP);
 185:../lpc11cx4-library/lpc_chip_11cxx_lib/src/ssp_11xx.c **** 	}
 186:../lpc11cx4-library/lpc_chip_11cxx_lib/src/ssp_11xx.c **** 
 187:../lpc11cx4-library/lpc_chip_11cxx_lib/src/ssp_11xx.c **** 	/* Clear status */
 188:../lpc11cx4-library/lpc_chip_11cxx_lib/src/ssp_11xx.c **** 	Chip_SSP_ClearIntPending(pSSP, SSP_INT_CLEAR_BITMASK);
 189:../lpc11cx4-library/lpc_chip_11cxx_lib/src/ssp_11xx.c **** 
 190:../lpc11cx4-library/lpc_chip_11cxx_lib/src/ssp_11xx.c **** 	if (Chip_SSP_GetDataSize(pSSP) > SSP_BITS_8) {
 258              		.loc 1 190 0
 259 001c 0F22     		mov	r2, #15	@ tmp200,
 260              	.LBB243:
 261              	.LBB242:
 336:../lpc11cx4-library/lpc_chip_11cxx_lib/inc/ssp_11xx.h **** }
 262              		.loc 2 336 0
 263 001e 2362     		str	r3, [r4, #32]	@ tmp195, pSSP_10(D)->ICR
 264              	.LVL11:
 265              	.LBE242:
 266              	.LBE243:
 267              	.LBB244:
 268              	.LBB245:
 322:../lpc11cx4-library/lpc_chip_11cxx_lib/inc/ssp_11xx.h **** }
 269              		.loc 2 322 0
 270 0020 2368     		ldr	r3, [r4]	@ D.6801, pSSP_10(D)->CR0
 271              	.LBE245:
 272              	.LBE244:
 273              		.loc 1 190 0
 274 0022 1340     		and	r3, r2	@ tmp201, tmp200
 275 0024 072B     		cmp	r3, #7	@ tmp201,
 276 0026 3FD9     		bls	.L21	@,
 277              	.LBB246:
 278              	.LBB247:
 279              	.LBB248:
 280              	.LBB249:
 367:../lpc11cx4-library/lpc_chip_11cxx_lib/inc/ssp_11xx.h **** }
 368:../lpc11cx4-library/lpc_chip_11cxx_lib/inc/ssp_11xx.h **** 
 369:../lpc11cx4-library/lpc_chip_11cxx_lib/inc/ssp_11xx.h **** /**
 370:../lpc11cx4-library/lpc_chip_11cxx_lib/inc/ssp_11xx.h ****  * @brief	Send SSP 16-bit data
 371:../lpc11cx4-library/lpc_chip_11cxx_lib/inc/ssp_11xx.h ****  * @param	pSSP	: The base of SSP peripheral on the chip
 372:../lpc11cx4-library/lpc_chip_11cxx_lib/inc/ssp_11xx.h ****  * @param	tx_data	: SSP 16-bit data to be transmited
 373:../lpc11cx4-library/lpc_chip_11cxx_lib/inc/ssp_11xx.h ****  * @return	 Nothing
ARM GAS  /tmp/cc7TFFKb.s 			page 16


 374:../lpc11cx4-library/lpc_chip_11cxx_lib/inc/ssp_11xx.h ****  */
 375:../lpc11cx4-library/lpc_chip_11cxx_lib/inc/ssp_11xx.h **** STATIC INLINE void Chip_SSP_SendFrame(LPC_SSP_T *pSSP, uint16_t tx_data)
 376:../lpc11cx4-library/lpc_chip_11cxx_lib/inc/ssp_11xx.h **** {
 377:../lpc11cx4-library/lpc_chip_11cxx_lib/inc/ssp_11xx.h **** 	pSSP->DR = SSP_DR_BITMASK(tx_data);
 281              		.loc 2 377 0
 282 0028 3A4A     		ldr	r2, .L77	@ tmp234,
 283              	.LBE249:
 284              	.LBE248:
 285              	.LBE247:
 286              	.LBE246:
 287              	.LBB260:
 288              	.LBB261:
 284:../lpc11cx4-library/lpc_chip_11cxx_lib/inc/ssp_11xx.h **** }
 289              		.loc 2 284 0
 290 002a 0220     		mov	r0, #2	@ tmp233,
 291              	.LVL12:
 292              	.LBE261:
 293              	.LBE260:
 294              	.LBB264:
 295              	.LBB256:
 296              	.LBB252:
 297              	.LBB250:
 298              		.loc 2 377 0
 299 002c 9046     		mov	r8, r2	@ tmp234, tmp234
 300              	.LBE250:
 301              	.LBE252:
 302              	.LBE256:
 303              	.LBE264:
 304              	.LBB265:
 305              	.LBB266:
 311:../lpc11cx4-library/lpc_chip_11cxx_lib/inc/ssp_11xx.h **** }
 306              		.loc 2 311 0
 307 002e 0122     		mov	r2, #1	@ tmp235,
 308              	.LBE266:
 309              	.LBE265:
 310              	.LBB270:
 311              	.LBB271:
 312              	.LBB272:
 313              	.LBB273:
 284:../lpc11cx4-library/lpc_chip_11cxx_lib/inc/ssp_11xx.h **** }
 314              		.loc 2 284 0
 315 0030 0427     		mov	r7, #4	@ tmp236,
 316              	.LBE273:
 317              	.LBE272:
 318              	.LBE271:
 319              	.LBE270:
 320              	.LBB281:
 321              	.LBB267:
 311:../lpc11cx4-library/lpc_chip_11cxx_lib/inc/ssp_11xx.h **** }
 322              		.loc 2 311 0
 323 0032 9446     		mov	ip, r2	@ tmp235, tmp235
 324 0034 3569     		ldr	r5, [r6, #16]	@ D.6800, xf_setup_14(D)->length
 325 0036 F368     		ldr	r3, [r6, #12]	@ D.6800, xf_setup_14(D)->rx_cnt
 326              	.LVL13:
 327              	.L22:
 328              	.LBE267:
 329              	.LBE281:
ARM GAS  /tmp/cc7TFFKb.s 			page 17


 191:../lpc11cx4-library/lpc_chip_11cxx_lib/src/ssp_11xx.c **** 		while (xf_setup->rx_cnt < xf_setup->length || xf_setup->tx_cnt < xf_setup->length) {
 330              		.loc 1 191 0
 331 0038 9D42     		cmp	r5, r3	@ D.6800, D.6800
 332 003a 1FD8     		bhi	.L32	@,
 333              	.L75:
 334              		.loc 1 191 0 is_stmt 0 discriminator 1
 335 003c 7268     		ldr	r2, [r6, #4]	@ D.6801, xf_setup_14(D)->tx_cnt
 336 003e 111E     		sub	r1, r2, #0	@ D.6800, D.6801,
 337 0040 A942     		cmp	r1, r5	@ D.6800, D.6800
 338 0042 57D2     		bcs	.L42	@,
 339              	.LVL14:
 340              	.LBB282:
 341              	.LBB262:
 284:../lpc11cx4-library/lpc_chip_11cxx_lib/inc/ssp_11xx.h **** }
 342              		.loc 2 284 0 is_stmt 1
 343 0044 E168     		ldr	r1, [r4, #12]	@ D.6801, pSSP_10(D)->SR
 344              	.LBE262:
 345              	.LBE282:
 192:../lpc11cx4-library/lpc_chip_11cxx_lib/src/ssp_11xx.c **** 			/* write data to buffer */
 193:../lpc11cx4-library/lpc_chip_11cxx_lib/src/ssp_11xx.c **** 			if (( Chip_SSP_GetStatus(pSSP, SSP_STAT_TNF) == SET) && ( xf_setup->tx_cnt < xf_setup->length) )
 346              		.loc 1 193 0
 347 0046 0842     		tst	r0, r1	@ tmp233, D.6801
 348 0048 1ED1     		bne	.L43	@,
 349              	.L23:
 350              	.LVL15:
 194:../lpc11cx4-library/lpc_chip_11cxx_lib/src/ssp_11xx.c **** 				SSP_Write2BFifo(pSSP, xf_setup);
 195:../lpc11cx4-library/lpc_chip_11cxx_lib/src/ssp_11xx.c **** 			}
 196:../lpc11cx4-library/lpc_chip_11cxx_lib/src/ssp_11xx.c **** 
 197:../lpc11cx4-library/lpc_chip_11cxx_lib/src/ssp_11xx.c **** 			/* Check overrun error */
 198:../lpc11cx4-library/lpc_chip_11cxx_lib/src/ssp_11xx.c **** 			if (Chip_SSP_GetRawIntStatus(pSSP, SSP_RORRIS) == SET) {
 351              		.loc 1 198 0
 352 004a 6146     		mov	r1, ip	@ tmp235, tmp235
 353              	.LBB283:
 354              	.LBB268:
 311:../lpc11cx4-library/lpc_chip_11cxx_lib/inc/ssp_11xx.h **** }
 355              		.loc 2 311 0
 356 004c A269     		ldr	r2, [r4, #24]	@ D.6801, pSSP_10(D)->RIS
 357              	.LBE268:
 358              	.LBE283:
 359              		.loc 1 198 0
 360 004e 1142     		tst	r1, r2	@ tmp235, D.6801
 361 0050 26D1     		bne	.L39	@,
 362              	.L26:
 363              	.LVL16:
 364              	.LBB284:
 365              	.LBB280:
 366              	.LBB276:
 367              	.LBB274:
 284:../lpc11cx4-library/lpc_chip_11cxx_lib/inc/ssp_11xx.h **** }
 368              		.loc 2 284 0
 369 0052 E268     		ldr	r2, [r4, #12]	@ D.6801, pSSP_10(D)->SR
 370              	.LBE274:
 371              	.LBE276:
  77:../lpc11cx4-library/lpc_chip_11cxx_lib/src/ssp_11xx.c **** 		   (xf_setup->rx_cnt < xf_setup->length)) {
 372              		.loc 1 77 0
 373 0054 1742     		tst	r7, r2	@ tmp236, D.6801
 374 0056 EFD0     		beq	.L22	@,
ARM GAS  /tmp/cc7TFFKb.s 			page 18


 375 0058 9D42     		cmp	r5, r3	@ D.6800, D.6800
 376 005a EDD9     		bls	.L22	@,
 377 005c B168     		ldr	r1, [r6, #8]	@ D.6802, xf_setup_14(D)->rx_data
 378 005e 01E0     		b	.L31	@
 379              	.LVL17:
 380              	.L74:
 381 0060 AB42     		cmp	r3, r5	@ D.6800, D.6800
 382 0062 08D2     		bcs	.L72	@,
 383              	.LVL18:
 384              	.L31:
 385              	.LBB277:
 386              	.LBB278:
 366:../lpc11cx4-library/lpc_chip_11cxx_lib/inc/ssp_11xx.h **** }
 387              		.loc 2 366 0
 388 0064 A268     		ldr	r2, [r4, #8]	@ D.6801, pSSP_10(D)->DR
 389 0066 92B2     		uxth	r2, r2	@ D.6807, D.6801
 390              	.LBE278:
 391              	.LBE277:
  80:../lpc11cx4-library/lpc_chip_11cxx_lib/src/ssp_11xx.c **** 			*(uint16_t *) ((uint32_t) xf_setup->rx_data + xf_setup->rx_cnt) = rDat;
 392              		.loc 1 80 0
 393 0068 0029     		cmp	r1, #0	@ D.6802,
 394 006a 00D0     		beq	.L29	@,
  81:../lpc11cx4-library/lpc_chip_11cxx_lib/src/ssp_11xx.c **** 		}
 395              		.loc 1 81 0
 396 006c CA52     		strh	r2, [r1, r3]	@ D.6807, MEM[base: _102, index: _115, offset: 0B]
 397              	.L29:
 398              	.LBB279:
 399              	.LBB275:
 284:../lpc11cx4-library/lpc_chip_11cxx_lib/inc/ssp_11xx.h **** }
 400              		.loc 2 284 0
 401 006e E268     		ldr	r2, [r4, #12]	@ D.6801, pSSP_10(D)->SR
 402              	.LBE275:
 403              	.LBE279:
  84:../lpc11cx4-library/lpc_chip_11cxx_lib/src/ssp_11xx.c **** 	}
 404              		.loc 1 84 0
 405 0070 0233     		add	r3, r3, #2	@ D.6800,
  77:../lpc11cx4-library/lpc_chip_11cxx_lib/src/ssp_11xx.c **** 		   (xf_setup->rx_cnt < xf_setup->length)) {
 406              		.loc 1 77 0
 407 0072 1742     		tst	r7, r2	@ tmp236, D.6801
 408 0074 F4D1     		bne	.L74	@,
 409              	.L72:
 410 0076 F360     		str	r3, [r6, #12]	@ D.6800, xf_setup_14(D)->rx_cnt
 411              	.LBE280:
 412              	.LBE284:
 191:../lpc11cx4-library/lpc_chip_11cxx_lib/src/ssp_11xx.c **** 			/* write data to buffer */
 413              		.loc 1 191 0
 414 0078 9D42     		cmp	r5, r3	@ D.6800, D.6800
 415 007a DFD9     		bls	.L75	@,
 416              	.LVL19:
 417              	.L32:
 418              	.LBB285:
 419              	.LBB263:
 284:../lpc11cx4-library/lpc_chip_11cxx_lib/inc/ssp_11xx.h **** }
 420              		.loc 2 284 0
 421 007c E268     		ldr	r2, [r4, #12]	@ D.6801, pSSP_10(D)->SR
 422              	.LBE263:
 423              	.LBE285:
ARM GAS  /tmp/cc7TFFKb.s 			page 19


 193:../lpc11cx4-library/lpc_chip_11cxx_lib/src/ssp_11xx.c **** 				SSP_Write2BFifo(pSSP, xf_setup);
 424              		.loc 1 193 0
 425 007e 1042     		tst	r0, r2	@ tmp233, D.6801
 426 0080 E3D0     		beq	.L23	@,
 193:../lpc11cx4-library/lpc_chip_11cxx_lib/src/ssp_11xx.c **** 				SSP_Write2BFifo(pSSP, xf_setup);
 427              		.loc 1 193 0 is_stmt 0 discriminator 1
 428 0082 7268     		ldr	r2, [r6, #4]	@ D.6801, xf_setup_14(D)->tx_cnt
 429 0084 AA42     		cmp	r2, r5	@ D.6801, D.6800
 430 0086 E0D2     		bcs	.L23	@,
 431              	.L43:
 432 0088 3168     		ldr	r1, [r6]	@ D.6802, MEM[(void * *)xf_setup_14(D)]
 433              	.LVL20:
 434              	.LBB286:
 435              	.LBB257:
  48:../lpc11cx4-library/lpc_chip_11cxx_lib/src/ssp_11xx.c **** 		Chip_SSP_SendFrame(pSSP, (*(uint16_t *) ((uint32_t) xf_setup->tx_data +
 436              		.loc 1 48 0 is_stmt 1
 437 008a 0029     		cmp	r1, #0	@ D.6802,
 438 008c 3BD0     		beq	.L24	@,
 439              	.LVL21:
 440              	.LBB253:
 441              	.LBB254:
 442              		.loc 2 377 0
 443 008e 8A5A     		ldrh	r2, [r1, r2]	@ D.6801, *_49
 444              	.LVL22:
 445 0090 A260     		str	r2, [r4, #8]	@ D.6801,
 446              	.LVL23:
 447              	.L25:
 448              	.LBE254:
 449              	.LBE253:
 450              	.LBE257:
 451              	.LBE286:
 452              		.loc 1 198 0
 453 0092 6146     		mov	r1, ip	@ tmp235, tmp235
 454              	.LBB287:
 455              	.LBB258:
  56:../lpc11cx4-library/lpc_chip_11cxx_lib/src/ssp_11xx.c **** }
 456              		.loc 1 56 0
 457 0094 7268     		ldr	r2, [r6, #4]	@ tmp246, MEM[(uint32_t *)xf_setup_14(D) + 4B]
 458 0096 0232     		add	r2, r2, #2	@ D.6801,
 459 0098 7260     		str	r2, [r6, #4]	@ D.6801, MEM[(uint32_t *)xf_setup_14(D) + 4B]
 460              	.LVL24:
 461              	.LBE258:
 462              	.LBE287:
 463              	.LBB288:
 464              	.LBB269:
 311:../lpc11cx4-library/lpc_chip_11cxx_lib/inc/ssp_11xx.h **** }
 465              		.loc 2 311 0
 466 009a A269     		ldr	r2, [r4, #24]	@ D.6801, pSSP_10(D)->RIS
 467              	.LBE269:
 468              	.LBE288:
 469              		.loc 1 198 0
 470 009c 1142     		tst	r1, r2	@ tmp235, D.6801
 471 009e D8D0     		beq	.L26	@,
 472              	.LVL25:
 473              	.L39:
 199:../lpc11cx4-library/lpc_chip_11cxx_lib/src/ssp_11xx.c **** 				return ERROR;
 474              		.loc 1 199 0
ARM GAS  /tmp/cc7TFFKb.s 			page 20


 475 00a0 0020     		mov	r0, #0	@ D.6800,
 476              	.L59:
 200:../lpc11cx4-library/lpc_chip_11cxx_lib/src/ssp_11xx.c **** 			}
 201:../lpc11cx4-library/lpc_chip_11cxx_lib/src/ssp_11xx.c **** 
 202:../lpc11cx4-library/lpc_chip_11cxx_lib/src/ssp_11xx.c **** 			/* Check for any data available in RX FIFO */
 203:../lpc11cx4-library/lpc_chip_11cxx_lib/src/ssp_11xx.c **** 			SSP_Read2BFifo(pSSP, xf_setup);
 204:../lpc11cx4-library/lpc_chip_11cxx_lib/src/ssp_11xx.c **** 		}
 205:../lpc11cx4-library/lpc_chip_11cxx_lib/src/ssp_11xx.c **** 	}
 206:../lpc11cx4-library/lpc_chip_11cxx_lib/src/ssp_11xx.c **** 	else {
 207:../lpc11cx4-library/lpc_chip_11cxx_lib/src/ssp_11xx.c **** 		while (xf_setup->rx_cnt < xf_setup->length || xf_setup->tx_cnt < xf_setup->length) {
 208:../lpc11cx4-library/lpc_chip_11cxx_lib/src/ssp_11xx.c **** 			/* write data to buffer */
 209:../lpc11cx4-library/lpc_chip_11cxx_lib/src/ssp_11xx.c **** 			if (( Chip_SSP_GetStatus(pSSP, SSP_STAT_TNF) == SET) && ( xf_setup->tx_cnt < xf_setup->length) )
 210:../lpc11cx4-library/lpc_chip_11cxx_lib/src/ssp_11xx.c **** 				SSP_Write1BFifo(pSSP, xf_setup);
 211:../lpc11cx4-library/lpc_chip_11cxx_lib/src/ssp_11xx.c **** 			}
 212:../lpc11cx4-library/lpc_chip_11cxx_lib/src/ssp_11xx.c **** 
 213:../lpc11cx4-library/lpc_chip_11cxx_lib/src/ssp_11xx.c **** 			/* Check overrun error */
 214:../lpc11cx4-library/lpc_chip_11cxx_lib/src/ssp_11xx.c **** 			if (Chip_SSP_GetRawIntStatus(pSSP, SSP_RORRIS) == SET) {
 215:../lpc11cx4-library/lpc_chip_11cxx_lib/src/ssp_11xx.c **** 				return ERROR;
 216:../lpc11cx4-library/lpc_chip_11cxx_lib/src/ssp_11xx.c **** 			}
 217:../lpc11cx4-library/lpc_chip_11cxx_lib/src/ssp_11xx.c **** 
 218:../lpc11cx4-library/lpc_chip_11cxx_lib/src/ssp_11xx.c **** 			/* Check for any data available in RX FIFO */
 219:../lpc11cx4-library/lpc_chip_11cxx_lib/src/ssp_11xx.c **** 			SSP_Read1BFifo(pSSP, xf_setup);
 220:../lpc11cx4-library/lpc_chip_11cxx_lib/src/ssp_11xx.c **** 		}
 221:../lpc11cx4-library/lpc_chip_11cxx_lib/src/ssp_11xx.c **** 	}
 222:../lpc11cx4-library/lpc_chip_11cxx_lib/src/ssp_11xx.c **** 	if (xf_setup->tx_data) {
 223:../lpc11cx4-library/lpc_chip_11cxx_lib/src/ssp_11xx.c **** 		return xf_setup->tx_cnt;
 224:../lpc11cx4-library/lpc_chip_11cxx_lib/src/ssp_11xx.c **** 	}
 225:../lpc11cx4-library/lpc_chip_11cxx_lib/src/ssp_11xx.c **** 	else if (xf_setup->rx_data) {
 226:../lpc11cx4-library/lpc_chip_11cxx_lib/src/ssp_11xx.c **** 		return xf_setup->rx_cnt;
 227:../lpc11cx4-library/lpc_chip_11cxx_lib/src/ssp_11xx.c **** 	}
 228:../lpc11cx4-library/lpc_chip_11cxx_lib/src/ssp_11xx.c **** 
 229:../lpc11cx4-library/lpc_chip_11cxx_lib/src/ssp_11xx.c **** 	return 0;
 230:../lpc11cx4-library/lpc_chip_11cxx_lib/src/ssp_11xx.c **** }
 477              		.loc 1 230 0
 478              		@ sp needed	@
 479              	.LVL26:
 480              	.LVL27:
 481 00a2 04BC     		pop	{r2}
 482 00a4 9046     		mov	r8, r2
 483 00a6 F0BD     		pop	{r4, r5, r6, r7, pc}
 484              	.LVL28:
 485              	.L21:
 486              	.LBB289:
 487              	.LBB290:
 488              	.LBB291:
 489              	.LBB292:
 490              		.loc 2 377 0
 491 00a8 FF23     		mov	r3, #255	@ tmp238,
 492              	.LBE292:
 493              	.LBE291:
 494              	.LBE290:
 495              	.LBE289:
 496              	.LBB302:
 497              	.LBB303:
 284:../lpc11cx4-library/lpc_chip_11cxx_lib/inc/ssp_11xx.h **** }
 498              		.loc 2 284 0
 499 00aa 0225     		mov	r5, #2	@ tmp237,
ARM GAS  /tmp/cc7TFFKb.s 			page 21


 500              	.LBE303:
 501              	.LBE302:
 502              	.LBB306:
 503              	.LBB299:
 504              	.LBB295:
 505              	.LBB293:
 506              		.loc 2 377 0
 507 00ac 9846     		mov	r8, r3	@ tmp238, tmp238
 508              	.LBE293:
 509              	.LBE295:
 510              	.LBE299:
 511              	.LBE306:
 512              	.LBB307:
 513              	.LBB308:
 311:../lpc11cx4-library/lpc_chip_11cxx_lib/inc/ssp_11xx.h **** }
 514              		.loc 2 311 0
 515 00ae 0127     		mov	r7, #1	@ tmp239,
 516 00b0 0DE0     		b	.L71	@
 517              	.LVL29:
 518              	.L76:
 519              	.LBE308:
 520              	.LBE307:
 207:../lpc11cx4-library/lpc_chip_11cxx_lib/src/ssp_11xx.c **** 			/* write data to buffer */
 521              		.loc 1 207 0 discriminator 1
 522 00b2 7268     		ldr	r2, [r6, #4]	@ D.6801, xf_setup_14(D)->tx_cnt
 523 00b4 111C     		mov	r1, r2	@ D.6800, D.6801
 524 00b6 9342     		cmp	r3, r2	@ D.6801, D.6801
 525 00b8 1CD9     		bls	.L42	@,
 526              	.LVL30:
 527              	.LBB310:
 528              	.LBB304:
 284:../lpc11cx4-library/lpc_chip_11cxx_lib/inc/ssp_11xx.h **** }
 529              		.loc 2 284 0
 530 00ba E368     		ldr	r3, [r4, #12]	@ D.6801, pSSP_10(D)->SR
 531              	.LBE304:
 532              	.LBE310:
 209:../lpc11cx4-library/lpc_chip_11cxx_lib/src/ssp_11xx.c **** 				SSP_Write1BFifo(pSSP, xf_setup);
 533              		.loc 1 209 0
 534 00bc 1D42     		tst	r5, r3	@ tmp237, D.6801
 535 00be 10D1     		bne	.L44	@,
 536              	.L36:
 537              	.LVL31:
 538              	.LBB311:
 539              	.LBB309:
 311:../lpc11cx4-library/lpc_chip_11cxx_lib/inc/ssp_11xx.h **** }
 540              		.loc 2 311 0
 541 00c0 A369     		ldr	r3, [r4, #24]	@ D.6801, pSSP_10(D)->RIS
 542              	.LBE309:
 543              	.LBE311:
 214:../lpc11cx4-library/lpc_chip_11cxx_lib/src/ssp_11xx.c **** 				return ERROR;
 544              		.loc 1 214 0
 545 00c2 1F42     		tst	r7, r3	@ tmp239, D.6801
 546 00c4 ECD1     		bne	.L39	@,
 219:../lpc11cx4-library/lpc_chip_11cxx_lib/src/ssp_11xx.c **** 		}
 547              		.loc 1 219 0
 548 00c6 201C     		mov	r0, r4	@, pSSP
 549 00c8 311C     		mov	r1, r6	@, xf_setup
ARM GAS  /tmp/cc7TFFKb.s 			page 22


 550 00ca FFF7FEFF 		bl	SSP_Read1BFifo	@
 551              	.LVL32:
 552              	.L71:
 207:../lpc11cx4-library/lpc_chip_11cxx_lib/src/ssp_11xx.c **** 			/* write data to buffer */
 553              		.loc 1 207 0
 554 00ce 3369     		ldr	r3, [r6, #16]	@ D.6801, xf_setup_14(D)->length
 555 00d0 F268     		ldr	r2, [r6, #12]	@ tmp252, xf_setup_14(D)->rx_cnt
 556 00d2 9A42     		cmp	r2, r3	@ tmp252, D.6801
 557 00d4 EDD2     		bcs	.L76	@,
 558              	.LVL33:
 559              	.LBB312:
 560              	.LBB305:
 284:../lpc11cx4-library/lpc_chip_11cxx_lib/inc/ssp_11xx.h **** }
 561              		.loc 2 284 0
 562 00d6 E268     		ldr	r2, [r4, #12]	@ D.6801, pSSP_10(D)->SR
 563              	.LBE305:
 564              	.LBE312:
 209:../lpc11cx4-library/lpc_chip_11cxx_lib/src/ssp_11xx.c **** 				SSP_Write1BFifo(pSSP, xf_setup);
 565              		.loc 1 209 0
 566 00d8 1542     		tst	r5, r2	@ tmp237, D.6801
 567 00da F1D0     		beq	.L36	@,
 209:../lpc11cx4-library/lpc_chip_11cxx_lib/src/ssp_11xx.c **** 				SSP_Write1BFifo(pSSP, xf_setup);
 568              		.loc 1 209 0 is_stmt 0 discriminator 1
 569 00dc 7268     		ldr	r2, [r6, #4]	@ D.6801, xf_setup_14(D)->tx_cnt
 570 00de 9342     		cmp	r3, r2	@ D.6801, D.6801
 571 00e0 EED9     		bls	.L36	@,
 572              	.L44:
 573 00e2 3368     		ldr	r3, [r6]	@ D.6802, MEM[(void * *)xf_setup_14(D)]
 574              	.LVL34:
 575              	.LBB313:
 576              	.LBB300:
  62:../lpc11cx4-library/lpc_chip_11cxx_lib/src/ssp_11xx.c **** 		Chip_SSP_SendFrame(pSSP, (*(uint8_t *) ((uint32_t) xf_setup->tx_data + xf_setup->tx_cnt)));
 577              		.loc 1 62 0 is_stmt 1
 578 00e4 002B     		cmp	r3, #0	@ D.6802,
 579 00e6 11D0     		beq	.L37	@,
 580              	.LVL35:
 581              	.LBB296:
 582              	.LBB297:
 583              		.loc 2 377 0
 584 00e8 9B5C     		ldrb	r3, [r3, r2]	@ D.6801, *_73
 585              	.LVL36:
 586 00ea A360     		str	r3, [r4, #8]	@ D.6801,
 587              	.LVL37:
 588              	.L38:
 589              	.LBE297:
 590              	.LBE296:
  69:../lpc11cx4-library/lpc_chip_11cxx_lib/src/ssp_11xx.c **** }
 591              		.loc 1 69 0
 592 00ec 7368     		ldr	r3, [r6, #4]	@ tmp250, MEM[(uint32_t *)xf_setup_14(D) + 4B]
 593 00ee 0133     		add	r3, r3, #1	@ D.6801,
 594 00f0 7360     		str	r3, [r6, #4]	@ D.6801, MEM[(uint32_t *)xf_setup_14(D) + 4B]
 595 00f2 E5E7     		b	.L36	@
 596              	.LVL38:
 597              	.L42:
 598              	.LBE300:
 599              	.LBE313:
 222:../lpc11cx4-library/lpc_chip_11cxx_lib/src/ssp_11xx.c **** 		return xf_setup->tx_cnt;
ARM GAS  /tmp/cc7TFFKb.s 			page 23


 600              		.loc 1 222 0
 601 00f4 3368     		ldr	r3, [r6]	@ tmp248, xf_setup_14(D)->tx_data
 223:../lpc11cx4-library/lpc_chip_11cxx_lib/src/ssp_11xx.c **** 	}
 602              		.loc 1 223 0
 603 00f6 081C     		mov	r0, r1	@ D.6800, D.6800
 222:../lpc11cx4-library/lpc_chip_11cxx_lib/src/ssp_11xx.c **** 		return xf_setup->tx_cnt;
 604              		.loc 1 222 0
 605 00f8 002B     		cmp	r3, #0	@ tmp248,
 606 00fa D2D1     		bne	.L59	@,
 225:../lpc11cx4-library/lpc_chip_11cxx_lib/src/ssp_11xx.c **** 		return xf_setup->rx_cnt;
 607              		.loc 1 225 0
 608 00fc B368     		ldr	r3, [r6, #8]	@ tmp254, xf_setup_14(D)->rx_data
 609 00fe 002B     		cmp	r3, #0	@ tmp254,
 610 0100 CED0     		beq	.L39	@,
 226:../lpc11cx4-library/lpc_chip_11cxx_lib/src/ssp_11xx.c **** 	}
 611              		.loc 1 226 0
 612 0102 F068     		ldr	r0, [r6, #12]	@ D.6800, xf_setup_14(D)->rx_cnt
 613 0104 CDE7     		b	.L59	@
 614              	.LVL39:
 615              	.L24:
 616              	.LBB314:
 617              	.LBB259:
 618              	.LBB255:
 619              	.LBB251:
 620              		.loc 2 377 0
 621 0106 4246     		mov	r2, r8	@ tmp234, tmp234
 622 0108 A260     		str	r2, [r4, #8]	@ tmp234,
 623 010a C2E7     		b	.L25	@
 624              	.LVL40:
 625              	.L37:
 626              	.LBE251:
 627              	.LBE255:
 628              	.LBE259:
 629              	.LBE314:
 630              	.LBB315:
 631              	.LBB301:
 632              	.LBB298:
 633              	.LBB294:
 634 010c 4346     		mov	r3, r8	@ tmp238, tmp238
 635 010e A360     		str	r3, [r4, #8]	@ tmp238,
 636 0110 ECE7     		b	.L38	@
 637              	.L78:
 638 0112 C046     		.align	2
 639              	.L77:
 640 0114 FFFF0000 		.word	65535
 641              	.LBE294:
 642              	.LBE298:
 643              	.LBE301:
 644              	.LBE315:
 645              		.cfi_endproc
 646              	.LFE207:
 647              		.size	Chip_SSP_RWFrames_Blocking, .-Chip_SSP_RWFrames_Blocking
 648              		.section	.text.Chip_SSP_WriteFrames_Blocking,"ax",%progbits
 649              		.align	2
 650              		.global	Chip_SSP_WriteFrames_Blocking
 651              		.code	16
 652              		.thumb_func
ARM GAS  /tmp/cc7TFFKb.s 			page 24


 653              		.type	Chip_SSP_WriteFrames_Blocking, %function
 654              	Chip_SSP_WriteFrames_Blocking:
 655              	.LFB208:
 231:../lpc11cx4-library/lpc_chip_11cxx_lib/src/ssp_11xx.c **** 
 232:../lpc11cx4-library/lpc_chip_11cxx_lib/src/ssp_11xx.c **** /* SSP Polling Write in blocking mode */
 233:../lpc11cx4-library/lpc_chip_11cxx_lib/src/ssp_11xx.c **** uint32_t Chip_SSP_WriteFrames_Blocking(LPC_SSP_T *pSSP, uint8_t *buffer, uint32_t buffer_len)
 234:../lpc11cx4-library/lpc_chip_11cxx_lib/src/ssp_11xx.c **** {
 656              		.loc 1 234 0
 657              		.cfi_startproc
 658              	.LVL41:
 659 0000 F0B5     		push	{r4, r5, r6, r7, lr}	@
 660              		.cfi_def_cfa_offset 20
 661              		.cfi_offset 4, -20
 662              		.cfi_offset 5, -16
 663              		.cfi_offset 6, -12
 664              		.cfi_offset 7, -8
 665              		.cfi_offset 14, -4
 666 0002 4646     		mov	r6, r8	@,
 667 0004 4F46     		mov	r7, r9	@,
 668              	.LBB316:
 669              	.LBB317:
 284:../lpc11cx4-library/lpc_chip_11cxx_lib/inc/ssp_11xx.h **** }
 670              		.loc 2 284 0
 671 0006 C368     		ldr	r3, [r0, #12]	@ D.6818, pSSP_25(D)->SR
 672              	.LBE317:
 673              	.LBE316:
 674              		.loc 1 234 0
 675 0008 C0B4     		push	{r6, r7}	@
 676              		.cfi_def_cfa_offset 28
 677              		.cfi_offset 8, -28
 678              		.cfi_offset 9, -24
 679              		.loc 1 234 0
 680 000a 8846     		mov	r8, r1	@ buffer, buffer
 235:../lpc11cx4-library/lpc_chip_11cxx_lib/src/ssp_11xx.c **** 	uint32_t tx_cnt = 0, rx_cnt = 0;
 236:../lpc11cx4-library/lpc_chip_11cxx_lib/src/ssp_11xx.c **** 
 237:../lpc11cx4-library/lpc_chip_11cxx_lib/src/ssp_11xx.c **** 	/* Clear all remaining frames in RX FIFO */
 238:../lpc11cx4-library/lpc_chip_11cxx_lib/src/ssp_11xx.c **** 	while (Chip_SSP_GetStatus(pSSP, SSP_STAT_RNE)) {
 681              		.loc 1 238 0
 682 000c 5B07     		lsl	r3, r3, #29	@ tmp188, D.6818,
 683 000e 04D5     		bpl	.L80	@,
 684              	.LBB320:
 685              	.LBB318:
 284:../lpc11cx4-library/lpc_chip_11cxx_lib/inc/ssp_11xx.h **** }
 686              		.loc 2 284 0
 687 0010 0424     		mov	r4, #4	@ tmp187,
 688              	.L110:
 689              	.LVL42:
 690              	.LBE318:
 691              	.LBE320:
 692              	.LBB321:
 693              	.LBB322:
 366:../lpc11cx4-library/lpc_chip_11cxx_lib/inc/ssp_11xx.h **** }
 694              		.loc 2 366 0
 695 0012 8368     		ldr	r3, [r0, #8]	@ D.6818, pSSP_25(D)->DR
 696              	.LBE322:
 697              	.LBE321:
 698              	.LBB323:
ARM GAS  /tmp/cc7TFFKb.s 			page 25


 699              	.LBB319:
 284:../lpc11cx4-library/lpc_chip_11cxx_lib/inc/ssp_11xx.h **** }
 700              		.loc 2 284 0
 701 0014 C368     		ldr	r3, [r0, #12]	@ D.6818, pSSP_25(D)->SR
 702              	.LBE319:
 703              	.LBE323:
 704              		.loc 1 238 0
 705 0016 1C42     		tst	r4, r3	@ tmp187, D.6818
 706 0018 FBD1     		bne	.L110	@,
 707              	.LVL43:
 708              	.L80:
 709              	.LBB324:
 710              	.LBB325:
 336:../lpc11cx4-library/lpc_chip_11cxx_lib/inc/ssp_11xx.h **** }
 711              		.loc 2 336 0
 712 001a 0323     		mov	r3, #3	@ tmp155,
 713              	.LBE325:
 714              	.LBE324:
 239:../lpc11cx4-library/lpc_chip_11cxx_lib/src/ssp_11xx.c **** 		Chip_SSP_ReceiveFrame(pSSP);
 240:../lpc11cx4-library/lpc_chip_11cxx_lib/src/ssp_11xx.c **** 	}
 241:../lpc11cx4-library/lpc_chip_11cxx_lib/src/ssp_11xx.c **** 
 242:../lpc11cx4-library/lpc_chip_11cxx_lib/src/ssp_11xx.c **** 	/* Clear status */
 243:../lpc11cx4-library/lpc_chip_11cxx_lib/src/ssp_11xx.c **** 	Chip_SSP_ClearIntPending(pSSP, SSP_INT_CLEAR_BITMASK);
 244:../lpc11cx4-library/lpc_chip_11cxx_lib/src/ssp_11xx.c **** 
 245:../lpc11cx4-library/lpc_chip_11cxx_lib/src/ssp_11xx.c **** 	if (Chip_SSP_GetDataSize(pSSP) > SSP_BITS_8) {
 715              		.loc 1 245 0
 716 001c 0F24     		mov	r4, #15	@ tmp160,
 717              	.LBB327:
 718              	.LBB326:
 336:../lpc11cx4-library/lpc_chip_11cxx_lib/inc/ssp_11xx.h **** }
 719              		.loc 2 336 0
 720 001e 0362     		str	r3, [r0, #32]	@ tmp155, pSSP_25(D)->ICR
 721              	.LVL44:
 722              	.LBE326:
 723              	.LBE327:
 724              	.LBB328:
 725              	.LBB329:
 322:../lpc11cx4-library/lpc_chip_11cxx_lib/inc/ssp_11xx.h **** }
 726              		.loc 2 322 0
 727 0020 0368     		ldr	r3, [r0]	@ D.6818, pSSP_25(D)->CR0
 728              	.LBE329:
 729              	.LBE328:
 730              		.loc 1 245 0
 731 0022 2340     		and	r3, r4	@ tmp161, tmp160
 732 0024 072B     		cmp	r3, #7	@ tmp161,
 733 0026 2CD8     		bhi	.L82	@,
 734              	.LBB330:
 735              	.LBB331:
 736              	.LBB332:
 284:../lpc11cx4-library/lpc_chip_11cxx_lib/inc/ssp_11xx.h **** }
 737              		.loc 2 284 0
 738 0028 0221     		mov	r1, #2	@ tmp184,
 739              	.LVL45:
 740              	.LBE332:
 741              	.LBE331:
 742              	.LBE330:
 743              		.loc 1 245 0
ARM GAS  /tmp/cc7TFFKb.s 			page 26


 744 002a 0023     		mov	r3, #0	@ rx_cnt,
 745 002c 0026     		mov	r6, #0	@ tx_cnt,
 746              	.LBB357:
 747              	.LBB336:
 748              	.LBB333:
 284:../lpc11cx4-library/lpc_chip_11cxx_lib/inc/ssp_11xx.h **** }
 749              		.loc 2 284 0
 750 002e 8C46     		mov	ip, r1	@ tmp184, tmp184
 751              	.LBE333:
 752              	.LBE336:
 753              	.LBB337:
 754              	.LBB338:
 311:../lpc11cx4-library/lpc_chip_11cxx_lib/inc/ssp_11xx.h **** }
 755              		.loc 2 311 0
 756 0030 0127     		mov	r7, #1	@ tmp185,
 757              	.LBE338:
 758              	.LBE337:
 759              	.LBB341:
 760              	.LBB342:
 284:../lpc11cx4-library/lpc_chip_11cxx_lib/inc/ssp_11xx.h **** }
 761              		.loc 2 284 0
 762 0032 0425     		mov	r5, #4	@ tmp186,
 763              	.LVL46:
 764              	.L83:
 765              	.LBE342:
 766              	.LBE341:
 246:../lpc11cx4-library/lpc_chip_11cxx_lib/src/ssp_11xx.c **** 		uint16_t *wdata16;
 247:../lpc11cx4-library/lpc_chip_11cxx_lib/src/ssp_11xx.c **** 
 248:../lpc11cx4-library/lpc_chip_11cxx_lib/src/ssp_11xx.c **** 		wdata16 = (uint16_t *) buffer;
 249:../lpc11cx4-library/lpc_chip_11cxx_lib/src/ssp_11xx.c **** 
 250:../lpc11cx4-library/lpc_chip_11cxx_lib/src/ssp_11xx.c **** 		while (tx_cnt < buffer_len || rx_cnt < buffer_len) {
 251:../lpc11cx4-library/lpc_chip_11cxx_lib/src/ssp_11xx.c **** 			/* write data to buffer */
 252:../lpc11cx4-library/lpc_chip_11cxx_lib/src/ssp_11xx.c **** 			if ((Chip_SSP_GetStatus(pSSP, SSP_STAT_TNF) == SET) && (tx_cnt < buffer_len)) {
 253:../lpc11cx4-library/lpc_chip_11cxx_lib/src/ssp_11xx.c **** 				Chip_SSP_SendFrame(pSSP, *wdata16);
 254:../lpc11cx4-library/lpc_chip_11cxx_lib/src/ssp_11xx.c **** 				wdata16++;
 255:../lpc11cx4-library/lpc_chip_11cxx_lib/src/ssp_11xx.c **** 				tx_cnt += 2;
 256:../lpc11cx4-library/lpc_chip_11cxx_lib/src/ssp_11xx.c **** 			}
 257:../lpc11cx4-library/lpc_chip_11cxx_lib/src/ssp_11xx.c **** 
 258:../lpc11cx4-library/lpc_chip_11cxx_lib/src/ssp_11xx.c **** 			/* Check overrun error */
 259:../lpc11cx4-library/lpc_chip_11cxx_lib/src/ssp_11xx.c **** 			if (Chip_SSP_GetRawIntStatus(pSSP, SSP_RORRIS) == SET) {
 260:../lpc11cx4-library/lpc_chip_11cxx_lib/src/ssp_11xx.c **** 				return ERROR;
 261:../lpc11cx4-library/lpc_chip_11cxx_lib/src/ssp_11xx.c **** 			}
 262:../lpc11cx4-library/lpc_chip_11cxx_lib/src/ssp_11xx.c **** 
 263:../lpc11cx4-library/lpc_chip_11cxx_lib/src/ssp_11xx.c **** 			/* Check for any data available in RX FIFO */
 264:../lpc11cx4-library/lpc_chip_11cxx_lib/src/ssp_11xx.c **** 			while (Chip_SSP_GetStatus(pSSP, SSP_STAT_RNE) == SET) {
 265:../lpc11cx4-library/lpc_chip_11cxx_lib/src/ssp_11xx.c **** 				Chip_SSP_ReceiveFrame(pSSP);	/* read dummy data */
 266:../lpc11cx4-library/lpc_chip_11cxx_lib/src/ssp_11xx.c **** 				rx_cnt += 2;
 267:../lpc11cx4-library/lpc_chip_11cxx_lib/src/ssp_11xx.c **** 			}
 268:../lpc11cx4-library/lpc_chip_11cxx_lib/src/ssp_11xx.c **** 		}
 269:../lpc11cx4-library/lpc_chip_11cxx_lib/src/ssp_11xx.c **** 	}
 270:../lpc11cx4-library/lpc_chip_11cxx_lib/src/ssp_11xx.c **** 	else {
 271:../lpc11cx4-library/lpc_chip_11cxx_lib/src/ssp_11xx.c **** 		uint8_t *wdata8;
 272:../lpc11cx4-library/lpc_chip_11cxx_lib/src/ssp_11xx.c **** 
 273:../lpc11cx4-library/lpc_chip_11cxx_lib/src/ssp_11xx.c **** 		wdata8 = buffer;
 274:../lpc11cx4-library/lpc_chip_11cxx_lib/src/ssp_11xx.c **** 
 275:../lpc11cx4-library/lpc_chip_11cxx_lib/src/ssp_11xx.c **** 		while (tx_cnt < buffer_len || rx_cnt < buffer_len) {
 767              		.loc 1 275 0
ARM GAS  /tmp/cc7TFFKb.s 			page 27


 768 0034 9642     		cmp	r6, r2	@ tx_cnt, buffer_len
 769 0036 11D3     		bcc	.L94	@,
 770              	.L125:
 771              		.loc 1 275 0 is_stmt 0 discriminator 1
 772 0038 9342     		cmp	r3, r2	@ rx_cnt, buffer_len
 773 003a 42D2     		bcs	.L122	@,
 774              	.LVL47:
 775              	.LBB345:
 776              	.LBB334:
 284:../lpc11cx4-library/lpc_chip_11cxx_lib/inc/ssp_11xx.h **** }
 777              		.loc 2 284 0 is_stmt 1
 778 003c C468     		ldr	r4, [r0, #12]	@ D.6818, pSSP_25(D)->SR
 779              	.L99:
 780              	.LVL48:
 781              	.LBE334:
 782              	.LBE345:
 783              	.LBB346:
 784              	.LBB339:
 311:../lpc11cx4-library/lpc_chip_11cxx_lib/inc/ssp_11xx.h **** }
 785              		.loc 2 311 0
 786 003e 8469     		ldr	r4, [r0, #24]	@ D.6818, pSSP_25(D)->RIS
 787              	.LBE339:
 788              	.LBE346:
 276:../lpc11cx4-library/lpc_chip_11cxx_lib/src/ssp_11xx.c **** 			/* write data to buffer */
 277:../lpc11cx4-library/lpc_chip_11cxx_lib/src/ssp_11xx.c **** 			if ((Chip_SSP_GetStatus(pSSP, SSP_STAT_TNF) == SET) && (tx_cnt < buffer_len)) {
 278:../lpc11cx4-library/lpc_chip_11cxx_lib/src/ssp_11xx.c **** 				Chip_SSP_SendFrame(pSSP, *wdata8);
 279:../lpc11cx4-library/lpc_chip_11cxx_lib/src/ssp_11xx.c **** 				wdata8++;
 280:../lpc11cx4-library/lpc_chip_11cxx_lib/src/ssp_11xx.c **** 				tx_cnt++;
 281:../lpc11cx4-library/lpc_chip_11cxx_lib/src/ssp_11xx.c **** 			}
 282:../lpc11cx4-library/lpc_chip_11cxx_lib/src/ssp_11xx.c **** 
 283:../lpc11cx4-library/lpc_chip_11cxx_lib/src/ssp_11xx.c **** 			/* Check overrun error */
 284:../lpc11cx4-library/lpc_chip_11cxx_lib/src/ssp_11xx.c **** 			if (Chip_SSP_GetRawIntStatus(pSSP, SSP_RORRIS) == SET) {
 789              		.loc 1 284 0
 790 0040 2742     		tst	r7, r4	@ tmp185, D.6818
 791 0042 19D1     		bne	.L91	@,
 792              	.L126:
 793              	.LVL49:
 794              	.LBB347:
 795              	.LBB343:
 284:../lpc11cx4-library/lpc_chip_11cxx_lib/inc/ssp_11xx.h **** }
 796              		.loc 2 284 0
 797 0044 C468     		ldr	r4, [r0, #12]	@ D.6818,
 798              	.LBE343:
 799              	.LBE347:
 285:../lpc11cx4-library/lpc_chip_11cxx_lib/src/ssp_11xx.c **** 				return ERROR;
 286:../lpc11cx4-library/lpc_chip_11cxx_lib/src/ssp_11xx.c **** 			}
 287:../lpc11cx4-library/lpc_chip_11cxx_lib/src/ssp_11xx.c **** 
 288:../lpc11cx4-library/lpc_chip_11cxx_lib/src/ssp_11xx.c **** 			/* Check for any data available in RX FIFO */
 289:../lpc11cx4-library/lpc_chip_11cxx_lib/src/ssp_11xx.c **** 			while (Chip_SSP_GetStatus(pSSP, SSP_STAT_RNE) == SET && rx_cnt < buffer_len) {
 800              		.loc 1 289 0
 801 0046 2542     		tst	r5, r4	@ tmp186, D.6818
 802 0048 F4D0     		beq	.L83	@,
 803              	.L121:
 804 004a 9342     		cmp	r3, r2	@ rx_cnt, buffer_len
 805 004c F2D2     		bcs	.L83	@,
 806              	.LVL50:
 807              	.LBB348:
ARM GAS  /tmp/cc7TFFKb.s 			page 28


 808              	.LBB349:
 366:../lpc11cx4-library/lpc_chip_11cxx_lib/inc/ssp_11xx.h **** }
 809              		.loc 2 366 0
 810 004e 8468     		ldr	r4, [r0, #8]	@ D.6818, pSSP_25(D)->DR
 811              	.LBE349:
 812              	.LBE348:
 813              	.LBB350:
 814              	.LBB344:
 284:../lpc11cx4-library/lpc_chip_11cxx_lib/inc/ssp_11xx.h **** }
 815              		.loc 2 284 0
 816 0050 C468     		ldr	r4, [r0, #12]	@ D.6818,
 817              	.LBE344:
 818              	.LBE350:
 290:../lpc11cx4-library/lpc_chip_11cxx_lib/src/ssp_11xx.c **** 				Chip_SSP_ReceiveFrame(pSSP);	/* read dummy data */
 291:../lpc11cx4-library/lpc_chip_11cxx_lib/src/ssp_11xx.c **** 				rx_cnt++;
 819              		.loc 1 291 0
 820 0052 0133     		add	r3, r3, #1	@ rx_cnt,
 821              	.LVL51:
 289:../lpc11cx4-library/lpc_chip_11cxx_lib/src/ssp_11xx.c **** 				Chip_SSP_ReceiveFrame(pSSP);	/* read dummy data */
 822              		.loc 1 289 0
 823 0054 2542     		tst	r5, r4	@ tmp186, D.6818
 824 0056 F8D1     		bne	.L121	@,
 275:../lpc11cx4-library/lpc_chip_11cxx_lib/src/ssp_11xx.c **** 			/* write data to buffer */
 825              		.loc 1 275 0
 826 0058 9642     		cmp	r6, r2	@ tx_cnt, buffer_len
 827 005a EDD2     		bcs	.L125	@,
 828              	.LVL52:
 829              	.L94:
 277:../lpc11cx4-library/lpc_chip_11cxx_lib/src/ssp_11xx.c **** 				Chip_SSP_SendFrame(pSSP, *wdata8);
 830              		.loc 1 277 0
 831 005c 6146     		mov	r1, ip	@ tmp184, tmp184
 832              	.LBB351:
 833              	.LBB335:
 284:../lpc11cx4-library/lpc_chip_11cxx_lib/inc/ssp_11xx.h **** }
 834              		.loc 2 284 0
 835 005e C468     		ldr	r4, [r0, #12]	@ D.6818, pSSP_25(D)->SR
 836              	.LBE335:
 837              	.LBE351:
 277:../lpc11cx4-library/lpc_chip_11cxx_lib/src/ssp_11xx.c **** 				Chip_SSP_SendFrame(pSSP, *wdata8);
 838              		.loc 1 277 0
 839 0060 2142     		tst	r1, r4	@ tmp184, D.6818
 840 0062 ECD0     		beq	.L99	@,
 841              	.LVL53:
 842              	.LBB352:
 843              	.LBB353:
 844              		.loc 2 377 0
 845 0064 4146     		mov	r1, r8	@ buffer, buffer
 846 0066 0C78     		ldrb	r4, [r1]	@ D.6818, *buffer_13
 847              	.LBE353:
 848              	.LBE352:
 279:../lpc11cx4-library/lpc_chip_11cxx_lib/src/ssp_11xx.c **** 				tx_cnt++;
 849              		.loc 1 279 0
 850 0068 0121     		mov	r1, #1	@ tmp193,
 851 006a 8946     		mov	r9, r1	@ tmp193, tmp193
 852              	.LBB355:
 853              	.LBB354:
 854              		.loc 2 377 0
ARM GAS  /tmp/cc7TFFKb.s 			page 29


 855 006c 8460     		str	r4, [r0, #8]	@ D.6818, pSSP_25(D)->DR
 856              	.LVL54:
 857              	.LBE354:
 858              	.LBE355:
 859              	.LBB356:
 860              	.LBB340:
 311:../lpc11cx4-library/lpc_chip_11cxx_lib/inc/ssp_11xx.h **** }
 861              		.loc 2 311 0
 862 006e 8469     		ldr	r4, [r0, #24]	@ D.6818, pSSP_25(D)->RIS
 863              	.LVL55:
 864              	.LBE340:
 865              	.LBE356:
 279:../lpc11cx4-library/lpc_chip_11cxx_lib/src/ssp_11xx.c **** 				tx_cnt++;
 866              		.loc 1 279 0
 867 0070 C844     		add	r8, r8, r9	@ buffer, tmp193
 868              	.LVL56:
 280:../lpc11cx4-library/lpc_chip_11cxx_lib/src/ssp_11xx.c **** 			}
 869              		.loc 1 280 0
 870 0072 0136     		add	r6, r6, #1	@ tx_cnt,
 871              	.LVL57:
 284:../lpc11cx4-library/lpc_chip_11cxx_lib/src/ssp_11xx.c **** 				return ERROR;
 872              		.loc 1 284 0
 873 0074 2742     		tst	r7, r4	@ tmp185, D.6818
 874 0076 E5D0     		beq	.L126	@,
 875              	.LVL58:
 876              	.L91:
 877              	.LBE357:
 878              	.LBB358:
 260:../lpc11cx4-library/lpc_chip_11cxx_lib/src/ssp_11xx.c **** 			}
 879              		.loc 1 260 0
 880 0078 0020     		mov	r0, #0	@ D.6819,
 881              	.LVL59:
 882              	.L119:
 883              	.LBE358:
 292:../lpc11cx4-library/lpc_chip_11cxx_lib/src/ssp_11xx.c **** 			}
 293:../lpc11cx4-library/lpc_chip_11cxx_lib/src/ssp_11xx.c **** 		}
 294:../lpc11cx4-library/lpc_chip_11cxx_lib/src/ssp_11xx.c **** 	}
 295:../lpc11cx4-library/lpc_chip_11cxx_lib/src/ssp_11xx.c **** 
 296:../lpc11cx4-library/lpc_chip_11cxx_lib/src/ssp_11xx.c **** 	return tx_cnt;
 297:../lpc11cx4-library/lpc_chip_11cxx_lib/src/ssp_11xx.c **** 
 298:../lpc11cx4-library/lpc_chip_11cxx_lib/src/ssp_11xx.c **** }
 884              		.loc 1 298 0
 885              		@ sp needed	@
 886              	.LVL60:
 887 007a 0CBC     		pop	{r2, r3}
 888 007c 9046     		mov	r8, r2
 889 007e 9946     		mov	r9, r3
 890 0080 F0BD     		pop	{r4, r5, r6, r7, pc}
 891              	.LVL61:
 892              	.L82:
 893              	.LBB381:
 894              	.LBB359:
 895              	.LBB360:
 284:../lpc11cx4-library/lpc_chip_11cxx_lib/inc/ssp_11xx.h **** }
 896              		.loc 2 284 0
 897 0082 0221     		mov	r1, #2	@ tmp180,
 898              	.LVL62:
ARM GAS  /tmp/cc7TFFKb.s 			page 30


 899              	.LBE360:
 900              	.LBE359:
 901              	.LBE381:
 245:../lpc11cx4-library/lpc_chip_11cxx_lib/src/ssp_11xx.c **** 		uint16_t *wdata16;
 902              		.loc 1 245 0
 903 0084 0023     		mov	r3, #0	@ rx_cnt,
 904 0086 0026     		mov	r6, #0	@ tx_cnt,
 905              	.LBB382:
 906              	.LBB364:
 907              	.LBB361:
 284:../lpc11cx4-library/lpc_chip_11cxx_lib/inc/ssp_11xx.h **** }
 908              		.loc 2 284 0
 909 0088 8C46     		mov	ip, r1	@ tmp180, tmp180
 910              	.LBE361:
 911              	.LBE364:
 912              	.LBB365:
 913              	.LBB366:
 311:../lpc11cx4-library/lpc_chip_11cxx_lib/inc/ssp_11xx.h **** }
 914              		.loc 2 311 0
 915 008a 0127     		mov	r7, #1	@ tmp181,
 916              	.LBE366:
 917              	.LBE365:
 918              	.LBB368:
 919              	.LBB369:
 284:../lpc11cx4-library/lpc_chip_11cxx_lib/inc/ssp_11xx.h **** }
 920              		.loc 2 284 0
 921 008c 0425     		mov	r5, #4	@ tmp182,
 922              	.LVL63:
 923              	.L84:
 924              	.LBE369:
 925              	.LBE368:
 250:../lpc11cx4-library/lpc_chip_11cxx_lib/src/ssp_11xx.c **** 			/* write data to buffer */
 926              		.loc 1 250 0
 927 008e 9642     		cmp	r6, r2	@ tx_cnt, buffer_len
 928 0090 0BD3     		bcc	.L89	@,
 250:../lpc11cx4-library/lpc_chip_11cxx_lib/src/ssp_11xx.c **** 			/* write data to buffer */
 929              		.loc 1 250 0 is_stmt 0 discriminator 1
 930 0092 9342     		cmp	r3, r2	@ rx_cnt, buffer_len
 931 0094 15D2     		bcs	.L122	@,
 932              	.LVL64:
 933              	.LBB371:
 934              	.LBB362:
 284:../lpc11cx4-library/lpc_chip_11cxx_lib/inc/ssp_11xx.h **** }
 935              		.loc 2 284 0 is_stmt 1
 936 0096 C468     		ldr	r4, [r0, #12]	@ D.6818, pSSP_25(D)->SR
 937              	.L97:
 938              	.LVL65:
 939              	.LBE362:
 940              	.LBE371:
 941              	.LBB372:
 942              	.LBB367:
 311:../lpc11cx4-library/lpc_chip_11cxx_lib/inc/ssp_11xx.h **** }
 943              		.loc 2 311 0
 944 0098 8469     		ldr	r4, [r0, #24]	@ D.6818, pSSP_25(D)->RIS
 945              	.LBE367:
 946              	.LBE372:
 259:../lpc11cx4-library/lpc_chip_11cxx_lib/src/ssp_11xx.c **** 				return ERROR;
ARM GAS  /tmp/cc7TFFKb.s 			page 31


 947              		.loc 1 259 0
 948 009a 2742     		tst	r7, r4	@ tmp181, D.6818
 949 009c ECD1     		bne	.L91	@,
 950              	.LVL66:
 951              	.L120:
 952              	.LBB373:
 953              	.LBB370:
 284:../lpc11cx4-library/lpc_chip_11cxx_lib/inc/ssp_11xx.h **** }
 954              		.loc 2 284 0
 955 009e C468     		ldr	r4, [r0, #12]	@ D.6818,
 956              	.LBE370:
 957              	.LBE373:
 264:../lpc11cx4-library/lpc_chip_11cxx_lib/src/ssp_11xx.c **** 				Chip_SSP_ReceiveFrame(pSSP);	/* read dummy data */
 958              		.loc 1 264 0
 959 00a0 2542     		tst	r5, r4	@ tmp182, D.6818
 960 00a2 F4D0     		beq	.L84	@,
 961              	.LVL67:
 962              	.LBB374:
 963              	.LBB375:
 366:../lpc11cx4-library/lpc_chip_11cxx_lib/inc/ssp_11xx.h **** }
 964              		.loc 2 366 0
 965 00a4 8468     		ldr	r4, [r0, #8]	@ D.6818, pSSP_25(D)->DR
 966              	.LBE375:
 967              	.LBE374:
 266:../lpc11cx4-library/lpc_chip_11cxx_lib/src/ssp_11xx.c **** 			}
 968              		.loc 1 266 0
 969 00a6 0233     		add	r3, r3, #2	@ rx_cnt,
 970              	.LVL68:
 971 00a8 F9E7     		b	.L120	@
 972              	.LVL69:
 973              	.L89:
 252:../lpc11cx4-library/lpc_chip_11cxx_lib/src/ssp_11xx.c **** 				Chip_SSP_SendFrame(pSSP, *wdata16);
 974              		.loc 1 252 0
 975 00aa 6146     		mov	r1, ip	@ tmp180, tmp180
 976              	.LBB376:
 977              	.LBB363:
 284:../lpc11cx4-library/lpc_chip_11cxx_lib/inc/ssp_11xx.h **** }
 978              		.loc 2 284 0
 979 00ac C468     		ldr	r4, [r0, #12]	@ D.6818, pSSP_25(D)->SR
 980              	.LBE363:
 981              	.LBE376:
 252:../lpc11cx4-library/lpc_chip_11cxx_lib/src/ssp_11xx.c **** 				Chip_SSP_SendFrame(pSSP, *wdata16);
 982              		.loc 1 252 0
 983 00ae 2142     		tst	r1, r4	@ tmp180, D.6818
 984 00b0 F2D0     		beq	.L97	@,
 985              	.LVL70:
 986              	.LBB377:
 987              	.LBB378:
 988              		.loc 2 377 0
 989 00b2 4146     		mov	r1, r8	@ buffer, buffer
 990 00b4 0C88     		ldrh	r4, [r1]	@ D.6818, MEM[(uint16_t *)buffer_11]
 991              	.LBE378:
 992              	.LBE377:
 254:../lpc11cx4-library/lpc_chip_11cxx_lib/src/ssp_11xx.c **** 				tx_cnt += 2;
 993              		.loc 1 254 0
 994 00b6 0221     		mov	r1, #2	@ tmp196,
 995 00b8 8946     		mov	r9, r1	@ tmp196, tmp196
ARM GAS  /tmp/cc7TFFKb.s 			page 32


 996              	.LBB380:
 997              	.LBB379:
 998              		.loc 2 377 0
 999 00ba 8460     		str	r4, [r0, #8]	@ D.6818, pSSP_25(D)->DR
 1000              	.LVL71:
 1001              	.LBE379:
 1002              	.LBE380:
 254:../lpc11cx4-library/lpc_chip_11cxx_lib/src/ssp_11xx.c **** 				tx_cnt += 2;
 1003              		.loc 1 254 0
 1004 00bc C844     		add	r8, r8, r9	@ buffer, tmp196
 1005              	.LVL72:
 255:../lpc11cx4-library/lpc_chip_11cxx_lib/src/ssp_11xx.c **** 			}
 1006              		.loc 1 255 0
 1007 00be 0236     		add	r6, r6, #2	@ tx_cnt,
 1008              	.LVL73:
 1009 00c0 EAE7     		b	.L97	@
 1010              	.LVL74:
 1011              	.L122:
 1012              	.LBE382:
 1013              	.LBB383:
 1014 00c2 301C     		mov	r0, r6	@ D.6819, tx_cnt
 1015              	.LVL75:
 1016 00c4 D9E7     		b	.L119	@
 1017              	.LBE383:
 1018              		.cfi_endproc
 1019              	.LFE208:
 1020              		.size	Chip_SSP_WriteFrames_Blocking, .-Chip_SSP_WriteFrames_Blocking
 1021 00c6 C046     		.section	.text.Chip_SSP_ReadFrames_Blocking,"ax",%progbits
 1022              		.align	2
 1023              		.global	Chip_SSP_ReadFrames_Blocking
 1024              		.code	16
 1025              		.thumb_func
 1026              		.type	Chip_SSP_ReadFrames_Blocking, %function
 1027              	Chip_SSP_ReadFrames_Blocking:
 1028              	.LFB209:
 299:../lpc11cx4-library/lpc_chip_11cxx_lib/src/ssp_11xx.c **** 
 300:../lpc11cx4-library/lpc_chip_11cxx_lib/src/ssp_11xx.c **** /* SSP Polling Read in blocking mode */
 301:../lpc11cx4-library/lpc_chip_11cxx_lib/src/ssp_11xx.c **** uint32_t Chip_SSP_ReadFrames_Blocking(LPC_SSP_T *pSSP, uint8_t *buffer, uint32_t buffer_len)
 302:../lpc11cx4-library/lpc_chip_11cxx_lib/src/ssp_11xx.c **** {
 1029              		.loc 1 302 0
 1030              		.cfi_startproc
 1031              	.LVL76:
 1032 0000 F0B5     		push	{r4, r5, r6, r7, lr}	@
 1033              		.cfi_def_cfa_offset 20
 1034              		.cfi_offset 4, -20
 1035              		.cfi_offset 5, -16
 1036              		.cfi_offset 6, -12
 1037              		.cfi_offset 7, -8
 1038              		.cfi_offset 14, -4
 1039 0002 4F46     		mov	r7, r9	@,
 1040 0004 4646     		mov	r6, r8	@,
 1041              	.LBB384:
 1042              	.LBB385:
 284:../lpc11cx4-library/lpc_chip_11cxx_lib/inc/ssp_11xx.h **** }
 1043              		.loc 2 284 0
 1044 0006 C368     		ldr	r3, [r0, #12]	@ D.6839, pSSP_25(D)->SR
 1045              	.LBE385:
ARM GAS  /tmp/cc7TFFKb.s 			page 33


 1046              	.LBE384:
 1047              		.loc 1 302 0
 1048 0008 C0B4     		push	{r6, r7}	@
 1049              		.cfi_def_cfa_offset 28
 1050              		.cfi_offset 8, -28
 1051              		.cfi_offset 9, -24
 303:../lpc11cx4-library/lpc_chip_11cxx_lib/src/ssp_11xx.c **** 	uint32_t rx_cnt = 0, tx_cnt = 0;
 304:../lpc11cx4-library/lpc_chip_11cxx_lib/src/ssp_11xx.c **** 
 305:../lpc11cx4-library/lpc_chip_11cxx_lib/src/ssp_11xx.c **** 	/* Clear all remaining frames in RX FIFO */
 306:../lpc11cx4-library/lpc_chip_11cxx_lib/src/ssp_11xx.c **** 	while (Chip_SSP_GetStatus(pSSP, SSP_STAT_RNE)) {
 1052              		.loc 1 306 0
 1053 000a 5B07     		lsl	r3, r3, #29	@ tmp216, D.6839,
 1054 000c 04D5     		bpl	.L128	@,
 1055              	.LBB388:
 1056              	.LBB386:
 284:../lpc11cx4-library/lpc_chip_11cxx_lib/inc/ssp_11xx.h **** }
 1057              		.loc 2 284 0
 1058 000e 0424     		mov	r4, #4	@ tmp215,
 1059              	.L160:
 1060              	.LVL77:
 1061              	.LBE386:
 1062              	.LBE388:
 1063              	.LBB389:
 1064              	.LBB390:
 366:../lpc11cx4-library/lpc_chip_11cxx_lib/inc/ssp_11xx.h **** }
 1065              		.loc 2 366 0
 1066 0010 8368     		ldr	r3, [r0, #8]	@ D.6839, pSSP_25(D)->DR
 1067              	.LBE390:
 1068              	.LBE389:
 1069              	.LBB391:
 1070              	.LBB387:
 284:../lpc11cx4-library/lpc_chip_11cxx_lib/inc/ssp_11xx.h **** }
 1071              		.loc 2 284 0
 1072 0012 C368     		ldr	r3, [r0, #12]	@ D.6839, pSSP_25(D)->SR
 1073              	.LBE387:
 1074              	.LBE391:
 1075              		.loc 1 306 0
 1076 0014 1C42     		tst	r4, r3	@ tmp215, D.6839
 1077 0016 FBD1     		bne	.L160	@,
 1078              	.LVL78:
 1079              	.L128:
 1080              	.LBB392:
 1081              	.LBB393:
 336:../lpc11cx4-library/lpc_chip_11cxx_lib/inc/ssp_11xx.h **** }
 1082              		.loc 2 336 0
 1083 0018 0323     		mov	r3, #3	@ tmp177,
 1084              	.LBE393:
 1085              	.LBE392:
 307:../lpc11cx4-library/lpc_chip_11cxx_lib/src/ssp_11xx.c **** 		Chip_SSP_ReceiveFrame(pSSP);
 308:../lpc11cx4-library/lpc_chip_11cxx_lib/src/ssp_11xx.c **** 	}
 309:../lpc11cx4-library/lpc_chip_11cxx_lib/src/ssp_11xx.c **** 
 310:../lpc11cx4-library/lpc_chip_11cxx_lib/src/ssp_11xx.c **** 	/* Clear status */
 311:../lpc11cx4-library/lpc_chip_11cxx_lib/src/ssp_11xx.c **** 	Chip_SSP_ClearIntPending(pSSP, SSP_INT_CLEAR_BITMASK);
 312:../lpc11cx4-library/lpc_chip_11cxx_lib/src/ssp_11xx.c **** 
 313:../lpc11cx4-library/lpc_chip_11cxx_lib/src/ssp_11xx.c **** 	if (Chip_SSP_GetDataSize(pSSP) > SSP_BITS_8) {
 1086              		.loc 1 313 0
 1087 001a 0F24     		mov	r4, #15	@ tmp182,
ARM GAS  /tmp/cc7TFFKb.s 			page 34


 1088              	.LBB395:
 1089              	.LBB394:
 336:../lpc11cx4-library/lpc_chip_11cxx_lib/inc/ssp_11xx.h **** }
 1090              		.loc 2 336 0
 1091 001c 0362     		str	r3, [r0, #32]	@ tmp177, pSSP_25(D)->ICR
 1092              	.LVL79:
 1093              	.LBE394:
 1094              	.LBE395:
 1095              	.LBB396:
 1096              	.LBB397:
 322:../lpc11cx4-library/lpc_chip_11cxx_lib/inc/ssp_11xx.h **** }
 1097              		.loc 2 322 0
 1098 001e 0368     		ldr	r3, [r0]	@ D.6839, pSSP_25(D)->CR0
 1099              	.LBE397:
 1100              	.LBE396:
 1101              		.loc 1 313 0
 1102 0020 0026     		mov	r6, #0	@ tx_cnt,
 1103 0022 2340     		and	r3, r4	@ tmp183, tmp182
 1104 0024 072B     		cmp	r3, #7	@ tmp183,
 1105 0026 2ED8     		bhi	.L130	@,
 1106              	.LBB398:
 1107              	.LBB399:
 1108              	.LBB400:
 284:../lpc11cx4-library/lpc_chip_11cxx_lib/inc/ssp_11xx.h **** }
 1109              		.loc 2 284 0
 1110 0028 0D3C     		sub	r4, r4, #13	@ tmp211,
 1111 002a A446     		mov	ip, r4	@ tmp211, tmp211
 1112              	.LBE400:
 1113              	.LBE399:
 1114              	.LBB403:
 1115              	.LBB404:
 1116              		.loc 2 377 0
 1117 002c FD34     		add	r4, r4, #253	@ tmp212,
 1118 002e A046     		mov	r8, r4	@ tmp212, tmp212
 1119              	.LBE404:
 1120              	.LBE403:
 1121              	.LBB407:
 1122              	.LBB408:
 311:../lpc11cx4-library/lpc_chip_11cxx_lib/inc/ssp_11xx.h **** }
 1123              		.loc 2 311 0
 1124 0030 FE3C     		sub	r4, r4, #254	@ tmp213,
 1125              	.LBE408:
 1126              	.LBE407:
 1127              	.LBE398:
 1128              		.loc 1 313 0
 1129 0032 0023     		mov	r3, #0	@ rx_cnt,
 1130              	.LBB427:
 1131              	.LBB412:
 1132              	.LBB409:
 311:../lpc11cx4-library/lpc_chip_11cxx_lib/inc/ssp_11xx.h **** }
 1133              		.loc 2 311 0
 1134 0034 A146     		mov	r9, r4	@ tmp213, tmp213
 1135              	.LBE409:
 1136              	.LBE412:
 1137              	.LBB413:
 1138              	.LBB414:
 284:../lpc11cx4-library/lpc_chip_11cxx_lib/inc/ssp_11xx.h **** }
ARM GAS  /tmp/cc7TFFKb.s 			page 35


 1139              		.loc 2 284 0
 1140 0036 0425     		mov	r5, #4	@ tmp214,
 1141              	.LVL80:
 1142              	.L131:
 1143              	.LBE414:
 1144              	.LBE413:
 314:../lpc11cx4-library/lpc_chip_11cxx_lib/src/ssp_11xx.c **** 		uint16_t *rdata16;
 315:../lpc11cx4-library/lpc_chip_11cxx_lib/src/ssp_11xx.c **** 
 316:../lpc11cx4-library/lpc_chip_11cxx_lib/src/ssp_11xx.c **** 		rdata16 = (uint16_t *) buffer;
 317:../lpc11cx4-library/lpc_chip_11cxx_lib/src/ssp_11xx.c **** 
 318:../lpc11cx4-library/lpc_chip_11cxx_lib/src/ssp_11xx.c **** 		while (tx_cnt < buffer_len || rx_cnt < buffer_len) {
 319:../lpc11cx4-library/lpc_chip_11cxx_lib/src/ssp_11xx.c **** 			/* write data to buffer */
 320:../lpc11cx4-library/lpc_chip_11cxx_lib/src/ssp_11xx.c **** 			if ((Chip_SSP_GetStatus(pSSP, SSP_STAT_TNF) == SET) && (tx_cnt < buffer_len)) {
 321:../lpc11cx4-library/lpc_chip_11cxx_lib/src/ssp_11xx.c **** 				Chip_SSP_SendFrame(pSSP, 0xFFFF);	/* just send dummy data */
 322:../lpc11cx4-library/lpc_chip_11cxx_lib/src/ssp_11xx.c **** 				tx_cnt += 2;
 323:../lpc11cx4-library/lpc_chip_11cxx_lib/src/ssp_11xx.c **** 			}
 324:../lpc11cx4-library/lpc_chip_11cxx_lib/src/ssp_11xx.c **** 
 325:../lpc11cx4-library/lpc_chip_11cxx_lib/src/ssp_11xx.c **** 			/* Check overrun error */
 326:../lpc11cx4-library/lpc_chip_11cxx_lib/src/ssp_11xx.c **** 			if (Chip_SSP_GetRawIntStatus(pSSP, SSP_RORRIS) == SET) {
 327:../lpc11cx4-library/lpc_chip_11cxx_lib/src/ssp_11xx.c **** 				return ERROR;
 328:../lpc11cx4-library/lpc_chip_11cxx_lib/src/ssp_11xx.c **** 			}
 329:../lpc11cx4-library/lpc_chip_11cxx_lib/src/ssp_11xx.c **** 
 330:../lpc11cx4-library/lpc_chip_11cxx_lib/src/ssp_11xx.c **** 			/* Check for any data available in RX FIFO */
 331:../lpc11cx4-library/lpc_chip_11cxx_lib/src/ssp_11xx.c **** 			while (Chip_SSP_GetStatus(pSSP, SSP_STAT_RNE) == SET && rx_cnt < buffer_len) {
 332:../lpc11cx4-library/lpc_chip_11cxx_lib/src/ssp_11xx.c **** 				*rdata16 = Chip_SSP_ReceiveFrame(pSSP);
 333:../lpc11cx4-library/lpc_chip_11cxx_lib/src/ssp_11xx.c **** 				rdata16++;
 334:../lpc11cx4-library/lpc_chip_11cxx_lib/src/ssp_11xx.c **** 				rx_cnt += 2;
 335:../lpc11cx4-library/lpc_chip_11cxx_lib/src/ssp_11xx.c **** 			}
 336:../lpc11cx4-library/lpc_chip_11cxx_lib/src/ssp_11xx.c **** 		}
 337:../lpc11cx4-library/lpc_chip_11cxx_lib/src/ssp_11xx.c **** 	}
 338:../lpc11cx4-library/lpc_chip_11cxx_lib/src/ssp_11xx.c **** 	else {
 339:../lpc11cx4-library/lpc_chip_11cxx_lib/src/ssp_11xx.c **** 		uint8_t *rdata8;
 340:../lpc11cx4-library/lpc_chip_11cxx_lib/src/ssp_11xx.c **** 
 341:../lpc11cx4-library/lpc_chip_11cxx_lib/src/ssp_11xx.c **** 		rdata8 = buffer;
 342:../lpc11cx4-library/lpc_chip_11cxx_lib/src/ssp_11xx.c **** 
 343:../lpc11cx4-library/lpc_chip_11cxx_lib/src/ssp_11xx.c **** 		while (tx_cnt < buffer_len || rx_cnt < buffer_len) {
 1145              		.loc 1 343 0
 1146 0038 9642     		cmp	r6, r2	@ tx_cnt, buffer_len
 1147 003a 14D3     		bcc	.L142	@,
 1148              	.L176:
 1149              		.loc 1 343 0 is_stmt 0 discriminator 1
 1150 003c 9342     		cmp	r3, r2	@ rx_cnt, buffer_len
 1151 003e 49D2     		bcs	.L173	@,
 1152              	.LVL81:
 1153              	.LBB417:
 1154              	.LBB401:
 284:../lpc11cx4-library/lpc_chip_11cxx_lib/inc/ssp_11xx.h **** }
 1155              		.loc 2 284 0 is_stmt 1
 1156 0040 C468     		ldr	r4, [r0, #12]	@ D.6839, pSSP_25(D)->SR
 1157              	.L146:
 1158              	.LVL82:
 1159              	.LBE401:
 1160              	.LBE417:
 344:../lpc11cx4-library/lpc_chip_11cxx_lib/src/ssp_11xx.c **** 			/* write data to buffer */
 345:../lpc11cx4-library/lpc_chip_11cxx_lib/src/ssp_11xx.c **** 			if ((Chip_SSP_GetStatus(pSSP, SSP_STAT_TNF) == SET) && (tx_cnt < buffer_len)) {
 346:../lpc11cx4-library/lpc_chip_11cxx_lib/src/ssp_11xx.c **** 				Chip_SSP_SendFrame(pSSP, 0xFF);	/* just send dummy data		 */
 347:../lpc11cx4-library/lpc_chip_11cxx_lib/src/ssp_11xx.c **** 				tx_cnt++;
ARM GAS  /tmp/cc7TFFKb.s 			page 36


 348:../lpc11cx4-library/lpc_chip_11cxx_lib/src/ssp_11xx.c **** 			}
 349:../lpc11cx4-library/lpc_chip_11cxx_lib/src/ssp_11xx.c **** 
 350:../lpc11cx4-library/lpc_chip_11cxx_lib/src/ssp_11xx.c **** 			/* Check overrun error */
 351:../lpc11cx4-library/lpc_chip_11cxx_lib/src/ssp_11xx.c **** 			if (Chip_SSP_GetRawIntStatus(pSSP, SSP_RORRIS) == SET) {
 1161              		.loc 1 351 0
 1162 0042 4F46     		mov	r7, r9	@ tmp213, tmp213
 1163              	.LBB418:
 1164              	.LBB410:
 311:../lpc11cx4-library/lpc_chip_11cxx_lib/inc/ssp_11xx.h **** }
 1165              		.loc 2 311 0
 1166 0044 8469     		ldr	r4, [r0, #24]	@ D.6839, pSSP_25(D)->RIS
 1167              	.LBE410:
 1168              	.LBE418:
 1169              		.loc 1 351 0
 1170 0046 2742     		tst	r7, r4	@ tmp213, D.6839
 1171 0048 18D1     		bne	.L139	@,
 1172              	.L177:
 1173              	.LVL83:
 1174              	.LBB419:
 1175              	.LBB415:
 284:../lpc11cx4-library/lpc_chip_11cxx_lib/inc/ssp_11xx.h **** }
 1176              		.loc 2 284 0
 1177 004a C468     		ldr	r4, [r0, #12]	@ D.6839,
 1178              	.LBE415:
 1179              	.LBE419:
 352:../lpc11cx4-library/lpc_chip_11cxx_lib/src/ssp_11xx.c **** 				return ERROR;
 353:../lpc11cx4-library/lpc_chip_11cxx_lib/src/ssp_11xx.c **** 			}
 354:../lpc11cx4-library/lpc_chip_11cxx_lib/src/ssp_11xx.c **** 
 355:../lpc11cx4-library/lpc_chip_11cxx_lib/src/ssp_11xx.c **** 			/* Check for any data available in RX FIFO */
 356:../lpc11cx4-library/lpc_chip_11cxx_lib/src/ssp_11xx.c **** 			while (Chip_SSP_GetStatus(pSSP, SSP_STAT_RNE) == SET && rx_cnt < buffer_len) {
 1180              		.loc 1 356 0
 1181 004c 2542     		tst	r5, r4	@ tmp214, D.6839
 1182 004e F3D0     		beq	.L131	@,
 1183              	.L172:
 1184 0050 9342     		cmp	r3, r2	@ rx_cnt, buffer_len
 1185 0052 F1D2     		bcs	.L131	@,
 1186              	.LVL84:
 1187              	.LBB420:
 1188              	.LBB421:
 366:../lpc11cx4-library/lpc_chip_11cxx_lib/inc/ssp_11xx.h **** }
 1189              		.loc 2 366 0
 1190 0054 8468     		ldr	r4, [r0, #8]	@ D.6839, pSSP_25(D)->DR
 1191              	.LBE421:
 1192              	.LBE420:
 357:../lpc11cx4-library/lpc_chip_11cxx_lib/src/ssp_11xx.c **** 				*rdata8 = Chip_SSP_ReceiveFrame(pSSP);
 358:../lpc11cx4-library/lpc_chip_11cxx_lib/src/ssp_11xx.c **** 				rdata8++;
 359:../lpc11cx4-library/lpc_chip_11cxx_lib/src/ssp_11xx.c **** 				rx_cnt++;
 1193              		.loc 1 359 0
 1194 0056 0133     		add	r3, r3, #1	@ rx_cnt,
 1195              	.LVL85:
 357:../lpc11cx4-library/lpc_chip_11cxx_lib/src/ssp_11xx.c **** 				*rdata8 = Chip_SSP_ReceiveFrame(pSSP);
 1196              		.loc 1 357 0
 1197 0058 0C70     		strb	r4, [r1]	@ D.6839, MEM[base: buffer_102, offset: 0B]
 1198              	.LBB422:
 1199              	.LBB416:
 284:../lpc11cx4-library/lpc_chip_11cxx_lib/inc/ssp_11xx.h **** }
 1200              		.loc 2 284 0
ARM GAS  /tmp/cc7TFFKb.s 			page 37


 1201 005a C468     		ldr	r4, [r0, #12]	@ D.6839,
 1202              	.LBE416:
 1203              	.LBE422:
 358:../lpc11cx4-library/lpc_chip_11cxx_lib/src/ssp_11xx.c **** 				rx_cnt++;
 1204              		.loc 1 358 0
 1205 005c 0131     		add	r1, r1, #1	@ buffer,
 1206              	.LVL86:
 356:../lpc11cx4-library/lpc_chip_11cxx_lib/src/ssp_11xx.c **** 				*rdata8 = Chip_SSP_ReceiveFrame(pSSP);
 1207              		.loc 1 356 0
 1208 005e 2542     		tst	r5, r4	@ tmp214, D.6839
 1209 0060 F6D1     		bne	.L172	@,
 343:../lpc11cx4-library/lpc_chip_11cxx_lib/src/ssp_11xx.c **** 			/* write data to buffer */
 1210              		.loc 1 343 0
 1211 0062 9642     		cmp	r6, r2	@ tx_cnt, buffer_len
 1212 0064 EAD2     		bcs	.L176	@,
 1213              	.LVL87:
 1214              	.L142:
 345:../lpc11cx4-library/lpc_chip_11cxx_lib/src/ssp_11xx.c **** 				Chip_SSP_SendFrame(pSSP, 0xFF);	/* just send dummy data		 */
 1215              		.loc 1 345 0
 1216 0066 6746     		mov	r7, ip	@ tmp211, tmp211
 1217              	.LBB423:
 1218              	.LBB402:
 284:../lpc11cx4-library/lpc_chip_11cxx_lib/inc/ssp_11xx.h **** }
 1219              		.loc 2 284 0
 1220 0068 C468     		ldr	r4, [r0, #12]	@ D.6839, pSSP_25(D)->SR
 1221              	.LBE402:
 1222              	.LBE423:
 345:../lpc11cx4-library/lpc_chip_11cxx_lib/src/ssp_11xx.c **** 				Chip_SSP_SendFrame(pSSP, 0xFF);	/* just send dummy data		 */
 1223              		.loc 1 345 0
 1224 006a 2742     		tst	r7, r4	@ tmp211, D.6839
 1225 006c E9D0     		beq	.L146	@,
 1226              	.LVL88:
 1227              	.LBB424:
 1228              	.LBB405:
 1229              		.loc 2 377 0
 1230 006e 4446     		mov	r4, r8	@ tmp212, tmp212
 1231              	.LBE405:
 1232              	.LBE424:
 351:../lpc11cx4-library/lpc_chip_11cxx_lib/src/ssp_11xx.c **** 				return ERROR;
 1233              		.loc 1 351 0
 1234 0070 4F46     		mov	r7, r9	@ tmp213, tmp213
 1235              	.LBB425:
 1236              	.LBB406:
 1237              		.loc 2 377 0
 1238 0072 8460     		str	r4, [r0, #8]	@ tmp212, pSSP_25(D)->DR
 1239              	.LBE406:
 1240              	.LBE425:
 1241              	.LBB426:
 1242              	.LBB411:
 311:../lpc11cx4-library/lpc_chip_11cxx_lib/inc/ssp_11xx.h **** }
 1243              		.loc 2 311 0
 1244 0074 8469     		ldr	r4, [r0, #24]	@ D.6839, pSSP_25(D)->RIS
 1245              	.LBE411:
 1246              	.LBE426:
 347:../lpc11cx4-library/lpc_chip_11cxx_lib/src/ssp_11xx.c **** 			}
 1247              		.loc 1 347 0
 1248 0076 0136     		add	r6, r6, #1	@ tx_cnt,
ARM GAS  /tmp/cc7TFFKb.s 			page 38


 1249              	.LVL89:
 351:../lpc11cx4-library/lpc_chip_11cxx_lib/src/ssp_11xx.c **** 				return ERROR;
 1250              		.loc 1 351 0
 1251 0078 2742     		tst	r7, r4	@ tmp213, D.6839
 1252 007a E6D0     		beq	.L177	@,
 1253              	.LVL90:
 1254              	.L139:
 1255              	.LBE427:
 1256              	.LBB428:
 327:../lpc11cx4-library/lpc_chip_11cxx_lib/src/ssp_11xx.c **** 			}
 1257              		.loc 1 327 0
 1258 007c 0020     		mov	r0, #0	@ D.6838,
 1259              	.LVL91:
 1260              	.L170:
 1261              	.LBE428:
 360:../lpc11cx4-library/lpc_chip_11cxx_lib/src/ssp_11xx.c **** 			}
 361:../lpc11cx4-library/lpc_chip_11cxx_lib/src/ssp_11xx.c **** 		}
 362:../lpc11cx4-library/lpc_chip_11cxx_lib/src/ssp_11xx.c **** 	}
 363:../lpc11cx4-library/lpc_chip_11cxx_lib/src/ssp_11xx.c **** 
 364:../lpc11cx4-library/lpc_chip_11cxx_lib/src/ssp_11xx.c **** 	return rx_cnt;
 365:../lpc11cx4-library/lpc_chip_11cxx_lib/src/ssp_11xx.c **** 
 366:../lpc11cx4-library/lpc_chip_11cxx_lib/src/ssp_11xx.c **** }
 1262              		.loc 1 366 0
 1263              		@ sp needed	@
 1264              	.LVL92:
 1265 007e 0CBC     		pop	{r2, r3}
 1266 0080 9046     		mov	r8, r2
 1267 0082 9946     		mov	r9, r3
 1268 0084 F0BD     		pop	{r4, r5, r6, r7, pc}
 1269              	.LVL93:
 1270              	.L130:
 1271              	.LBB459:
 1272              	.LBB429:
 1273              	.LBB430:
 284:../lpc11cx4-library/lpc_chip_11cxx_lib/inc/ssp_11xx.h **** }
 1274              		.loc 2 284 0
 1275 0086 0224     		mov	r4, #2	@ tmp206,
 1276 0088 A446     		mov	ip, r4	@ tmp206, tmp206
 1277              	.LBE430:
 1278              	.LBE429:
 1279              	.LBB433:
 1280              	.LBB434:
 1281              		.loc 2 377 0
 1282 008a 134C     		ldr	r4, .L179	@ tmp207,
 1283              	.LBE434:
 1284              	.LBE433:
 1285              	.LBE459:
 313:../lpc11cx4-library/lpc_chip_11cxx_lib/src/ssp_11xx.c **** 		uint16_t *rdata16;
 1286              		.loc 1 313 0
 1287 008c 0023     		mov	r3, #0	@ rx_cnt,
 1288              	.LBB460:
 1289              	.LBB438:
 1290              	.LBB435:
 1291              		.loc 2 377 0
 1292 008e A046     		mov	r8, r4	@ tmp207, tmp207
 1293              	.LBE435:
 1294              	.LBE438:
ARM GAS  /tmp/cc7TFFKb.s 			page 39


 1295              	.LBB439:
 1296              	.LBB440:
 311:../lpc11cx4-library/lpc_chip_11cxx_lib/inc/ssp_11xx.h **** }
 1297              		.loc 2 311 0
 1298 0090 0124     		mov	r4, #1	@ tmp208,
 1299              	.LBE440:
 1300              	.LBE439:
 1301              	.LBB443:
 1302              	.LBB444:
 284:../lpc11cx4-library/lpc_chip_11cxx_lib/inc/ssp_11xx.h **** }
 1303              		.loc 2 284 0
 1304 0092 0425     		mov	r5, #4	@ tmp209,
 1305              	.LBE444:
 1306              	.LBE443:
 1307              	.LBB447:
 1308              	.LBB441:
 311:../lpc11cx4-library/lpc_chip_11cxx_lib/inc/ssp_11xx.h **** }
 1309              		.loc 2 311 0
 1310 0094 A146     		mov	r9, r4	@ tmp208, tmp208
 1311              	.LVL94:
 1312              	.L132:
 1313              	.LBE441:
 1314              	.LBE447:
 318:../lpc11cx4-library/lpc_chip_11cxx_lib/src/ssp_11xx.c **** 			/* write data to buffer */
 1315              		.loc 1 318 0
 1316 0096 9642     		cmp	r6, r2	@ tx_cnt, buffer_len
 1317 0098 14D3     		bcc	.L137	@,
 1318              	.L178:
 318:../lpc11cx4-library/lpc_chip_11cxx_lib/src/ssp_11xx.c **** 			/* write data to buffer */
 1319              		.loc 1 318 0 is_stmt 0 discriminator 1
 1320 009a 9342     		cmp	r3, r2	@ rx_cnt, buffer_len
 1321 009c 1AD2     		bcs	.L173	@,
 1322              	.LVL95:
 1323              	.LBB448:
 1324              	.LBB431:
 284:../lpc11cx4-library/lpc_chip_11cxx_lib/inc/ssp_11xx.h **** }
 1325              		.loc 2 284 0 is_stmt 1
 1326 009e C468     		ldr	r4, [r0, #12]	@ D.6839, pSSP_25(D)->SR
 1327              	.L145:
 1328              	.LVL96:
 1329              	.LBE431:
 1330              	.LBE448:
 326:../lpc11cx4-library/lpc_chip_11cxx_lib/src/ssp_11xx.c **** 				return ERROR;
 1331              		.loc 1 326 0
 1332 00a0 4F46     		mov	r7, r9	@ tmp208, tmp208
 1333              	.LBB449:
 1334              	.LBB442:
 311:../lpc11cx4-library/lpc_chip_11cxx_lib/inc/ssp_11xx.h **** }
 1335              		.loc 2 311 0
 1336 00a2 8469     		ldr	r4, [r0, #24]	@ D.6839, pSSP_25(D)->RIS
 1337              	.LBE442:
 1338              	.LBE449:
 326:../lpc11cx4-library/lpc_chip_11cxx_lib/src/ssp_11xx.c **** 				return ERROR;
 1339              		.loc 1 326 0
 1340 00a4 2742     		tst	r7, r4	@ tmp208, D.6839
 1341 00a6 E9D1     		bne	.L139	@,
 1342              	.LVL97:
ARM GAS  /tmp/cc7TFFKb.s 			page 40


 1343              	.LBB450:
 1344              	.LBB445:
 284:../lpc11cx4-library/lpc_chip_11cxx_lib/inc/ssp_11xx.h **** }
 1345              		.loc 2 284 0
 1346 00a8 C468     		ldr	r4, [r0, #12]	@ D.6839,
 1347              	.LBE445:
 1348              	.LBE450:
 331:../lpc11cx4-library/lpc_chip_11cxx_lib/src/ssp_11xx.c **** 				*rdata16 = Chip_SSP_ReceiveFrame(pSSP);
 1349              		.loc 1 331 0
 1350 00aa 2542     		tst	r5, r4	@ tmp209, D.6839
 1351 00ac F3D0     		beq	.L132	@,
 1352              	.L171:
 1353 00ae 9342     		cmp	r3, r2	@ rx_cnt, buffer_len
 1354 00b0 F1D2     		bcs	.L132	@,
 1355              	.LVL98:
 1356              	.LBB451:
 1357              	.LBB452:
 366:../lpc11cx4-library/lpc_chip_11cxx_lib/inc/ssp_11xx.h **** }
 1358              		.loc 2 366 0
 1359 00b2 8468     		ldr	r4, [r0, #8]	@ D.6839, pSSP_25(D)->DR
 1360              	.LBE452:
 1361              	.LBE451:
 334:../lpc11cx4-library/lpc_chip_11cxx_lib/src/ssp_11xx.c **** 			}
 1362              		.loc 1 334 0
 1363 00b4 0233     		add	r3, r3, #2	@ rx_cnt,
 1364              	.LVL99:
 1365              	.LBB454:
 1366              	.LBB453:
 366:../lpc11cx4-library/lpc_chip_11cxx_lib/inc/ssp_11xx.h **** }
 1367              		.loc 2 366 0
 1368 00b6 0C80     		strh	r4, [r1]	@ D.6839, MEM[base: buffer_73, offset: 0B]
 1369              	.LBE453:
 1370              	.LBE454:
 1371              	.LBB455:
 1372              	.LBB446:
 284:../lpc11cx4-library/lpc_chip_11cxx_lib/inc/ssp_11xx.h **** }
 1373              		.loc 2 284 0
 1374 00b8 C468     		ldr	r4, [r0, #12]	@ D.6839,
 1375              	.LBE446:
 1376              	.LBE455:
 333:../lpc11cx4-library/lpc_chip_11cxx_lib/src/ssp_11xx.c **** 				rx_cnt += 2;
 1377              		.loc 1 333 0
 1378 00ba 0231     		add	r1, r1, #2	@ buffer,
 1379              	.LVL100:
 331:../lpc11cx4-library/lpc_chip_11cxx_lib/src/ssp_11xx.c **** 				*rdata16 = Chip_SSP_ReceiveFrame(pSSP);
 1380              		.loc 1 331 0
 1381 00bc 2542     		tst	r5, r4	@ tmp209, D.6839
 1382 00be F6D1     		bne	.L171	@,
 318:../lpc11cx4-library/lpc_chip_11cxx_lib/src/ssp_11xx.c **** 			/* write data to buffer */
 1383              		.loc 1 318 0
 1384 00c0 9642     		cmp	r6, r2	@ tx_cnt, buffer_len
 1385 00c2 EAD2     		bcs	.L178	@,
 1386              	.LVL101:
 1387              	.L137:
 320:../lpc11cx4-library/lpc_chip_11cxx_lib/src/ssp_11xx.c **** 				Chip_SSP_SendFrame(pSSP, 0xFFFF);	/* just send dummy data */
 1388              		.loc 1 320 0
 1389 00c4 6746     		mov	r7, ip	@ tmp206, tmp206
ARM GAS  /tmp/cc7TFFKb.s 			page 41


 1390              	.LBB456:
 1391              	.LBB432:
 284:../lpc11cx4-library/lpc_chip_11cxx_lib/inc/ssp_11xx.h **** }
 1392              		.loc 2 284 0
 1393 00c6 C468     		ldr	r4, [r0, #12]	@ D.6839, pSSP_25(D)->SR
 1394              	.LBE432:
 1395              	.LBE456:
 320:../lpc11cx4-library/lpc_chip_11cxx_lib/src/ssp_11xx.c **** 				Chip_SSP_SendFrame(pSSP, 0xFFFF);	/* just send dummy data */
 1396              		.loc 1 320 0
 1397 00c8 2742     		tst	r7, r4	@ tmp206, D.6839
 1398 00ca E9D0     		beq	.L145	@,
 1399              	.LVL102:
 1400              	.LBB457:
 1401              	.LBB436:
 1402              		.loc 2 377 0
 1403 00cc 4446     		mov	r4, r8	@ tmp207, tmp207
 1404              	.LBE436:
 1405              	.LBE457:
 322:../lpc11cx4-library/lpc_chip_11cxx_lib/src/ssp_11xx.c **** 			}
 1406              		.loc 1 322 0
 1407 00ce 0236     		add	r6, r6, #2	@ tx_cnt,
 1408              	.LVL103:
 1409              	.LBB458:
 1410              	.LBB437:
 1411              		.loc 2 377 0
 1412 00d0 8460     		str	r4, [r0, #8]	@ tmp207, pSSP_25(D)->DR
 1413 00d2 E5E7     		b	.L145	@
 1414              	.LVL104:
 1415              	.L173:
 1416              	.LBE437:
 1417              	.LBE458:
 1418              	.LBE460:
 1419              	.LBB461:
 1420 00d4 181C     		mov	r0, r3	@ D.6838, rx_cnt
 1421              	.LVL105:
 1422 00d6 D2E7     		b	.L170	@
 1423              	.L180:
 1424              		.align	2
 1425              	.L179:
 1426 00d8 FFFF0000 		.word	65535
 1427              	.LBE461:
 1428              		.cfi_endproc
 1429              	.LFE209:
 1430              		.size	Chip_SSP_ReadFrames_Blocking, .-Chip_SSP_ReadFrames_Blocking
 1431              		.section	.text.Chip_SSP_Int_FlushData,"ax",%progbits
 1432              		.align	2
 1433              		.global	Chip_SSP_Int_FlushData
 1434              		.code	16
 1435              		.thumb_func
 1436              		.type	Chip_SSP_Int_FlushData, %function
 1437              	Chip_SSP_Int_FlushData:
 1438              	.LFB210:
 367:../lpc11cx4-library/lpc_chip_11cxx_lib/src/ssp_11xx.c **** 
 368:../lpc11cx4-library/lpc_chip_11cxx_lib/src/ssp_11xx.c **** /* Clean all data in RX FIFO of SSP */
 369:../lpc11cx4-library/lpc_chip_11cxx_lib/src/ssp_11xx.c **** void Chip_SSP_Int_FlushData(LPC_SSP_T *pSSP)
 370:../lpc11cx4-library/lpc_chip_11cxx_lib/src/ssp_11xx.c **** {
 1439              		.loc 1 370 0
ARM GAS  /tmp/cc7TFFKb.s 			page 42


 1440              		.cfi_startproc
 1441              	.LVL106:
 1442              	.LBB462:
 1443              	.LBB463:
 284:../lpc11cx4-library/lpc_chip_11cxx_lib/inc/ssp_11xx.h **** }
 1444              		.loc 2 284 0
 1445 0000 C368     		ldr	r3, [r0, #12]	@ D.6845, pSSP_4(D)->SR
 1446              	.LBE463:
 1447              	.LBE462:
 371:../lpc11cx4-library/lpc_chip_11cxx_lib/src/ssp_11xx.c **** 	if (Chip_SSP_GetStatus(pSSP, SSP_STAT_BSY)) {
 1448              		.loc 1 371 0
 1449 0002 DB06     		lsl	r3, r3, #27	@ tmp131, D.6845,
 1450 0004 03D5     		bpl	.L185	@,
 1451              	.LBB464:
 1452              	.LBB465:
 284:../lpc11cx4-library/lpc_chip_11cxx_lib/inc/ssp_11xx.h **** }
 1453              		.loc 2 284 0 discriminator 1
 1454 0006 1022     		mov	r2, #16	@ tmp130,
 1455              	.L187:
 1456              	.LVL107:
 1457 0008 C368     		ldr	r3, [r0, #12]	@ D.6845, pSSP_4(D)->SR
 1458              	.LBE465:
 1459              	.LBE464:
 372:../lpc11cx4-library/lpc_chip_11cxx_lib/src/ssp_11xx.c **** 		while (Chip_SSP_GetStatus(pSSP, SSP_STAT_BSY)) {}
 1460              		.loc 1 372 0 discriminator 1
 1461 000a 1A42     		tst	r2, r3	@ tmp130, D.6845
 1462 000c FCD1     		bne	.L187	@,
 1463              	.LVL108:
 1464              	.L185:
 1465              	.LBB466:
 1466              	.LBB467:
 284:../lpc11cx4-library/lpc_chip_11cxx_lib/inc/ssp_11xx.h **** }
 1467              		.loc 2 284 0
 1468 000e C368     		ldr	r3, [r0, #12]	@ D.6845, pSSP_4(D)->SR
 1469 0010 0422     		mov	r2, #4	@ tmp129,
 1470              	.LBE467:
 1471              	.LBE466:
 373:../lpc11cx4-library/lpc_chip_11cxx_lib/src/ssp_11xx.c **** 	}
 374:../lpc11cx4-library/lpc_chip_11cxx_lib/src/ssp_11xx.c **** 
 375:../lpc11cx4-library/lpc_chip_11cxx_lib/src/ssp_11xx.c **** 	/* Clear all remaining frames in RX FIFO */
 376:../lpc11cx4-library/lpc_chip_11cxx_lib/src/ssp_11xx.c **** 	while (Chip_SSP_GetStatus(pSSP, SSP_STAT_RNE)) {
 1472              		.loc 1 376 0
 1473 0012 5B07     		lsl	r3, r3, #29	@ tmp132, D.6845,
 1474 0014 03D5     		bpl	.L184	@,
 1475              	.L186:
 1476              	.LVL109:
 1477              	.LBB469:
 1478              	.LBB470:
 366:../lpc11cx4-library/lpc_chip_11cxx_lib/inc/ssp_11xx.h **** }
 1479              		.loc 2 366 0
 1480 0016 8368     		ldr	r3, [r0, #8]	@ D.6845, pSSP_4(D)->DR
 1481              	.LBE470:
 1482              	.LBE469:
 1483              	.LBB471:
 1484              	.LBB468:
 284:../lpc11cx4-library/lpc_chip_11cxx_lib/inc/ssp_11xx.h **** }
 1485              		.loc 2 284 0
ARM GAS  /tmp/cc7TFFKb.s 			page 43


 1486 0018 C368     		ldr	r3, [r0, #12]	@ D.6845, pSSP_4(D)->SR
 1487              	.LBE468:
 1488              	.LBE471:
 1489              		.loc 1 376 0
 1490 001a 1A42     		tst	r2, r3	@ tmp129, D.6845
 1491 001c FBD1     		bne	.L186	@,
 1492              	.LVL110:
 1493              	.L184:
 1494              	.LBB472:
 1495              	.LBB473:
 336:../lpc11cx4-library/lpc_chip_11cxx_lib/inc/ssp_11xx.h **** }
 1496              		.loc 2 336 0
 1497 001e 0323     		mov	r3, #3	@ tmp128,
 1498              	.LBE473:
 1499              	.LBE472:
 377:../lpc11cx4-library/lpc_chip_11cxx_lib/src/ssp_11xx.c **** 		Chip_SSP_ReceiveFrame(pSSP);
 378:../lpc11cx4-library/lpc_chip_11cxx_lib/src/ssp_11xx.c **** 	}
 379:../lpc11cx4-library/lpc_chip_11cxx_lib/src/ssp_11xx.c **** 
 380:../lpc11cx4-library/lpc_chip_11cxx_lib/src/ssp_11xx.c **** 	/* Clear status */
 381:../lpc11cx4-library/lpc_chip_11cxx_lib/src/ssp_11xx.c **** 	Chip_SSP_ClearIntPending(pSSP, SSP_INT_CLEAR_BITMASK);
 382:../lpc11cx4-library/lpc_chip_11cxx_lib/src/ssp_11xx.c **** }
 1500              		.loc 1 382 0
 1501              		@ sp needed	@
 1502              	.LBB475:
 1503              	.LBB474:
 336:../lpc11cx4-library/lpc_chip_11cxx_lib/inc/ssp_11xx.h **** }
 1504              		.loc 2 336 0
 1505 0020 0362     		str	r3, [r0, #32]	@ tmp128, pSSP_4(D)->ICR
 1506              	.LBE474:
 1507              	.LBE475:
 1508              		.loc 1 382 0
 1509 0022 7047     		bx	lr
 1510              		.cfi_endproc
 1511              	.LFE210:
 1512              		.size	Chip_SSP_Int_FlushData, .-Chip_SSP_Int_FlushData
 1513              		.section	.text.Chip_SSP_Int_RWFrames8Bits,"ax",%progbits
 1514              		.align	2
 1515              		.global	Chip_SSP_Int_RWFrames8Bits
 1516              		.code	16
 1517              		.thumb_func
 1518              		.type	Chip_SSP_Int_RWFrames8Bits, %function
 1519              	Chip_SSP_Int_RWFrames8Bits:
 1520              	.LFB211:
 383:../lpc11cx4-library/lpc_chip_11cxx_lib/src/ssp_11xx.c **** 
 384:../lpc11cx4-library/lpc_chip_11cxx_lib/src/ssp_11xx.c **** /* SSP Interrupt Read/Write with 8-bit frame width */
 385:../lpc11cx4-library/lpc_chip_11cxx_lib/src/ssp_11xx.c **** Status Chip_SSP_Int_RWFrames8Bits(LPC_SSP_T *pSSP, Chip_SSP_DATA_SETUP_T *xf_setup)
 386:../lpc11cx4-library/lpc_chip_11cxx_lib/src/ssp_11xx.c **** {
 1521              		.loc 1 386 0
 1522              		.cfi_startproc
 1523              	.LVL111:
 1524 0000 F0B5     		push	{r4, r5, r6, r7, lr}	@
 1525              		.cfi_def_cfa_offset 20
 1526              		.cfi_offset 4, -20
 1527              		.cfi_offset 5, -16
 1528              		.cfi_offset 6, -12
 1529              		.cfi_offset 7, -8
 1530              		.cfi_offset 14, -4
ARM GAS  /tmp/cc7TFFKb.s 			page 44


 1531 0002 4746     		mov	r7, r8	@,
 1532              	.LBB476:
 1533              	.LBB477:
 311:../lpc11cx4-library/lpc_chip_11cxx_lib/inc/ssp_11xx.h **** }
 1534              		.loc 2 311 0
 1535 0004 8369     		ldr	r3, [r0, #24]	@ D.6849, pSSP_5(D)->RIS
 1536              	.LBE477:
 1537              	.LBE476:
 1538              		.loc 1 386 0
 1539 0006 80B4     		push	{r7}	@
 1540              		.cfi_def_cfa_offset 24
 1541              		.cfi_offset 8, -24
 387:../lpc11cx4-library/lpc_chip_11cxx_lib/src/ssp_11xx.c **** 	/* Check overrun error in RIS register */
 388:../lpc11cx4-library/lpc_chip_11cxx_lib/src/ssp_11xx.c **** 	if (Chip_SSP_GetRawIntStatus(pSSP, SSP_RORRIS) == SET) {
 1542              		.loc 1 388 0
 1543 0008 DB07     		lsl	r3, r3, #31	@ tmp157, D.6849,
 1544 000a 31D4     		bmi	.L194	@,
 389:../lpc11cx4-library/lpc_chip_11cxx_lib/src/ssp_11xx.c **** 		return ERROR;
 390:../lpc11cx4-library/lpc_chip_11cxx_lib/src/ssp_11xx.c **** 	}
 391:../lpc11cx4-library/lpc_chip_11cxx_lib/src/ssp_11xx.c **** 
 392:../lpc11cx4-library/lpc_chip_11cxx_lib/src/ssp_11xx.c **** 	if ((xf_setup->tx_cnt != xf_setup->length) || (xf_setup->rx_cnt != xf_setup->length)) {
 1545              		.loc 1 392 0
 1546 000c 4B68     		ldr	r3, [r1, #4]	@ D.6849, xf_setup_6(D)->tx_cnt
 1547 000e 0A69     		ldr	r2, [r1, #16]	@ tmp159, xf_setup_6(D)->length
 1548 0010 9342     		cmp	r3, r2	@ D.6849, tmp159
 1549 0012 31D0     		beq	.L207	@,
 1550              	.L193:
 1551 0014 051C     		mov	r5, r0	@ pSSP, pSSP
 1552 0016 0C1C     		mov	r4, r1	@ xf_setup, xf_setup
 393:../lpc11cx4-library/lpc_chip_11cxx_lib/src/ssp_11xx.c **** 		/* check if RX FIFO contains data */
 394:../lpc11cx4-library/lpc_chip_11cxx_lib/src/ssp_11xx.c **** 		SSP_Read1BFifo(pSSP, xf_setup);
 1553              		.loc 1 394 0
 1554 0018 FFF7FEFF 		bl	SSP_Read1BFifo	@
 1555              	.LVL112:
 1556              	.LBB478:
 1557              	.LBB479:
 284:../lpc11cx4-library/lpc_chip_11cxx_lib/inc/ssp_11xx.h **** }
 1558              		.loc 2 284 0
 1559 001c EB68     		ldr	r3, [r5, #12]	@ D.6849, pSSP_5(D)->SR
 1560              	.LBE479:
 1561              	.LBE478:
 395:../lpc11cx4-library/lpc_chip_11cxx_lib/src/ssp_11xx.c **** 
 396:../lpc11cx4-library/lpc_chip_11cxx_lib/src/ssp_11xx.c **** 		while ((Chip_SSP_GetStatus(pSSP, SSP_STAT_TNF)) && (xf_setup->tx_cnt != xf_setup->length)) {
 1562              		.loc 1 396 0
 1563 001e 9B07     		lsl	r3, r3, #30	@ tmp158, D.6849,
 1564 0020 2ED5     		bpl	.L196	@,
 1565 0022 6368     		ldr	r3, [r4, #4]	@ D.6849, xf_setup_6(D)->tx_cnt
 1566 0024 2269     		ldr	r2, [r4, #16]	@ tmp163, xf_setup_6(D)->length
 1567 0026 9342     		cmp	r3, r2	@ D.6849, tmp163
 1568 0028 2AD0     		beq	.L196	@,
 1569              	.LBB482:
 1570              	.LBB483:
 1571              	.LBB484:
 1572              	.LBB485:
 1573              		.loc 2 377 0
 1574 002a FF22     		mov	r2, #255	@ tmp152,
 1575              	.LBE485:
ARM GAS  /tmp/cc7TFFKb.s 			page 45


 1576              	.LBE484:
 1577              	.LBE483:
 1578              	.LBE482:
 1579              	.LBB495:
 1580              	.LBB496:
 311:../lpc11cx4-library/lpc_chip_11cxx_lib/inc/ssp_11xx.h **** }
 1581              		.loc 2 311 0
 1582 002c 0126     		mov	r6, #1	@ tmp153,
 1583              	.LBE496:
 1584              	.LBE495:
 1585              	.LBB499:
 1586              	.LBB492:
 1587              	.LBB488:
 1588              	.LBB486:
 1589              		.loc 2 377 0
 1590 002e 9046     		mov	r8, r2	@ tmp152, tmp152
 1591              	.LBE486:
 1592              	.LBE488:
 1593              	.LBE492:
 1594              	.LBE499:
 1595              	.LBB500:
 1596              	.LBB480:
 284:../lpc11cx4-library/lpc_chip_11cxx_lib/inc/ssp_11xx.h **** }
 1597              		.loc 2 284 0
 1598 0030 0227     		mov	r7, #2	@ tmp154,
 1599 0032 12E0     		b	.L199	@
 1600              	.LVL113:
 1601              	.L208:
 1602              	.LBE480:
 1603              	.LBE500:
 1604              	.LBB501:
 1605              	.LBB493:
 1606              	.LBB489:
 1607              	.LBB490:
 1608              		.loc 2 377 0
 1609 0034 D35C     		ldrb	r3, [r2, r3]	@ D.6849, *_24
 1610              	.LVL114:
 1611 0036 AB60     		str	r3, [r5, #8]	@ D.6849,
 1612              	.LBE490:
 1613              	.LBE489:
  69:../lpc11cx4-library/lpc_chip_11cxx_lib/src/ssp_11xx.c **** }
 1614              		.loc 1 69 0
 1615 0038 6368     		ldr	r3, [r4, #4]	@ tmp167, MEM[(uint32_t *)xf_setup_6(D) + 4B]
 1616              	.LVL115:
 1617 003a 0133     		add	r3, r3, #1	@ D.6849,
 1618 003c 6360     		str	r3, [r4, #4]	@ D.6849, MEM[(uint32_t *)xf_setup_6(D) + 4B]
 1619              	.LVL116:
 1620              	.LBE493:
 1621              	.LBE501:
 1622              	.LBB502:
 1623              	.LBB497:
 311:../lpc11cx4-library/lpc_chip_11cxx_lib/inc/ssp_11xx.h **** }
 1624              		.loc 2 311 0
 1625 003e AB69     		ldr	r3, [r5, #24]	@ D.6849, pSSP_5(D)->RIS
 1626              	.LBE497:
 1627              	.LBE502:
 397:../lpc11cx4-library/lpc_chip_11cxx_lib/src/ssp_11xx.c **** 			/* Write data to buffer */
ARM GAS  /tmp/cc7TFFKb.s 			page 46


 398:../lpc11cx4-library/lpc_chip_11cxx_lib/src/ssp_11xx.c **** 			SSP_Write1BFifo(pSSP, xf_setup);
 399:../lpc11cx4-library/lpc_chip_11cxx_lib/src/ssp_11xx.c **** 
 400:../lpc11cx4-library/lpc_chip_11cxx_lib/src/ssp_11xx.c **** 			/* Check overrun error in RIS register */
 401:../lpc11cx4-library/lpc_chip_11cxx_lib/src/ssp_11xx.c **** 			if (Chip_SSP_GetRawIntStatus(pSSP, SSP_RORRIS) == SET) {
 1628              		.loc 1 401 0
 1629 0040 1E42     		tst	r6, r3	@ tmp153, D.6849
 1630 0042 15D1     		bne	.L194	@,
 1631              	.LVL117:
 1632              	.L209:
 402:../lpc11cx4-library/lpc_chip_11cxx_lib/src/ssp_11xx.c **** 				return ERROR;
 403:../lpc11cx4-library/lpc_chip_11cxx_lib/src/ssp_11xx.c **** 			}
 404:../lpc11cx4-library/lpc_chip_11cxx_lib/src/ssp_11xx.c **** 
 405:../lpc11cx4-library/lpc_chip_11cxx_lib/src/ssp_11xx.c **** 			/*  Check for any data available in RX FIFO */
 406:../lpc11cx4-library/lpc_chip_11cxx_lib/src/ssp_11xx.c **** 			SSP_Read1BFifo(pSSP, xf_setup);
 1633              		.loc 1 406 0
 1634 0044 281C     		mov	r0, r5	@, pSSP
 1635 0046 211C     		mov	r1, r4	@, xf_setup
 1636 0048 FFF7FEFF 		bl	SSP_Read1BFifo	@
 1637              	.LVL118:
 1638              	.LBB503:
 1639              	.LBB481:
 284:../lpc11cx4-library/lpc_chip_11cxx_lib/inc/ssp_11xx.h **** }
 1640              		.loc 2 284 0
 1641 004c EB68     		ldr	r3, [r5, #12]	@ D.6849, pSSP_5(D)->SR
 1642              	.LBE481:
 1643              	.LBE503:
 396:../lpc11cx4-library/lpc_chip_11cxx_lib/src/ssp_11xx.c **** 			/* Write data to buffer */
 1644              		.loc 1 396 0
 1645 004e 1F42     		tst	r7, r3	@ tmp154, D.6849
 1646 0050 16D0     		beq	.L196	@,
 396:../lpc11cx4-library/lpc_chip_11cxx_lib/src/ssp_11xx.c **** 			/* Write data to buffer */
 1647              		.loc 1 396 0 is_stmt 0 discriminator 1
 1648 0052 6368     		ldr	r3, [r4, #4]	@ D.6849, xf_setup_6(D)->tx_cnt
 1649 0054 2269     		ldr	r2, [r4, #16]	@ tmp168, xf_setup_6(D)->length
 1650 0056 9342     		cmp	r3, r2	@ D.6849, tmp168
 1651 0058 12D0     		beq	.L196	@,
 1652              	.LVL119:
 1653              	.L199:
 1654 005a 2268     		ldr	r2, [r4]	@ D.6850, MEM[(void * *)xf_setup_6(D)]
 1655              	.LVL120:
 1656              	.LBB504:
 1657              	.LBB494:
  62:../lpc11cx4-library/lpc_chip_11cxx_lib/src/ssp_11xx.c **** 		Chip_SSP_SendFrame(pSSP, (*(uint8_t *) ((uint32_t) xf_setup->tx_data + xf_setup->tx_cnt)));
 1658              		.loc 1 62 0 is_stmt 1
 1659 005c 002A     		cmp	r2, #0	@ D.6850,
 1660 005e E9D1     		bne	.L208	@,
 1661              	.LVL121:
 1662              	.LBB491:
 1663              	.LBB487:
 1664              		.loc 2 377 0
 1665 0060 4346     		mov	r3, r8	@ tmp152, tmp152
 1666 0062 AB60     		str	r3, [r5, #8]	@ tmp152,
 1667              	.LBE487:
 1668              	.LBE491:
  69:../lpc11cx4-library/lpc_chip_11cxx_lib/src/ssp_11xx.c **** }
 1669              		.loc 1 69 0
 1670 0064 6368     		ldr	r3, [r4, #4]	@ tmp167, MEM[(uint32_t *)xf_setup_6(D) + 4B]
ARM GAS  /tmp/cc7TFFKb.s 			page 47


 1671 0066 0133     		add	r3, r3, #1	@ D.6849,
 1672 0068 6360     		str	r3, [r4, #4]	@ D.6849, MEM[(uint32_t *)xf_setup_6(D) + 4B]
 1673              	.LVL122:
 1674              	.LBE494:
 1675              	.LBE504:
 1676              	.LBB505:
 1677              	.LBB498:
 311:../lpc11cx4-library/lpc_chip_11cxx_lib/inc/ssp_11xx.h **** }
 1678              		.loc 2 311 0
 1679 006a AB69     		ldr	r3, [r5, #24]	@ D.6849, pSSP_5(D)->RIS
 1680              	.LBE498:
 1681              	.LBE505:
 401:../lpc11cx4-library/lpc_chip_11cxx_lib/src/ssp_11xx.c **** 				return ERROR;
 1682              		.loc 1 401 0
 1683 006c 1E42     		tst	r6, r3	@ tmp153, D.6849
 1684 006e E9D0     		beq	.L209	@,
 1685              	.LVL123:
 1686              	.L194:
 389:../lpc11cx4-library/lpc_chip_11cxx_lib/src/ssp_11xx.c **** 	}
 1687              		.loc 1 389 0
 1688 0070 0020     		mov	r0, #0	@ D.6848,
 1689              	.L192:
 407:../lpc11cx4-library/lpc_chip_11cxx_lib/src/ssp_11xx.c **** 		}
 408:../lpc11cx4-library/lpc_chip_11cxx_lib/src/ssp_11xx.c **** 
 409:../lpc11cx4-library/lpc_chip_11cxx_lib/src/ssp_11xx.c **** 		return SUCCESS;
 410:../lpc11cx4-library/lpc_chip_11cxx_lib/src/ssp_11xx.c **** 	}
 411:../lpc11cx4-library/lpc_chip_11cxx_lib/src/ssp_11xx.c **** 
 412:../lpc11cx4-library/lpc_chip_11cxx_lib/src/ssp_11xx.c **** 	return ERROR;
 413:../lpc11cx4-library/lpc_chip_11cxx_lib/src/ssp_11xx.c **** }
 1690              		.loc 1 413 0
 1691              		@ sp needed	@
 1692 0072 04BC     		pop	{r2}
 1693 0074 9046     		mov	r8, r2
 1694 0076 F0BD     		pop	{r4, r5, r6, r7, pc}
 1695              	.LVL124:
 1696              	.L207:
 392:../lpc11cx4-library/lpc_chip_11cxx_lib/src/ssp_11xx.c **** 		/* check if RX FIFO contains data */
 1697              		.loc 1 392 0 discriminator 1
 1698 0078 CA68     		ldr	r2, [r1, #12]	@ tmp161, xf_setup_6(D)->rx_cnt
 1699 007a 9342     		cmp	r3, r2	@ D.6849, tmp161
 1700 007c CAD1     		bne	.L193	@,
 1701 007e F7E7     		b	.L194	@
 1702              	.LVL125:
 1703              	.L196:
 409:../lpc11cx4-library/lpc_chip_11cxx_lib/src/ssp_11xx.c **** 	}
 1704              		.loc 1 409 0
 1705 0080 0120     		mov	r0, #1	@ D.6848,
 1706 0082 F6E7     		b	.L192	@
 1707              		.cfi_endproc
 1708              	.LFE211:
 1709              		.size	Chip_SSP_Int_RWFrames8Bits, .-Chip_SSP_Int_RWFrames8Bits
 1710              		.section	.text.Chip_SSP_Int_RWFrames16Bits,"ax",%progbits
 1711              		.align	2
 1712              		.global	Chip_SSP_Int_RWFrames16Bits
 1713              		.code	16
 1714              		.thumb_func
 1715              		.type	Chip_SSP_Int_RWFrames16Bits, %function
ARM GAS  /tmp/cc7TFFKb.s 			page 48


 1716              	Chip_SSP_Int_RWFrames16Bits:
 1717              	.LFB212:
 414:../lpc11cx4-library/lpc_chip_11cxx_lib/src/ssp_11xx.c **** 
 415:../lpc11cx4-library/lpc_chip_11cxx_lib/src/ssp_11xx.c **** /* SSP Interrupt Read/Write with 16-bit frame width */
 416:../lpc11cx4-library/lpc_chip_11cxx_lib/src/ssp_11xx.c **** Status Chip_SSP_Int_RWFrames16Bits(LPC_SSP_T *pSSP, Chip_SSP_DATA_SETUP_T *xf_setup)
 417:../lpc11cx4-library/lpc_chip_11cxx_lib/src/ssp_11xx.c **** {
 1718              		.loc 1 417 0
 1719              		.cfi_startproc
 1720              	.LVL126:
 1721 0000 F0B5     		push	{r4, r5, r6, r7, lr}	@
 1722              		.cfi_def_cfa_offset 20
 1723              		.cfi_offset 4, -20
 1724              		.cfi_offset 5, -16
 1725              		.cfi_offset 6, -12
 1726              		.cfi_offset 7, -8
 1727              		.cfi_offset 14, -4
 1728 0002 4746     		mov	r7, r8	@,
 1729              	.LBB506:
 1730              	.LBB507:
 311:../lpc11cx4-library/lpc_chip_11cxx_lib/inc/ssp_11xx.h **** }
 1731              		.loc 2 311 0
 1732 0004 8369     		ldr	r3, [r0, #24]	@ D.6868, pSSP_5(D)->RIS
 1733              	.LBE507:
 1734              	.LBE506:
 1735              		.loc 1 417 0
 1736 0006 80B4     		push	{r7}	@
 1737              		.cfi_def_cfa_offset 24
 1738              		.cfi_offset 8, -24
 418:../lpc11cx4-library/lpc_chip_11cxx_lib/src/ssp_11xx.c **** 	/* Check overrun error in RIS register */
 419:../lpc11cx4-library/lpc_chip_11cxx_lib/src/ssp_11xx.c **** 	if (Chip_SSP_GetRawIntStatus(pSSP, SSP_RORRIS) == SET) {
 1739              		.loc 1 419 0
 1740 0008 DB07     		lsl	r3, r3, #31	@ tmp179, D.6868,
 1741 000a 54D4     		bmi	.L214	@,
 420:../lpc11cx4-library/lpc_chip_11cxx_lib/src/ssp_11xx.c **** 		return ERROR;
 421:../lpc11cx4-library/lpc_chip_11cxx_lib/src/ssp_11xx.c **** 	}
 422:../lpc11cx4-library/lpc_chip_11cxx_lib/src/ssp_11xx.c **** 
 423:../lpc11cx4-library/lpc_chip_11cxx_lib/src/ssp_11xx.c **** 	if ((xf_setup->tx_cnt != xf_setup->length) || (xf_setup->rx_cnt != xf_setup->length)) {
 1742              		.loc 1 423 0
 1743 000c 0D69     		ldr	r5, [r1, #16]	@ D.6868, xf_setup_7(D)->length
 1744 000e 4B68     		ldr	r3, [r1, #4]	@ tmp181, xf_setup_7(D)->tx_cnt
 1745 0010 AB42     		cmp	r3, r5	@ tmp181, D.6868
 1746 0012 52D0     		beq	.L244	@,
 1747              	.L213:
 1748              	.LVL127:
 1749              	.LBB508:
 1750              	.LBB509:
 1751              	.LBB510:
 1752              	.LBB511:
 284:../lpc11cx4-library/lpc_chip_11cxx_lib/inc/ssp_11xx.h **** }
 1753              		.loc 2 284 0
 1754 0014 C368     		ldr	r3, [r0, #12]	@ D.6868, pSSP_5(D)->SR
 1755              	.LBE511:
 1756              	.LBE510:
  77:../lpc11cx4-library/lpc_chip_11cxx_lib/src/ssp_11xx.c **** 		   (xf_setup->rx_cnt < xf_setup->length)) {
 1757              		.loc 1 77 0
 1758 0016 5B07     		lsl	r3, r3, #29	@ tmp180, D.6868,
 1759 0018 11D5     		bpl	.L217	@,
ARM GAS  /tmp/cc7TFFKb.s 			page 49


  78:../lpc11cx4-library/lpc_chip_11cxx_lib/src/ssp_11xx.c **** 		rDat = Chip_SSP_ReceiveFrame(pSSP);
 1760              		.loc 1 78 0
 1761 001a CB68     		ldr	r3, [r1, #12]	@ D.6868, xf_setup_7(D)->rx_cnt
  77:../lpc11cx4-library/lpc_chip_11cxx_lib/src/ssp_11xx.c **** 		   (xf_setup->rx_cnt < xf_setup->length)) {
 1762              		.loc 1 77 0
 1763 001c 9D42     		cmp	r5, r3	@ D.6868, D.6868
 1764 001e 0ED9     		bls	.L217	@,
 1765 0020 8C68     		ldr	r4, [r1, #8]	@ D.6869, xf_setup_7(D)->rx_data
 1766              	.LBB514:
 1767              	.LBB512:
 284:../lpc11cx4-library/lpc_chip_11cxx_lib/inc/ssp_11xx.h **** }
 1768              		.loc 2 284 0
 1769 0022 0426     		mov	r6, #4	@ tmp176,
 1770 0024 01E0     		b	.L220	@
 1771              	.LVL128:
 1772              	.L245:
 1773              	.LBE512:
 1774              	.LBE514:
  77:../lpc11cx4-library/lpc_chip_11cxx_lib/src/ssp_11xx.c **** 		   (xf_setup->rx_cnt < xf_setup->length)) {
 1775              		.loc 1 77 0
 1776 0026 9D42     		cmp	r5, r3	@ D.6868, D.6868
 1777 0028 08D9     		bls	.L241	@,
 1778              	.LVL129:
 1779              	.L220:
 1780              	.LBB515:
 1781              	.LBB516:
 366:../lpc11cx4-library/lpc_chip_11cxx_lib/inc/ssp_11xx.h **** }
 1782              		.loc 2 366 0
 1783 002a 8268     		ldr	r2, [r0, #8]	@ D.6868, pSSP_5(D)->DR
 1784 002c 92B2     		uxth	r2, r2	@ D.6870, D.6868
 1785              	.LBE516:
 1786              	.LBE515:
  80:../lpc11cx4-library/lpc_chip_11cxx_lib/src/ssp_11xx.c **** 			*(uint16_t *) ((uint32_t) xf_setup->rx_data + xf_setup->rx_cnt) = rDat;
 1787              		.loc 1 80 0
 1788 002e 002C     		cmp	r4, #0	@ D.6869,
 1789 0030 00D0     		beq	.L218	@,
  81:../lpc11cx4-library/lpc_chip_11cxx_lib/src/ssp_11xx.c **** 		}
 1790              		.loc 1 81 0
 1791 0032 E252     		strh	r2, [r4, r3]	@ D.6870, MEM[base: _86, index: _73, offset: 0B]
 1792              	.L218:
 1793              	.LBB517:
 1794              	.LBB513:
 284:../lpc11cx4-library/lpc_chip_11cxx_lib/inc/ssp_11xx.h **** }
 1795              		.loc 2 284 0
 1796 0034 C268     		ldr	r2, [r0, #12]	@ D.6868, pSSP_5(D)->SR
 1797              	.LBE513:
 1798              	.LBE517:
  84:../lpc11cx4-library/lpc_chip_11cxx_lib/src/ssp_11xx.c **** 	}
 1799              		.loc 1 84 0
 1800 0036 0233     		add	r3, r3, #2	@ D.6868,
  77:../lpc11cx4-library/lpc_chip_11cxx_lib/src/ssp_11xx.c **** 		   (xf_setup->rx_cnt < xf_setup->length)) {
 1801              		.loc 1 77 0
 1802 0038 1642     		tst	r6, r2	@ tmp176, D.6868
 1803 003a F4D1     		bne	.L245	@,
 1804              	.L241:
 1805 003c CB60     		str	r3, [r1, #12]	@ D.6868, xf_setup_7(D)->rx_cnt
 1806              	.LVL130:
ARM GAS  /tmp/cc7TFFKb.s 			page 50


 1807              	.L217:
 1808              	.LBE509:
 1809              	.LBE508:
 1810              	.LBB518:
 1811              	.LBB519:
 1812              	.LBB520:
 1813              	.LBB521:
 1814              		.loc 2 377 0
 1815 003e 214B     		ldr	r3, .L249	@ tmp173,
 1816              	.LBE521:
 1817              	.LBE520:
 1818              	.LBE519:
 1819              	.LBE518:
 1820              	.LBB537:
 1821              	.LBB538:
 284:../lpc11cx4-library/lpc_chip_11cxx_lib/inc/ssp_11xx.h **** }
 1822              		.loc 2 284 0
 1823 0040 0227     		mov	r7, #2	@ tmp172,
 1824              	.LBE538:
 1825              	.LBE537:
 1826              	.LBB541:
 1827              	.LBB532:
 1828              	.LBB525:
 1829              	.LBB522:
 1830              		.loc 2 377 0
 1831 0042 9846     		mov	r8, r3	@ tmp173, tmp173
 1832              	.LBE522:
 1833              	.LBE525:
 1834              	.LBE532:
 1835              	.LBE541:
 1836              	.LBB542:
 1837              	.LBB543:
 311:../lpc11cx4-library/lpc_chip_11cxx_lib/inc/ssp_11xx.h **** }
 1838              		.loc 2 311 0
 1839 0044 0123     		mov	r3, #1	@ tmp174,
 1840              	.LBE543:
 1841              	.LBE542:
 1842              	.LBB547:
 1843              	.LBB548:
 1844              	.LBB549:
 1845              	.LBB550:
 284:../lpc11cx4-library/lpc_chip_11cxx_lib/inc/ssp_11xx.h **** }
 1846              		.loc 2 284 0
 1847 0046 0426     		mov	r6, #4	@ tmp175,
 1848              	.LBE550:
 1849              	.LBE549:
 1850              	.LBE548:
 1851              	.LBE547:
 1852              	.LBB558:
 1853              	.LBB544:
 311:../lpc11cx4-library/lpc_chip_11cxx_lib/inc/ssp_11xx.h **** }
 1854              		.loc 2 311 0
 1855 0048 9C46     		mov	ip, r3	@ tmp174, tmp174
 1856              	.L216:
 1857              	.LVL131:
 1858              	.LBE544:
 1859              	.LBE558:
ARM GAS  /tmp/cc7TFFKb.s 			page 51


 1860              	.LBB559:
 1861              	.LBB539:
 284:../lpc11cx4-library/lpc_chip_11cxx_lib/inc/ssp_11xx.h **** }
 1862              		.loc 2 284 0
 1863 004a C368     		ldr	r3, [r0, #12]	@ D.6868, pSSP_5(D)->SR
 1864              	.LBE539:
 1865              	.LBE559:
 424:../lpc11cx4-library/lpc_chip_11cxx_lib/src/ssp_11xx.c **** 		/* check if RX FIFO contains data */
 425:../lpc11cx4-library/lpc_chip_11cxx_lib/src/ssp_11xx.c **** 		SSP_Read2BFifo(pSSP, xf_setup);
 426:../lpc11cx4-library/lpc_chip_11cxx_lib/src/ssp_11xx.c **** 
 427:../lpc11cx4-library/lpc_chip_11cxx_lib/src/ssp_11xx.c **** 		while ((Chip_SSP_GetStatus(pSSP, SSP_STAT_TNF)) && (xf_setup->tx_cnt != xf_setup->length)) {
 1866              		.loc 1 427 0
 1867 004c 1F42     		tst	r7, r3	@ tmp172, D.6868
 1868 004e 25D0     		beq	.L229	@,
 1869              	.L247:
 1870              		.loc 1 427 0 is_stmt 0 discriminator 1
 1871 0050 4B68     		ldr	r3, [r1, #4]	@ D.6868, xf_setup_7(D)->tx_cnt
 1872 0052 9D42     		cmp	r5, r3	@ D.6868, D.6868
 1873 0054 22D0     		beq	.L229	@,
 1874 0056 0A68     		ldr	r2, [r1]	@ D.6869, MEM[(void * *)xf_setup_7(D)]
 1875              	.LVL132:
 1876              	.LBB560:
 1877              	.LBB533:
  48:../lpc11cx4-library/lpc_chip_11cxx_lib/src/ssp_11xx.c **** 		Chip_SSP_SendFrame(pSSP, (*(uint16_t *) ((uint32_t) xf_setup->tx_data +
 1878              		.loc 1 48 0 is_stmt 1
 1879 0058 002A     		cmp	r2, #0	@ D.6869,
 1880 005a 23D0     		beq	.L221	@,
 1881              	.LVL133:
 1882              	.LBB526:
 1883              	.LBB527:
 1884              		.loc 2 377 0
 1885 005c D35A     		ldrh	r3, [r2, r3]	@ D.6868, *_37
 1886              	.LVL134:
 1887              	.LBE527:
 1888              	.LBE526:
 1889              	.LBE533:
 1890              	.LBE560:
 428:../lpc11cx4-library/lpc_chip_11cxx_lib/src/ssp_11xx.c **** 			/* Write data to buffer */
 429:../lpc11cx4-library/lpc_chip_11cxx_lib/src/ssp_11xx.c **** 			SSP_Write2BFifo(pSSP, xf_setup);
 430:../lpc11cx4-library/lpc_chip_11cxx_lib/src/ssp_11xx.c **** 
 431:../lpc11cx4-library/lpc_chip_11cxx_lib/src/ssp_11xx.c **** 			/* Check overrun error in RIS register */
 432:../lpc11cx4-library/lpc_chip_11cxx_lib/src/ssp_11xx.c **** 			if (Chip_SSP_GetRawIntStatus(pSSP, SSP_RORRIS) == SET) {
 1891              		.loc 1 432 0
 1892 005e 6246     		mov	r2, ip	@ tmp174, tmp174
 1893              	.LVL135:
 1894              	.LBB561:
 1895              	.LBB534:
 1896              	.LBB529:
 1897              	.LBB528:
 1898              		.loc 2 377 0
 1899 0060 8360     		str	r3, [r0, #8]	@ D.6868,
 1900              	.LVL136:
 1901              	.LBE528:
 1902              	.LBE529:
  56:../lpc11cx4-library/lpc_chip_11cxx_lib/src/ssp_11xx.c **** }
 1903              		.loc 1 56 0
 1904 0062 4B68     		ldr	r3, [r1, #4]	@ tmp188, MEM[(uint32_t *)xf_setup_7(D) + 4B]
ARM GAS  /tmp/cc7TFFKb.s 			page 52


 1905              	.LVL137:
 1906 0064 0233     		add	r3, r3, #2	@ D.6868,
 1907 0066 4B60     		str	r3, [r1, #4]	@ D.6868, MEM[(uint32_t *)xf_setup_7(D) + 4B]
 1908              	.LVL138:
 1909              	.LBE534:
 1910              	.LBE561:
 1911              	.LBB562:
 1912              	.LBB545:
 311:../lpc11cx4-library/lpc_chip_11cxx_lib/inc/ssp_11xx.h **** }
 1913              		.loc 2 311 0
 1914 0068 8369     		ldr	r3, [r0, #24]	@ D.6868, pSSP_5(D)->RIS
 1915              	.LBE545:
 1916              	.LBE562:
 1917              		.loc 1 432 0
 1918 006a 1A42     		tst	r2, r3	@ tmp174, D.6868
 1919 006c 23D1     		bne	.L214	@,
 1920              	.LVL139:
 1921              	.L248:
 1922              	.LBB563:
 1923              	.LBB557:
 1924              	.LBB553:
 1925              	.LBB551:
 284:../lpc11cx4-library/lpc_chip_11cxx_lib/inc/ssp_11xx.h **** }
 1926              		.loc 2 284 0
 1927 006e C368     		ldr	r3, [r0, #12]	@ D.6868, pSSP_5(D)->SR
 1928              	.LBE551:
 1929              	.LBE553:
  77:../lpc11cx4-library/lpc_chip_11cxx_lib/src/ssp_11xx.c **** 		   (xf_setup->rx_cnt < xf_setup->length)) {
 1930              		.loc 1 77 0
 1931 0070 1E42     		tst	r6, r3	@ tmp175, D.6868
 1932 0072 EAD0     		beq	.L216	@,
  78:../lpc11cx4-library/lpc_chip_11cxx_lib/src/ssp_11xx.c **** 		rDat = Chip_SSP_ReceiveFrame(pSSP);
 1933              		.loc 1 78 0
 1934 0074 CB68     		ldr	r3, [r1, #12]	@ D.6868, xf_setup_7(D)->rx_cnt
  77:../lpc11cx4-library/lpc_chip_11cxx_lib/src/ssp_11xx.c **** 		   (xf_setup->rx_cnt < xf_setup->length)) {
 1935              		.loc 1 77 0
 1936 0076 9D42     		cmp	r5, r3	@ D.6868, D.6868
 1937 0078 E7D9     		bls	.L216	@,
 1938 007a 8C68     		ldr	r4, [r1, #8]	@ D.6869, xf_setup_7(D)->rx_data
 1939 007c 01E0     		b	.L227	@
 1940              	.LVL140:
 1941              	.L246:
 1942 007e 9D42     		cmp	r5, r3	@ D.6868, D.6868
 1943 0080 08D9     		bls	.L242	@,
 1944              	.LVL141:
 1945              	.L227:
 1946              	.LBB554:
 1947              	.LBB555:
 366:../lpc11cx4-library/lpc_chip_11cxx_lib/inc/ssp_11xx.h **** }
 1948              		.loc 2 366 0
 1949 0082 8268     		ldr	r2, [r0, #8]	@ D.6868, pSSP_5(D)->DR
 1950 0084 92B2     		uxth	r2, r2	@ D.6870, D.6868
 1951              	.LBE555:
 1952              	.LBE554:
  80:../lpc11cx4-library/lpc_chip_11cxx_lib/src/ssp_11xx.c **** 			*(uint16_t *) ((uint32_t) xf_setup->rx_data + xf_setup->rx_cnt) = rDat;
 1953              		.loc 1 80 0
 1954 0086 002C     		cmp	r4, #0	@ D.6869,
ARM GAS  /tmp/cc7TFFKb.s 			page 53


 1955 0088 00D0     		beq	.L225	@,
  81:../lpc11cx4-library/lpc_chip_11cxx_lib/src/ssp_11xx.c **** 		}
 1956              		.loc 1 81 0
 1957 008a E252     		strh	r2, [r4, r3]	@ D.6870, MEM[base: _58, index: _72, offset: 0B]
 1958              	.L225:
 1959              	.LBB556:
 1960              	.LBB552:
 284:../lpc11cx4-library/lpc_chip_11cxx_lib/inc/ssp_11xx.h **** }
 1961              		.loc 2 284 0
 1962 008c C268     		ldr	r2, [r0, #12]	@ D.6868, pSSP_5(D)->SR
 1963              	.LBE552:
 1964              	.LBE556:
  84:../lpc11cx4-library/lpc_chip_11cxx_lib/src/ssp_11xx.c **** 	}
 1965              		.loc 1 84 0
 1966 008e 0233     		add	r3, r3, #2	@ D.6868,
  77:../lpc11cx4-library/lpc_chip_11cxx_lib/src/ssp_11xx.c **** 		   (xf_setup->rx_cnt < xf_setup->length)) {
 1967              		.loc 1 77 0
 1968 0090 1642     		tst	r6, r2	@ tmp175, D.6868
 1969 0092 F4D1     		bne	.L246	@,
 1970              	.L242:
 1971 0094 CB60     		str	r3, [r1, #12]	@ D.6868, xf_setup_7(D)->rx_cnt
 1972              	.LBE557:
 1973              	.LBE563:
 1974              	.LBB564:
 1975              	.LBB540:
 284:../lpc11cx4-library/lpc_chip_11cxx_lib/inc/ssp_11xx.h **** }
 1976              		.loc 2 284 0
 1977 0096 C368     		ldr	r3, [r0, #12]	@ D.6868, pSSP_5(D)->SR
 1978              	.LBE540:
 1979              	.LBE564:
 427:../lpc11cx4-library/lpc_chip_11cxx_lib/src/ssp_11xx.c **** 			/* Write data to buffer */
 1980              		.loc 1 427 0
 1981 0098 1F42     		tst	r7, r3	@ tmp172, D.6868
 1982 009a D9D1     		bne	.L247	@,
 1983              	.LVL142:
 1984              	.L229:
 433:../lpc11cx4-library/lpc_chip_11cxx_lib/src/ssp_11xx.c **** 				return ERROR;
 434:../lpc11cx4-library/lpc_chip_11cxx_lib/src/ssp_11xx.c **** 			}
 435:../lpc11cx4-library/lpc_chip_11cxx_lib/src/ssp_11xx.c **** 
 436:../lpc11cx4-library/lpc_chip_11cxx_lib/src/ssp_11xx.c **** 			/*  Check for any data available in RX FIFO			 */
 437:../lpc11cx4-library/lpc_chip_11cxx_lib/src/ssp_11xx.c **** 			SSP_Read2BFifo(pSSP, xf_setup);
 438:../lpc11cx4-library/lpc_chip_11cxx_lib/src/ssp_11xx.c **** 		}
 439:../lpc11cx4-library/lpc_chip_11cxx_lib/src/ssp_11xx.c **** 
 440:../lpc11cx4-library/lpc_chip_11cxx_lib/src/ssp_11xx.c **** 		return SUCCESS;
 1985              		.loc 1 440 0
 1986 009c 0120     		mov	r0, #1	@ D.6867,
 1987              	.LVL143:
 1988              	.L212:
 441:../lpc11cx4-library/lpc_chip_11cxx_lib/src/ssp_11xx.c **** 	}
 442:../lpc11cx4-library/lpc_chip_11cxx_lib/src/ssp_11xx.c **** 
 443:../lpc11cx4-library/lpc_chip_11cxx_lib/src/ssp_11xx.c **** 	return ERROR;
 444:../lpc11cx4-library/lpc_chip_11cxx_lib/src/ssp_11xx.c **** }
 1989              		.loc 1 444 0
 1990              		@ sp needed	@
 1991 009e 04BC     		pop	{r2}
 1992 00a0 9046     		mov	r8, r2
 1993 00a2 F0BD     		pop	{r4, r5, r6, r7, pc}
ARM GAS  /tmp/cc7TFFKb.s 			page 54


 1994              	.LVL144:
 1995              	.L221:
 1996              	.LBB565:
 1997              	.LBB535:
 1998              	.LBB530:
 1999              	.LBB523:
 2000              		.loc 2 377 0
 2001 00a4 4346     		mov	r3, r8	@ tmp173, tmp173
 2002              	.LBE523:
 2003              	.LBE530:
 2004              	.LBE535:
 2005              	.LBE565:
 432:../lpc11cx4-library/lpc_chip_11cxx_lib/src/ssp_11xx.c **** 				return ERROR;
 2006              		.loc 1 432 0
 2007 00a6 6246     		mov	r2, ip	@ tmp174, tmp174
 2008              	.LBB566:
 2009              	.LBB536:
 2010              	.LBB531:
 2011              	.LBB524:
 2012              		.loc 2 377 0
 2013 00a8 8360     		str	r3, [r0, #8]	@ tmp173,
 2014              	.LBE524:
 2015              	.LBE531:
  56:../lpc11cx4-library/lpc_chip_11cxx_lib/src/ssp_11xx.c **** }
 2016              		.loc 1 56 0
 2017 00aa 4B68     		ldr	r3, [r1, #4]	@ tmp188, MEM[(uint32_t *)xf_setup_7(D) + 4B]
 2018 00ac 0233     		add	r3, r3, #2	@ D.6868,
 2019 00ae 4B60     		str	r3, [r1, #4]	@ D.6868, MEM[(uint32_t *)xf_setup_7(D) + 4B]
 2020              	.LVL145:
 2021              	.LBE536:
 2022              	.LBE566:
 2023              	.LBB567:
 2024              	.LBB546:
 311:../lpc11cx4-library/lpc_chip_11cxx_lib/inc/ssp_11xx.h **** }
 2025              		.loc 2 311 0
 2026 00b0 8369     		ldr	r3, [r0, #24]	@ D.6868, pSSP_5(D)->RIS
 2027              	.LBE546:
 2028              	.LBE567:
 432:../lpc11cx4-library/lpc_chip_11cxx_lib/src/ssp_11xx.c **** 				return ERROR;
 2029              		.loc 1 432 0
 2030 00b2 1A42     		tst	r2, r3	@ tmp174, D.6868
 2031 00b4 DBD0     		beq	.L248	@,
 2032              	.LVL146:
 2033              	.L214:
 420:../lpc11cx4-library/lpc_chip_11cxx_lib/src/ssp_11xx.c **** 	}
 2034              		.loc 1 420 0
 2035 00b6 0020     		mov	r0, #0	@ D.6867,
 2036              	.LVL147:
 2037 00b8 F1E7     		b	.L212	@
 2038              	.LVL148:
 2039              	.L244:
 423:../lpc11cx4-library/lpc_chip_11cxx_lib/src/ssp_11xx.c **** 		/* check if RX FIFO contains data */
 2040              		.loc 1 423 0 discriminator 1
 2041 00ba CB68     		ldr	r3, [r1, #12]	@ tmp183, xf_setup_7(D)->rx_cnt
 2042 00bc 9D42     		cmp	r5, r3	@ D.6868, tmp183
 2043 00be A9D1     		bne	.L213	@,
 420:../lpc11cx4-library/lpc_chip_11cxx_lib/src/ssp_11xx.c **** 	}
ARM GAS  /tmp/cc7TFFKb.s 			page 55


 2044              		.loc 1 420 0
 2045 00c0 0020     		mov	r0, #0	@ D.6867,
 2046              	.LVL149:
 2047 00c2 ECE7     		b	.L212	@
 2048              	.L250:
 2049              		.align	2
 2050              	.L249:
 2051 00c4 FFFF0000 		.word	65535
 2052              		.cfi_endproc
 2053              	.LFE212:
 2054              		.size	Chip_SSP_Int_RWFrames16Bits, .-Chip_SSP_Int_RWFrames16Bits
 2055              		.section	.text.Chip_SSP_SetMaster,"ax",%progbits
 2056              		.align	2
 2057              		.global	Chip_SSP_SetMaster
 2058              		.code	16
 2059              		.thumb_func
 2060              		.type	Chip_SSP_SetMaster, %function
 2061              	Chip_SSP_SetMaster:
 2062              	.LFB213:
 445:../lpc11cx4-library/lpc_chip_11cxx_lib/src/ssp_11xx.c **** 
 446:../lpc11cx4-library/lpc_chip_11cxx_lib/src/ssp_11xx.c **** /* Set the SSP operating modes, master or slave */
 447:../lpc11cx4-library/lpc_chip_11cxx_lib/src/ssp_11xx.c **** void Chip_SSP_SetMaster(LPC_SSP_T *pSSP, bool master)
 448:../lpc11cx4-library/lpc_chip_11cxx_lib/src/ssp_11xx.c **** {
 2063              		.loc 1 448 0
 2064              		.cfi_startproc
 2065              	.LVL150:
 449:../lpc11cx4-library/lpc_chip_11cxx_lib/src/ssp_11xx.c **** 	if (master) {
 2066              		.loc 1 449 0
 2067 0000 0029     		cmp	r1, #0	@ master,
 2068 0002 04D1     		bne	.L254	@,
 2069              	.LVL151:
 2070              	.LBB568:
 2071              	.LBB569:
 378:../lpc11cx4-library/lpc_chip_11cxx_lib/inc/ssp_11xx.h **** }
 379:../lpc11cx4-library/lpc_chip_11cxx_lib/inc/ssp_11xx.h **** 
 380:../lpc11cx4-library/lpc_chip_11cxx_lib/inc/ssp_11xx.h **** /**
 381:../lpc11cx4-library/lpc_chip_11cxx_lib/inc/ssp_11xx.h ****  * @brief	Set up output clocks per bit for SSP bus
 382:../lpc11cx4-library/lpc_chip_11cxx_lib/inc/ssp_11xx.h ****  * @param	pSSP		: The base of SSP peripheral on the chip
 383:../lpc11cx4-library/lpc_chip_11cxx_lib/inc/ssp_11xx.h ****  * @param	clk_rate	fs: The number of prescaler-output clocks per bit on the bus, minus one
 384:../lpc11cx4-library/lpc_chip_11cxx_lib/inc/ssp_11xx.h ****  * @param	prescale	: The factor by which the Prescaler divides the SSP peripheral clock PCLK
 385:../lpc11cx4-library/lpc_chip_11cxx_lib/inc/ssp_11xx.h ****  * @return	 Nothing
 386:../lpc11cx4-library/lpc_chip_11cxx_lib/inc/ssp_11xx.h ****  * @note	The bit frequency is PCLK / (prescale x[clk_rate+1])
 387:../lpc11cx4-library/lpc_chip_11cxx_lib/inc/ssp_11xx.h ****  */
 388:../lpc11cx4-library/lpc_chip_11cxx_lib/inc/ssp_11xx.h **** void Chip_SSP_SetClockRate(LPC_SSP_T *pSSP, uint32_t clk_rate, uint32_t prescale);
 389:../lpc11cx4-library/lpc_chip_11cxx_lib/inc/ssp_11xx.h **** 
 390:../lpc11cx4-library/lpc_chip_11cxx_lib/inc/ssp_11xx.h **** /**
 391:../lpc11cx4-library/lpc_chip_11cxx_lib/inc/ssp_11xx.h ****  * @brief	Set up the SSP frame format
 392:../lpc11cx4-library/lpc_chip_11cxx_lib/inc/ssp_11xx.h ****  * @param	pSSP		: The base of SSP peripheral on the chip
 393:../lpc11cx4-library/lpc_chip_11cxx_lib/inc/ssp_11xx.h ****  * @param	bits		: The number of bits transferred in each frame, should be SSP_BITS_4 to SSP_BITS_16
 394:../lpc11cx4-library/lpc_chip_11cxx_lib/inc/ssp_11xx.h ****  * @param	frameFormat	: Frame format, should be :
 395:../lpc11cx4-library/lpc_chip_11cxx_lib/inc/ssp_11xx.h ****  *							- SSP_FRAMEFORMAT_SPI
 396:../lpc11cx4-library/lpc_chip_11cxx_lib/inc/ssp_11xx.h ****  *							- SSP_FRAME_FORMAT_TI
 397:../lpc11cx4-library/lpc_chip_11cxx_lib/inc/ssp_11xx.h ****  *							- SSP_FRAMEFORMAT_MICROWIRE
 398:../lpc11cx4-library/lpc_chip_11cxx_lib/inc/ssp_11xx.h ****  * @param	clockMode	: Select Clock polarity and Clock phase, should be :
 399:../lpc11cx4-library/lpc_chip_11cxx_lib/inc/ssp_11xx.h ****  *							- SSP_CLOCK_CPHA0_CPOL0
 400:../lpc11cx4-library/lpc_chip_11cxx_lib/inc/ssp_11xx.h ****  *							- SSP_CLOCK_CPHA0_CPOL1
 401:../lpc11cx4-library/lpc_chip_11cxx_lib/inc/ssp_11xx.h ****  *							- SSP_CLOCK_CPHA1_CPOL0
ARM GAS  /tmp/cc7TFFKb.s 			page 56


 402:../lpc11cx4-library/lpc_chip_11cxx_lib/inc/ssp_11xx.h ****  *							- SSP_CLOCK_CPHA1_CPOL1
 403:../lpc11cx4-library/lpc_chip_11cxx_lib/inc/ssp_11xx.h ****  * @return	 Nothing
 404:../lpc11cx4-library/lpc_chip_11cxx_lib/inc/ssp_11xx.h ****  * @note	Note: The clockFormat is only used in SPI mode
 405:../lpc11cx4-library/lpc_chip_11cxx_lib/inc/ssp_11xx.h ****  */
 406:../lpc11cx4-library/lpc_chip_11cxx_lib/inc/ssp_11xx.h **** STATIC INLINE void Chip_SSP_SetFormat(LPC_SSP_T *pSSP, uint32_t bits, uint32_t frameFormat, uint32_
 407:../lpc11cx4-library/lpc_chip_11cxx_lib/inc/ssp_11xx.h **** {
 408:../lpc11cx4-library/lpc_chip_11cxx_lib/inc/ssp_11xx.h **** 	pSSP->CR0 = (pSSP->CR0 & ~0xFF) | bits | frameFormat | clockMode;
 409:../lpc11cx4-library/lpc_chip_11cxx_lib/inc/ssp_11xx.h **** }
 410:../lpc11cx4-library/lpc_chip_11cxx_lib/inc/ssp_11xx.h **** 
 411:../lpc11cx4-library/lpc_chip_11cxx_lib/inc/ssp_11xx.h **** /**
 412:../lpc11cx4-library/lpc_chip_11cxx_lib/inc/ssp_11xx.h ****  * @brief	Set the SSP working as master or slave mode
 413:../lpc11cx4-library/lpc_chip_11cxx_lib/inc/ssp_11xx.h ****  * @param	pSSP	: The base of SSP peripheral on the chip
 414:../lpc11cx4-library/lpc_chip_11cxx_lib/inc/ssp_11xx.h ****  * @param	mode	: Operating mode, should be
 415:../lpc11cx4-library/lpc_chip_11cxx_lib/inc/ssp_11xx.h ****  *						- SSP_MODE_MASTER
 416:../lpc11cx4-library/lpc_chip_11cxx_lib/inc/ssp_11xx.h ****  *						- SSP_MODE_SLAVE
 417:../lpc11cx4-library/lpc_chip_11cxx_lib/inc/ssp_11xx.h ****  * @return	 Nothing
 418:../lpc11cx4-library/lpc_chip_11cxx_lib/inc/ssp_11xx.h ****  */
 419:../lpc11cx4-library/lpc_chip_11cxx_lib/inc/ssp_11xx.h **** STATIC INLINE void Chip_SSP_Set_Mode(LPC_SSP_T *pSSP, uint32_t mode)
 420:../lpc11cx4-library/lpc_chip_11cxx_lib/inc/ssp_11xx.h **** {
 421:../lpc11cx4-library/lpc_chip_11cxx_lib/inc/ssp_11xx.h **** 	pSSP->CR1 = (pSSP->CR1 & ~(1 << 2)) | mode;
 2072              		.loc 2 421 0
 2073 0004 0423     		mov	r3, #4	@ D.6875,
 2074 0006 4268     		ldr	r2, [r0, #4]	@ D.6875, pSSP_4(D)->CR1
 2075 0008 1343     		orr	r3, r2	@ D.6875, D.6875
 2076 000a 4360     		str	r3, [r0, #4]	@ D.6875,
 2077              	.LVL152:
 2078              	.L251:
 2079              	.LBE569:
 2080              	.LBE568:
 450:../lpc11cx4-library/lpc_chip_11cxx_lib/src/ssp_11xx.c **** 		Chip_SSP_Set_Mode(pSSP, SSP_MODE_MASTER);
 451:../lpc11cx4-library/lpc_chip_11cxx_lib/src/ssp_11xx.c **** 	}
 452:../lpc11cx4-library/lpc_chip_11cxx_lib/src/ssp_11xx.c **** 	else {
 453:../lpc11cx4-library/lpc_chip_11cxx_lib/src/ssp_11xx.c **** 		Chip_SSP_Set_Mode(pSSP, SSP_MODE_SLAVE);
 454:../lpc11cx4-library/lpc_chip_11cxx_lib/src/ssp_11xx.c **** 	}
 455:../lpc11cx4-library/lpc_chip_11cxx_lib/src/ssp_11xx.c **** }
 2081              		.loc 1 455 0
 2082              		@ sp needed	@
 2083 000c 7047     		bx	lr
 2084              	.L254:
 2085              	.LVL153:
 2086              	.LBB570:
 2087              	.LBB571:
 2088              		.loc 2 421 0
 2089 000e 0422     		mov	r2, #4	@ tmp117,
 2090 0010 4368     		ldr	r3, [r0, #4]	@ D.6875, pSSP_4(D)->CR1
 2091 0012 9343     		bic	r3, r2	@ D.6875, tmp117
 2092 0014 4360     		str	r3, [r0, #4]	@ D.6875,
 2093 0016 F9E7     		b	.L251	@
 2094              	.LBE571:
 2095              	.LBE570:
 2096              		.cfi_endproc
 2097              	.LFE213:
 2098              		.size	Chip_SSP_SetMaster, .-Chip_SSP_SetMaster
 2099              		.global	__aeabi_uidiv
 2100              		.section	.text.Chip_SSP_SetBitRate,"ax",%progbits
 2101              		.align	2
 2102              		.global	Chip_SSP_SetBitRate
ARM GAS  /tmp/cc7TFFKb.s 			page 57


 2103              		.code	16
 2104              		.thumb_func
 2105              		.type	Chip_SSP_SetBitRate, %function
 2106              	Chip_SSP_SetBitRate:
 2107              	.LFB214:
 456:../lpc11cx4-library/lpc_chip_11cxx_lib/src/ssp_11xx.c **** 
 457:../lpc11cx4-library/lpc_chip_11cxx_lib/src/ssp_11xx.c **** /* Set the clock frequency for SSP interface */
 458:../lpc11cx4-library/lpc_chip_11cxx_lib/src/ssp_11xx.c **** void Chip_SSP_SetBitRate(LPC_SSP_T *pSSP, uint32_t bitRate)
 459:../lpc11cx4-library/lpc_chip_11cxx_lib/src/ssp_11xx.c **** {
 2108              		.loc 1 459 0
 2109              		.cfi_startproc
 2110              	.LVL154:
 2111 0000 F8B5     		push	{r3, r4, r5, r6, r7, lr}	@
 2112              		.cfi_def_cfa_offset 24
 2113              		.cfi_offset 3, -24
 2114              		.cfi_offset 4, -20
 2115              		.cfi_offset 5, -16
 2116              		.cfi_offset 6, -12
 2117              		.cfi_offset 7, -8
 2118              		.cfi_offset 14, -4
 2119 0002 4F46     		mov	r7, r9	@,
 2120 0004 4646     		mov	r6, r8	@,
 2121 0006 C0B4     		push	{r6, r7}	@
 2122              		.cfi_def_cfa_offset 32
 2123              		.cfi_offset 8, -32
 2124              		.cfi_offset 9, -28
 2125              		.loc 1 459 0
 2126 0008 8846     		mov	r8, r1	@ bitRate, bitRate
 2127 000a 071C     		mov	r7, r0	@ pSSP, pSSP
 2128              	.LVL155:
 2129              	.LBB572:
 2130              	.LBB573:
 152:../lpc11cx4-library/lpc_chip_11cxx_lib/src/ssp_11xx.c **** 
 2131              		.loc 1 152 0
 2132 000c FFF7FEFF 		bl	Chip_Clock_GetMainClockRate	@
 2133              	.LVL156:
 154:../lpc11cx4-library/lpc_chip_11cxx_lib/src/ssp_11xx.c **** 		sspCLK /= Chip_Clock_GetSSP0ClockDiv();
 2134              		.loc 1 154 0
 2135 0010 1C4B     		ldr	r3, .L266	@ tmp126,
 2136 0012 9F42     		cmp	r7, r3	@ pSSP, tmp126
 2137 0014 2BD0     		beq	.L264	@,
 2138              	.LBB574:
 2139              	.LBB575:
 2140              		.file 3 "../lpc11cx4-library/lpc_chip_11cxx_lib/inc/clock_11xx.h"
   1:../lpc11cx4-library/lpc_chip_11cxx_lib/inc/clock_11xx.h **** /*
   2:../lpc11cx4-library/lpc_chip_11cxx_lib/inc/clock_11xx.h ****  * @brief LPC11XX Clock control functions
   3:../lpc11cx4-library/lpc_chip_11cxx_lib/inc/clock_11xx.h ****  *
   4:../lpc11cx4-library/lpc_chip_11cxx_lib/inc/clock_11xx.h ****  * @note
   5:../lpc11cx4-library/lpc_chip_11cxx_lib/inc/clock_11xx.h ****  * Copyright(C) NXP Semiconductors, 2012
   6:../lpc11cx4-library/lpc_chip_11cxx_lib/inc/clock_11xx.h ****  * All rights reserved.
   7:../lpc11cx4-library/lpc_chip_11cxx_lib/inc/clock_11xx.h ****  *
   8:../lpc11cx4-library/lpc_chip_11cxx_lib/inc/clock_11xx.h ****  * @par
   9:../lpc11cx4-library/lpc_chip_11cxx_lib/inc/clock_11xx.h ****  * Software that is described herein is for illustrative purposes only
  10:../lpc11cx4-library/lpc_chip_11cxx_lib/inc/clock_11xx.h ****  * which provides customers with programming information regarding the
  11:../lpc11cx4-library/lpc_chip_11cxx_lib/inc/clock_11xx.h ****  * LPC products.  This software is supplied "AS IS" without any warranties of
  12:../lpc11cx4-library/lpc_chip_11cxx_lib/inc/clock_11xx.h ****  * any kind, and NXP Semiconductors and its licensor disclaim any and
  13:../lpc11cx4-library/lpc_chip_11cxx_lib/inc/clock_11xx.h ****  * all warranties, express or implied, including all implied warranties of
ARM GAS  /tmp/cc7TFFKb.s 			page 58


  14:../lpc11cx4-library/lpc_chip_11cxx_lib/inc/clock_11xx.h ****  * merchantability, fitness for a particular purpose and non-infringement of
  15:../lpc11cx4-library/lpc_chip_11cxx_lib/inc/clock_11xx.h ****  * intellectual property rights.  NXP Semiconductors assumes no responsibility
  16:../lpc11cx4-library/lpc_chip_11cxx_lib/inc/clock_11xx.h ****  * or liability for the use of the software, conveys no license or rights under any
  17:../lpc11cx4-library/lpc_chip_11cxx_lib/inc/clock_11xx.h ****  * patent, copyright, mask work right, or any other intellectual property rights in
  18:../lpc11cx4-library/lpc_chip_11cxx_lib/inc/clock_11xx.h ****  * or to any products. NXP Semiconductors reserves the right to make changes
  19:../lpc11cx4-library/lpc_chip_11cxx_lib/inc/clock_11xx.h ****  * in the software without notification. NXP Semiconductors also makes no
  20:../lpc11cx4-library/lpc_chip_11cxx_lib/inc/clock_11xx.h ****  * representation or warranty that such application will be suitable for the
  21:../lpc11cx4-library/lpc_chip_11cxx_lib/inc/clock_11xx.h ****  * specified use without further testing or modification.
  22:../lpc11cx4-library/lpc_chip_11cxx_lib/inc/clock_11xx.h ****  *
  23:../lpc11cx4-library/lpc_chip_11cxx_lib/inc/clock_11xx.h ****  * @par
  24:../lpc11cx4-library/lpc_chip_11cxx_lib/inc/clock_11xx.h ****  * Permission to use, copy, modify, and distribute this software and its
  25:../lpc11cx4-library/lpc_chip_11cxx_lib/inc/clock_11xx.h ****  * documentation is hereby granted, under NXP Semiconductors' and its
  26:../lpc11cx4-library/lpc_chip_11cxx_lib/inc/clock_11xx.h ****  * licensor's relevant copyrights in the software, without fee, provided that it
  27:../lpc11cx4-library/lpc_chip_11cxx_lib/inc/clock_11xx.h ****  * is used in conjunction with NXP Semiconductors microcontrollers.  This
  28:../lpc11cx4-library/lpc_chip_11cxx_lib/inc/clock_11xx.h ****  * copyright, permission, and disclaimer notice must appear in all copies of
  29:../lpc11cx4-library/lpc_chip_11cxx_lib/inc/clock_11xx.h ****  * this code.
  30:../lpc11cx4-library/lpc_chip_11cxx_lib/inc/clock_11xx.h ****  */
  31:../lpc11cx4-library/lpc_chip_11cxx_lib/inc/clock_11xx.h **** 
  32:../lpc11cx4-library/lpc_chip_11cxx_lib/inc/clock_11xx.h **** #ifndef __CLOCK_11XX_H_
  33:../lpc11cx4-library/lpc_chip_11cxx_lib/inc/clock_11xx.h **** #define __CLOCK_11XX_H_
  34:../lpc11cx4-library/lpc_chip_11cxx_lib/inc/clock_11xx.h **** 
  35:../lpc11cx4-library/lpc_chip_11cxx_lib/inc/clock_11xx.h **** #ifdef __cplusplus
  36:../lpc11cx4-library/lpc_chip_11cxx_lib/inc/clock_11xx.h **** extern "C" {
  37:../lpc11cx4-library/lpc_chip_11cxx_lib/inc/clock_11xx.h **** #endif
  38:../lpc11cx4-library/lpc_chip_11cxx_lib/inc/clock_11xx.h **** 
  39:../lpc11cx4-library/lpc_chip_11cxx_lib/inc/clock_11xx.h **** /** @defgroup CLOCK_11XX CHIP: LPC11xx Clock Control block driver
  40:../lpc11cx4-library/lpc_chip_11cxx_lib/inc/clock_11xx.h ****  * @ingroup CHIP_11XX_Drivers
  41:../lpc11cx4-library/lpc_chip_11cxx_lib/inc/clock_11xx.h ****  * @{
  42:../lpc11cx4-library/lpc_chip_11cxx_lib/inc/clock_11xx.h ****  */
  43:../lpc11cx4-library/lpc_chip_11cxx_lib/inc/clock_11xx.h **** 
  44:../lpc11cx4-library/lpc_chip_11cxx_lib/inc/clock_11xx.h **** /** Internal oscillator frequency */
  45:../lpc11cx4-library/lpc_chip_11cxx_lib/inc/clock_11xx.h **** #define SYSCTL_IRC_FREQ (12000000)
  46:../lpc11cx4-library/lpc_chip_11cxx_lib/inc/clock_11xx.h **** 
  47:../lpc11cx4-library/lpc_chip_11cxx_lib/inc/clock_11xx.h **** /**
  48:../lpc11cx4-library/lpc_chip_11cxx_lib/inc/clock_11xx.h ****  * @brief	Set System PLL divider values
  49:../lpc11cx4-library/lpc_chip_11cxx_lib/inc/clock_11xx.h ****  * @param	msel    : PLL feedback divider value. M = msel + 1.
  50:../lpc11cx4-library/lpc_chip_11cxx_lib/inc/clock_11xx.h ****  * @param	psel    : PLL post divider value. P =  (1<<psel).
  51:../lpc11cx4-library/lpc_chip_11cxx_lib/inc/clock_11xx.h ****  * @return	Nothing
  52:../lpc11cx4-library/lpc_chip_11cxx_lib/inc/clock_11xx.h ****  * @note	See the user manual for how to setup the PLL.
  53:../lpc11cx4-library/lpc_chip_11cxx_lib/inc/clock_11xx.h ****  */
  54:../lpc11cx4-library/lpc_chip_11cxx_lib/inc/clock_11xx.h **** STATIC INLINE void Chip_Clock_SetupSystemPLL(uint8_t msel, uint8_t psel)
  55:../lpc11cx4-library/lpc_chip_11cxx_lib/inc/clock_11xx.h **** {
  56:../lpc11cx4-library/lpc_chip_11cxx_lib/inc/clock_11xx.h **** 	LPC_SYSCTL->SYSPLLCTRL = (msel & 0x1F) | ((psel & 0x3) << 5);
  57:../lpc11cx4-library/lpc_chip_11cxx_lib/inc/clock_11xx.h **** }
  58:../lpc11cx4-library/lpc_chip_11cxx_lib/inc/clock_11xx.h **** 
  59:../lpc11cx4-library/lpc_chip_11cxx_lib/inc/clock_11xx.h **** /**
  60:../lpc11cx4-library/lpc_chip_11cxx_lib/inc/clock_11xx.h ****  * @brief	Read System PLL lock status
  61:../lpc11cx4-library/lpc_chip_11cxx_lib/inc/clock_11xx.h ****  * @return	true of the PLL is locked. false if not locked
  62:../lpc11cx4-library/lpc_chip_11cxx_lib/inc/clock_11xx.h ****  */
  63:../lpc11cx4-library/lpc_chip_11cxx_lib/inc/clock_11xx.h **** STATIC INLINE bool Chip_Clock_IsSystemPLLLocked(void)
  64:../lpc11cx4-library/lpc_chip_11cxx_lib/inc/clock_11xx.h **** {
  65:../lpc11cx4-library/lpc_chip_11cxx_lib/inc/clock_11xx.h **** 	return (bool) ((LPC_SYSCTL->SYSPLLSTAT & 1) != 0);
  66:../lpc11cx4-library/lpc_chip_11cxx_lib/inc/clock_11xx.h **** }
  67:../lpc11cx4-library/lpc_chip_11cxx_lib/inc/clock_11xx.h **** 
  68:../lpc11cx4-library/lpc_chip_11cxx_lib/inc/clock_11xx.h **** /**
  69:../lpc11cx4-library/lpc_chip_11cxx_lib/inc/clock_11xx.h ****  * Clock sources for system and USB PLLs
  70:../lpc11cx4-library/lpc_chip_11cxx_lib/inc/clock_11xx.h ****  */
ARM GAS  /tmp/cc7TFFKb.s 			page 59


  71:../lpc11cx4-library/lpc_chip_11cxx_lib/inc/clock_11xx.h **** typedef enum CHIP_SYSCTL_PLLCLKSRC {
  72:../lpc11cx4-library/lpc_chip_11cxx_lib/inc/clock_11xx.h **** 	SYSCTL_PLLCLKSRC_IRC = 0,		/*!< Internal oscillator in */
  73:../lpc11cx4-library/lpc_chip_11cxx_lib/inc/clock_11xx.h **** 	SYSCTL_PLLCLKSRC_MAINOSC,		/*!< Crystal (main) oscillator in */
  74:../lpc11cx4-library/lpc_chip_11cxx_lib/inc/clock_11xx.h **** #if defined(CHIP_LPC11AXX)
  75:../lpc11cx4-library/lpc_chip_11cxx_lib/inc/clock_11xx.h **** 	SYSCTL_PLLCLKSRC_EXT_CLKIN,	/*!< External clock in (11Axx only) */
  76:../lpc11cx4-library/lpc_chip_11cxx_lib/inc/clock_11xx.h **** #else
  77:../lpc11cx4-library/lpc_chip_11cxx_lib/inc/clock_11xx.h **** 	SYSCTL_PLLCLKSRC_RESERVED1,	/*!< Reserved */
  78:../lpc11cx4-library/lpc_chip_11cxx_lib/inc/clock_11xx.h **** #endif
  79:../lpc11cx4-library/lpc_chip_11cxx_lib/inc/clock_11xx.h **** 	SYSCTL_PLLCLKSRC_RESERVED2,	/*!< Reserved */
  80:../lpc11cx4-library/lpc_chip_11cxx_lib/inc/clock_11xx.h **** } CHIP_SYSCTL_PLLCLKSRC_T;
  81:../lpc11cx4-library/lpc_chip_11cxx_lib/inc/clock_11xx.h **** 
  82:../lpc11cx4-library/lpc_chip_11cxx_lib/inc/clock_11xx.h **** /**
  83:../lpc11cx4-library/lpc_chip_11cxx_lib/inc/clock_11xx.h ****  * @brief	Set System PLL clock source
  84:../lpc11cx4-library/lpc_chip_11cxx_lib/inc/clock_11xx.h ****  * @param	src	: Clock source for system PLL
  85:../lpc11cx4-library/lpc_chip_11cxx_lib/inc/clock_11xx.h ****  * @return	Nothing
  86:../lpc11cx4-library/lpc_chip_11cxx_lib/inc/clock_11xx.h ****  * @note	This function will also toggle the clock source update register
  87:../lpc11cx4-library/lpc_chip_11cxx_lib/inc/clock_11xx.h ****  * to update the clock source.
  88:../lpc11cx4-library/lpc_chip_11cxx_lib/inc/clock_11xx.h ****  */
  89:../lpc11cx4-library/lpc_chip_11cxx_lib/inc/clock_11xx.h **** void Chip_Clock_SetSystemPLLSource(CHIP_SYSCTL_PLLCLKSRC_T src);
  90:../lpc11cx4-library/lpc_chip_11cxx_lib/inc/clock_11xx.h **** 
  91:../lpc11cx4-library/lpc_chip_11cxx_lib/inc/clock_11xx.h **** #if defined(CHIP_LPC11UXX)
  92:../lpc11cx4-library/lpc_chip_11cxx_lib/inc/clock_11xx.h **** /**
  93:../lpc11cx4-library/lpc_chip_11cxx_lib/inc/clock_11xx.h ****  * @brief	Set USB PLL divider values
  94:../lpc11cx4-library/lpc_chip_11cxx_lib/inc/clock_11xx.h ****  * @param	msel    : PLL feedback divider value. M = msel + 1.
  95:../lpc11cx4-library/lpc_chip_11cxx_lib/inc/clock_11xx.h ****  * @param	psel    : PLL post divider value. P = (1<<psel).
  96:../lpc11cx4-library/lpc_chip_11cxx_lib/inc/clock_11xx.h ****  * @return	Nothing
  97:../lpc11cx4-library/lpc_chip_11cxx_lib/inc/clock_11xx.h ****  * @note	See the user manual for how to setup the PLL.
  98:../lpc11cx4-library/lpc_chip_11cxx_lib/inc/clock_11xx.h ****  */
  99:../lpc11cx4-library/lpc_chip_11cxx_lib/inc/clock_11xx.h **** STATIC INLINE void Chip_Clock_SetupUSBPLL(uint8_t msel, uint8_t psel)
 100:../lpc11cx4-library/lpc_chip_11cxx_lib/inc/clock_11xx.h **** {
 101:../lpc11cx4-library/lpc_chip_11cxx_lib/inc/clock_11xx.h **** 	LPC_SYSCTL->USBPLLCTRL = (msel & 0x1F) | ((psel & 0x3) << 5);
 102:../lpc11cx4-library/lpc_chip_11cxx_lib/inc/clock_11xx.h **** }
 103:../lpc11cx4-library/lpc_chip_11cxx_lib/inc/clock_11xx.h **** 
 104:../lpc11cx4-library/lpc_chip_11cxx_lib/inc/clock_11xx.h **** /**
 105:../lpc11cx4-library/lpc_chip_11cxx_lib/inc/clock_11xx.h ****  * @brief	Read USB PLL lock status
 106:../lpc11cx4-library/lpc_chip_11cxx_lib/inc/clock_11xx.h ****  * @return	true of the PLL is locked. false if not locked
 107:../lpc11cx4-library/lpc_chip_11cxx_lib/inc/clock_11xx.h ****  */
 108:../lpc11cx4-library/lpc_chip_11cxx_lib/inc/clock_11xx.h **** STATIC INLINE bool Chip_Clock_IsUSBPLLLocked(void)
 109:../lpc11cx4-library/lpc_chip_11cxx_lib/inc/clock_11xx.h **** {
 110:../lpc11cx4-library/lpc_chip_11cxx_lib/inc/clock_11xx.h **** 	return (bool) ((LPC_SYSCTL->USBPLLSTAT & 1) != 0);
 111:../lpc11cx4-library/lpc_chip_11cxx_lib/inc/clock_11xx.h **** }
 112:../lpc11cx4-library/lpc_chip_11cxx_lib/inc/clock_11xx.h **** 
 113:../lpc11cx4-library/lpc_chip_11cxx_lib/inc/clock_11xx.h **** /**
 114:../lpc11cx4-library/lpc_chip_11cxx_lib/inc/clock_11xx.h ****  * @brief	Set USB PLL clock source
 115:../lpc11cx4-library/lpc_chip_11cxx_lib/inc/clock_11xx.h ****  * @param	src	: Clock source for USB PLL
 116:../lpc11cx4-library/lpc_chip_11cxx_lib/inc/clock_11xx.h ****  * @return	Nothing
 117:../lpc11cx4-library/lpc_chip_11cxx_lib/inc/clock_11xx.h ****  * @note	This function will also toggle the clock source update register
 118:../lpc11cx4-library/lpc_chip_11cxx_lib/inc/clock_11xx.h ****  * to update the clock source.
 119:../lpc11cx4-library/lpc_chip_11cxx_lib/inc/clock_11xx.h ****  */
 120:../lpc11cx4-library/lpc_chip_11cxx_lib/inc/clock_11xx.h **** void Chip_Clock_SetUSBPLLSource(CHIP_SYSCTL_PLLCLKSRC_T src);
 121:../lpc11cx4-library/lpc_chip_11cxx_lib/inc/clock_11xx.h **** 
 122:../lpc11cx4-library/lpc_chip_11cxx_lib/inc/clock_11xx.h **** #endif /*defined(CHIP_LPC11UXX)*/
 123:../lpc11cx4-library/lpc_chip_11cxx_lib/inc/clock_11xx.h **** 
 124:../lpc11cx4-library/lpc_chip_11cxx_lib/inc/clock_11xx.h **** /**
 125:../lpc11cx4-library/lpc_chip_11cxx_lib/inc/clock_11xx.h ****  * @brief	Bypass System Oscillator and set oscillator frequency range
 126:../lpc11cx4-library/lpc_chip_11cxx_lib/inc/clock_11xx.h ****  * @param	bypass	: Flag to bypass oscillator
 127:../lpc11cx4-library/lpc_chip_11cxx_lib/inc/clock_11xx.h ****  * @param	highfr	: Flag to set oscillator range from 15-25 MHz
ARM GAS  /tmp/cc7TFFKb.s 			page 60


 128:../lpc11cx4-library/lpc_chip_11cxx_lib/inc/clock_11xx.h ****  * @return	Nothing
 129:../lpc11cx4-library/lpc_chip_11cxx_lib/inc/clock_11xx.h ****  * @note	Sets the PLL input to bypass the oscillator. This would be
 130:../lpc11cx4-library/lpc_chip_11cxx_lib/inc/clock_11xx.h ****  * used if an external clock that is not an oscillator is attached
 131:../lpc11cx4-library/lpc_chip_11cxx_lib/inc/clock_11xx.h ****  * to the XTALIN pin.
 132:../lpc11cx4-library/lpc_chip_11cxx_lib/inc/clock_11xx.h ****  */
 133:../lpc11cx4-library/lpc_chip_11cxx_lib/inc/clock_11xx.h **** void Chip_Clock_SetPLLBypass(bool bypass, bool highfr);
 134:../lpc11cx4-library/lpc_chip_11cxx_lib/inc/clock_11xx.h **** 
 135:../lpc11cx4-library/lpc_chip_11cxx_lib/inc/clock_11xx.h **** /**
 136:../lpc11cx4-library/lpc_chip_11cxx_lib/inc/clock_11xx.h ****  * Watchdog and low frequency oscillator frequencies plus or minus 40%
 137:../lpc11cx4-library/lpc_chip_11cxx_lib/inc/clock_11xx.h ****  */
 138:../lpc11cx4-library/lpc_chip_11cxx_lib/inc/clock_11xx.h **** typedef enum CHIP_WDTLFO_OSC {
 139:../lpc11cx4-library/lpc_chip_11cxx_lib/inc/clock_11xx.h **** 	WDTLFO_OSC_ILLEGAL,
 140:../lpc11cx4-library/lpc_chip_11cxx_lib/inc/clock_11xx.h **** 	WDTLFO_OSC_0_60,	/*!< 0.6 MHz watchdog/LFO rate */
 141:../lpc11cx4-library/lpc_chip_11cxx_lib/inc/clock_11xx.h **** 	WDTLFO_OSC_1_05,	/*!< 1.05 MHz watchdog/LFO rate */
 142:../lpc11cx4-library/lpc_chip_11cxx_lib/inc/clock_11xx.h **** 	WDTLFO_OSC_1_40,	/*!< 1.4 MHz watchdog/LFO rate */
 143:../lpc11cx4-library/lpc_chip_11cxx_lib/inc/clock_11xx.h **** 	WDTLFO_OSC_1_75,	/*!< 1.75 MHz watchdog/LFO rate */
 144:../lpc11cx4-library/lpc_chip_11cxx_lib/inc/clock_11xx.h **** 	WDTLFO_OSC_2_10,	/*!< 2.1 MHz watchdog/LFO rate */
 145:../lpc11cx4-library/lpc_chip_11cxx_lib/inc/clock_11xx.h **** 	WDTLFO_OSC_2_40,	/*!< 2.4 MHz watchdog/LFO rate */
 146:../lpc11cx4-library/lpc_chip_11cxx_lib/inc/clock_11xx.h **** 	WDTLFO_OSC_2_70,	/*!< 2.7 MHz watchdog/LFO rate */
 147:../lpc11cx4-library/lpc_chip_11cxx_lib/inc/clock_11xx.h **** 	WDTLFO_OSC_3_00,	/*!< 3.0 MHz watchdog/LFO rate */
 148:../lpc11cx4-library/lpc_chip_11cxx_lib/inc/clock_11xx.h **** 	WDTLFO_OSC_3_25,	/*!< 3.25 MHz watchdog/LFO rate */
 149:../lpc11cx4-library/lpc_chip_11cxx_lib/inc/clock_11xx.h **** 	WDTLFO_OSC_3_50,	/*!< 3.5 MHz watchdog/LFO rate */
 150:../lpc11cx4-library/lpc_chip_11cxx_lib/inc/clock_11xx.h **** 	WDTLFO_OSC_3_75,	/*!< 3.75 MHz watchdog/LFO rate */
 151:../lpc11cx4-library/lpc_chip_11cxx_lib/inc/clock_11xx.h **** 	WDTLFO_OSC_4_00,	/*!< 4.0 MHz watchdog/LFO rate */
 152:../lpc11cx4-library/lpc_chip_11cxx_lib/inc/clock_11xx.h **** 	WDTLFO_OSC_4_20,	/*!< 4.2 MHz watchdog/LFO rate */
 153:../lpc11cx4-library/lpc_chip_11cxx_lib/inc/clock_11xx.h **** 	WDTLFO_OSC_4_40,	/*!< 4.4 MHz watchdog/LFO rate */
 154:../lpc11cx4-library/lpc_chip_11cxx_lib/inc/clock_11xx.h **** 	WDTLFO_OSC_4_60		/*!< 4.6 MHz watchdog/LFO rate */
 155:../lpc11cx4-library/lpc_chip_11cxx_lib/inc/clock_11xx.h **** } CHIP_WDTLFO_OSC_T;
 156:../lpc11cx4-library/lpc_chip_11cxx_lib/inc/clock_11xx.h **** 
 157:../lpc11cx4-library/lpc_chip_11cxx_lib/inc/clock_11xx.h **** /**
 158:../lpc11cx4-library/lpc_chip_11cxx_lib/inc/clock_11xx.h ****  * @brief	Setup Watchdog oscillator rate and divider
 159:../lpc11cx4-library/lpc_chip_11cxx_lib/inc/clock_11xx.h ****  * @param	wdtclk	: Selected watchdog clock rate
 160:../lpc11cx4-library/lpc_chip_11cxx_lib/inc/clock_11xx.h ****  * @param	div		: Watchdog divider value, even value between 2 and 64
 161:../lpc11cx4-library/lpc_chip_11cxx_lib/inc/clock_11xx.h ****  * @return	Nothing
 162:../lpc11cx4-library/lpc_chip_11cxx_lib/inc/clock_11xx.h ****  * @note	Watchdog rate = selected rate divided by divider rate
 163:../lpc11cx4-library/lpc_chip_11cxx_lib/inc/clock_11xx.h ****  */
 164:../lpc11cx4-library/lpc_chip_11cxx_lib/inc/clock_11xx.h **** STATIC INLINE void Chip_Clock_SetWDTOSC(CHIP_WDTLFO_OSC_T wdtclk, uint8_t div)
 165:../lpc11cx4-library/lpc_chip_11cxx_lib/inc/clock_11xx.h **** {
 166:../lpc11cx4-library/lpc_chip_11cxx_lib/inc/clock_11xx.h **** 	LPC_SYSCTL->WDTOSCCTRL  = (((uint32_t) wdtclk) << 5) | ((div >> 1) - 1);
 167:../lpc11cx4-library/lpc_chip_11cxx_lib/inc/clock_11xx.h **** }
 168:../lpc11cx4-library/lpc_chip_11cxx_lib/inc/clock_11xx.h **** 
 169:../lpc11cx4-library/lpc_chip_11cxx_lib/inc/clock_11xx.h **** #if defined(CHIP_LPC11AXX)
 170:../lpc11cx4-library/lpc_chip_11cxx_lib/inc/clock_11xx.h **** /**
 171:../lpc11cx4-library/lpc_chip_11cxx_lib/inc/clock_11xx.h ****  * @brief	Setup low frequency oscillator rate and divider
 172:../lpc11cx4-library/lpc_chip_11cxx_lib/inc/clock_11xx.h ****  * @param	lfoclk	: Selected low frequency clock rate
 173:../lpc11cx4-library/lpc_chip_11cxx_lib/inc/clock_11xx.h ****  * @param	div		: Low frequency divider value, even value between 2 and 64
 174:../lpc11cx4-library/lpc_chip_11cxx_lib/inc/clock_11xx.h ****  * @return	Nothing
 175:../lpc11cx4-library/lpc_chip_11cxx_lib/inc/clock_11xx.h ****  * @note	Low frequency oscillator rate = selected rate divided by divider rate
 176:../lpc11cx4-library/lpc_chip_11cxx_lib/inc/clock_11xx.h ****  */
 177:../lpc11cx4-library/lpc_chip_11cxx_lib/inc/clock_11xx.h **** STATIC INLINE void Chip_Clock_SetLFOSC(CHIP_WDTLFO_OSC_T lfoclk, uint8_t div)
 178:../lpc11cx4-library/lpc_chip_11cxx_lib/inc/clock_11xx.h **** {
 179:../lpc11cx4-library/lpc_chip_11cxx_lib/inc/clock_11xx.h **** 	LPC_SYSCTL->LFOSCCTRL  = (((uint32_t) lfoclk) << 5) | ((div >> 1) - 1);
 180:../lpc11cx4-library/lpc_chip_11cxx_lib/inc/clock_11xx.h **** }
 181:../lpc11cx4-library/lpc_chip_11cxx_lib/inc/clock_11xx.h **** 
 182:../lpc11cx4-library/lpc_chip_11cxx_lib/inc/clock_11xx.h **** #endif /*CHIP_LPC11AXX*/
 183:../lpc11cx4-library/lpc_chip_11cxx_lib/inc/clock_11xx.h **** 
 184:../lpc11cx4-library/lpc_chip_11cxx_lib/inc/clock_11xx.h **** /**
ARM GAS  /tmp/cc7TFFKb.s 			page 61


 185:../lpc11cx4-library/lpc_chip_11cxx_lib/inc/clock_11xx.h ****  * Clock sources for main system clock
 186:../lpc11cx4-library/lpc_chip_11cxx_lib/inc/clock_11xx.h ****  */
 187:../lpc11cx4-library/lpc_chip_11cxx_lib/inc/clock_11xx.h **** typedef enum CHIP_SYSCTL_MAINCLKSRC {
 188:../lpc11cx4-library/lpc_chip_11cxx_lib/inc/clock_11xx.h **** 	SYSCTL_MAINCLKSRC_IRC = 0,		/*!< Internal oscillator */
 189:../lpc11cx4-library/lpc_chip_11cxx_lib/inc/clock_11xx.h **** 	SYSCTL_MAINCLKSRC_PLLIN,		/*!< System PLL input */
 190:../lpc11cx4-library/lpc_chip_11cxx_lib/inc/clock_11xx.h **** 	SYSCTL_MAINCLKSRC_LFOSC,		/*!< LF oscillator rate (11Axx only) */
 191:../lpc11cx4-library/lpc_chip_11cxx_lib/inc/clock_11xx.h **** 	SYSCTL_MAINCLKSRC_WDTOSC = SYSCTL_MAINCLKSRC_LFOSC,	/*!< Watchdog oscillator rate */
 192:../lpc11cx4-library/lpc_chip_11cxx_lib/inc/clock_11xx.h **** 	SYSCTL_MAINCLKSRC_PLLOUT,		/*!< System PLL output */
 193:../lpc11cx4-library/lpc_chip_11cxx_lib/inc/clock_11xx.h **** } CHIP_SYSCTL_MAINCLKSRC_T;
 194:../lpc11cx4-library/lpc_chip_11cxx_lib/inc/clock_11xx.h **** 
 195:../lpc11cx4-library/lpc_chip_11cxx_lib/inc/clock_11xx.h **** /**
 196:../lpc11cx4-library/lpc_chip_11cxx_lib/inc/clock_11xx.h ****  * @brief	Set main system clock source
 197:../lpc11cx4-library/lpc_chip_11cxx_lib/inc/clock_11xx.h ****  * @param	src	: Clock source for main system
 198:../lpc11cx4-library/lpc_chip_11cxx_lib/inc/clock_11xx.h ****  * @return	Nothing
 199:../lpc11cx4-library/lpc_chip_11cxx_lib/inc/clock_11xx.h ****  * @note	This function will also toggle the clock source update register
 200:../lpc11cx4-library/lpc_chip_11cxx_lib/inc/clock_11xx.h ****  * to update the clock source.
 201:../lpc11cx4-library/lpc_chip_11cxx_lib/inc/clock_11xx.h ****  */
 202:../lpc11cx4-library/lpc_chip_11cxx_lib/inc/clock_11xx.h **** void Chip_Clock_SetMainClockSource(CHIP_SYSCTL_MAINCLKSRC_T src);
 203:../lpc11cx4-library/lpc_chip_11cxx_lib/inc/clock_11xx.h **** 
 204:../lpc11cx4-library/lpc_chip_11cxx_lib/inc/clock_11xx.h **** /**
 205:../lpc11cx4-library/lpc_chip_11cxx_lib/inc/clock_11xx.h ****  * @brief   Returns the main clock source
 206:../lpc11cx4-library/lpc_chip_11cxx_lib/inc/clock_11xx.h ****  * @return	Which clock is used for the core clock source?
 207:../lpc11cx4-library/lpc_chip_11cxx_lib/inc/clock_11xx.h ****  */
 208:../lpc11cx4-library/lpc_chip_11cxx_lib/inc/clock_11xx.h **** STATIC INLINE CHIP_SYSCTL_MAINCLKSRC_T Chip_Clock_GetMainClockSource(void)
 209:../lpc11cx4-library/lpc_chip_11cxx_lib/inc/clock_11xx.h **** {
 210:../lpc11cx4-library/lpc_chip_11cxx_lib/inc/clock_11xx.h **** 	return (CHIP_SYSCTL_MAINCLKSRC_T) (LPC_SYSCTL->MAINCLKSEL);
 211:../lpc11cx4-library/lpc_chip_11cxx_lib/inc/clock_11xx.h **** }
 212:../lpc11cx4-library/lpc_chip_11cxx_lib/inc/clock_11xx.h **** 
 213:../lpc11cx4-library/lpc_chip_11cxx_lib/inc/clock_11xx.h **** /**
 214:../lpc11cx4-library/lpc_chip_11cxx_lib/inc/clock_11xx.h ****  * @brief	Set system clock divider
 215:../lpc11cx4-library/lpc_chip_11cxx_lib/inc/clock_11xx.h ****  * @param	div	: divider for system clock
 216:../lpc11cx4-library/lpc_chip_11cxx_lib/inc/clock_11xx.h ****  * @return	Nothing
 217:../lpc11cx4-library/lpc_chip_11cxx_lib/inc/clock_11xx.h ****  * @note	Use 0 to disable, or a divider value of 1 to 255. The system clock
 218:../lpc11cx4-library/lpc_chip_11cxx_lib/inc/clock_11xx.h ****  * rate is the main system clock divided by this value.
 219:../lpc11cx4-library/lpc_chip_11cxx_lib/inc/clock_11xx.h ****  */
 220:../lpc11cx4-library/lpc_chip_11cxx_lib/inc/clock_11xx.h **** STATIC INLINE void Chip_Clock_SetSysClockDiv(uint32_t div)
 221:../lpc11cx4-library/lpc_chip_11cxx_lib/inc/clock_11xx.h **** {
 222:../lpc11cx4-library/lpc_chip_11cxx_lib/inc/clock_11xx.h **** 	LPC_SYSCTL->SYSAHBCLKDIV  = div;
 223:../lpc11cx4-library/lpc_chip_11cxx_lib/inc/clock_11xx.h **** }
 224:../lpc11cx4-library/lpc_chip_11cxx_lib/inc/clock_11xx.h **** 
 225:../lpc11cx4-library/lpc_chip_11cxx_lib/inc/clock_11xx.h **** /**
 226:../lpc11cx4-library/lpc_chip_11cxx_lib/inc/clock_11xx.h ****  * System and peripheral clocks
 227:../lpc11cx4-library/lpc_chip_11cxx_lib/inc/clock_11xx.h ****  */
 228:../lpc11cx4-library/lpc_chip_11cxx_lib/inc/clock_11xx.h **** typedef enum CHIP_SYSCTL_CLOCK {
 229:../lpc11cx4-library/lpc_chip_11cxx_lib/inc/clock_11xx.h **** 	SYSCTL_CLOCK_SYS = 0,				/*!< 0: System clock */
 230:../lpc11cx4-library/lpc_chip_11cxx_lib/inc/clock_11xx.h **** 	SYSCTL_CLOCK_ROM,					/*!<1:  ROM clock */
 231:../lpc11cx4-library/lpc_chip_11cxx_lib/inc/clock_11xx.h **** 	SYSCTL_CLOCK_RAM,					/*!< 2: RAM clock */
 232:../lpc11cx4-library/lpc_chip_11cxx_lib/inc/clock_11xx.h **** 	SYSCTL_CLOCK_FLASHREG,				/*!< 3: FLASH register interface clock */
 233:../lpc11cx4-library/lpc_chip_11cxx_lib/inc/clock_11xx.h **** 	SYSCTL_CLOCK_FLASHARRAY,			/*!< 4: FLASH array access clock */
 234:../lpc11cx4-library/lpc_chip_11cxx_lib/inc/clock_11xx.h **** #if defined(CHIP_LPC110X)
 235:../lpc11cx4-library/lpc_chip_11cxx_lib/inc/clock_11xx.h **** 	SYSCTL_CLOCK_RESERVED5,				/*!< 5: Reserved */
 236:../lpc11cx4-library/lpc_chip_11cxx_lib/inc/clock_11xx.h **** #else
 237:../lpc11cx4-library/lpc_chip_11cxx_lib/inc/clock_11xx.h **** 	SYSCTL_CLOCK_I2C,					/*!< 5: I2C clock, not on LPC110x */
 238:../lpc11cx4-library/lpc_chip_11cxx_lib/inc/clock_11xx.h **** #endif
 239:../lpc11cx4-library/lpc_chip_11cxx_lib/inc/clock_11xx.h **** 	SYSCTL_CLOCK_GPIO,					/*!< 6: GPIO clock */
 240:../lpc11cx4-library/lpc_chip_11cxx_lib/inc/clock_11xx.h **** 	SYSCTL_CLOCK_CT16B0,				/*!< 7: 16-bit Counter/timer 0 clock */
 241:../lpc11cx4-library/lpc_chip_11cxx_lib/inc/clock_11xx.h **** 	SYSCTL_CLOCK_CT16B1,				/*!< 8: 16-bit Counter/timer 1 clock */
ARM GAS  /tmp/cc7TFFKb.s 			page 62


 242:../lpc11cx4-library/lpc_chip_11cxx_lib/inc/clock_11xx.h **** 	SYSCTL_CLOCK_CT32B0,				/*!< 9: 32-bit Counter/timer 0 clock */
 243:../lpc11cx4-library/lpc_chip_11cxx_lib/inc/clock_11xx.h **** 	SYSCTL_CLOCK_CT32B1,				/*!< 10: 32-bit Counter/timer 1 clock */
 244:../lpc11cx4-library/lpc_chip_11cxx_lib/inc/clock_11xx.h **** 	SYSCTL_CLOCK_SSP0,					/*!< 11: SSP0 clock */
 245:../lpc11cx4-library/lpc_chip_11cxx_lib/inc/clock_11xx.h **** 	SYSCTL_CLOCK_UART0,					/*!< 12: UART0 clock */
 246:../lpc11cx4-library/lpc_chip_11cxx_lib/inc/clock_11xx.h **** 	SYSCTL_CLOCK_ADC,					/*!< 13: ADC clock */
 247:../lpc11cx4-library/lpc_chip_11cxx_lib/inc/clock_11xx.h **** #if defined(CHIP_LPC11UXX)
 248:../lpc11cx4-library/lpc_chip_11cxx_lib/inc/clock_11xx.h **** 	SYSCTL_CLOCK_USB,					/*!< 14: USB clock, LPC11Uxx only */
 249:../lpc11cx4-library/lpc_chip_11cxx_lib/inc/clock_11xx.h **** #else
 250:../lpc11cx4-library/lpc_chip_11cxx_lib/inc/clock_11xx.h **** 	SYSCTL_CLOCK_RESERVED14,			/*!< 14: Reserved */
 251:../lpc11cx4-library/lpc_chip_11cxx_lib/inc/clock_11xx.h **** #endif
 252:../lpc11cx4-library/lpc_chip_11cxx_lib/inc/clock_11xx.h **** 	SYSCTL_CLOCK_WDT,					/*!< 15: Watchdog timer clock */
 253:../lpc11cx4-library/lpc_chip_11cxx_lib/inc/clock_11xx.h **** 	SYSCTL_CLOCK_IOCON,					/*!< 16: IOCON block clock */
 254:../lpc11cx4-library/lpc_chip_11cxx_lib/inc/clock_11xx.h **** #if defined(CHIP_LPC11CXX)
 255:../lpc11cx4-library/lpc_chip_11cxx_lib/inc/clock_11xx.h **** 	SYSCTL_CLOCK_CAN,					/*!< 17: CAN clock, LPC11Cxx only */
 256:../lpc11cx4-library/lpc_chip_11cxx_lib/inc/clock_11xx.h **** #else
 257:../lpc11cx4-library/lpc_chip_11cxx_lib/inc/clock_11xx.h **** 	SYSCTL_CLOCK_RESERVED17,			/*!< 17: Reserved */
 258:../lpc11cx4-library/lpc_chip_11cxx_lib/inc/clock_11xx.h **** #endif
 259:../lpc11cx4-library/lpc_chip_11cxx_lib/inc/clock_11xx.h **** #if !(defined(CHIP_LPC110X) || defined(CHIP_LPC11XXLV))  
 260:../lpc11cx4-library/lpc_chip_11cxx_lib/inc/clock_11xx.h **** 	SYSCTL_CLOCK_SSP1,					/*!< 18: SSP1 clock, LPC11A/C/E/Uxx//1125 only */
 261:../lpc11cx4-library/lpc_chip_11cxx_lib/inc/clock_11xx.h **** #if !defined(CHIP_LPC11CXX)
 262:../lpc11cx4-library/lpc_chip_11cxx_lib/inc/clock_11xx.h **** 	SYSCTL_CLOCK_PINT,					/*!< 19: GPIO Pin int register interface clock, LPC11A/E/Uxx only */
 263:../lpc11cx4-library/lpc_chip_11cxx_lib/inc/clock_11xx.h **** #if defined(CHIP_LPC11AXX)
 264:../lpc11cx4-library/lpc_chip_11cxx_lib/inc/clock_11xx.h **** 	SYSCTL_CLOCK_ACOMP,					/*!< 20: Analog comparator clock, LPC11Axx only */
 265:../lpc11cx4-library/lpc_chip_11cxx_lib/inc/clock_11xx.h **** 	SYSCTL_CLOCK_DAC,					/*!< 21: DAC clock, LPC11Axx only */
 266:../lpc11cx4-library/lpc_chip_11cxx_lib/inc/clock_11xx.h **** #else
 267:../lpc11cx4-library/lpc_chip_11cxx_lib/inc/clock_11xx.h **** 	SYSCTL_CLOCK_RESERVED20,			/*!< 20: Reserved */
 268:../lpc11cx4-library/lpc_chip_11cxx_lib/inc/clock_11xx.h **** 	SYSCTL_CLOCK_RESERVED21,			/*!< 21: Reserved */
 269:../lpc11cx4-library/lpc_chip_11cxx_lib/inc/clock_11xx.h **** #endif
 270:../lpc11cx4-library/lpc_chip_11cxx_lib/inc/clock_11xx.h **** 	SYSCTL_CLOCK_RESERVED22,			/*!< 22: Reserved */
 271:../lpc11cx4-library/lpc_chip_11cxx_lib/inc/clock_11xx.h **** 	SYSCTL_CLOCK_P0INT,					/*!< 23: GPIO GROUP1 interrupt register clock, LPC11Axx only */
 272:../lpc11cx4-library/lpc_chip_11cxx_lib/inc/clock_11xx.h **** 	SYSCTL_CLOCK_GROUP0INT = SYSCTL_CLOCK_P0INT,/*!< 23: GPIO GROUP0 interrupt register interface cloc
 273:../lpc11cx4-library/lpc_chip_11cxx_lib/inc/clock_11xx.h **** 	SYSCTL_CLOCK_P1INT,					/*!< 24: GPIO GROUP1 interrupt register clock, LPC11Axx only */
 274:../lpc11cx4-library/lpc_chip_11cxx_lib/inc/clock_11xx.h **** 	SYSCTL_CLOCK_GROUP1INT = SYSCTL_CLOCK_P1INT,/*!< 24: GPIO GROUP1 interrupt register interface cloc
 275:../lpc11cx4-library/lpc_chip_11cxx_lib/inc/clock_11xx.h **** 	SYSCTL_CLOCK_RESERVED25,			/*!< 25: Reserved */
 276:../lpc11cx4-library/lpc_chip_11cxx_lib/inc/clock_11xx.h **** #if defined(CHIP_LPC11EXX)  || defined(CHIP_LPC11UXX)
 277:../lpc11cx4-library/lpc_chip_11cxx_lib/inc/clock_11xx.h **** 	SYSCTL_CLOCK_RAM1,					/*!< 26: SRAM block (0x20000000) clock, LPC11E/Uxx only */
 278:../lpc11cx4-library/lpc_chip_11cxx_lib/inc/clock_11xx.h **** #else
 279:../lpc11cx4-library/lpc_chip_11cxx_lib/inc/clock_11xx.h **** 	SYSCTL_CLOCK_RESERVED26,			/*!< 26: Reserved */
 280:../lpc11cx4-library/lpc_chip_11cxx_lib/inc/clock_11xx.h **** #endif
 281:../lpc11cx4-library/lpc_chip_11cxx_lib/inc/clock_11xx.h **** #if defined(CHIP_LPC11UXX)
 282:../lpc11cx4-library/lpc_chip_11cxx_lib/inc/clock_11xx.h **** 	SYSCTL_CLOCK_USBRAM,				/*!< 27: USB SRAM block clock, LPC11Uxx only */
 283:../lpc11cx4-library/lpc_chip_11cxx_lib/inc/clock_11xx.h **** #else
 284:../lpc11cx4-library/lpc_chip_11cxx_lib/inc/clock_11xx.h **** 	SYSCTL_CLOCK_RESERVED27,			/*!< 27: Reserved */
 285:../lpc11cx4-library/lpc_chip_11cxx_lib/inc/clock_11xx.h **** #endif
 286:../lpc11cx4-library/lpc_chip_11cxx_lib/inc/clock_11xx.h **** #endif /* !defined(CHIP_LPC11CXX) */
 287:../lpc11cx4-library/lpc_chip_11cxx_lib/inc/clock_11xx.h **** #endif /* !(defined(CHIP_LPC110X) || defined(CHIP_LPC11XXLV)) */
 288:../lpc11cx4-library/lpc_chip_11cxx_lib/inc/clock_11xx.h **** } CHIP_SYSCTL_CLOCK_T;
 289:../lpc11cx4-library/lpc_chip_11cxx_lib/inc/clock_11xx.h **** 
 290:../lpc11cx4-library/lpc_chip_11cxx_lib/inc/clock_11xx.h **** /**
 291:../lpc11cx4-library/lpc_chip_11cxx_lib/inc/clock_11xx.h ****  * @brief	Enable a system or peripheral clock
 292:../lpc11cx4-library/lpc_chip_11cxx_lib/inc/clock_11xx.h ****  * @param	clk	: Clock to enable
 293:../lpc11cx4-library/lpc_chip_11cxx_lib/inc/clock_11xx.h ****  * @return	Nothing
 294:../lpc11cx4-library/lpc_chip_11cxx_lib/inc/clock_11xx.h ****  */
 295:../lpc11cx4-library/lpc_chip_11cxx_lib/inc/clock_11xx.h **** STATIC INLINE void Chip_Clock_EnablePeriphClock(CHIP_SYSCTL_CLOCK_T clk)
 296:../lpc11cx4-library/lpc_chip_11cxx_lib/inc/clock_11xx.h **** {
 297:../lpc11cx4-library/lpc_chip_11cxx_lib/inc/clock_11xx.h **** 	LPC_SYSCTL->SYSAHBCLKCTRL |= (1 << clk);
 298:../lpc11cx4-library/lpc_chip_11cxx_lib/inc/clock_11xx.h **** }
ARM GAS  /tmp/cc7TFFKb.s 			page 63


 299:../lpc11cx4-library/lpc_chip_11cxx_lib/inc/clock_11xx.h **** 
 300:../lpc11cx4-library/lpc_chip_11cxx_lib/inc/clock_11xx.h **** /**
 301:../lpc11cx4-library/lpc_chip_11cxx_lib/inc/clock_11xx.h ****  * @brief	Disable a system or peripheral clock
 302:../lpc11cx4-library/lpc_chip_11cxx_lib/inc/clock_11xx.h ****  * @param	clk	: Clock to disable
 303:../lpc11cx4-library/lpc_chip_11cxx_lib/inc/clock_11xx.h ****  * @return	Nothing
 304:../lpc11cx4-library/lpc_chip_11cxx_lib/inc/clock_11xx.h ****  */
 305:../lpc11cx4-library/lpc_chip_11cxx_lib/inc/clock_11xx.h **** STATIC INLINE void Chip_Clock_DisablePeriphClock(CHIP_SYSCTL_CLOCK_T clk)
 306:../lpc11cx4-library/lpc_chip_11cxx_lib/inc/clock_11xx.h **** {
 307:../lpc11cx4-library/lpc_chip_11cxx_lib/inc/clock_11xx.h **** 	LPC_SYSCTL->SYSAHBCLKCTRL &= ~(1 << clk);
 308:../lpc11cx4-library/lpc_chip_11cxx_lib/inc/clock_11xx.h **** }
 309:../lpc11cx4-library/lpc_chip_11cxx_lib/inc/clock_11xx.h **** 
 310:../lpc11cx4-library/lpc_chip_11cxx_lib/inc/clock_11xx.h **** /**
 311:../lpc11cx4-library/lpc_chip_11cxx_lib/inc/clock_11xx.h ****  * @brief	Set SSP0 divider
 312:../lpc11cx4-library/lpc_chip_11cxx_lib/inc/clock_11xx.h ****  * @param	div	: divider for SSP0 clock
 313:../lpc11cx4-library/lpc_chip_11cxx_lib/inc/clock_11xx.h ****  * @return	Nothing
 314:../lpc11cx4-library/lpc_chip_11cxx_lib/inc/clock_11xx.h ****  * @note	Use 0 to disable, or a divider value of 1 to 255. The SSP0 clock
 315:../lpc11cx4-library/lpc_chip_11cxx_lib/inc/clock_11xx.h ****  * rate is the main system clock divided by this value.
 316:../lpc11cx4-library/lpc_chip_11cxx_lib/inc/clock_11xx.h ****  */
 317:../lpc11cx4-library/lpc_chip_11cxx_lib/inc/clock_11xx.h **** STATIC INLINE void Chip_Clock_SetSSP0ClockDiv(uint32_t div)
 318:../lpc11cx4-library/lpc_chip_11cxx_lib/inc/clock_11xx.h **** {
 319:../lpc11cx4-library/lpc_chip_11cxx_lib/inc/clock_11xx.h **** 	LPC_SYSCTL->SSP0CLKDIV  = div;
 320:../lpc11cx4-library/lpc_chip_11cxx_lib/inc/clock_11xx.h **** }
 321:../lpc11cx4-library/lpc_chip_11cxx_lib/inc/clock_11xx.h **** 
 322:../lpc11cx4-library/lpc_chip_11cxx_lib/inc/clock_11xx.h **** /**
 323:../lpc11cx4-library/lpc_chip_11cxx_lib/inc/clock_11xx.h ****  * @brief	Return SSP0 divider
 324:../lpc11cx4-library/lpc_chip_11cxx_lib/inc/clock_11xx.h ****  * @return	divider for SSP0 clock
 325:../lpc11cx4-library/lpc_chip_11cxx_lib/inc/clock_11xx.h ****  * @note	A value of 0 means the clock is disabled.
 326:../lpc11cx4-library/lpc_chip_11cxx_lib/inc/clock_11xx.h ****  */
 327:../lpc11cx4-library/lpc_chip_11cxx_lib/inc/clock_11xx.h **** STATIC INLINE uint32_t Chip_Clock_GetSSP0ClockDiv(void)
 328:../lpc11cx4-library/lpc_chip_11cxx_lib/inc/clock_11xx.h **** {
 329:../lpc11cx4-library/lpc_chip_11cxx_lib/inc/clock_11xx.h **** 	return LPC_SYSCTL->SSP0CLKDIV;
 330:../lpc11cx4-library/lpc_chip_11cxx_lib/inc/clock_11xx.h **** }
 331:../lpc11cx4-library/lpc_chip_11cxx_lib/inc/clock_11xx.h **** 
 332:../lpc11cx4-library/lpc_chip_11cxx_lib/inc/clock_11xx.h **** /**
 333:../lpc11cx4-library/lpc_chip_11cxx_lib/inc/clock_11xx.h ****  * @brief	Set UART divider clock
 334:../lpc11cx4-library/lpc_chip_11cxx_lib/inc/clock_11xx.h ****  * @param	div	: divider for UART clock
 335:../lpc11cx4-library/lpc_chip_11cxx_lib/inc/clock_11xx.h ****  * @return	Nothing
 336:../lpc11cx4-library/lpc_chip_11cxx_lib/inc/clock_11xx.h ****  * @note	Use 0 to disable, or a divider value of 1 to 255. The UART clock
 337:../lpc11cx4-library/lpc_chip_11cxx_lib/inc/clock_11xx.h ****  * rate is the main system clock divided by this value.
 338:../lpc11cx4-library/lpc_chip_11cxx_lib/inc/clock_11xx.h ****  */
 339:../lpc11cx4-library/lpc_chip_11cxx_lib/inc/clock_11xx.h **** STATIC INLINE void Chip_Clock_SetUARTClockDiv(uint32_t div)
 340:../lpc11cx4-library/lpc_chip_11cxx_lib/inc/clock_11xx.h **** {
 341:../lpc11cx4-library/lpc_chip_11cxx_lib/inc/clock_11xx.h **** 	LPC_SYSCTL->USARTCLKDIV  = div;
 342:../lpc11cx4-library/lpc_chip_11cxx_lib/inc/clock_11xx.h **** }
 343:../lpc11cx4-library/lpc_chip_11cxx_lib/inc/clock_11xx.h **** 
 344:../lpc11cx4-library/lpc_chip_11cxx_lib/inc/clock_11xx.h **** /**
 345:../lpc11cx4-library/lpc_chip_11cxx_lib/inc/clock_11xx.h ****  * @brief	Return UART divider
 346:../lpc11cx4-library/lpc_chip_11cxx_lib/inc/clock_11xx.h ****  * @return	divider for UART clock
 347:../lpc11cx4-library/lpc_chip_11cxx_lib/inc/clock_11xx.h ****  * @note	A value of 0 means the clock is disabled.
 348:../lpc11cx4-library/lpc_chip_11cxx_lib/inc/clock_11xx.h ****  */
 349:../lpc11cx4-library/lpc_chip_11cxx_lib/inc/clock_11xx.h **** STATIC INLINE uint32_t Chip_Clock_GetUARTClockDiv(void)
 350:../lpc11cx4-library/lpc_chip_11cxx_lib/inc/clock_11xx.h **** {
 351:../lpc11cx4-library/lpc_chip_11cxx_lib/inc/clock_11xx.h **** 	return LPC_SYSCTL->USARTCLKDIV;
 352:../lpc11cx4-library/lpc_chip_11cxx_lib/inc/clock_11xx.h **** }
 353:../lpc11cx4-library/lpc_chip_11cxx_lib/inc/clock_11xx.h **** 
 354:../lpc11cx4-library/lpc_chip_11cxx_lib/inc/clock_11xx.h **** #if defined(CHIP_LPC11CXX) || defined(CHIP_LPC11EXX) || defined(CHIP_LPC11AXX) || defined(CHIP_LPC1
 355:../lpc11cx4-library/lpc_chip_11cxx_lib/inc/clock_11xx.h **** /**
ARM GAS  /tmp/cc7TFFKb.s 			page 64


 356:../lpc11cx4-library/lpc_chip_11cxx_lib/inc/clock_11xx.h ****  * @brief	Set SSP1 divider clock
 357:../lpc11cx4-library/lpc_chip_11cxx_lib/inc/clock_11xx.h ****  * @param	div	: divider for SSP1 clock
 358:../lpc11cx4-library/lpc_chip_11cxx_lib/inc/clock_11xx.h ****  * @return	Nothing
 359:../lpc11cx4-library/lpc_chip_11cxx_lib/inc/clock_11xx.h ****  * @note	Use 0 to disable, or a divider value of 1 to 255. The SSP1 clock
 360:../lpc11cx4-library/lpc_chip_11cxx_lib/inc/clock_11xx.h ****  * rate is the main system clock divided by this value.
 361:../lpc11cx4-library/lpc_chip_11cxx_lib/inc/clock_11xx.h ****  */
 362:../lpc11cx4-library/lpc_chip_11cxx_lib/inc/clock_11xx.h **** STATIC INLINE void Chip_Clock_SetSSP1ClockDiv(uint32_t div)
 363:../lpc11cx4-library/lpc_chip_11cxx_lib/inc/clock_11xx.h **** {
 364:../lpc11cx4-library/lpc_chip_11cxx_lib/inc/clock_11xx.h **** 	LPC_SYSCTL->SSP1CLKDIV  = div;
 365:../lpc11cx4-library/lpc_chip_11cxx_lib/inc/clock_11xx.h **** }
 366:../lpc11cx4-library/lpc_chip_11cxx_lib/inc/clock_11xx.h **** 
 367:../lpc11cx4-library/lpc_chip_11cxx_lib/inc/clock_11xx.h **** /**
 368:../lpc11cx4-library/lpc_chip_11cxx_lib/inc/clock_11xx.h ****  * @brief	Return SSP1 divider
 369:../lpc11cx4-library/lpc_chip_11cxx_lib/inc/clock_11xx.h ****  * @return	divider for SSP1 clock
 370:../lpc11cx4-library/lpc_chip_11cxx_lib/inc/clock_11xx.h ****  * @note	A value of 0 means the clock is disabled.
 371:../lpc11cx4-library/lpc_chip_11cxx_lib/inc/clock_11xx.h ****  */
 372:../lpc11cx4-library/lpc_chip_11cxx_lib/inc/clock_11xx.h **** STATIC INLINE uint32_t Chip_Clock_GetSSP1ClockDiv(void)
 373:../lpc11cx4-library/lpc_chip_11cxx_lib/inc/clock_11xx.h **** {
 374:../lpc11cx4-library/lpc_chip_11cxx_lib/inc/clock_11xx.h **** 	return LPC_SYSCTL->SSP1CLKDIV;
 2141              		.loc 3 374 0
 2142 0016 9C23     		mov	r3, #156	@ tmp133,
 2143 0018 1B4A     		ldr	r2, .L266+4	@ tmp132,
 2144 001a D158     		ldr	r1, [r2, r3]	@ D.6879,
 2145              	.LBE575:
 2146              	.LBE574:
 159:../lpc11cx4-library/lpc_chip_11cxx_lib/src/ssp_11xx.c **** 	}
 2147              		.loc 1 159 0
 2148 001c FFF7FEFF 		bl	__aeabi_uidiv	@
 2149              	.LVL157:
 2150 0020 8146     		mov	r9, r0	@ ssp_clk,
 2151              	.LVL158:
 2152              	.L257:
 2153              	.LBE573:
 2154              	.LBE572:
 460:../lpc11cx4-library/lpc_chip_11cxx_lib/src/ssp_11xx.c **** 	uint32_t ssp_clk, cr0_div, cmp_clk, prescale;
 461:../lpc11cx4-library/lpc_chip_11cxx_lib/src/ssp_11xx.c **** 
 462:../lpc11cx4-library/lpc_chip_11cxx_lib/src/ssp_11xx.c **** 	ssp_clk = Chip_SSP_GetPCLKkRate(pSSP);
 463:../lpc11cx4-library/lpc_chip_11cxx_lib/src/ssp_11xx.c **** 
 464:../lpc11cx4-library/lpc_chip_11cxx_lib/src/ssp_11xx.c **** 	cr0_div = 0;
 465:../lpc11cx4-library/lpc_chip_11cxx_lib/src/ssp_11xx.c **** 	cmp_clk = 0xFFFFFFFF;
 466:../lpc11cx4-library/lpc_chip_11cxx_lib/src/ssp_11xx.c **** 	prescale = 2;
 467:../lpc11cx4-library/lpc_chip_11cxx_lib/src/ssp_11xx.c **** 
 468:../lpc11cx4-library/lpc_chip_11cxx_lib/src/ssp_11xx.c **** 	while (cmp_clk > bitRate) {
 2155              		.loc 1 468 0
 2156 0022 4346     		mov	r3, r8	@ bitRate, bitRate
 2157 0024 0133     		add	r3, r3, #1	@ tmp147, bitRate,
 2158 0026 29D0     		beq	.L262	@,
 2159 0028 0226     		mov	r6, #2	@ prescale,
 2160 002a 0024     		mov	r4, #0	@ cr0_div,
 2161              	.LVL159:
 469:../lpc11cx4-library/lpc_chip_11cxx_lib/src/ssp_11xx.c **** 		cmp_clk = ssp_clk / ((cr0_div + 1) * prescale);
 2162              		.loc 1 469 0
 2163 002c 311C     		mov	r1, r6	@ D.6878, prescale
 2164 002e 651C     		add	r5, r4, #1	@ cr0_div, cr0_div,
 2165              	.LVL160:
 2166 0030 6943     		mul	r1, r5	@ D.6878, cr0_div
 2167 0032 4846     		mov	r0, r9	@, ssp_clk
ARM GAS  /tmp/cc7TFFKb.s 			page 65


 2168 0034 FFF7FEFF 		bl	__aeabi_uidiv	@
 2169              	.LVL161:
 470:../lpc11cx4-library/lpc_chip_11cxx_lib/src/ssp_11xx.c **** 		if (cmp_clk > bitRate) {
 2170              		.loc 1 470 0
 2171 0038 8045     		cmp	r8, r0	@ bitRate, cmp_clk
 2172 003a 0CD2     		bcs	.L259	@,
 2173              	.LVL162:
 2174              	.L265:
 471:../lpc11cx4-library/lpc_chip_11cxx_lib/src/ssp_11xx.c **** 			cr0_div++;
 472:../lpc11cx4-library/lpc_chip_11cxx_lib/src/ssp_11xx.c **** 			if (cr0_div > 0xFF) {
 2175              		.loc 1 472 0
 2176 003c FF2D     		cmp	r5, #255	@ cr0_div,
 2177 003e 01D9     		bls	.L260	@,
 2178              	.LVL163:
 473:../lpc11cx4-library/lpc_chip_11cxx_lib/src/ssp_11xx.c **** 				cr0_div = 0;
 2179              		.loc 1 473 0
 2180 0040 0025     		mov	r5, #0	@ cr0_div,
 474:../lpc11cx4-library/lpc_chip_11cxx_lib/src/ssp_11xx.c **** 				prescale += 2;
 2181              		.loc 1 474 0
 2182 0042 0236     		add	r6, r6, #2	@ prescale,
 2183              	.LVL164:
 2184              	.L260:
 468:../lpc11cx4-library/lpc_chip_11cxx_lib/src/ssp_11xx.c **** 		cmp_clk = ssp_clk / ((cr0_div + 1) * prescale);
 2185              		.loc 1 468 0
 2186 0044 2C1C     		mov	r4, r5	@ cr0_div, cr0_div
 2187              	.LVL165:
 469:../lpc11cx4-library/lpc_chip_11cxx_lib/src/ssp_11xx.c **** 		if (cmp_clk > bitRate) {
 2188              		.loc 1 469 0
 2189 0046 311C     		mov	r1, r6	@ D.6878, prescale
 2190 0048 651C     		add	r5, r4, #1	@ cr0_div, cr0_div,
 2191              	.LVL166:
 2192 004a 6943     		mul	r1, r5	@ D.6878, cr0_div
 2193 004c 4846     		mov	r0, r9	@, ssp_clk
 2194 004e FFF7FEFF 		bl	__aeabi_uidiv	@
 2195              	.LVL167:
 470:../lpc11cx4-library/lpc_chip_11cxx_lib/src/ssp_11xx.c **** 			cr0_div++;
 2196              		.loc 1 470 0
 2197 0052 8045     		cmp	r8, r0	@ bitRate, cmp_clk
 2198 0054 F2D3     		bcc	.L265	@,
 2199              	.LVL168:
 2200              	.L259:
 2201 0056 2406     		lsl	r4, r4, #24	@ tmp145, cr0_div,
 2202              	.LVL169:
 2203 0058 240C     		lsr	r4, r4, #16	@ D.6878, tmp145,
 2204              	.LVL170:
 2205              	.L258:
 2206              	.LBB579:
 2207              	.LBB580:
 174:../lpc11cx4-library/lpc_chip_11cxx_lib/src/ssp_11xx.c **** 	pSSP->CR0 = temp | (SSP_CR0_SCR(clk_rate));
 2208              		.loc 1 174 0
 2209 005a 3A68     		ldr	r2, [r7]	@ D.6878, pSSP_5(D)->CR0
 2210              	.LVL171:
 2211 005c 0B4B     		ldr	r3, .L266+8	@ tmp143,
 2212              	.LBE580:
 2213              	.LBE579:
 475:../lpc11cx4-library/lpc_chip_11cxx_lib/src/ssp_11xx.c **** 			}
 476:../lpc11cx4-library/lpc_chip_11cxx_lib/src/ssp_11xx.c **** 		}
ARM GAS  /tmp/cc7TFFKb.s 			page 66


 477:../lpc11cx4-library/lpc_chip_11cxx_lib/src/ssp_11xx.c **** 	}
 478:../lpc11cx4-library/lpc_chip_11cxx_lib/src/ssp_11xx.c **** 
 479:../lpc11cx4-library/lpc_chip_11cxx_lib/src/ssp_11xx.c **** 	Chip_SSP_SetClockRate(pSSP, cr0_div, prescale);
 480:../lpc11cx4-library/lpc_chip_11cxx_lib/src/ssp_11xx.c **** }
 2214              		.loc 1 480 0
 2215              		@ sp needed	@
 2216              	.LBB582:
 2217              	.LBB581:
 174:../lpc11cx4-library/lpc_chip_11cxx_lib/src/ssp_11xx.c **** 	pSSP->CR0 = temp | (SSP_CR0_SCR(clk_rate));
 2218              		.loc 1 174 0
 2219 005e 1340     		and	r3, r2	@ temp, D.6878
 2220              	.LVL172:
 175:../lpc11cx4-library/lpc_chip_11cxx_lib/src/ssp_11xx.c **** 	pSSP->CPSR = prescale;
 2221              		.loc 1 175 0
 2222 0060 1C43     		orr	r4, r3	@ D.6878, temp
 2223 0062 3C60     		str	r4, [r7]	@ D.6878, pSSP_5(D)->CR0
 176:../lpc11cx4-library/lpc_chip_11cxx_lib/src/ssp_11xx.c **** }
 2224              		.loc 1 176 0
 2225 0064 3E61     		str	r6, [r7, #16]	@ prescale, pSSP_5(D)->CPSR
 2226              	.LVL173:
 2227              	.LVL174:
 2228              	.LVL175:
 2229              	.LVL176:
 2230              	.LBE581:
 2231              	.LBE582:
 2232              		.loc 1 480 0
 2233 0066 0CBC     		pop	{r2, r3}
 2234 0068 9046     		mov	r8, r2
 2235 006a 9946     		mov	r9, r3
 2236 006c F8BD     		pop	{r3, r4, r5, r6, r7, pc}
 2237              	.LVL177:
 2238              	.L264:
 2239              	.LBB583:
 2240              	.LBB578:
 2241              	.LBB576:
 2242              	.LBB577:
 329:../lpc11cx4-library/lpc_chip_11cxx_lib/inc/clock_11xx.h **** }
 2243              		.loc 3 329 0
 2244 006e 9423     		mov	r3, #148	@ tmp128,
 2245 0070 054A     		ldr	r2, .L266+4	@ tmp127,
 2246 0072 D158     		ldr	r1, [r2, r3]	@ D.6879,
 2247              	.LBE577:
 2248              	.LBE576:
 155:../lpc11cx4-library/lpc_chip_11cxx_lib/src/ssp_11xx.c **** 	}
 2249              		.loc 1 155 0
 2250 0074 FFF7FEFF 		bl	__aeabi_uidiv	@
 2251              	.LVL178:
 2252 0078 8146     		mov	r9, r0	@ ssp_clk,
 2253              	.LVL179:
 2254 007a D2E7     		b	.L257	@
 2255              	.LVL180:
 2256              	.L262:
 2257              	.LBE578:
 2258              	.LBE583:
 468:../lpc11cx4-library/lpc_chip_11cxx_lib/src/ssp_11xx.c **** 		cmp_clk = ssp_clk / ((cr0_div + 1) * prescale);
 2259              		.loc 1 468 0
 2260 007c 0024     		mov	r4, #0	@ D.6878,
ARM GAS  /tmp/cc7TFFKb.s 			page 67


 466:../lpc11cx4-library/lpc_chip_11cxx_lib/src/ssp_11xx.c **** 
 2261              		.loc 1 466 0
 2262 007e 0226     		mov	r6, #2	@ prescale,
 2263 0080 EBE7     		b	.L258	@
 2264              	.L267:
 2265 0082 C046     		.align	2
 2266              	.L266:
 2267 0084 00000440 		.word	1074003968
 2268 0088 00800440 		.word	1074036736
 2269 008c FF00FFFF 		.word	-65281
 2270              		.cfi_endproc
 2271              	.LFE214:
 2272              		.size	Chip_SSP_SetBitRate, .-Chip_SSP_SetBitRate
 2273              		.section	.text.Chip_SSP_Init,"ax",%progbits
 2274              		.align	2
 2275              		.global	Chip_SSP_Init
 2276              		.code	16
 2277              		.thumb_func
 2278              		.type	Chip_SSP_Init, %function
 2279              	Chip_SSP_Init:
 2280              	.LFB215:
 481:../lpc11cx4-library/lpc_chip_11cxx_lib/src/ssp_11xx.c **** 
 482:../lpc11cx4-library/lpc_chip_11cxx_lib/src/ssp_11xx.c **** /* Initialize the SSP */
 483:../lpc11cx4-library/lpc_chip_11cxx_lib/src/ssp_11xx.c **** void Chip_SSP_Init(LPC_SSP_T *pSSP)
 484:../lpc11cx4-library/lpc_chip_11cxx_lib/src/ssp_11xx.c **** {
 2281              		.loc 1 484 0
 2282              		.cfi_startproc
 2283              	.LVL181:
 2284              	.LBB584:
 2285              	.LBB585:
 109:../lpc11cx4-library/lpc_chip_11cxx_lib/src/ssp_11xx.c **** 		clkSSP = SYSCTL_CLOCK_SSP0;
 2286              		.loc 1 109 0
 2287 0000 184B     		ldr	r3, .L276	@ tmp126,
 2288              	.LBE585:
 2289              	.LBE584:
 2290              		.loc 1 484 0
 2291 0002 10B5     		push	{r4, lr}	@
 2292              		.cfi_def_cfa_offset 8
 2293              		.cfi_offset 4, -8
 2294              		.cfi_offset 14, -4
 2295              	.LBB587:
 2296              	.LBB586:
 109:../lpc11cx4-library/lpc_chip_11cxx_lib/src/ssp_11xx.c **** 		clkSSP = SYSCTL_CLOCK_SSP0;
 2297              		.loc 1 109 0
 2298 0004 9842     		cmp	r0, r3	@ pSSP, tmp126
 2299 0006 20D0     		beq	.L275	@,
 2300              	.LVL182:
 2301              	.LBE586:
 2302              	.LBE587:
 2303              	.LBB588:
 2304              	.LBB589:
 297:../lpc11cx4-library/lpc_chip_11cxx_lib/inc/clock_11xx.h **** }
 2305              		.loc 3 297 0
 2306 0008 8021     		mov	r1, #128	@ tmp145,
 2307 000a 8024     		mov	r4, #128	@ tmp146,
 2308 000c 164B     		ldr	r3, .L276+4	@ tmp144,
 2309 000e E402     		lsl	r4, r4, #11	@ tmp146, tmp146,
ARM GAS  /tmp/cc7TFFKb.s 			page 68


 2310 0010 5A58     		ldr	r2, [r3, r1]	@ D.6882, MEM[(struct LPC_SYSCTL_T *)1074036736B].SYSAHBCLKCTRL
 2311 0012 2243     		orr	r2, r4	@ D.6882, tmp146
 2312 0014 5A50     		str	r2, [r3, r1]	@ D.6882, MEM[(struct LPC_SYSCTL_T *)1074036736B].SYSAHBCLKCTRL
 2313              	.LVL183:
 2314              	.LBE589:
 2315              	.LBE588:
 2316              	.LBB591:
 2317              	.LBB592:
 2318              	.LBB593:
 364:../lpc11cx4-library/lpc_chip_11cxx_lib/inc/clock_11xx.h **** }
 2319              		.loc 3 364 0
 2320 0016 9C22     		mov	r2, #156	@ tmp150,
 2321 0018 7F39     		sub	r1, r1, #127	@ tmp151,
 2322 001a 9950     		str	r1, [r3, r2]	@ tmp151, MEM[(struct LPC_SYSCTL_T *)1074036736B].SSP1CLKDIV
 2323              	.LVL184:
 2324 001c 0331     		add	r1, r1, #3	@ D.6882,
 2325 001e A13A     		sub	r2, r2, #161	@ D.6882,
 2326              	.LVL185:
 2327              	.L271:
 2328              	.LBE593:
 2329              	.LBE592:
 2330              	.LBE591:
 2331              	.LBB596:
 2332              	.LBB597:
 2333              	.LBB598:
 2334              		.file 4 "../lpc11cx4-library/lpc_chip_11cxx_lib/inc/sysctl_11xx.h"
   1:../lpc11cx4-library/lpc_chip_11cxx_lib/inc/sysctl_11xx.h **** /*
   2:../lpc11cx4-library/lpc_chip_11cxx_lib/inc/sysctl_11xx.h ****  * @brief LPC11XX System Control registers and control functions
   3:../lpc11cx4-library/lpc_chip_11cxx_lib/inc/sysctl_11xx.h ****  *
   4:../lpc11cx4-library/lpc_chip_11cxx_lib/inc/sysctl_11xx.h ****  * @note
   5:../lpc11cx4-library/lpc_chip_11cxx_lib/inc/sysctl_11xx.h ****  * Copyright(C) NXP Semiconductors, 2012
   6:../lpc11cx4-library/lpc_chip_11cxx_lib/inc/sysctl_11xx.h ****  * All rights reserved.
   7:../lpc11cx4-library/lpc_chip_11cxx_lib/inc/sysctl_11xx.h ****  *
   8:../lpc11cx4-library/lpc_chip_11cxx_lib/inc/sysctl_11xx.h ****  * @par
   9:../lpc11cx4-library/lpc_chip_11cxx_lib/inc/sysctl_11xx.h ****  * Software that is described herein is for illustrative purposes only
  10:../lpc11cx4-library/lpc_chip_11cxx_lib/inc/sysctl_11xx.h ****  * which provides customers with programming information regarding the
  11:../lpc11cx4-library/lpc_chip_11cxx_lib/inc/sysctl_11xx.h ****  * LPC products.  This software is supplied "AS IS" without any warranties of
  12:../lpc11cx4-library/lpc_chip_11cxx_lib/inc/sysctl_11xx.h ****  * any kind, and NXP Semiconductors and its licensor disclaim any and
  13:../lpc11cx4-library/lpc_chip_11cxx_lib/inc/sysctl_11xx.h ****  * all warranties, express or implied, including all implied warranties of
  14:../lpc11cx4-library/lpc_chip_11cxx_lib/inc/sysctl_11xx.h ****  * merchantability, fitness for a particular purpose and non-infringement of
  15:../lpc11cx4-library/lpc_chip_11cxx_lib/inc/sysctl_11xx.h ****  * intellectual property rights.  NXP Semiconductors assumes no responsibility
  16:../lpc11cx4-library/lpc_chip_11cxx_lib/inc/sysctl_11xx.h ****  * or liability for the use of the software, conveys no license or rights under any
  17:../lpc11cx4-library/lpc_chip_11cxx_lib/inc/sysctl_11xx.h ****  * patent, copyright, mask work right, or any other intellectual property rights in
  18:../lpc11cx4-library/lpc_chip_11cxx_lib/inc/sysctl_11xx.h ****  * or to any products. NXP Semiconductors reserves the right to make changes
  19:../lpc11cx4-library/lpc_chip_11cxx_lib/inc/sysctl_11xx.h ****  * in the software without notification. NXP Semiconductors also makes no
  20:../lpc11cx4-library/lpc_chip_11cxx_lib/inc/sysctl_11xx.h ****  * representation or warranty that such application will be suitable for the
  21:../lpc11cx4-library/lpc_chip_11cxx_lib/inc/sysctl_11xx.h ****  * specified use without further testing or modification.
  22:../lpc11cx4-library/lpc_chip_11cxx_lib/inc/sysctl_11xx.h ****  *
  23:../lpc11cx4-library/lpc_chip_11cxx_lib/inc/sysctl_11xx.h ****  * @par
  24:../lpc11cx4-library/lpc_chip_11cxx_lib/inc/sysctl_11xx.h ****  * Permission to use, copy, modify, and distribute this software and its
  25:../lpc11cx4-library/lpc_chip_11cxx_lib/inc/sysctl_11xx.h ****  * documentation is hereby granted, under NXP Semiconductors' and its
  26:../lpc11cx4-library/lpc_chip_11cxx_lib/inc/sysctl_11xx.h ****  * licensor's relevant copyrights in the software, without fee, provided that it
  27:../lpc11cx4-library/lpc_chip_11cxx_lib/inc/sysctl_11xx.h ****  * is used in conjunction with NXP Semiconductors microcontrollers.  This
  28:../lpc11cx4-library/lpc_chip_11cxx_lib/inc/sysctl_11xx.h ****  * copyright, permission, and disclaimer notice must appear in all copies of
  29:../lpc11cx4-library/lpc_chip_11cxx_lib/inc/sysctl_11xx.h ****  * this code.
  30:../lpc11cx4-library/lpc_chip_11cxx_lib/inc/sysctl_11xx.h ****  */
  31:../lpc11cx4-library/lpc_chip_11cxx_lib/inc/sysctl_11xx.h **** 
ARM GAS  /tmp/cc7TFFKb.s 			page 69


  32:../lpc11cx4-library/lpc_chip_11cxx_lib/inc/sysctl_11xx.h **** #ifndef __SYSCTL_11XX_H_
  33:../lpc11cx4-library/lpc_chip_11cxx_lib/inc/sysctl_11xx.h **** #define __SYSCTL_11XX_H_
  34:../lpc11cx4-library/lpc_chip_11cxx_lib/inc/sysctl_11xx.h **** 
  35:../lpc11cx4-library/lpc_chip_11cxx_lib/inc/sysctl_11xx.h **** #ifdef __cplusplus
  36:../lpc11cx4-library/lpc_chip_11cxx_lib/inc/sysctl_11xx.h **** extern "C" {
  37:../lpc11cx4-library/lpc_chip_11cxx_lib/inc/sysctl_11xx.h **** #endif
  38:../lpc11cx4-library/lpc_chip_11cxx_lib/inc/sysctl_11xx.h **** 
  39:../lpc11cx4-library/lpc_chip_11cxx_lib/inc/sysctl_11xx.h **** /** @defgroup SYSCTL_11XX CHIP: LPC11xx System Control block driver
  40:../lpc11cx4-library/lpc_chip_11cxx_lib/inc/sysctl_11xx.h ****  * @ingroup CHIP_11XX_Drivers
  41:../lpc11cx4-library/lpc_chip_11cxx_lib/inc/sysctl_11xx.h ****  * @{
  42:../lpc11cx4-library/lpc_chip_11cxx_lib/inc/sysctl_11xx.h ****  */
  43:../lpc11cx4-library/lpc_chip_11cxx_lib/inc/sysctl_11xx.h **** 
  44:../lpc11cx4-library/lpc_chip_11cxx_lib/inc/sysctl_11xx.h **** /**
  45:../lpc11cx4-library/lpc_chip_11cxx_lib/inc/sysctl_11xx.h ****  * @brief LPC11XX System Control block structure
  46:../lpc11cx4-library/lpc_chip_11cxx_lib/inc/sysctl_11xx.h ****  */
  47:../lpc11cx4-library/lpc_chip_11cxx_lib/inc/sysctl_11xx.h **** typedef struct {			/*!< SYSCTL Structure */
  48:../lpc11cx4-library/lpc_chip_11cxx_lib/inc/sysctl_11xx.h **** 	__IO uint32_t  SYSMEMREMAP;		/*!< System Memory remap register */
  49:../lpc11cx4-library/lpc_chip_11cxx_lib/inc/sysctl_11xx.h **** 	__IO uint32_t  PRESETCTRL;		/*!< Peripheral reset Control register */
  50:../lpc11cx4-library/lpc_chip_11cxx_lib/inc/sysctl_11xx.h **** 	__IO uint32_t  SYSPLLCTRL;		/*!< System PLL control register */
  51:../lpc11cx4-library/lpc_chip_11cxx_lib/inc/sysctl_11xx.h **** 	__I  uint32_t  SYSPLLSTAT;		/*!< System PLL status register */
  52:../lpc11cx4-library/lpc_chip_11cxx_lib/inc/sysctl_11xx.h **** 	__IO uint32_t  USBPLLCTRL;		/*!< USB PLL control register, LPC11UXX only*/
  53:../lpc11cx4-library/lpc_chip_11cxx_lib/inc/sysctl_11xx.h **** 	__I  uint32_t  USBPLLSTAT;		/*!< USB PLL status register, LPC11UXX only */
  54:../lpc11cx4-library/lpc_chip_11cxx_lib/inc/sysctl_11xx.h **** 	__I  uint32_t  RESERVED1[2];
  55:../lpc11cx4-library/lpc_chip_11cxx_lib/inc/sysctl_11xx.h **** 	__IO uint32_t  SYSOSCCTRL;		/*!< System Oscillator control register */
  56:../lpc11cx4-library/lpc_chip_11cxx_lib/inc/sysctl_11xx.h **** 	__IO uint32_t  WDTOSCCTRL;		/*!< Watchdog Oscillator control register */
  57:../lpc11cx4-library/lpc_chip_11cxx_lib/inc/sysctl_11xx.h **** 	__IO uint32_t  IRCCTRL;			/*!< IRC control register, not on LPC11UXX and LPC11EXX */
  58:../lpc11cx4-library/lpc_chip_11cxx_lib/inc/sysctl_11xx.h **** 	__IO uint32_t  LFOSCCTRL;		/*!< LF oscillator control, LPC11AXX only */
  59:../lpc11cx4-library/lpc_chip_11cxx_lib/inc/sysctl_11xx.h **** 	__IO uint32_t  SYSRSTSTAT;		/*!< System Reset Status register           */
  60:../lpc11cx4-library/lpc_chip_11cxx_lib/inc/sysctl_11xx.h **** 	__I  uint32_t  RESERVED2[3];
  61:../lpc11cx4-library/lpc_chip_11cxx_lib/inc/sysctl_11xx.h **** 	__IO uint32_t  SYSPLLCLKSEL;	/*!< System PLL clock source select register */
  62:../lpc11cx4-library/lpc_chip_11cxx_lib/inc/sysctl_11xx.h **** 	__IO uint32_t  SYSPLLCLKUEN;	/*!< System PLL clock source update enable register*/
  63:../lpc11cx4-library/lpc_chip_11cxx_lib/inc/sysctl_11xx.h **** 	__IO uint32_t  USBPLLCLKSEL;	/*!< USB PLL clock source select register, LPC11UXX only */
  64:../lpc11cx4-library/lpc_chip_11cxx_lib/inc/sysctl_11xx.h **** 	__IO uint32_t  USBPLLCLKUEN;	/*!< USB PLL clock source update enable register, LPC11UXX only */
  65:../lpc11cx4-library/lpc_chip_11cxx_lib/inc/sysctl_11xx.h **** 	__I  uint32_t  RESERVED3[8];
  66:../lpc11cx4-library/lpc_chip_11cxx_lib/inc/sysctl_11xx.h **** 	__IO uint32_t  MAINCLKSEL;	/*!< Main clock source select register		*/
  67:../lpc11cx4-library/lpc_chip_11cxx_lib/inc/sysctl_11xx.h **** 	__IO uint32_t  MAINCLKUEN;	/*!< Main clock source update enable register	*/
  68:../lpc11cx4-library/lpc_chip_11cxx_lib/inc/sysctl_11xx.h **** 	__IO uint32_t  SYSAHBCLKDIV;	/*!< System Clock divider register */
  69:../lpc11cx4-library/lpc_chip_11cxx_lib/inc/sysctl_11xx.h **** 	__I  uint32_t  RESERVED4;
  70:../lpc11cx4-library/lpc_chip_11cxx_lib/inc/sysctl_11xx.h **** 	__IO uint32_t  SYSAHBCLKCTRL;	/*!< System clock control register */
  71:../lpc11cx4-library/lpc_chip_11cxx_lib/inc/sysctl_11xx.h **** 	__I  uint32_t  RESERVED5[4];
  72:../lpc11cx4-library/lpc_chip_11cxx_lib/inc/sysctl_11xx.h **** 	__IO uint32_t  SSP0CLKDIV;	/*!< SSP0 clock divider register   */
  73:../lpc11cx4-library/lpc_chip_11cxx_lib/inc/sysctl_11xx.h **** 	__IO uint32_t  USARTCLKDIV;	/*!< UART clock divider register   */
  74:../lpc11cx4-library/lpc_chip_11cxx_lib/inc/sysctl_11xx.h **** 	__IO uint32_t  SSP1CLKDIV;	/*!< SSP1 clock divider register, not on CHIP_LPC110X, CHIP_LPC11XXLV *
  75:../lpc11cx4-library/lpc_chip_11cxx_lib/inc/sysctl_11xx.h **** 	__I  uint32_t  RESERVED6[8];
  76:../lpc11cx4-library/lpc_chip_11cxx_lib/inc/sysctl_11xx.h **** 	__IO uint32_t  USBCLKSEL;	/*!< USB clock source select register, LPC11UXX only */
  77:../lpc11cx4-library/lpc_chip_11cxx_lib/inc/sysctl_11xx.h **** 	__IO uint32_t  USBCLKUEN;	/*!< USB clock source update enable register, LPC11UXX only */
  78:../lpc11cx4-library/lpc_chip_11cxx_lib/inc/sysctl_11xx.h **** 	__IO uint32_t  USBCLKDIV;	/*!< USB clock source divider register, LPC11UXX only */
  79:../lpc11cx4-library/lpc_chip_11cxx_lib/inc/sysctl_11xx.h **** 	__I  uint32_t  RESERVED7;
  80:../lpc11cx4-library/lpc_chip_11cxx_lib/inc/sysctl_11xx.h **** 	__IO uint32_t  WDTCLKSEL;	/*!< WDT clock source select register, some parts only */
  81:../lpc11cx4-library/lpc_chip_11cxx_lib/inc/sysctl_11xx.h **** 	__IO uint32_t  WDTCLKUEN;	/*!< WDT clock source update enable register, some parts only */
  82:../lpc11cx4-library/lpc_chip_11cxx_lib/inc/sysctl_11xx.h **** 	__IO uint32_t  WDTCLKDIV;	/*!< WDT clock divider register, some parts only */
  83:../lpc11cx4-library/lpc_chip_11cxx_lib/inc/sysctl_11xx.h **** 	__I  uint32_t  RESERVED8;
  84:../lpc11cx4-library/lpc_chip_11cxx_lib/inc/sysctl_11xx.h **** 	__IO uint32_t  CLKOUTSEL;	/*!< Clock out source select register, not on LPC1102/04 */
  85:../lpc11cx4-library/lpc_chip_11cxx_lib/inc/sysctl_11xx.h **** 	__IO uint32_t  CLKOUTUEN;	/*!< Clock out source update enable register, not on LPC1102/04 */
  86:../lpc11cx4-library/lpc_chip_11cxx_lib/inc/sysctl_11xx.h **** 	__IO uint32_t  CLKOUTDIV;	/*!< Clock out divider register, not on LPC1102/04 */
  87:../lpc11cx4-library/lpc_chip_11cxx_lib/inc/sysctl_11xx.h **** 	__I  uint32_t  RESERVED9[5];
  88:../lpc11cx4-library/lpc_chip_11cxx_lib/inc/sysctl_11xx.h **** 	__I  uint32_t  PIOPORCAP[2];/*!< POR captured PIO status registers, index 1 on LPC1102/04 */
ARM GAS  /tmp/cc7TFFKb.s 			page 70


  89:../lpc11cx4-library/lpc_chip_11cxx_lib/inc/sysctl_11xx.h **** 	__I  uint32_t  RESERVED10[18];
  90:../lpc11cx4-library/lpc_chip_11cxx_lib/inc/sysctl_11xx.h **** 	__IO uint32_t  BODCTRL;		/*!< Brown Out Detect register */
  91:../lpc11cx4-library/lpc_chip_11cxx_lib/inc/sysctl_11xx.h **** 	__IO uint32_t  SYSTCKCAL;	/*!< System tick counter calibration register */
  92:../lpc11cx4-library/lpc_chip_11cxx_lib/inc/sysctl_11xx.h **** 	__I  uint32_t  RESERVED11[6];
  93:../lpc11cx4-library/lpc_chip_11cxx_lib/inc/sysctl_11xx.h **** 	__IO uint32_t  IRQLATENCY;	/*!< IRQ delay register, on LPC11UXX and LPC11EXX only */
  94:../lpc11cx4-library/lpc_chip_11cxx_lib/inc/sysctl_11xx.h **** 	__IO uint32_t  NMISRC;		/*!< NMI source control register,some parts only */
  95:../lpc11cx4-library/lpc_chip_11cxx_lib/inc/sysctl_11xx.h **** 	__IO uint32_t  PINTSEL[8];	/*!< GPIO pin interrupt select register 0-7, not on CHIP_LPC110X, CHIP_
  96:../lpc11cx4-library/lpc_chip_11cxx_lib/inc/sysctl_11xx.h **** 	__IO uint32_t  USBCLKCTRL;	/*!< USB clock control register, LPC11UXX only */
  97:../lpc11cx4-library/lpc_chip_11cxx_lib/inc/sysctl_11xx.h **** 	__I  uint32_t  USBCLKST;	/*!< USB clock status register, LPC11UXX only */
  98:../lpc11cx4-library/lpc_chip_11cxx_lib/inc/sysctl_11xx.h **** 	__I  uint32_t  RESERVED12[24];
  99:../lpc11cx4-library/lpc_chip_11cxx_lib/inc/sysctl_11xx.h **** 	__IO uint32_t  STARTAPRP0;	/*!< Start loigc 0 interrupt wake up enable register 0, on CHIP_LPC110X
 100:../lpc11cx4-library/lpc_chip_11cxx_lib/inc/sysctl_11xx.h **** 	__IO uint32_t  STARTERP0;	/*!< Start loigc signal enable register 0, not on LPC11AXX */
 101:../lpc11cx4-library/lpc_chip_11cxx_lib/inc/sysctl_11xx.h **** 	__IO uint32_t  STARTRSRP0CLR;	/*!< Start loigc reset register 0, on CHIP_LPC110X, CHIP_LPC11XXLV, 
 102:../lpc11cx4-library/lpc_chip_11cxx_lib/inc/sysctl_11xx.h **** 	__IO uint32_t  STARTSRP0;		/*!< Start loigc status register 0, on CHIP_LPC110X, CHIP_LPC11XXLV, CH
 103:../lpc11cx4-library/lpc_chip_11cxx_lib/inc/sysctl_11xx.h **** 	__I  uint32_t  RESERVED13;
 104:../lpc11cx4-library/lpc_chip_11cxx_lib/inc/sysctl_11xx.h **** 	__IO uint32_t  STARTERP1;	/*!< Start logic 1 interrupt wake up enable register 1, on LPC11UXX and 
 105:../lpc11cx4-library/lpc_chip_11cxx_lib/inc/sysctl_11xx.h **** 	__I  uint32_t  RESERVED14[6];
 106:../lpc11cx4-library/lpc_chip_11cxx_lib/inc/sysctl_11xx.h **** 	__IO uint32_t  PDSLEEPCFG;	/*!< Power down states in deep sleep mode register, not on LPC11AXX */
 107:../lpc11cx4-library/lpc_chip_11cxx_lib/inc/sysctl_11xx.h **** 	__IO uint32_t  PDWAKECFG;	/*!< Power down states in wake up from deep sleep register, not on LPC11
 108:../lpc11cx4-library/lpc_chip_11cxx_lib/inc/sysctl_11xx.h **** 	__IO uint32_t  PDRUNCFG;	/*!< Power configuration register*/
 109:../lpc11cx4-library/lpc_chip_11cxx_lib/inc/sysctl_11xx.h **** 	__I  uint32_t  RESERVED15[110];
 110:../lpc11cx4-library/lpc_chip_11cxx_lib/inc/sysctl_11xx.h **** 	__I  uint32_t  DEVICEID;	/*!< Device ID register */
 111:../lpc11cx4-library/lpc_chip_11cxx_lib/inc/sysctl_11xx.h **** } LPC_SYSCTL_T;
 112:../lpc11cx4-library/lpc_chip_11cxx_lib/inc/sysctl_11xx.h **** 
 113:../lpc11cx4-library/lpc_chip_11cxx_lib/inc/sysctl_11xx.h **** /**
 114:../lpc11cx4-library/lpc_chip_11cxx_lib/inc/sysctl_11xx.h ****  * System memory remap modes used to remap interrupt vectors
 115:../lpc11cx4-library/lpc_chip_11cxx_lib/inc/sysctl_11xx.h ****  */
 116:../lpc11cx4-library/lpc_chip_11cxx_lib/inc/sysctl_11xx.h **** typedef enum CHIP_SYSCTL_BOOT_MODE_REMAP {
 117:../lpc11cx4-library/lpc_chip_11cxx_lib/inc/sysctl_11xx.h **** 	REMAP_BOOT_LOADER_MODE,	/*!< Interrupt vectors are re-mapped to Boot ROM */
 118:../lpc11cx4-library/lpc_chip_11cxx_lib/inc/sysctl_11xx.h **** 	REMAP_USER_RAM_MODE,	/*!< Interrupt vectors are re-mapped to Static RAM */
 119:../lpc11cx4-library/lpc_chip_11cxx_lib/inc/sysctl_11xx.h **** 	REMAP_USER_FLASH_MODE	/*!< Interrupt vectors are not re-mapped and reside in Flash */
 120:../lpc11cx4-library/lpc_chip_11cxx_lib/inc/sysctl_11xx.h **** } CHIP_SYSCTL_BOOT_MODE_REMAP_T;
 121:../lpc11cx4-library/lpc_chip_11cxx_lib/inc/sysctl_11xx.h **** 
 122:../lpc11cx4-library/lpc_chip_11cxx_lib/inc/sysctl_11xx.h **** /**
 123:../lpc11cx4-library/lpc_chip_11cxx_lib/inc/sysctl_11xx.h ****  * @brief	Re-map interrupt vectors
 124:../lpc11cx4-library/lpc_chip_11cxx_lib/inc/sysctl_11xx.h ****  * @param	remap	: system memory map value
 125:../lpc11cx4-library/lpc_chip_11cxx_lib/inc/sysctl_11xx.h ****  * @return	Nothing
 126:../lpc11cx4-library/lpc_chip_11cxx_lib/inc/sysctl_11xx.h ****  */
 127:../lpc11cx4-library/lpc_chip_11cxx_lib/inc/sysctl_11xx.h **** STATIC INLINE void Chip_SYSCTL_Map(CHIP_SYSCTL_BOOT_MODE_REMAP_T remap)
 128:../lpc11cx4-library/lpc_chip_11cxx_lib/inc/sysctl_11xx.h **** {
 129:../lpc11cx4-library/lpc_chip_11cxx_lib/inc/sysctl_11xx.h **** 	LPC_SYSCTL->SYSMEMREMAP = (uint32_t) remap;
 130:../lpc11cx4-library/lpc_chip_11cxx_lib/inc/sysctl_11xx.h **** }
 131:../lpc11cx4-library/lpc_chip_11cxx_lib/inc/sysctl_11xx.h **** 
 132:../lpc11cx4-library/lpc_chip_11cxx_lib/inc/sysctl_11xx.h **** /**
 133:../lpc11cx4-library/lpc_chip_11cxx_lib/inc/sysctl_11xx.h ****  * Peripheral reset identifiers, not available on all devices
 134:../lpc11cx4-library/lpc_chip_11cxx_lib/inc/sysctl_11xx.h ****  */
 135:../lpc11cx4-library/lpc_chip_11cxx_lib/inc/sysctl_11xx.h **** typedef enum {
 136:../lpc11cx4-library/lpc_chip_11cxx_lib/inc/sysctl_11xx.h **** 	RESET_SSP0,			/*!< SSP0 reset control */
 137:../lpc11cx4-library/lpc_chip_11cxx_lib/inc/sysctl_11xx.h **** 	RESET_I2C0,			/*!< I2C0 reset control */
 138:../lpc11cx4-library/lpc_chip_11cxx_lib/inc/sysctl_11xx.h **** 	RESET_SSP1,			/*!< SSP1 reset control */
 139:../lpc11cx4-library/lpc_chip_11cxx_lib/inc/sysctl_11xx.h **** #if !defined(CHIP_LPC1125)
 140:../lpc11cx4-library/lpc_chip_11cxx_lib/inc/sysctl_11xx.h **** 	RESET_CAN0,			/*!< CAN0 reset control */
 141:../lpc11cx4-library/lpc_chip_11cxx_lib/inc/sysctl_11xx.h **** 	RESET_UART0,		/*!< UART0 reset control */
 142:../lpc11cx4-library/lpc_chip_11cxx_lib/inc/sysctl_11xx.h **** 	RESET_TIMER0_16,	/*!< 16-bit Timer 0 reset control */
 143:../lpc11cx4-library/lpc_chip_11cxx_lib/inc/sysctl_11xx.h **** 	RESET_TIMER1_16,	/*!< 16-bit Timer 1 reset control */
 144:../lpc11cx4-library/lpc_chip_11cxx_lib/inc/sysctl_11xx.h **** 	RESET_TIMER0_32,	/*!< 32-bit Timer 0 reset control */
 145:../lpc11cx4-library/lpc_chip_11cxx_lib/inc/sysctl_11xx.h **** 	RESET_TIMER1_32,	/*!< 32-bit Timer 1 reset control */
ARM GAS  /tmp/cc7TFFKb.s 			page 71


 146:../lpc11cx4-library/lpc_chip_11cxx_lib/inc/sysctl_11xx.h **** 	RESET_ACMP,			/*!< Analog comparator reset control */
 147:../lpc11cx4-library/lpc_chip_11cxx_lib/inc/sysctl_11xx.h **** 	RESET_DAC0,			/*!< DAC reset control */
 148:../lpc11cx4-library/lpc_chip_11cxx_lib/inc/sysctl_11xx.h **** 	RESET_ADC0			/*!< ADC reset control */
 149:../lpc11cx4-library/lpc_chip_11cxx_lib/inc/sysctl_11xx.h **** #endif
 150:../lpc11cx4-library/lpc_chip_11cxx_lib/inc/sysctl_11xx.h **** } CHIP_SYSCTL_PERIPH_RESET_T;
 151:../lpc11cx4-library/lpc_chip_11cxx_lib/inc/sysctl_11xx.h **** 
 152:../lpc11cx4-library/lpc_chip_11cxx_lib/inc/sysctl_11xx.h **** /**
 153:../lpc11cx4-library/lpc_chip_11cxx_lib/inc/sysctl_11xx.h ****  * @brief	Assert reset for a peripheral
 154:../lpc11cx4-library/lpc_chip_11cxx_lib/inc/sysctl_11xx.h ****  * @param	periph	: Peripheral to assert reset for
 155:../lpc11cx4-library/lpc_chip_11cxx_lib/inc/sysctl_11xx.h ****  * @return	Nothing
 156:../lpc11cx4-library/lpc_chip_11cxx_lib/inc/sysctl_11xx.h ****  * @note	The peripheral will stay in reset until reset is de-asserted. Call
 157:../lpc11cx4-library/lpc_chip_11cxx_lib/inc/sysctl_11xx.h ****  * Chip_SYSCTL_DeassertPeriphReset() to de-assert the reset.
 158:../lpc11cx4-library/lpc_chip_11cxx_lib/inc/sysctl_11xx.h ****  */
 159:../lpc11cx4-library/lpc_chip_11cxx_lib/inc/sysctl_11xx.h **** STATIC INLINE void Chip_SYSCTL_AssertPeriphReset(CHIP_SYSCTL_PERIPH_RESET_T periph)
 160:../lpc11cx4-library/lpc_chip_11cxx_lib/inc/sysctl_11xx.h **** {
 161:../lpc11cx4-library/lpc_chip_11cxx_lib/inc/sysctl_11xx.h **** 	LPC_SYSCTL->PRESETCTRL &= ~(1 << (uint32_t) periph);
 2335              		.loc 4 161 0
 2336 0020 114B     		ldr	r3, .L276+4	@ tmp127,
 2337              	.LBE598:
 2338              	.LBE597:
 2339              	.LBE596:
 485:../lpc11cx4-library/lpc_chip_11cxx_lib/src/ssp_11xx.c **** 	Chip_Clock_EnablePeriphClock(Chip_SSP_GetClockIndex(pSSP));
 486:../lpc11cx4-library/lpc_chip_11cxx_lib/src/ssp_11xx.c **** 	Chip_SSP_SetSSPClkDivider(pSSP, 1);
 487:../lpc11cx4-library/lpc_chip_11cxx_lib/src/ssp_11xx.c **** 	Chip_SYSCTL_PeriphReset(Chip_SSP_GetResetIndex(pSSP));
 488:../lpc11cx4-library/lpc_chip_11cxx_lib/src/ssp_11xx.c **** 
 489:../lpc11cx4-library/lpc_chip_11cxx_lib/src/ssp_11xx.c **** 	Chip_SSP_Set_Mode(pSSP, SSP_MODE_MASTER);
 490:../lpc11cx4-library/lpc_chip_11cxx_lib/src/ssp_11xx.c **** 	Chip_SSP_SetFormat(pSSP, SSP_BITS_8, SSP_FRAMEFORMAT_SPI, SSP_CLOCK_CPHA0_CPOL0);
 491:../lpc11cx4-library/lpc_chip_11cxx_lib/src/ssp_11xx.c **** 	Chip_SSP_SetBitRate(pSSP, 100000);
 492:../lpc11cx4-library/lpc_chip_11cxx_lib/src/ssp_11xx.c **** }
 2340              		.loc 1 492 0
 2341              		@ sp needed	@
 2342              	.LBB603:
 2343              	.LBB600:
 2344              	.LBB599:
 2345              		.loc 4 161 0
 2346 0022 5C68     		ldr	r4, [r3, #4]	@ D.6882, MEM[(struct LPC_SYSCTL_T *)1074036736B].PRESETCTRL
 2347 0024 2240     		and	r2, r4	@ D.6882, D.6882
 2348 0026 5A60     		str	r2, [r3, #4]	@ D.6882, MEM[(struct LPC_SYSCTL_T *)1074036736B].PRESETCTRL
 2349              	.LBE599:
 2350              	.LBE600:
 2351              	.LBB601:
 2352              	.LBB602:
 162:../lpc11cx4-library/lpc_chip_11cxx_lib/inc/sysctl_11xx.h **** }
 163:../lpc11cx4-library/lpc_chip_11cxx_lib/inc/sysctl_11xx.h **** 
 164:../lpc11cx4-library/lpc_chip_11cxx_lib/inc/sysctl_11xx.h **** /**
 165:../lpc11cx4-library/lpc_chip_11cxx_lib/inc/sysctl_11xx.h ****  * @brief	De-assert reset for a peripheral
 166:../lpc11cx4-library/lpc_chip_11cxx_lib/inc/sysctl_11xx.h ****  * @param	periph	: Peripheral to de-assert reset for
 167:../lpc11cx4-library/lpc_chip_11cxx_lib/inc/sysctl_11xx.h ****  * @return	Nothing
 168:../lpc11cx4-library/lpc_chip_11cxx_lib/inc/sysctl_11xx.h ****  */
 169:../lpc11cx4-library/lpc_chip_11cxx_lib/inc/sysctl_11xx.h **** STATIC INLINE void Chip_SYSCTL_DeassertPeriphReset(CHIP_SYSCTL_PERIPH_RESET_T periph)
 170:../lpc11cx4-library/lpc_chip_11cxx_lib/inc/sysctl_11xx.h **** {
 171:../lpc11cx4-library/lpc_chip_11cxx_lib/inc/sysctl_11xx.h **** 	LPC_SYSCTL->PRESETCTRL |= (1 << (uint32_t) periph);
 2353              		.loc 4 171 0
 2354 0028 5A68     		ldr	r2, [r3, #4]	@ D.6882, MEM[(struct LPC_SYSCTL_T *)1074036736B].PRESETCTRL
 2355 002a 0A43     		orr	r2, r1	@ D.6882, D.6882
 2356 002c 5A60     		str	r2, [r3, #4]	@ D.6882, MEM[(struct LPC_SYSCTL_T *)1074036736B].PRESETCTRL
 2357              	.LVL186:
ARM GAS  /tmp/cc7TFFKb.s 			page 72


 2358              	.LBE602:
 2359              	.LBE601:
 2360              	.LBE603:
 2361              	.LBB604:
 2362              	.LBB605:
 2363              		.loc 2 421 0
 2364 002e 0422     		mov	r2, #4	@ tmp131,
 2365 0030 4368     		ldr	r3, [r0, #4]	@ D.6882, pSSP_1(D)->CR1
 2366              	.LBE605:
 2367              	.LBE604:
 491:../lpc11cx4-library/lpc_chip_11cxx_lib/src/ssp_11xx.c **** }
 2368              		.loc 1 491 0
 2369 0032 0E49     		ldr	r1, .L276+8	@,
 2370              	.LBB607:
 2371              	.LBB606:
 2372              		.loc 2 421 0
 2373 0034 9343     		bic	r3, r2	@ D.6882, tmp131
 2374 0036 4360     		str	r3, [r0, #4]	@ D.6882, pSSP_1(D)->CR1
 2375              	.LVL187:
 2376              	.LBE606:
 2377              	.LBE607:
 2378              	.LBB608:
 2379              	.LBB609:
 408:../lpc11cx4-library/lpc_chip_11cxx_lib/inc/ssp_11xx.h **** }
 2380              		.loc 2 408 0
 2381 0038 0368     		ldr	r3, [r0]	@ D.6882, pSSP_1(D)->CR0
 2382 003a FB32     		add	r2, r2, #251	@ tmp133,
 2383 003c 9343     		bic	r3, r2	@ D.6882, tmp133
 2384 003e F83A     		sub	r2, r2, #248	@ tmp134,
 2385 0040 1343     		orr	r3, r2	@ D.6882, tmp134
 2386 0042 0360     		str	r3, [r0]	@ D.6882, pSSP_1(D)->CR0
 2387              	.LBE609:
 2388              	.LBE608:
 491:../lpc11cx4-library/lpc_chip_11cxx_lib/src/ssp_11xx.c **** }
 2389              		.loc 1 491 0
 2390 0044 FFF7FEFF 		bl	Chip_SSP_SetBitRate	@
 2391              	.LVL188:
 2392              		.loc 1 492 0
 2393 0048 10BD     		pop	{r4, pc}
 2394              	.LVL189:
 2395              	.L275:
 2396              	.LBB610:
 2397              	.LBB590:
 297:../lpc11cx4-library/lpc_chip_11cxx_lib/inc/clock_11xx.h **** }
 2398              		.loc 3 297 0
 2399 004a 8021     		mov	r1, #128	@ tmp137,
 2400 004c 8024     		mov	r4, #128	@ tmp138,
 2401 004e 064B     		ldr	r3, .L276+4	@ tmp136,
 2402 0050 2401     		lsl	r4, r4, #4	@ tmp138, tmp138,
 2403 0052 5A58     		ldr	r2, [r3, r1]	@ D.6882, MEM[(struct LPC_SYSCTL_T *)1074036736B].SYSAHBCLKCTRL
 2404 0054 2243     		orr	r2, r4	@ D.6882, tmp138
 2405 0056 5A50     		str	r2, [r3, r1]	@ D.6882, MEM[(struct LPC_SYSCTL_T *)1074036736B].SYSAHBCLKCTRL
 2406              	.LVL190:
 2407              	.LBE590:
 2408              	.LBE610:
 2409              	.LBB611:
 2410              	.LBB594:
ARM GAS  /tmp/cc7TFFKb.s 			page 73


 2411              	.LBB595:
 319:../lpc11cx4-library/lpc_chip_11cxx_lib/inc/clock_11xx.h **** }
 2412              		.loc 3 319 0
 2413 0058 9422     		mov	r2, #148	@ tmp142,
 2414 005a 7F39     		sub	r1, r1, #127	@ tmp143,
 2415 005c 9950     		str	r1, [r3, r2]	@ tmp143, MEM[(struct LPC_SYSCTL_T *)1074036736B].SSP0CLKDIV
 2416              	.LVL191:
 2417 005e 963A     		sub	r2, r2, #150	@ D.6882,
 2418 0060 DEE7     		b	.L271	@
 2419              	.L277:
 2420 0062 C046     		.align	2
 2421              	.L276:
 2422 0064 00000440 		.word	1074003968
 2423 0068 00800440 		.word	1074036736
 2424 006c A0860100 		.word	100000
 2425              	.LBE595:
 2426              	.LBE594:
 2427              	.LBE611:
 2428              		.cfi_endproc
 2429              	.LFE215:
 2430              		.size	Chip_SSP_Init, .-Chip_SSP_Init
 2431              		.section	.text.Chip_SSP_DeInit,"ax",%progbits
 2432              		.align	2
 2433              		.global	Chip_SSP_DeInit
 2434              		.code	16
 2435              		.thumb_func
 2436              		.type	Chip_SSP_DeInit, %function
 2437              	Chip_SSP_DeInit:
 2438              	.LFB216:
 493:../lpc11cx4-library/lpc_chip_11cxx_lib/src/ssp_11xx.c **** 
 494:../lpc11cx4-library/lpc_chip_11cxx_lib/src/ssp_11xx.c **** /* De-initializes the SSP peripheral */
 495:../lpc11cx4-library/lpc_chip_11cxx_lib/src/ssp_11xx.c **** void Chip_SSP_DeInit(LPC_SSP_T *pSSP)
 496:../lpc11cx4-library/lpc_chip_11cxx_lib/src/ssp_11xx.c **** {
 2439              		.loc 1 496 0
 2440              		.cfi_startproc
 2441              	.LVL192:
 2442              	.LBB612:
 2443              	.LBB613:
 244:../lpc11cx4-library/lpc_chip_11cxx_lib/inc/ssp_11xx.h **** }
 2444              		.loc 2 244 0
 2445 0000 0D22     		mov	r2, #13	@ tmp117,
 2446 0002 4368     		ldr	r3, [r0, #4]	@ D.6885, pSSP_2(D)->CR1
 2447 0004 1340     		and	r3, r2	@ D.6885, tmp117
 2448 0006 4360     		str	r3, [r0, #4]	@ D.6885, pSSP_2(D)->CR1
 2449              	.LVL193:
 2450              	.LBE613:
 2451              	.LBE612:
 2452              	.LBB614:
 2453              	.LBB615:
 109:../lpc11cx4-library/lpc_chip_11cxx_lib/src/ssp_11xx.c **** 		clkSSP = SYSCTL_CLOCK_SSP0;
 2454              		.loc 1 109 0
 2455 0008 0B4B     		ldr	r3, .L284	@ tmp118,
 2456 000a 9842     		cmp	r0, r3	@ pSSP, tmp118
 2457 000c 09D0     		beq	.L283	@,
 2458              	.LVL194:
 2459              	.LBE615:
 2460              	.LBE614:
ARM GAS  /tmp/cc7TFFKb.s 			page 74


 2461              	.LBB616:
 2462              	.LBB617:
 307:../lpc11cx4-library/lpc_chip_11cxx_lib/inc/clock_11xx.h **** }
 2463              		.loc 3 307 0
 2464 000e 8021     		mov	r1, #128	@ tmp128,
 2465 0010 0A4B     		ldr	r3, .L284+4	@ tmp127,
 2466 0012 0B4A     		ldr	r2, .L284+8	@ tmp129,
 2467 0014 5858     		ldr	r0, [r3, r1]	@ D.6885,
 2468              	.LVL195:
 2469 0016 0240     		and	r2, r0	@ D.6885, D.6885
 2470 0018 5A50     		str	r2, [r3, r1]	@ D.6885, MEM[(struct LPC_SYSCTL_T *)1074036736B].SYSAHBCLKCTRL
 2471              	.LVL196:
 2472              	.LBE617:
 2473              	.LBE616:
 2474              	.LBB619:
 2475              	.LBB620:
 2476              	.LBB621:
 364:../lpc11cx4-library/lpc_chip_11cxx_lib/inc/clock_11xx.h **** }
 2477              		.loc 3 364 0
 2478 001a 0021     		mov	r1, #0	@ tmp134,
 2479 001c 9C22     		mov	r2, #156	@ tmp133,
 2480 001e 9950     		str	r1, [r3, r2]	@ tmp134,
 2481              	.LVL197:
 2482              	.L278:
 2483              	.LBE621:
 2484              	.LBE620:
 2485              	.LBE619:
 497:../lpc11cx4-library/lpc_chip_11cxx_lib/src/ssp_11xx.c **** 	Chip_SSP_Disable(pSSP);
 498:../lpc11cx4-library/lpc_chip_11cxx_lib/src/ssp_11xx.c **** 
 499:../lpc11cx4-library/lpc_chip_11cxx_lib/src/ssp_11xx.c **** 	Chip_Clock_DisablePeriphClock(Chip_SSP_GetClockIndex(pSSP));
 500:../lpc11cx4-library/lpc_chip_11cxx_lib/src/ssp_11xx.c **** 	Chip_SSP_SetSSPClkDivider(pSSP, 0);
 501:../lpc11cx4-library/lpc_chip_11cxx_lib/src/ssp_11xx.c **** }
 2486              		.loc 1 501 0
 2487              		@ sp needed	@
 2488 0020 7047     		bx	lr
 2489              	.LVL198:
 2490              	.L283:
 2491              	.LBB624:
 2492              	.LBB618:
 307:../lpc11cx4-library/lpc_chip_11cxx_lib/inc/clock_11xx.h **** }
 2493              		.loc 3 307 0
 2494 0022 8021     		mov	r1, #128	@ tmp120,
 2495 0024 054B     		ldr	r3, .L284+4	@ tmp119,
 2496 0026 074A     		ldr	r2, .L284+12	@ tmp121,
 2497 0028 5858     		ldr	r0, [r3, r1]	@ D.6885,
 2498              	.LVL199:
 2499 002a 0240     		and	r2, r0	@ D.6885, D.6885
 2500 002c 5A50     		str	r2, [r3, r1]	@ D.6885, MEM[(struct LPC_SYSCTL_T *)1074036736B].SYSAHBCLKCTRL
 2501              	.LVL200:
 2502              	.LBE618:
 2503              	.LBE624:
 2504              	.LBB625:
 2505              	.LBB622:
 2506              	.LBB623:
 319:../lpc11cx4-library/lpc_chip_11cxx_lib/inc/clock_11xx.h **** }
 2507              		.loc 3 319 0
 2508 002e 0021     		mov	r1, #0	@ tmp126,
ARM GAS  /tmp/cc7TFFKb.s 			page 75


 2509 0030 9422     		mov	r2, #148	@ tmp125,
 2510 0032 9950     		str	r1, [r3, r2]	@ tmp126,
 2511 0034 F4E7     		b	.L278	@
 2512              	.L285:
 2513 0036 C046     		.align	2
 2514              	.L284:
 2515 0038 00000440 		.word	1074003968
 2516 003c 00800440 		.word	1074036736
 2517 0040 FFFFFBFF 		.word	-262145
 2518 0044 FFF7FFFF 		.word	-2049
 2519              	.LBE623:
 2520              	.LBE622:
 2521              	.LBE625:
 2522              		.cfi_endproc
 2523              	.LFE216:
 2524              		.size	Chip_SSP_DeInit, .-Chip_SSP_DeInit
 2525              		.text
 2526              	.Letext0:
 2527              		.file 5 "/usr/arm-none-eabi/include/machine/_default_types.h"
 2528              		.file 6 "/usr/arm-none-eabi/include/stdint.h"
 2529              		.file 7 "../lpc11cx4-library/lpc_chip_11cxx_lib/inc/lpc_types.h"
 2530              		.file 8 "../lpc11cx4-library/lpc_chip_11cxx_lib/inc/chip.h"
 2531              		.section	.debug_info,"",%progbits
 2532              	.Ldebug_info0:
 2533 0000 761C0000 		.4byte	0x1c76
 2534 0004 0400     		.2byte	0x4
 2535 0006 00000000 		.4byte	.Ldebug_abbrev0
 2536 000a 04       		.byte	0x4
 2537 000b 01       		.uleb128 0x1
 2538 000c 07400000 		.4byte	.LASF1236
 2539 0010 01       		.byte	0x1
 2540 0011 3D670000 		.4byte	.LASF1237
 2541 0015 15690000 		.4byte	.LASF1238
 2542 0019 70070000 		.4byte	.Ldebug_ranges0+0x770
 2543 001d 00000000 		.4byte	0
 2544 0021 00000000 		.4byte	.Ldebug_line0
 2545 0025 00000000 		.4byte	.Ldebug_macro0
 2546 0029 02       		.uleb128 0x2
 2547 002a 04       		.byte	0x4
 2548 002b 07       		.byte	0x7
 2549 002c BF470000 		.4byte	.LASF993
 2550 0030 02       		.uleb128 0x2
 2551 0031 01       		.byte	0x1
 2552 0032 06       		.byte	0x6
 2553 0033 B81A0000 		.4byte	.LASF994
 2554 0037 03       		.uleb128 0x3
 2555 0038 750F0000 		.4byte	.LASF997
 2556 003c 05       		.byte	0x5
 2557 003d 1D       		.byte	0x1d
 2558 003e 42000000 		.4byte	0x42
 2559 0042 02       		.uleb128 0x2
 2560 0043 01       		.byte	0x1
 2561 0044 08       		.byte	0x8
 2562 0045 A11D0000 		.4byte	.LASF995
 2563 0049 02       		.uleb128 0x2
 2564 004a 02       		.byte	0x2
 2565 004b 05       		.byte	0x5
ARM GAS  /tmp/cc7TFFKb.s 			page 76


 2566 004c 8B670000 		.4byte	.LASF996
 2567 0050 03       		.uleb128 0x3
 2568 0051 48250000 		.4byte	.LASF998
 2569 0055 05       		.byte	0x5
 2570 0056 2B       		.byte	0x2b
 2571 0057 5B000000 		.4byte	0x5b
 2572 005b 02       		.uleb128 0x2
 2573 005c 02       		.byte	0x2
 2574 005d 07       		.byte	0x7
 2575 005e D5740000 		.4byte	.LASF999
 2576 0062 02       		.uleb128 0x2
 2577 0063 04       		.byte	0x4
 2578 0064 05       		.byte	0x5
 2579 0065 37130000 		.4byte	.LASF1000
 2580 0069 03       		.uleb128 0x3
 2581 006a 963F0000 		.4byte	.LASF1001
 2582 006e 05       		.byte	0x5
 2583 006f 41       		.byte	0x41
 2584 0070 74000000 		.4byte	0x74
 2585 0074 02       		.uleb128 0x2
 2586 0075 04       		.byte	0x4
 2587 0076 07       		.byte	0x7
 2588 0077 24360000 		.4byte	.LASF1002
 2589 007b 02       		.uleb128 0x2
 2590 007c 08       		.byte	0x8
 2591 007d 05       		.byte	0x5
 2592 007e D73F0000 		.4byte	.LASF1003
 2593 0082 02       		.uleb128 0x2
 2594 0083 08       		.byte	0x8
 2595 0084 07       		.byte	0x7
 2596 0085 77580000 		.4byte	.LASF1004
 2597 0089 04       		.uleb128 0x4
 2598 008a 04       		.byte	0x4
 2599 008b 05       		.byte	0x5
 2600 008c 696E7400 		.ascii	"int\000"
 2601 0090 03       		.uleb128 0x3
 2602 0091 F11A0000 		.4byte	.LASF1005
 2603 0095 06       		.byte	0x6
 2604 0096 15       		.byte	0x15
 2605 0097 37000000 		.4byte	0x37
 2606 009b 03       		.uleb128 0x3
 2607 009c 5F590000 		.4byte	.LASF1006
 2608 00a0 06       		.byte	0x6
 2609 00a1 21       		.byte	0x21
 2610 00a2 50000000 		.4byte	0x50
 2611 00a6 03       		.uleb128 0x3
 2612 00a7 B9710000 		.4byte	.LASF1007
 2613 00ab 06       		.byte	0x6
 2614 00ac 2D       		.byte	0x2d
 2615 00ad 69000000 		.4byte	0x69
 2616 00b1 05       		.uleb128 0x5
 2617 00b2 01       		.byte	0x1
 2618 00b3 07       		.byte	0x7
 2619 00b4 3E       		.byte	0x3e
 2620 00b5 C6000000 		.4byte	0xc6
 2621 00b9 06       		.uleb128 0x6
 2622 00ba 905F0000 		.4byte	.LASF1008
ARM GAS  /tmp/cc7TFFKb.s 			page 77


 2623 00be 00       		.sleb128 0
 2624 00bf 07       		.uleb128 0x7
 2625 00c0 53455400 		.ascii	"SET\000"
 2626 00c4 01       		.sleb128 1
 2627 00c5 00       		.byte	0
 2628 00c6 03       		.uleb128 0x3
 2629 00c7 22620000 		.4byte	.LASF1009
 2630 00cb 07       		.byte	0x7
 2631 00cc 3E       		.byte	0x3e
 2632 00cd B1000000 		.4byte	0xb1
 2633 00d1 03       		.uleb128 0x3
 2634 00d2 816E0000 		.4byte	.LASF1010
 2635 00d6 07       		.byte	0x7
 2636 00d7 3E       		.byte	0x3e
 2637 00d8 B1000000 		.4byte	0xb1
 2638 00dc 05       		.uleb128 0x5
 2639 00dd 01       		.byte	0x1
 2640 00de 07       		.byte	0x7
 2641 00df 4A       		.byte	0x4a
 2642 00e0 F1000000 		.4byte	0xf1
 2643 00e4 06       		.uleb128 0x6
 2644 00e5 3D3B0000 		.4byte	.LASF1011
 2645 00e9 00       		.sleb128 0
 2646 00ea 06       		.uleb128 0x6
 2647 00eb 555D0000 		.4byte	.LASF1012
 2648 00ef 01       		.sleb128 1
 2649 00f0 00       		.byte	0
 2650 00f1 03       		.uleb128 0x3
 2651 00f2 D63E0000 		.4byte	.LASF1013
 2652 00f6 07       		.byte	0x7
 2653 00f7 4A       		.byte	0x4a
 2654 00f8 DC000000 		.4byte	0xdc
 2655 00fc 02       		.uleb128 0x2
 2656 00fd 01       		.byte	0x1
 2657 00fe 08       		.byte	0x8
 2658 00ff CC220000 		.4byte	.LASF1014
 2659 0103 02       		.uleb128 0x2
 2660 0104 01       		.byte	0x1
 2661 0105 02       		.byte	0x2
 2662 0106 38210000 		.4byte	.LASF1015
 2663 010a 02       		.uleb128 0x2
 2664 010b 04       		.byte	0x4
 2665 010c 07       		.byte	0x7
 2666 010d A1010000 		.4byte	.LASF1016
 2667 0111 08       		.uleb128 0x8
 2668 0112 A6000000 		.4byte	0xa6
 2669 0116 21010000 		.4byte	0x121
 2670 011a 09       		.uleb128 0x9
 2671 011b 0A010000 		.4byte	0x10a
 2672 011f 07       		.byte	0x7
 2673 0120 00       		.byte	0
 2674 0121 0A       		.uleb128 0xa
 2675 0122 26010000 		.4byte	0x126
 2676 0126 0B       		.uleb128 0xb
 2677 0127 A6000000 		.4byte	0xa6
 2678 012b 08       		.uleb128 0x8
 2679 012c A6000000 		.4byte	0xa6
ARM GAS  /tmp/cc7TFFKb.s 			page 78


 2680 0130 3B010000 		.4byte	0x13b
 2681 0134 09       		.uleb128 0x9
 2682 0135 0A010000 		.4byte	0x10a
 2683 0139 01       		.byte	0x1
 2684 013a 00       		.byte	0
 2685 013b 08       		.uleb128 0x8
 2686 013c A6000000 		.4byte	0xa6
 2687 0140 4B010000 		.4byte	0x14b
 2688 0144 09       		.uleb128 0x9
 2689 0145 0A010000 		.4byte	0x10a
 2690 0149 03       		.byte	0x3
 2691 014a 00       		.byte	0
 2692 014b 08       		.uleb128 0x8
 2693 014c A6000000 		.4byte	0xa6
 2694 0150 5B010000 		.4byte	0x15b
 2695 0154 09       		.uleb128 0x9
 2696 0155 0A010000 		.4byte	0x10a
 2697 0159 02       		.byte	0x2
 2698 015a 00       		.byte	0
 2699 015b 0C       		.uleb128 0xc
 2700 015c F803     		.2byte	0x3f8
 2701 015e 04       		.byte	0x4
 2702 015f 2F       		.byte	0x2f
 2703 0160 70040000 		.4byte	0x470
 2704 0164 0D       		.uleb128 0xd
 2705 0165 CF2D0000 		.4byte	.LASF1017
 2706 0169 04       		.byte	0x4
 2707 016a 30       		.byte	0x30
 2708 016b 26010000 		.4byte	0x126
 2709 016f 00       		.byte	0
 2710 0170 0D       		.uleb128 0xd
 2711 0171 AE5D0000 		.4byte	.LASF1018
 2712 0175 04       		.byte	0x4
 2713 0176 31       		.byte	0x31
 2714 0177 26010000 		.4byte	0x126
 2715 017b 04       		.byte	0x4
 2716 017c 0D       		.uleb128 0xd
 2717 017d 302D0000 		.4byte	.LASF1019
 2718 0181 04       		.byte	0x4
 2719 0182 32       		.byte	0x32
 2720 0183 26010000 		.4byte	0x126
 2721 0187 08       		.byte	0x8
 2722 0188 0D       		.uleb128 0xd
 2723 0189 256E0000 		.4byte	.LASF1020
 2724 018d 04       		.byte	0x4
 2725 018e 33       		.byte	0x33
 2726 018f 21010000 		.4byte	0x121
 2727 0193 0C       		.byte	0xc
 2728 0194 0D       		.uleb128 0xd
 2729 0195 0C6E0000 		.4byte	.LASF1021
 2730 0199 04       		.byte	0x4
 2731 019a 34       		.byte	0x34
 2732 019b 26010000 		.4byte	0x126
 2733 019f 10       		.byte	0x10
 2734 01a0 0D       		.uleb128 0xd
 2735 01a1 D8330000 		.4byte	.LASF1022
 2736 01a5 04       		.byte	0x4
ARM GAS  /tmp/cc7TFFKb.s 			page 79


 2737 01a6 35       		.byte	0x35
 2738 01a7 21010000 		.4byte	0x121
 2739 01ab 14       		.byte	0x14
 2740 01ac 0D       		.uleb128 0xd
 2741 01ad 971D0000 		.4byte	.LASF1023
 2742 01b1 04       		.byte	0x4
 2743 01b2 36       		.byte	0x36
 2744 01b3 70040000 		.4byte	0x470
 2745 01b7 18       		.byte	0x18
 2746 01b8 0D       		.uleb128 0xd
 2747 01b9 14530000 		.4byte	.LASF1024
 2748 01bd 04       		.byte	0x4
 2749 01be 37       		.byte	0x37
 2750 01bf 26010000 		.4byte	0x126
 2751 01c3 20       		.byte	0x20
 2752 01c4 0D       		.uleb128 0xd
 2753 01c5 9A730000 		.4byte	.LASF1025
 2754 01c9 04       		.byte	0x4
 2755 01ca 38       		.byte	0x38
 2756 01cb 26010000 		.4byte	0x126
 2757 01cf 24       		.byte	0x24
 2758 01d0 0D       		.uleb128 0xd
 2759 01d1 C75C0000 		.4byte	.LASF1026
 2760 01d5 04       		.byte	0x4
 2761 01d6 39       		.byte	0x39
 2762 01d7 26010000 		.4byte	0x126
 2763 01db 28       		.byte	0x28
 2764 01dc 0D       		.uleb128 0xd
 2765 01dd 54650000 		.4byte	.LASF1027
 2766 01e1 04       		.byte	0x4
 2767 01e2 3A       		.byte	0x3a
 2768 01e3 26010000 		.4byte	0x126
 2769 01e7 2C       		.byte	0x2c
 2770 01e8 0D       		.uleb128 0xd
 2771 01e9 63420000 		.4byte	.LASF1028
 2772 01ed 04       		.byte	0x4
 2773 01ee 3B       		.byte	0x3b
 2774 01ef 26010000 		.4byte	0x126
 2775 01f3 30       		.byte	0x30
 2776 01f4 0D       		.uleb128 0xd
 2777 01f5 04220000 		.4byte	.LASF1029
 2778 01f9 04       		.byte	0x4
 2779 01fa 3C       		.byte	0x3c
 2780 01fb 7A040000 		.4byte	0x47a
 2781 01ff 34       		.byte	0x34
 2782 0200 0D       		.uleb128 0xd
 2783 0201 9D140000 		.4byte	.LASF1030
 2784 0205 04       		.byte	0x4
 2785 0206 3D       		.byte	0x3d
 2786 0207 26010000 		.4byte	0x126
 2787 020b 40       		.byte	0x40
 2788 020c 0D       		.uleb128 0xd
 2789 020d 01480000 		.4byte	.LASF1031
 2790 0211 04       		.byte	0x4
 2791 0212 3E       		.byte	0x3e
 2792 0213 26010000 		.4byte	0x126
 2793 0217 44       		.byte	0x44
ARM GAS  /tmp/cc7TFFKb.s 			page 80


 2794 0218 0D       		.uleb128 0xd
 2795 0219 1C1B0000 		.4byte	.LASF1032
 2796 021d 04       		.byte	0x4
 2797 021e 3F       		.byte	0x3f
 2798 021f 26010000 		.4byte	0x126
 2799 0223 48       		.byte	0x48
 2800 0224 0D       		.uleb128 0xd
 2801 0225 FA4D0000 		.4byte	.LASF1033
 2802 0229 04       		.byte	0x4
 2803 022a 40       		.byte	0x40
 2804 022b 26010000 		.4byte	0x126
 2805 022f 4C       		.byte	0x4c
 2806 0230 0D       		.uleb128 0xd
 2807 0231 AF1D0000 		.4byte	.LASF1034
 2808 0235 04       		.byte	0x4
 2809 0236 41       		.byte	0x41
 2810 0237 84040000 		.4byte	0x484
 2811 023b 50       		.byte	0x50
 2812 023c 0D       		.uleb128 0xd
 2813 023d 1D1E0000 		.4byte	.LASF1035
 2814 0241 04       		.byte	0x4
 2815 0242 42       		.byte	0x42
 2816 0243 26010000 		.4byte	0x126
 2817 0247 70       		.byte	0x70
 2818 0248 0D       		.uleb128 0xd
 2819 0249 8A510000 		.4byte	.LASF1036
 2820 024d 04       		.byte	0x4
 2821 024e 43       		.byte	0x43
 2822 024f 26010000 		.4byte	0x126
 2823 0253 74       		.byte	0x74
 2824 0254 0D       		.uleb128 0xd
 2825 0255 E44A0000 		.4byte	.LASF1037
 2826 0259 04       		.byte	0x4
 2827 025a 44       		.byte	0x44
 2828 025b 26010000 		.4byte	0x126
 2829 025f 78       		.byte	0x78
 2830 0260 0D       		.uleb128 0xd
 2831 0261 B91D0000 		.4byte	.LASF1038
 2832 0265 04       		.byte	0x4
 2833 0266 45       		.byte	0x45
 2834 0267 21010000 		.4byte	0x121
 2835 026b 7C       		.byte	0x7c
 2836 026c 0D       		.uleb128 0xd
 2837 026d 605C0000 		.4byte	.LASF1039
 2838 0271 04       		.byte	0x4
 2839 0272 46       		.byte	0x46
 2840 0273 26010000 		.4byte	0x126
 2841 0277 80       		.byte	0x80
 2842 0278 0D       		.uleb128 0xd
 2843 0279 C31D0000 		.4byte	.LASF1040
 2844 027d 04       		.byte	0x4
 2845 027e 47       		.byte	0x47
 2846 027f 8E040000 		.4byte	0x48e
 2847 0283 84       		.byte	0x84
 2848 0284 0D       		.uleb128 0xd
 2849 0285 C16E0000 		.4byte	.LASF1041
 2850 0289 04       		.byte	0x4
ARM GAS  /tmp/cc7TFFKb.s 			page 81


 2851 028a 48       		.byte	0x48
 2852 028b 26010000 		.4byte	0x126
 2853 028f 94       		.byte	0x94
 2854 0290 0D       		.uleb128 0xd
 2855 0291 2F230000 		.4byte	.LASF1042
 2856 0295 04       		.byte	0x4
 2857 0296 49       		.byte	0x49
 2858 0297 26010000 		.4byte	0x126
 2859 029b 98       		.byte	0x98
 2860 029c 0D       		.uleb128 0xd
 2861 029d 7C740000 		.4byte	.LASF1043
 2862 02a1 04       		.byte	0x4
 2863 02a2 4A       		.byte	0x4a
 2864 02a3 26010000 		.4byte	0x126
 2865 02a7 9C       		.byte	0x9c
 2866 02a8 0D       		.uleb128 0xd
 2867 02a9 CD1D0000 		.4byte	.LASF1044
 2868 02ad 04       		.byte	0x4
 2869 02ae 4B       		.byte	0x4b
 2870 02af 98040000 		.4byte	0x498
 2871 02b3 A0       		.byte	0xa0
 2872 02b4 0D       		.uleb128 0xd
 2873 02b5 5A780000 		.4byte	.LASF1045
 2874 02b9 04       		.byte	0x4
 2875 02ba 4C       		.byte	0x4c
 2876 02bb 26010000 		.4byte	0x126
 2877 02bf C0       		.byte	0xc0
 2878 02c0 0D       		.uleb128 0xd
 2879 02c1 832F0000 		.4byte	.LASF1046
 2880 02c5 04       		.byte	0x4
 2881 02c6 4D       		.byte	0x4d
 2882 02c7 26010000 		.4byte	0x126
 2883 02cb C4       		.byte	0xc4
 2884 02cc 0D       		.uleb128 0xd
 2885 02cd 270A0000 		.4byte	.LASF1047
 2886 02d1 04       		.byte	0x4
 2887 02d2 4E       		.byte	0x4e
 2888 02d3 26010000 		.4byte	0x126
 2889 02d7 C8       		.byte	0xc8
 2890 02d8 0D       		.uleb128 0xd
 2891 02d9 D71D0000 		.4byte	.LASF1048
 2892 02dd 04       		.byte	0x4
 2893 02de 4F       		.byte	0x4f
 2894 02df 21010000 		.4byte	0x121
 2895 02e3 CC       		.byte	0xcc
 2896 02e4 0D       		.uleb128 0xd
 2897 02e5 2B600000 		.4byte	.LASF1049
 2898 02e9 04       		.byte	0x4
 2899 02ea 50       		.byte	0x50
 2900 02eb 26010000 		.4byte	0x126
 2901 02ef D0       		.byte	0xd0
 2902 02f0 0D       		.uleb128 0xd
 2903 02f1 BA140000 		.4byte	.LASF1050
 2904 02f5 04       		.byte	0x4
 2905 02f6 51       		.byte	0x51
 2906 02f7 26010000 		.4byte	0x126
 2907 02fb D4       		.byte	0xd4
ARM GAS  /tmp/cc7TFFKb.s 			page 82


 2908 02fc 0D       		.uleb128 0xd
 2909 02fd 546D0000 		.4byte	.LASF1051
 2910 0301 04       		.byte	0x4
 2911 0302 52       		.byte	0x52
 2912 0303 26010000 		.4byte	0x126
 2913 0307 D8       		.byte	0xd8
 2914 0308 0D       		.uleb128 0xd
 2915 0309 E11D0000 		.4byte	.LASF1052
 2916 030d 04       		.byte	0x4
 2917 030e 53       		.byte	0x53
 2918 030f 21010000 		.4byte	0x121
 2919 0313 DC       		.byte	0xdc
 2920 0314 0D       		.uleb128 0xd
 2921 0315 DA660000 		.4byte	.LASF1053
 2922 0319 04       		.byte	0x4
 2923 031a 54       		.byte	0x54
 2924 031b 26010000 		.4byte	0x126
 2925 031f E0       		.byte	0xe0
 2926 0320 0D       		.uleb128 0xd
 2927 0321 A11B0000 		.4byte	.LASF1054
 2928 0325 04       		.byte	0x4
 2929 0326 55       		.byte	0x55
 2930 0327 26010000 		.4byte	0x126
 2931 032b E4       		.byte	0xe4
 2932 032c 0D       		.uleb128 0xd
 2933 032d DA730000 		.4byte	.LASF1055
 2934 0331 04       		.byte	0x4
 2935 0332 56       		.byte	0x56
 2936 0333 26010000 		.4byte	0x126
 2937 0337 E8       		.byte	0xe8
 2938 0338 0D       		.uleb128 0xd
 2939 0339 EB1D0000 		.4byte	.LASF1056
 2940 033d 04       		.byte	0x4
 2941 033e 57       		.byte	0x57
 2942 033f B2040000 		.4byte	0x4b2
 2943 0343 EC       		.byte	0xec
 2944 0344 0E       		.uleb128 0xe
 2945 0345 0D140000 		.4byte	.LASF1057
 2946 0349 04       		.byte	0x4
 2947 034a 58       		.byte	0x58
 2948 034b BC040000 		.4byte	0x4bc
 2949 034f 0001     		.2byte	0x100
 2950 0351 0E       		.uleb128 0xe
 2951 0352 DE5A0000 		.4byte	.LASF1058
 2952 0356 04       		.byte	0x4
 2953 0357 59       		.byte	0x59
 2954 0358 D6040000 		.4byte	0x4d6
 2955 035c 0801     		.2byte	0x108
 2956 035e 0E       		.uleb128 0xe
 2957 035f 99060000 		.4byte	.LASF1059
 2958 0363 04       		.byte	0x4
 2959 0364 5A       		.byte	0x5a
 2960 0365 26010000 		.4byte	0x126
 2961 0369 5001     		.2byte	0x150
 2962 036b 0E       		.uleb128 0xe
 2963 036c CA770000 		.4byte	.LASF1060
 2964 0370 04       		.byte	0x4
ARM GAS  /tmp/cc7TFFKb.s 			page 83


 2965 0371 5B       		.byte	0x5b
 2966 0372 26010000 		.4byte	0x126
 2967 0376 5401     		.2byte	0x154
 2968 0378 0E       		.uleb128 0xe
 2969 0379 E95A0000 		.4byte	.LASF1061
 2970 037d 04       		.byte	0x4
 2971 037e 5C       		.byte	0x5c
 2972 037f F0040000 		.4byte	0x4f0
 2973 0383 5801     		.2byte	0x158
 2974 0385 0E       		.uleb128 0xe
 2975 0386 3D330000 		.4byte	.LASF1062
 2976 038a 04       		.byte	0x4
 2977 038b 5D       		.byte	0x5d
 2978 038c 26010000 		.4byte	0x126
 2979 0390 7001     		.2byte	0x170
 2980 0392 0E       		.uleb128 0xe
 2981 0393 F56B0000 		.4byte	.LASF1063
 2982 0397 04       		.byte	0x4
 2983 0398 5E       		.byte	0x5e
 2984 0399 26010000 		.4byte	0x126
 2985 039d 7401     		.2byte	0x174
 2986 039f 0E       		.uleb128 0xe
 2987 03a0 86110000 		.4byte	.LASF1064
 2988 03a4 04       		.byte	0x4
 2989 03a5 5F       		.byte	0x5f
 2990 03a6 FA040000 		.4byte	0x4fa
 2991 03aa 7801     		.2byte	0x178
 2992 03ac 0E       		.uleb128 0xe
 2993 03ad A0300000 		.4byte	.LASF1065
 2994 03b1 04       		.byte	0x4
 2995 03b2 60       		.byte	0x60
 2996 03b3 26010000 		.4byte	0x126
 2997 03b7 9801     		.2byte	0x198
 2998 03b9 0E       		.uleb128 0xe
 2999 03ba A55D0000 		.4byte	.LASF1066
 3000 03be 04       		.byte	0x4
 3001 03bf 61       		.byte	0x61
 3002 03c0 21010000 		.4byte	0x121
 3003 03c4 9C01     		.2byte	0x19c
 3004 03c6 0E       		.uleb128 0xe
 3005 03c7 F45A0000 		.4byte	.LASF1067
 3006 03cb 04       		.byte	0x4
 3007 03cc 62       		.byte	0x62
 3008 03cd 0F050000 		.4byte	0x50f
 3009 03d1 A001     		.2byte	0x1a0
 3010 03d3 0E       		.uleb128 0xe
 3011 03d4 FB4C0000 		.4byte	.LASF1068
 3012 03d8 04       		.byte	0x4
 3013 03d9 63       		.byte	0x63
 3014 03da 26010000 		.4byte	0x126
 3015 03de 0002     		.2byte	0x200
 3016 03e0 0E       		.uleb128 0xe
 3017 03e1 C1690000 		.4byte	.LASF1069
 3018 03e5 04       		.byte	0x4
 3019 03e6 64       		.byte	0x64
 3020 03e7 26010000 		.4byte	0x126
 3021 03eb 0402     		.2byte	0x204
ARM GAS  /tmp/cc7TFFKb.s 			page 84


 3022 03ed 0E       		.uleb128 0xe
 3023 03ee 176E0000 		.4byte	.LASF1070
 3024 03f2 04       		.byte	0x4
 3025 03f3 65       		.byte	0x65
 3026 03f4 26010000 		.4byte	0x126
 3027 03f8 0802     		.2byte	0x208
 3028 03fa 0E       		.uleb128 0xe
 3029 03fb 00720000 		.4byte	.LASF1071
 3030 03ff 04       		.byte	0x4
 3031 0400 66       		.byte	0x66
 3032 0401 26010000 		.4byte	0x126
 3033 0405 0C02     		.2byte	0x20c
 3034 0407 0E       		.uleb128 0xe
 3035 0408 FF5A0000 		.4byte	.LASF1072
 3036 040c 04       		.byte	0x4
 3037 040d 67       		.byte	0x67
 3038 040e 21010000 		.4byte	0x121
 3039 0412 1002     		.2byte	0x210
 3040 0414 0E       		.uleb128 0xe
 3041 0415 CB690000 		.4byte	.LASF1073
 3042 0419 04       		.byte	0x4
 3043 041a 68       		.byte	0x68
 3044 041b 26010000 		.4byte	0x126
 3045 041f 1402     		.2byte	0x214
 3046 0421 0E       		.uleb128 0xe
 3047 0422 0A5B0000 		.4byte	.LASF1074
 3048 0426 04       		.byte	0x4
 3049 0427 69       		.byte	0x69
 3050 0428 19050000 		.4byte	0x519
 3051 042c 1802     		.2byte	0x218
 3052 042e 0E       		.uleb128 0xe
 3053 042f A64B0000 		.4byte	.LASF1075
 3054 0433 04       		.byte	0x4
 3055 0434 6A       		.byte	0x6a
 3056 0435 26010000 		.4byte	0x126
 3057 0439 3002     		.2byte	0x230
 3058 043b 0E       		.uleb128 0xe
 3059 043c 8D5D0000 		.4byte	.LASF1076
 3060 0440 04       		.byte	0x4
 3061 0441 6B       		.byte	0x6b
 3062 0442 26010000 		.4byte	0x126
 3063 0446 3402     		.2byte	0x234
 3064 0448 0E       		.uleb128 0xe
 3065 0449 78190000 		.4byte	.LASF1077
 3066 044d 04       		.byte	0x4
 3067 044e 6C       		.byte	0x6c
 3068 044f 26010000 		.4byte	0x126
 3069 0453 3802     		.2byte	0x238
 3070 0455 0E       		.uleb128 0xe
 3071 0456 155B0000 		.4byte	.LASF1078
 3072 045a 04       		.byte	0x4
 3073 045b 6D       		.byte	0x6d
 3074 045c 33050000 		.4byte	0x533
 3075 0460 3C02     		.2byte	0x23c
 3076 0462 0E       		.uleb128 0xe
 3077 0463 5F660000 		.4byte	.LASF1079
 3078 0467 04       		.byte	0x4
ARM GAS  /tmp/cc7TFFKb.s 			page 85


 3079 0468 6E       		.byte	0x6e
 3080 0469 21010000 		.4byte	0x121
 3081 046d F403     		.2byte	0x3f4
 3082 046f 00       		.byte	0
 3083 0470 0A       		.uleb128 0xa
 3084 0471 75040000 		.4byte	0x475
 3085 0475 0B       		.uleb128 0xb
 3086 0476 2B010000 		.4byte	0x12b
 3087 047a 0A       		.uleb128 0xa
 3088 047b 7F040000 		.4byte	0x47f
 3089 047f 0B       		.uleb128 0xb
 3090 0480 4B010000 		.4byte	0x14b
 3091 0484 0A       		.uleb128 0xa
 3092 0485 89040000 		.4byte	0x489
 3093 0489 0B       		.uleb128 0xb
 3094 048a 11010000 		.4byte	0x111
 3095 048e 0A       		.uleb128 0xa
 3096 048f 93040000 		.4byte	0x493
 3097 0493 0B       		.uleb128 0xb
 3098 0494 3B010000 		.4byte	0x13b
 3099 0498 0A       		.uleb128 0xa
 3100 0499 9D040000 		.4byte	0x49d
 3101 049d 0B       		.uleb128 0xb
 3102 049e 11010000 		.4byte	0x111
 3103 04a2 08       		.uleb128 0x8
 3104 04a3 A6000000 		.4byte	0xa6
 3105 04a7 B2040000 		.4byte	0x4b2
 3106 04ab 09       		.uleb128 0x9
 3107 04ac 0A010000 		.4byte	0x10a
 3108 04b0 04       		.byte	0x4
 3109 04b1 00       		.byte	0
 3110 04b2 0A       		.uleb128 0xa
 3111 04b3 B7040000 		.4byte	0x4b7
 3112 04b7 0B       		.uleb128 0xb
 3113 04b8 A2040000 		.4byte	0x4a2
 3114 04bc 0A       		.uleb128 0xa
 3115 04bd C1040000 		.4byte	0x4c1
 3116 04c1 0B       		.uleb128 0xb
 3117 04c2 2B010000 		.4byte	0x12b
 3118 04c6 08       		.uleb128 0x8
 3119 04c7 A6000000 		.4byte	0xa6
 3120 04cb D6040000 		.4byte	0x4d6
 3121 04cf 09       		.uleb128 0x9
 3122 04d0 0A010000 		.4byte	0x10a
 3123 04d4 11       		.byte	0x11
 3124 04d5 00       		.byte	0
 3125 04d6 0A       		.uleb128 0xa
 3126 04d7 DB040000 		.4byte	0x4db
 3127 04db 0B       		.uleb128 0xb
 3128 04dc C6040000 		.4byte	0x4c6
 3129 04e0 08       		.uleb128 0x8
 3130 04e1 A6000000 		.4byte	0xa6
 3131 04e5 F0040000 		.4byte	0x4f0
 3132 04e9 09       		.uleb128 0x9
 3133 04ea 0A010000 		.4byte	0x10a
 3134 04ee 05       		.byte	0x5
 3135 04ef 00       		.byte	0
ARM GAS  /tmp/cc7TFFKb.s 			page 86


 3136 04f0 0A       		.uleb128 0xa
 3137 04f1 F5040000 		.4byte	0x4f5
 3138 04f5 0B       		.uleb128 0xb
 3139 04f6 E0040000 		.4byte	0x4e0
 3140 04fa 0B       		.uleb128 0xb
 3141 04fb 11010000 		.4byte	0x111
 3142 04ff 08       		.uleb128 0x8
 3143 0500 A6000000 		.4byte	0xa6
 3144 0504 0F050000 		.4byte	0x50f
 3145 0508 09       		.uleb128 0x9
 3146 0509 0A010000 		.4byte	0x10a
 3147 050d 17       		.byte	0x17
 3148 050e 00       		.byte	0
 3149 050f 0A       		.uleb128 0xa
 3150 0510 14050000 		.4byte	0x514
 3151 0514 0B       		.uleb128 0xb
 3152 0515 FF040000 		.4byte	0x4ff
 3153 0519 0A       		.uleb128 0xa
 3154 051a 1E050000 		.4byte	0x51e
 3155 051e 0B       		.uleb128 0xb
 3156 051f E0040000 		.4byte	0x4e0
 3157 0523 08       		.uleb128 0x8
 3158 0524 A6000000 		.4byte	0xa6
 3159 0528 33050000 		.4byte	0x533
 3160 052c 09       		.uleb128 0x9
 3161 052d 0A010000 		.4byte	0x10a
 3162 0531 6D       		.byte	0x6d
 3163 0532 00       		.byte	0
 3164 0533 0A       		.uleb128 0xa
 3165 0534 38050000 		.4byte	0x538
 3166 0538 0B       		.uleb128 0xb
 3167 0539 23050000 		.4byte	0x523
 3168 053d 03       		.uleb128 0x3
 3169 053e CF0F0000 		.4byte	.LASF1080
 3170 0542 04       		.byte	0x4
 3171 0543 6F       		.byte	0x6f
 3172 0544 5B010000 		.4byte	0x15b
 3173 0548 05       		.uleb128 0x5
 3174 0549 01       		.byte	0x1
 3175 054a 04       		.byte	0x4
 3176 054b 87       		.byte	0x87
 3177 054c 99050000 		.4byte	0x599
 3178 0550 06       		.uleb128 0x6
 3179 0551 0F7B0000 		.4byte	.LASF1081
 3180 0555 00       		.sleb128 0
 3181 0556 06       		.uleb128 0x6
 3182 0557 DD6B0000 		.4byte	.LASF1082
 3183 055b 01       		.sleb128 1
 3184 055c 06       		.uleb128 0x6
 3185 055d 1A7B0000 		.4byte	.LASF1083
 3186 0561 02       		.sleb128 2
 3187 0562 06       		.uleb128 0x6
 3188 0563 6E090000 		.4byte	.LASF1084
 3189 0567 03       		.sleb128 3
 3190 0568 06       		.uleb128 0x6
 3191 0569 330E0000 		.4byte	.LASF1085
 3192 056d 04       		.sleb128 4
ARM GAS  /tmp/cc7TFFKb.s 			page 87


 3193 056e 06       		.uleb128 0x6
 3194 056f C2710000 		.4byte	.LASF1086
 3195 0573 05       		.sleb128 5
 3196 0574 06       		.uleb128 0x6
 3197 0575 06350000 		.4byte	.LASF1087
 3198 0579 06       		.sleb128 6
 3199 057a 06       		.uleb128 0x6
 3200 057b 3B790000 		.4byte	.LASF1088
 3201 057f 07       		.sleb128 7
 3202 0580 06       		.uleb128 0x6
 3203 0581 503D0000 		.4byte	.LASF1089
 3204 0585 08       		.sleb128 8
 3205 0586 06       		.uleb128 0x6
 3206 0587 6A4A0000 		.4byte	.LASF1090
 3207 058b 09       		.sleb128 9
 3208 058c 06       		.uleb128 0x6
 3209 058d DB2D0000 		.4byte	.LASF1091
 3210 0591 0A       		.sleb128 10
 3211 0592 06       		.uleb128 0x6
 3212 0593 68390000 		.4byte	.LASF1092
 3213 0597 0B       		.sleb128 11
 3214 0598 00       		.byte	0
 3215 0599 03       		.uleb128 0x3
 3216 059a 60470000 		.4byte	.LASF1093
 3217 059e 04       		.byte	0x4
 3218 059f 96       		.byte	0x96
 3219 05a0 48050000 		.4byte	0x548
 3220 05a4 0F       		.uleb128 0xf
 3221 05a5 2B3B0000 		.4byte	.LASF1117
 3222 05a9 01       		.byte	0x1
 3223 05aa 03       		.byte	0x3
 3224 05ab E4       		.byte	0xe4
 3225 05ac 23060000 		.4byte	0x623
 3226 05b0 06       		.uleb128 0x6
 3227 05b1 87000000 		.4byte	.LASF1094
 3228 05b5 00       		.sleb128 0
 3229 05b6 06       		.uleb128 0x6
 3230 05b7 3F3D0000 		.4byte	.LASF1095
 3231 05bb 01       		.sleb128 1
 3232 05bc 06       		.uleb128 0x6
 3233 05bd 7E010000 		.4byte	.LASF1096
 3234 05c1 02       		.sleb128 2
 3235 05c2 06       		.uleb128 0x6
 3236 05c3 2B550000 		.4byte	.LASF1097
 3237 05c7 03       		.sleb128 3
 3238 05c8 06       		.uleb128 0x6
 3239 05c9 78320000 		.4byte	.LASF1098
 3240 05cd 04       		.sleb128 4
 3241 05ce 06       		.uleb128 0x6
 3242 05cf 8A590000 		.4byte	.LASF1099
 3243 05d3 05       		.sleb128 5
 3244 05d4 06       		.uleb128 0x6
 3245 05d5 2B330000 		.4byte	.LASF1100
 3246 05d9 06       		.sleb128 6
 3247 05da 06       		.uleb128 0x6
 3248 05db A5710000 		.4byte	.LASF1101
 3249 05df 07       		.sleb128 7
ARM GAS  /tmp/cc7TFFKb.s 			page 88


 3250 05e0 06       		.uleb128 0x6
 3251 05e1 37070000 		.4byte	.LASF1102
 3252 05e5 08       		.sleb128 8
 3253 05e6 06       		.uleb128 0x6
 3254 05e7 C10D0000 		.4byte	.LASF1103
 3255 05eb 09       		.sleb128 9
 3256 05ec 06       		.uleb128 0x6
 3257 05ed D50D0000 		.4byte	.LASF1104
 3258 05f1 0A       		.sleb128 10
 3259 05f2 06       		.uleb128 0x6
 3260 05f3 7E230000 		.4byte	.LASF1105
 3261 05f7 0B       		.sleb128 11
 3262 05f8 06       		.uleb128 0x6
 3263 05f9 77590000 		.4byte	.LASF1106
 3264 05fd 0C       		.sleb128 12
 3265 05fe 06       		.uleb128 0x6
 3266 05ff 42570000 		.4byte	.LASF1107
 3267 0603 0D       		.sleb128 13
 3268 0604 06       		.uleb128 0x6
 3269 0605 E5580000 		.4byte	.LASF1108
 3270 0609 0E       		.sleb128 14
 3271 060a 06       		.uleb128 0x6
 3272 060b 250F0000 		.4byte	.LASF1109
 3273 060f 0F       		.sleb128 15
 3274 0610 06       		.uleb128 0x6
 3275 0611 5B3B0000 		.4byte	.LASF1110
 3276 0615 10       		.sleb128 16
 3277 0616 06       		.uleb128 0x6
 3278 0617 857B0000 		.4byte	.LASF1111
 3279 061b 11       		.sleb128 17
 3280 061c 06       		.uleb128 0x6
 3281 061d 90230000 		.4byte	.LASF1112
 3282 0621 12       		.sleb128 18
 3283 0622 00       		.byte	0
 3284 0623 10       		.uleb128 0x10
 3285 0624 6F060000 		.4byte	.LASF1113
 3286 0628 03       		.byte	0x3
 3287 0629 2001     		.2byte	0x120
 3288 062b A4050000 		.4byte	0x5a4
 3289 062f 11       		.uleb128 0x11
 3290 0630 04       		.byte	0x4
 3291 0631 12       		.uleb128 0x12
 3292 0632 24       		.byte	0x24
 3293 0633 02       		.byte	0x2
 3294 0634 2F       		.byte	0x2f
 3295 0635 A4060000 		.4byte	0x6a4
 3296 0639 13       		.uleb128 0x13
 3297 063a 43523000 		.ascii	"CR0\000"
 3298 063e 02       		.byte	0x2
 3299 063f 30       		.byte	0x30
 3300 0640 26010000 		.4byte	0x126
 3301 0644 00       		.byte	0
 3302 0645 13       		.uleb128 0x13
 3303 0646 43523100 		.ascii	"CR1\000"
 3304 064a 02       		.byte	0x2
 3305 064b 31       		.byte	0x31
 3306 064c 26010000 		.4byte	0x126
ARM GAS  /tmp/cc7TFFKb.s 			page 89


 3307 0650 04       		.byte	0x4
 3308 0651 13       		.uleb128 0x13
 3309 0652 445200   		.ascii	"DR\000"
 3310 0655 02       		.byte	0x2
 3311 0656 32       		.byte	0x32
 3312 0657 26010000 		.4byte	0x126
 3313 065b 08       		.byte	0x8
 3314 065c 13       		.uleb128 0x13
 3315 065d 535200   		.ascii	"SR\000"
 3316 0660 02       		.byte	0x2
 3317 0661 33       		.byte	0x33
 3318 0662 21010000 		.4byte	0x121
 3319 0666 0C       		.byte	0xc
 3320 0667 0D       		.uleb128 0xd
 3321 0668 C8630000 		.4byte	.LASF1114
 3322 066c 02       		.byte	0x2
 3323 066d 34       		.byte	0x34
 3324 066e 26010000 		.4byte	0x126
 3325 0672 10       		.byte	0x10
 3326 0673 0D       		.uleb128 0xd
 3327 0674 381B0000 		.4byte	.LASF1115
 3328 0678 02       		.byte	0x2
 3329 0679 35       		.byte	0x35
 3330 067a 26010000 		.4byte	0x126
 3331 067e 14       		.byte	0x14
 3332 067f 13       		.uleb128 0x13
 3333 0680 52495300 		.ascii	"RIS\000"
 3334 0684 02       		.byte	0x2
 3335 0685 36       		.byte	0x36
 3336 0686 21010000 		.4byte	0x121
 3337 068a 18       		.byte	0x18
 3338 068b 13       		.uleb128 0x13
 3339 068c 4D495300 		.ascii	"MIS\000"
 3340 0690 02       		.byte	0x2
 3341 0691 37       		.byte	0x37
 3342 0692 21010000 		.4byte	0x121
 3343 0696 1C       		.byte	0x1c
 3344 0697 13       		.uleb128 0x13
 3345 0698 49435200 		.ascii	"ICR\000"
 3346 069c 02       		.byte	0x2
 3347 069d 38       		.byte	0x38
 3348 069e 26010000 		.4byte	0x126
 3349 06a2 20       		.byte	0x20
 3350 06a3 00       		.byte	0
 3351 06a4 03       		.uleb128 0x3
 3352 06a5 640B0000 		.4byte	.LASF1116
 3353 06a9 02       		.byte	0x2
 3354 06aa 39       		.byte	0x39
 3355 06ab 31060000 		.4byte	0x631
 3356 06af 0F       		.uleb128 0xf
 3357 06b0 8B200000 		.4byte	.LASF1118
 3358 06b4 01       		.byte	0x1
 3359 06b5 02       		.byte	0x2
 3360 06b6 81       		.byte	0x81
 3361 06b7 DA060000 		.4byte	0x6da
 3362 06bb 06       		.uleb128 0x6
 3363 06bc E86B0000 		.4byte	.LASF1119
ARM GAS  /tmp/cc7TFFKb.s 			page 90


 3364 06c0 01       		.sleb128 1
 3365 06c1 06       		.uleb128 0x6
 3366 06c2 850E0000 		.4byte	.LASF1120
 3367 06c6 02       		.sleb128 2
 3368 06c7 06       		.uleb128 0x6
 3369 06c8 335B0000 		.4byte	.LASF1121
 3370 06cc 04       		.sleb128 4
 3371 06cd 06       		.uleb128 0x6
 3372 06ce B33A0000 		.4byte	.LASF1122
 3373 06d2 08       		.sleb128 8
 3374 06d3 06       		.uleb128 0x6
 3375 06d4 02550000 		.4byte	.LASF1123
 3376 06d8 10       		.sleb128 16
 3377 06d9 00       		.byte	0
 3378 06da 03       		.uleb128 0x3
 3379 06db F5370000 		.4byte	.LASF1124
 3380 06df 02       		.byte	0x2
 3381 06e0 87       		.byte	0x87
 3382 06e1 AF060000 		.4byte	0x6af
 3383 06e5 0F       		.uleb128 0xf
 3384 06e6 8E7C0000 		.4byte	.LASF1125
 3385 06ea 01       		.byte	0x1
 3386 06eb 02       		.byte	0x2
 3387 06ec A2       		.byte	0xa2
 3388 06ed 10070000 		.4byte	0x710
 3389 06f1 06       		.uleb128 0x6
 3390 06f2 584E0000 		.4byte	.LASF1126
 3391 06f6 01       		.sleb128 1
 3392 06f7 06       		.uleb128 0x6
 3393 06f8 981F0000 		.4byte	.LASF1127
 3394 06fc 02       		.sleb128 2
 3395 06fd 06       		.uleb128 0x6
 3396 06fe 0E220000 		.4byte	.LASF1128
 3397 0702 04       		.sleb128 4
 3398 0703 06       		.uleb128 0x6
 3399 0704 6B770000 		.4byte	.LASF1129
 3400 0708 08       		.sleb128 8
 3401 0709 06       		.uleb128 0x6
 3402 070a 65180000 		.4byte	.LASF1130
 3403 070e 0F       		.sleb128 15
 3404 070f 00       		.byte	0
 3405 0710 03       		.uleb128 0x3
 3406 0711 27560000 		.4byte	.LASF1131
 3407 0715 02       		.byte	0x2
 3408 0716 A8       		.byte	0xa8
 3409 0717 E5060000 		.4byte	0x6e5
 3410 071b 0F       		.uleb128 0xf
 3411 071c 02210000 		.4byte	.LASF1132
 3412 0720 01       		.byte	0x1
 3413 0721 02       		.byte	0x2
 3414 0722 AA       		.byte	0xaa
 3415 0723 3A070000 		.4byte	0x73a
 3416 0727 06       		.uleb128 0x6
 3417 0728 AE430000 		.4byte	.LASF1133
 3418 072c 00       		.sleb128 0
 3419 072d 06       		.uleb128 0x6
 3420 072e 4B6D0000 		.4byte	.LASF1134
ARM GAS  /tmp/cc7TFFKb.s 			page 91


 3421 0732 01       		.sleb128 1
 3422 0733 06       		.uleb128 0x6
 3423 0734 94170000 		.4byte	.LASF1135
 3424 0738 03       		.sleb128 3
 3425 0739 00       		.byte	0
 3426 073a 03       		.uleb128 0x3
 3427 073b F4730000 		.4byte	.LASF1136
 3428 073f 02       		.byte	0x2
 3429 0740 AE       		.byte	0xae
 3430 0741 1B070000 		.4byte	0x71b
 3431 0745 0F       		.uleb128 0xf
 3432 0746 392A0000 		.4byte	.LASF1137
 3433 074a 01       		.byte	0x1
 3434 074b 02       		.byte	0x2
 3435 074c B3       		.byte	0xb3
 3436 074d 88070000 		.4byte	0x788
 3437 0751 06       		.uleb128 0x6
 3438 0752 5D2C0000 		.4byte	.LASF1138
 3439 0756 00       		.sleb128 0
 3440 0757 06       		.uleb128 0x6
 3441 0758 732C0000 		.4byte	.LASF1139
 3442 075c C000     		.sleb128 64
 3443 075e 06       		.uleb128 0x6
 3444 075f 96490000 		.4byte	.LASF1140
 3445 0763 8001     		.sleb128 128
 3446 0765 06       		.uleb128 0x6
 3447 0766 AC490000 		.4byte	.LASF1141
 3448 076a C001     		.sleb128 192
 3449 076c 06       		.uleb128 0x6
 3450 076d 102D0000 		.4byte	.LASF1142
 3451 0771 00       		.sleb128 0
 3452 0772 06       		.uleb128 0x6
 3453 0773 202D0000 		.4byte	.LASF1143
 3454 0777 8001     		.sleb128 128
 3455 0779 06       		.uleb128 0x6
 3456 077a DE050000 		.4byte	.LASF1144
 3457 077e C000     		.sleb128 64
 3458 0780 06       		.uleb128 0x6
 3459 0781 3B2D0000 		.4byte	.LASF1145
 3460 0785 C001     		.sleb128 192
 3461 0787 00       		.byte	0
 3462 0788 0F       		.uleb128 0xf
 3463 0789 23090000 		.4byte	.LASF1146
 3464 078d 01       		.byte	0x1
 3465 078e 02       		.byte	0x2
 3466 078f C1       		.byte	0xc1
 3467 0790 A7070000 		.4byte	0x7a7
 3468 0794 06       		.uleb128 0x6
 3469 0795 4C5C0000 		.4byte	.LASF1147
 3470 0799 00       		.sleb128 0
 3471 079a 06       		.uleb128 0x6
 3472 079b AD2C0000 		.4byte	.LASF1148
 3473 079f 10       		.sleb128 16
 3474 07a0 06       		.uleb128 0x6
 3475 07a1 FC620000 		.4byte	.LASF1149
 3476 07a5 20       		.sleb128 32
 3477 07a6 00       		.byte	0
ARM GAS  /tmp/cc7TFFKb.s 			page 92


 3478 07a7 0F       		.uleb128 0xf
 3479 07a8 41770000 		.4byte	.LASF1150
 3480 07ac 01       		.byte	0x1
 3481 07ad 02       		.byte	0x2
 3482 07ae CA       		.byte	0xca
 3483 07af 02080000 		.4byte	0x802
 3484 07b3 06       		.uleb128 0x6
 3485 07b4 837C0000 		.4byte	.LASF1151
 3486 07b8 03       		.sleb128 3
 3487 07b9 06       		.uleb128 0x6
 3488 07ba 281E0000 		.4byte	.LASF1152
 3489 07be 04       		.sleb128 4
 3490 07bf 06       		.uleb128 0x6
 3491 07c0 A07C0000 		.4byte	.LASF1153
 3492 07c4 05       		.sleb128 5
 3493 07c5 06       		.uleb128 0x6
 3494 07c6 AB7C0000 		.4byte	.LASF1154
 3495 07ca 06       		.sleb128 6
 3496 07cb 06       		.uleb128 0x6
 3497 07cc B67C0000 		.4byte	.LASF1155
 3498 07d0 07       		.sleb128 7
 3499 07d1 06       		.uleb128 0x6
 3500 07d2 C17C0000 		.4byte	.LASF1156
 3501 07d6 08       		.sleb128 8
 3502 07d7 06       		.uleb128 0x6
 3503 07d8 E4620000 		.4byte	.LASF1157
 3504 07dc 09       		.sleb128 9
 3505 07dd 06       		.uleb128 0x6
 3506 07de F0620000 		.4byte	.LASF1158
 3507 07e2 0A       		.sleb128 10
 3508 07e3 06       		.uleb128 0x6
 3509 07e4 4B030000 		.4byte	.LASF1159
 3510 07e8 0B       		.sleb128 11
 3511 07e9 06       		.uleb128 0x6
 3512 07ea 16630000 		.4byte	.LASF1160
 3513 07ee 0C       		.sleb128 12
 3514 07ef 06       		.uleb128 0x6
 3515 07f0 22630000 		.4byte	.LASF1161
 3516 07f4 0D       		.sleb128 13
 3517 07f5 06       		.uleb128 0x6
 3518 07f6 2E630000 		.4byte	.LASF1162
 3519 07fa 0E       		.sleb128 14
 3520 07fb 06       		.uleb128 0x6
 3521 07fc 3A630000 		.4byte	.LASF1163
 3522 0800 0F       		.sleb128 15
 3523 0801 00       		.byte	0
 3524 0802 14       		.uleb128 0x14
 3525 0803 AA170000 		.4byte	.LASF1164
 3526 0807 01       		.byte	0x1
 3527 0808 02       		.byte	0x2
 3528 0809 AB01     		.2byte	0x1ab
 3529 080b 1C080000 		.4byte	0x81c
 3530 080f 06       		.uleb128 0x6
 3531 0810 AF130000 		.4byte	.LASF1165
 3532 0814 00       		.sleb128 0
 3533 0815 06       		.uleb128 0x6
 3534 0816 BD7B0000 		.4byte	.LASF1166
ARM GAS  /tmp/cc7TFFKb.s 			page 93


 3535 081a 04       		.sleb128 4
 3536 081b 00       		.byte	0
 3537 081c 15       		.uleb128 0x15
 3538 081d 14       		.byte	0x14
 3539 081e 02       		.byte	0x2
 3540 081f BB01     		.2byte	0x1bb
 3541 0821 67080000 		.4byte	0x867
 3542 0825 16       		.uleb128 0x16
 3543 0826 70190000 		.4byte	.LASF1167
 3544 082a 02       		.byte	0x2
 3545 082b BC01     		.2byte	0x1bc
 3546 082d 2F060000 		.4byte	0x62f
 3547 0831 00       		.byte	0
 3548 0832 16       		.uleb128 0x16
 3549 0833 1A600000 		.4byte	.LASF1168
 3550 0837 02       		.byte	0x2
 3551 0838 BD01     		.2byte	0x1bd
 3552 083a A6000000 		.4byte	0xa6
 3553 083e 04       		.byte	0x4
 3554 083f 16       		.uleb128 0x16
 3555 0840 CD0C0000 		.4byte	.LASF1169
 3556 0844 02       		.byte	0x2
 3557 0845 BE01     		.2byte	0x1be
 3558 0847 2F060000 		.4byte	0x62f
 3559 084b 08       		.byte	0x8
 3560 084c 16       		.uleb128 0x16
 3561 084d CB420000 		.4byte	.LASF1170
 3562 0851 02       		.byte	0x2
 3563 0852 BF01     		.2byte	0x1bf
 3564 0854 A6000000 		.4byte	0xa6
 3565 0858 0C       		.byte	0xc
 3566 0859 16       		.uleb128 0x16
 3567 085a 58590000 		.4byte	.LASF1171
 3568 085e 02       		.byte	0x2
 3569 085f C001     		.2byte	0x1c0
 3570 0861 A6000000 		.4byte	0xa6
 3571 0865 10       		.byte	0x10
 3572 0866 00       		.byte	0
 3573 0867 10       		.uleb128 0x10
 3574 0868 5B530000 		.4byte	.LASF1172
 3575 086c 02       		.byte	0x2
 3576 086d C101     		.2byte	0x1c1
 3577 086f 1C080000 		.4byte	0x81c
 3578 0873 0A       		.uleb128 0xa
 3579 0874 A6000000 		.4byte	0xa6
 3580 0878 17       		.uleb128 0x17
 3581 0879 04       		.byte	0x4
 3582 087a 90000000 		.4byte	0x90
 3583 087e 18       		.uleb128 0x18
 3584 087f C41A0000 		.4byte	.LASF1173
 3585 0883 04       		.byte	0x4
 3586 0884 9F       		.byte	0x9f
 3587 0885 03       		.byte	0x3
 3588 0886 96080000 		.4byte	0x896
 3589 088a 19       		.uleb128 0x19
 3590 088b 86620000 		.4byte	.LASF1175
 3591 088f 04       		.byte	0x4
ARM GAS  /tmp/cc7TFFKb.s 			page 94


 3592 0890 9F       		.byte	0x9f
 3593 0891 99050000 		.4byte	0x599
 3594 0895 00       		.byte	0
 3595 0896 18       		.uleb128 0x18
 3596 0897 C44A0000 		.4byte	.LASF1174
 3597 089b 04       		.byte	0x4
 3598 089c A9       		.byte	0xa9
 3599 089d 03       		.byte	0x3
 3600 089e AE080000 		.4byte	0x8ae
 3601 08a2 19       		.uleb128 0x19
 3602 08a3 86620000 		.4byte	.LASF1175
 3603 08a7 04       		.byte	0x4
 3604 08a8 A9       		.byte	0xa9
 3605 08a9 99050000 		.4byte	0x599
 3606 08ad 00       		.byte	0
 3607 08ae 1A       		.uleb128 0x1a
 3608 08af 9F4F0000 		.4byte	.LASF1176
 3609 08b3 02       		.byte	0x2
 3610 08b4 7701     		.2byte	0x177
 3611 08b6 03       		.byte	0x3
 3612 08b7 D4080000 		.4byte	0x8d4
 3613 08bb 1B       		.uleb128 0x1b
 3614 08bc B60F0000 		.4byte	.LASF1177
 3615 08c0 02       		.byte	0x2
 3616 08c1 7701     		.2byte	0x177
 3617 08c3 D4080000 		.4byte	0x8d4
 3618 08c7 1B       		.uleb128 0x1b
 3619 08c8 70190000 		.4byte	.LASF1167
 3620 08cc 02       		.byte	0x2
 3621 08cd 7701     		.2byte	0x177
 3622 08cf 9B000000 		.4byte	0x9b
 3623 08d3 00       		.byte	0
 3624 08d4 17       		.uleb128 0x17
 3625 08d5 04       		.byte	0x4
 3626 08d6 A4060000 		.4byte	0x6a4
 3627 08da 18       		.uleb128 0x18
 3628 08db 732F0000 		.4byte	.LASF1178
 3629 08df 01       		.byte	0x1
 3630 08e0 2E       		.byte	0x2e
 3631 08e1 01       		.byte	0x1
 3632 08e2 FD080000 		.4byte	0x8fd
 3633 08e6 19       		.uleb128 0x19
 3634 08e7 B60F0000 		.4byte	.LASF1177
 3635 08eb 01       		.byte	0x1
 3636 08ec 2E       		.byte	0x2e
 3637 08ed D4080000 		.4byte	0x8d4
 3638 08f1 19       		.uleb128 0x19
 3639 08f2 2D200000 		.4byte	.LASF1179
 3640 08f6 01       		.byte	0x1
 3641 08f7 2E       		.byte	0x2e
 3642 08f8 FD080000 		.4byte	0x8fd
 3643 08fc 00       		.byte	0
 3644 08fd 17       		.uleb128 0x17
 3645 08fe 04       		.byte	0x4
 3646 08ff 67080000 		.4byte	0x867
 3647 0903 18       		.uleb128 0x18
 3648 0904 A1370000 		.4byte	.LASF1180
ARM GAS  /tmp/cc7TFFKb.s 			page 95


 3649 0908 01       		.byte	0x1
 3650 0909 3C       		.byte	0x3c
 3651 090a 01       		.byte	0x1
 3652 090b 26090000 		.4byte	0x926
 3653 090f 19       		.uleb128 0x19
 3654 0910 B60F0000 		.4byte	.LASF1177
 3655 0914 01       		.byte	0x1
 3656 0915 3C       		.byte	0x3c
 3657 0916 D4080000 		.4byte	0x8d4
 3658 091a 19       		.uleb128 0x19
 3659 091b 2D200000 		.4byte	.LASF1179
 3660 091f 01       		.byte	0x1
 3661 0920 3C       		.byte	0x3c
 3662 0921 FD080000 		.4byte	0x8fd
 3663 0925 00       		.byte	0
 3664 0926 1C       		.uleb128 0x1c
 3665 0927 D6450000 		.4byte	.LASF1181
 3666 092b 02       		.byte	0x2
 3667 092c 6C01     		.2byte	0x16c
 3668 092e 9B000000 		.4byte	0x9b
 3669 0932 03       		.byte	0x3
 3670 0933 44090000 		.4byte	0x944
 3671 0937 1B       		.uleb128 0x1b
 3672 0938 B60F0000 		.4byte	.LASF1177
 3673 093c 02       		.byte	0x2
 3674 093d 6C01     		.2byte	0x16c
 3675 093f D4080000 		.4byte	0x8d4
 3676 0943 00       		.byte	0
 3677 0944 1C       		.uleb128 0x1c
 3678 0945 8A6F0000 		.4byte	.LASF1182
 3679 0949 02       		.byte	0x2
 3680 094a 1A01     		.2byte	0x11a
 3681 094c C6000000 		.4byte	0xc6
 3682 0950 03       		.byte	0x3
 3683 0951 6E090000 		.4byte	0x96e
 3684 0955 1B       		.uleb128 0x1b
 3685 0956 B60F0000 		.4byte	.LASF1177
 3686 095a 02       		.byte	0x2
 3687 095b 1A01     		.2byte	0x11a
 3688 095d D4080000 		.4byte	0x8d4
 3689 0961 1B       		.uleb128 0x1b
 3690 0962 7A4D0000 		.4byte	.LASF1183
 3691 0966 02       		.byte	0x2
 3692 0967 1A01     		.2byte	0x11a
 3693 0969 DA060000 		.4byte	0x6da
 3694 096d 00       		.byte	0
 3695 096e 1A       		.uleb128 0x1a
 3696 096f 17270000 		.4byte	.LASF1184
 3697 0973 03       		.byte	0x3
 3698 0974 3D01     		.2byte	0x13d
 3699 0976 03       		.byte	0x3
 3700 0977 88090000 		.4byte	0x988
 3701 097b 1D       		.uleb128 0x1d
 3702 097c 64697600 		.ascii	"div\000"
 3703 0980 03       		.byte	0x3
 3704 0981 3D01     		.2byte	0x13d
 3705 0983 A6000000 		.4byte	0xa6
ARM GAS  /tmp/cc7TFFKb.s 			page 96


 3706 0987 00       		.byte	0
 3707 0988 1A       		.uleb128 0x1a
 3708 0989 EF420000 		.4byte	.LASF1185
 3709 098d 03       		.byte	0x3
 3710 098e 6A01     		.2byte	0x16a
 3711 0990 03       		.byte	0x3
 3712 0991 A2090000 		.4byte	0x9a2
 3713 0995 1D       		.uleb128 0x1d
 3714 0996 64697600 		.ascii	"div\000"
 3715 099a 03       		.byte	0x3
 3716 099b 6A01     		.2byte	0x16a
 3717 099d A6000000 		.4byte	0xa6
 3718 09a1 00       		.byte	0
 3719 09a2 1E       		.uleb128 0x1e
 3720 09a3 88350000 		.4byte	.LASF1186
 3721 09a7 03       		.byte	0x3
 3722 09a8 4701     		.2byte	0x147
 3723 09aa A6000000 		.4byte	0xa6
 3724 09ae 03       		.byte	0x3
 3725 09af 1E       		.uleb128 0x1e
 3726 09b0 27510000 		.4byte	.LASF1187
 3727 09b4 03       		.byte	0x3
 3728 09b5 7401     		.2byte	0x174
 3729 09b7 A6000000 		.4byte	0xa6
 3730 09bb 03       		.byte	0x3
 3731 09bc 1A       		.uleb128 0x1a
 3732 09bd E2140000 		.4byte	.LASF1188
 3733 09c1 02       		.byte	0x2
 3734 09c2 4E01     		.2byte	0x14e
 3735 09c4 03       		.byte	0x3
 3736 09c5 E2090000 		.4byte	0x9e2
 3737 09c9 1B       		.uleb128 0x1b
 3738 09ca B60F0000 		.4byte	.LASF1177
 3739 09ce 02       		.byte	0x2
 3740 09cf 4E01     		.2byte	0x14e
 3741 09d1 D4080000 		.4byte	0x8d4
 3742 09d5 1B       		.uleb128 0x1b
 3743 09d6 9A250000 		.4byte	.LASF1189
 3744 09da 02       		.byte	0x2
 3745 09db 4E01     		.2byte	0x14e
 3746 09dd 3A070000 		.4byte	0x73a
 3747 09e1 00       		.byte	0
 3748 09e2 1C       		.uleb128 0x1c
 3749 09e3 A0340000 		.4byte	.LASF1190
 3750 09e7 02       		.byte	0x2
 3751 09e8 4001     		.2byte	0x140
 3752 09ea 90000000 		.4byte	0x90
 3753 09ee 03       		.byte	0x3
 3754 09ef 000A0000 		.4byte	0xa00
 3755 09f3 1B       		.uleb128 0x1b
 3756 09f4 B60F0000 		.4byte	.LASF1177
 3757 09f8 02       		.byte	0x2
 3758 09f9 4001     		.2byte	0x140
 3759 09fb D4080000 		.4byte	0x8d4
 3760 09ff 00       		.byte	0
 3761 0a00 1C       		.uleb128 0x1c
 3762 0a01 34500000 		.4byte	.LASF1191
ARM GAS  /tmp/cc7TFFKb.s 			page 97


 3763 0a05 02       		.byte	0x2
 3764 0a06 3501     		.2byte	0x135
 3765 0a08 D1000000 		.4byte	0xd1
 3766 0a0c 03       		.byte	0x3
 3767 0a0d 2A0A0000 		.4byte	0xa2a
 3768 0a11 1B       		.uleb128 0x1b
 3769 0a12 B60F0000 		.4byte	.LASF1177
 3770 0a16 02       		.byte	0x2
 3771 0a17 3501     		.2byte	0x135
 3772 0a19 D4080000 		.4byte	0x8d4
 3773 0a1d 1B       		.uleb128 0x1b
 3774 0a1e 88030000 		.4byte	.LASF1192
 3775 0a22 02       		.byte	0x2
 3776 0a23 3501     		.2byte	0x135
 3777 0a25 10070000 		.4byte	0x710
 3778 0a29 00       		.byte	0
 3779 0a2a 18       		.uleb128 0x18
 3780 0a2b 07460000 		.4byte	.LASF1193
 3781 0a2f 01       		.byte	0x1
 3782 0a30 49       		.byte	0x49
 3783 0a31 01       		.byte	0x1
 3784 0a32 580A0000 		.4byte	0xa58
 3785 0a36 19       		.uleb128 0x19
 3786 0a37 B60F0000 		.4byte	.LASF1177
 3787 0a3b 01       		.byte	0x1
 3788 0a3c 49       		.byte	0x49
 3789 0a3d D4080000 		.4byte	0x8d4
 3790 0a41 19       		.uleb128 0x19
 3791 0a42 2D200000 		.4byte	.LASF1179
 3792 0a46 01       		.byte	0x1
 3793 0a47 49       		.byte	0x49
 3794 0a48 FD080000 		.4byte	0x8fd
 3795 0a4c 1F       		.uleb128 0x1f
 3796 0a4d B6720000 		.4byte	.LASF1197
 3797 0a51 01       		.byte	0x1
 3798 0a52 4B       		.byte	0x4b
 3799 0a53 9B000000 		.4byte	0x9b
 3800 0a57 00       		.byte	0
 3801 0a58 1A       		.uleb128 0x1a
 3802 0a59 CC6E0000 		.4byte	.LASF1194
 3803 0a5d 02       		.byte	0x2
 3804 0a5e A301     		.2byte	0x1a3
 3805 0a60 03       		.byte	0x3
 3806 0a61 7E0A0000 		.4byte	0xa7e
 3807 0a65 1B       		.uleb128 0x1b
 3808 0a66 B60F0000 		.4byte	.LASF1177
 3809 0a6a 02       		.byte	0x2
 3810 0a6b A301     		.2byte	0x1a3
 3811 0a6d D4080000 		.4byte	0x8d4
 3812 0a71 1B       		.uleb128 0x1b
 3813 0a72 73680000 		.4byte	.LASF1195
 3814 0a76 02       		.byte	0x2
 3815 0a77 A301     		.2byte	0x1a3
 3816 0a79 A6000000 		.4byte	0xa6
 3817 0a7d 00       		.byte	0
 3818 0a7e 20       		.uleb128 0x20
 3819 0a7f ED230000 		.4byte	.LASF1196
ARM GAS  /tmp/cc7TFFKb.s 			page 98


 3820 0a83 01       		.byte	0x1
 3821 0a84 96       		.byte	0x96
 3822 0a85 A6000000 		.4byte	0xa6
 3823 0a89 01       		.byte	0x1
 3824 0a8a A50A0000 		.4byte	0xaa5
 3825 0a8e 19       		.uleb128 0x19
 3826 0a8f B60F0000 		.4byte	.LASF1177
 3827 0a93 01       		.byte	0x1
 3828 0a94 96       		.byte	0x96
 3829 0a95 D4080000 		.4byte	0x8d4
 3830 0a99 1F       		.uleb128 0x1f
 3831 0a9a CE720000 		.4byte	.LASF1198
 3832 0a9e 01       		.byte	0x1
 3833 0a9f 98       		.byte	0x98
 3834 0aa0 A6000000 		.4byte	0xa6
 3835 0aa4 00       		.byte	0
 3836 0aa5 21       		.uleb128 0x21
 3837 0aa6 72340000 		.4byte	.LASF1239
 3838 0aaa 01       		.byte	0x1
 3839 0aab AB       		.byte	0xab
 3840 0aac 01       		.byte	0x1
 3841 0aad DE0A0000 		.4byte	0xade
 3842 0ab1 19       		.uleb128 0x19
 3843 0ab2 B60F0000 		.4byte	.LASF1177
 3844 0ab6 01       		.byte	0x1
 3845 0ab7 AB       		.byte	0xab
 3846 0ab8 D4080000 		.4byte	0x8d4
 3847 0abc 19       		.uleb128 0x19
 3848 0abd EB010000 		.4byte	.LASF1199
 3849 0ac1 01       		.byte	0x1
 3850 0ac2 AB       		.byte	0xab
 3851 0ac3 A6000000 		.4byte	0xa6
 3852 0ac7 19       		.uleb128 0x19
 3853 0ac8 8F770000 		.4byte	.LASF1200
 3854 0acc 01       		.byte	0x1
 3855 0acd AB       		.byte	0xab
 3856 0ace A6000000 		.4byte	0xa6
 3857 0ad2 1F       		.uleb128 0x1f
 3858 0ad3 E5780000 		.4byte	.LASF1201
 3859 0ad7 01       		.byte	0x1
 3860 0ad8 AD       		.byte	0xad
 3861 0ad9 A6000000 		.4byte	0xa6
 3862 0add 00       		.byte	0
 3863 0ade 20       		.uleb128 0x20
 3864 0adf 282B0000 		.4byte	.LASF1202
 3865 0ae3 01       		.byte	0x1
 3866 0ae4 69       		.byte	0x69
 3867 0ae5 23060000 		.4byte	0x623
 3868 0ae9 01       		.byte	0x1
 3869 0aea 050B0000 		.4byte	0xb05
 3870 0aee 19       		.uleb128 0x19
 3871 0aef B60F0000 		.4byte	.LASF1177
 3872 0af3 01       		.byte	0x1
 3873 0af4 69       		.byte	0x69
 3874 0af5 D4080000 		.4byte	0x8d4
 3875 0af9 1F       		.uleb128 0x1f
 3876 0afa 4A3E0000 		.4byte	.LASF1203
ARM GAS  /tmp/cc7TFFKb.s 			page 99


 3877 0afe 01       		.byte	0x1
 3878 0aff 6B       		.byte	0x6b
 3879 0b00 23060000 		.4byte	0x623
 3880 0b04 00       		.byte	0
 3881 0b05 1A       		.uleb128 0x1a
 3882 0b06 13590000 		.4byte	.LASF1204
 3883 0b0a 03       		.byte	0x3
 3884 0b0b 2701     		.2byte	0x127
 3885 0b0d 03       		.byte	0x3
 3886 0b0e 1F0B0000 		.4byte	0xb1f
 3887 0b12 1D       		.uleb128 0x1d
 3888 0b13 636C6B00 		.ascii	"clk\000"
 3889 0b17 03       		.byte	0x3
 3890 0b18 2701     		.2byte	0x127
 3891 0b1a 23060000 		.4byte	0x623
 3892 0b1e 00       		.byte	0
 3893 0b1f 18       		.uleb128 0x18
 3894 0b20 A7640000 		.4byte	.LASF1205
 3895 0b24 01       		.byte	0x1
 3896 0b25 89       		.byte	0x89
 3897 0b26 01       		.byte	0x1
 3898 0b27 420B0000 		.4byte	0xb42
 3899 0b2b 19       		.uleb128 0x19
 3900 0b2c B60F0000 		.4byte	.LASF1177
 3901 0b30 01       		.byte	0x1
 3902 0b31 89       		.byte	0x89
 3903 0b32 D4080000 		.4byte	0x8d4
 3904 0b36 22       		.uleb128 0x22
 3905 0b37 64697600 		.ascii	"div\000"
 3906 0b3b 01       		.byte	0x1
 3907 0b3c 89       		.byte	0x89
 3908 0b3d A6000000 		.4byte	0xa6
 3909 0b41 00       		.byte	0
 3910 0b42 20       		.uleb128 0x20
 3911 0b43 D5720000 		.4byte	.LASF1206
 3912 0b47 01       		.byte	0x1
 3913 0b48 7A       		.byte	0x7a
 3914 0b49 99050000 		.4byte	0x599
 3915 0b4d 01       		.byte	0x1
 3916 0b4e 690B0000 		.4byte	0xb69
 3917 0b52 19       		.uleb128 0x19
 3918 0b53 B60F0000 		.4byte	.LASF1177
 3919 0b57 01       		.byte	0x1
 3920 0b58 7A       		.byte	0x7a
 3921 0b59 D4080000 		.4byte	0x8d4
 3922 0b5d 1F       		.uleb128 0x1f
 3923 0b5e C1700000 		.4byte	.LASF1207
 3924 0b62 01       		.byte	0x1
 3925 0b63 7C       		.byte	0x7c
 3926 0b64 99050000 		.4byte	0x599
 3927 0b68 00       		.byte	0
 3928 0b69 18       		.uleb128 0x18
 3929 0b6a 13160000 		.4byte	.LASF1208
 3930 0b6e 04       		.byte	0x4
 3931 0b6f B3       		.byte	0xb3
 3932 0b70 03       		.byte	0x3
 3933 0b71 810B0000 		.4byte	0xb81
ARM GAS  /tmp/cc7TFFKb.s 			page 100


 3934 0b75 19       		.uleb128 0x19
 3935 0b76 86620000 		.4byte	.LASF1175
 3936 0b7a 04       		.byte	0x4
 3937 0b7b B3       		.byte	0xb3
 3938 0b7c 99050000 		.4byte	0x599
 3939 0b80 00       		.byte	0
 3940 0b81 1A       		.uleb128 0x1a
 3941 0b82 BD440000 		.4byte	.LASF1209
 3942 0b86 02       		.byte	0x2
 3943 0b87 9601     		.2byte	0x196
 3944 0b89 03       		.byte	0x3
 3945 0b8a BF0B0000 		.4byte	0xbbf
 3946 0b8e 1B       		.uleb128 0x1b
 3947 0b8f B60F0000 		.4byte	.LASF1177
 3948 0b93 02       		.byte	0x2
 3949 0b94 9601     		.2byte	0x196
 3950 0b96 D4080000 		.4byte	0x8d4
 3951 0b9a 1B       		.uleb128 0x1b
 3952 0b9b 964B0000 		.4byte	.LASF1210
 3953 0b9f 02       		.byte	0x2
 3954 0ba0 9601     		.2byte	0x196
 3955 0ba2 A6000000 		.4byte	0xa6
 3956 0ba6 1B       		.uleb128 0x1b
 3957 0ba7 3F1D0000 		.4byte	.LASF1211
 3958 0bab 02       		.byte	0x2
 3959 0bac 9601     		.2byte	0x196
 3960 0bae A6000000 		.4byte	0xa6
 3961 0bb2 1B       		.uleb128 0x1b
 3962 0bb3 75790000 		.4byte	.LASF1212
 3963 0bb7 02       		.byte	0x2
 3964 0bb8 9601     		.2byte	0x196
 3965 0bba A6000000 		.4byte	0xa6
 3966 0bbe 00       		.byte	0
 3967 0bbf 18       		.uleb128 0x18
 3968 0bc0 E5040000 		.4byte	.LASF1213
 3969 0bc4 02       		.byte	0x2
 3970 0bc5 F2       		.byte	0xf2
 3971 0bc6 03       		.byte	0x3
 3972 0bc7 D70B0000 		.4byte	0xbd7
 3973 0bcb 19       		.uleb128 0x19
 3974 0bcc B60F0000 		.4byte	.LASF1177
 3975 0bd0 02       		.byte	0x2
 3976 0bd1 F2       		.byte	0xf2
 3977 0bd2 D4080000 		.4byte	0x8d4
 3978 0bd6 00       		.byte	0
 3979 0bd7 1A       		.uleb128 0x1a
 3980 0bd8 77330000 		.4byte	.LASF1214
 3981 0bdc 03       		.byte	0x3
 3982 0bdd 3101     		.2byte	0x131
 3983 0bdf 03       		.byte	0x3
 3984 0be0 F10B0000 		.4byte	0xbf1
 3985 0be4 1D       		.uleb128 0x1d
 3986 0be5 636C6B00 		.ascii	"clk\000"
 3987 0be9 03       		.byte	0x3
 3988 0bea 3101     		.2byte	0x131
 3989 0bec 23060000 		.4byte	0x623
 3990 0bf0 00       		.byte	0
ARM GAS  /tmp/cc7TFFKb.s 			page 101


 3991 0bf1 23       		.uleb128 0x23
 3992 0bf2 2E670000 		.4byte	.LASF1240
 3993 0bf6 01       		.byte	0x1
 3994 0bf7 59       		.byte	0x59
 3995 0bf8 00000000 		.4byte	.LFB201
 3996 0bfc 32000000 		.4byte	.LFE201-.LFB201
 3997 0c00 01       		.uleb128 0x1
 3998 0c01 9C       		.byte	0x9c
 3999 0c02 660C0000 		.4byte	0xc66
 4000 0c06 24       		.uleb128 0x24
 4001 0c07 B60F0000 		.4byte	.LASF1177
 4002 0c0b 01       		.byte	0x1
 4003 0c0c 59       		.byte	0x59
 4004 0c0d D4080000 		.4byte	0x8d4
 4005 0c11 01       		.uleb128 0x1
 4006 0c12 50       		.byte	0x50
 4007 0c13 24       		.uleb128 0x24
 4008 0c14 2D200000 		.4byte	.LASF1179
 4009 0c18 01       		.byte	0x1
 4010 0c19 59       		.byte	0x59
 4011 0c1a FD080000 		.4byte	0x8fd
 4012 0c1e 01       		.uleb128 0x1
 4013 0c1f 51       		.byte	0x51
 4014 0c20 1F       		.uleb128 0x1f
 4015 0c21 B6720000 		.4byte	.LASF1197
 4016 0c25 01       		.byte	0x1
 4017 0c26 5B       		.byte	0x5b
 4018 0c27 9B000000 		.4byte	0x9b
 4019 0c2b 25       		.uleb128 0x25
 4020 0c2c 44090000 		.4byte	0x944
 4021 0c30 00000000 		.4byte	.LBB224
 4022 0c34 00000000 		.4byte	.Ldebug_ranges0+0
 4023 0c38 01       		.byte	0x1
 4024 0c39 5D       		.byte	0x5d
 4025 0c3a 4C0C0000 		.4byte	0xc4c
 4026 0c3e 26       		.uleb128 0x26
 4027 0c3f 61090000 		.4byte	0x961
 4028 0c43 04       		.byte	0x4
 4029 0c44 27       		.uleb128 0x27
 4030 0c45 55090000 		.4byte	0x955
 4031 0c49 01       		.uleb128 0x1
 4032 0c4a 50       		.byte	0x50
 4033 0c4b 00       		.byte	0
 4034 0c4c 28       		.uleb128 0x28
 4035 0c4d 26090000 		.4byte	0x926
 4036 0c51 1C000000 		.4byte	.LBB229
 4037 0c55 02000000 		.4byte	.LBE229-.LBB229
 4038 0c59 01       		.byte	0x1
 4039 0c5a 5F       		.byte	0x5f
 4040 0c5b 29       		.uleb128 0x29
 4041 0c5c 37090000 		.4byte	0x937
 4042 0c60 00000000 		.4byte	.LLST0
 4043 0c64 00       		.byte	0
 4044 0c65 00       		.byte	0
 4045 0c66 2A       		.uleb128 0x2a
 4046 0c67 A50A0000 		.4byte	0xaa5
 4047 0c6b 00000000 		.4byte	.LFB206
ARM GAS  /tmp/cc7TFFKb.s 			page 102


 4048 0c6f 18000000 		.4byte	.LFE206-.LFB206
 4049 0c73 01       		.uleb128 0x1
 4050 0c74 9C       		.byte	0x9c
 4051 0c75 9A0C0000 		.4byte	0xc9a
 4052 0c79 27       		.uleb128 0x27
 4053 0c7a B10A0000 		.4byte	0xab1
 4054 0c7e 01       		.uleb128 0x1
 4055 0c7f 50       		.byte	0x50
 4056 0c80 29       		.uleb128 0x29
 4057 0c81 BC0A0000 		.4byte	0xabc
 4058 0c85 13000000 		.4byte	.LLST1
 4059 0c89 27       		.uleb128 0x27
 4060 0c8a C70A0000 		.4byte	0xac7
 4061 0c8e 01       		.uleb128 0x1
 4062 0c8f 52       		.byte	0x52
 4063 0c90 2B       		.uleb128 0x2b
 4064 0c91 D20A0000 		.4byte	0xad2
 4065 0c95 34000000 		.4byte	.LLST2
 4066 0c99 00       		.byte	0
 4067 0c9a 2C       		.uleb128 0x2c
 4068 0c9b 83720000 		.4byte	.LASF1215
 4069 0c9f 01       		.byte	0x1
 4070 0ca0 B4       		.byte	0xb4
 4071 0ca1 A6000000 		.4byte	0xa6
 4072 0ca5 00000000 		.4byte	.LFB207
 4073 0ca9 18010000 		.4byte	.LFE207-.LFB207
 4074 0cad 01       		.uleb128 0x1
 4075 0cae 9C       		.byte	0x9c
 4076 0caf 510F0000 		.4byte	0xf51
 4077 0cb3 2D       		.uleb128 0x2d
 4078 0cb4 B60F0000 		.4byte	.LASF1177
 4079 0cb8 01       		.byte	0x1
 4080 0cb9 B4       		.byte	0xb4
 4081 0cba D4080000 		.4byte	0x8d4
 4082 0cbe 59000000 		.4byte	.LLST3
 4083 0cc2 2D       		.uleb128 0x2d
 4084 0cc3 2D200000 		.4byte	.LASF1179
 4085 0cc7 01       		.byte	0x1
 4086 0cc8 B4       		.byte	0xb4
 4087 0cc9 FD080000 		.4byte	0x8fd
 4088 0ccd 9B000000 		.4byte	.LLST4
 4089 0cd1 25       		.uleb128 0x25
 4090 0cd2 44090000 		.4byte	0x944
 4091 0cd6 04000000 		.4byte	.LBB232
 4092 0cda 20000000 		.4byte	.Ldebug_ranges0+0x20
 4093 0cde 01       		.byte	0x1
 4094 0cdf B7       		.byte	0xb7
 4095 0ce0 F40C0000 		.4byte	0xcf4
 4096 0ce4 26       		.uleb128 0x26
 4097 0ce5 61090000 		.4byte	0x961
 4098 0ce9 04       		.byte	0x4
 4099 0cea 29       		.uleb128 0x29
 4100 0ceb 55090000 		.4byte	0x955
 4101 0cef 59000000 		.4byte	.LLST3
 4102 0cf3 00       		.byte	0
 4103 0cf4 2E       		.uleb128 0x2e
 4104 0cf5 26090000 		.4byte	0x926
ARM GAS  /tmp/cc7TFFKb.s 			page 103


 4105 0cf9 12000000 		.4byte	.LBB237
 4106 0cfd 02000000 		.4byte	.LBE237-.LBB237
 4107 0d01 01       		.byte	0x1
 4108 0d02 B8       		.byte	0xb8
 4109 0d03 110D0000 		.4byte	0xd11
 4110 0d07 29       		.uleb128 0x29
 4111 0d08 37090000 		.4byte	0x937
 4112 0d0c DD000000 		.4byte	.LLST6
 4113 0d10 00       		.byte	0
 4114 0d11 25       		.uleb128 0x25
 4115 0d12 BC090000 		.4byte	0x9bc
 4116 0d16 1A000000 		.4byte	.LBB240
 4117 0d1a 40000000 		.4byte	.Ldebug_ranges0+0x40
 4118 0d1e 01       		.byte	0x1
 4119 0d1f BC       		.byte	0xbc
 4120 0d20 340D0000 		.4byte	0xd34
 4121 0d24 26       		.uleb128 0x26
 4122 0d25 D5090000 		.4byte	0x9d5
 4123 0d29 03       		.byte	0x3
 4124 0d2a 29       		.uleb128 0x29
 4125 0d2b C9090000 		.4byte	0x9c9
 4126 0d2f F0000000 		.4byte	.LLST7
 4127 0d33 00       		.byte	0
 4128 0d34 2E       		.uleb128 0x2e
 4129 0d35 E2090000 		.4byte	0x9e2
 4130 0d39 20000000 		.4byte	.LBB244
 4131 0d3d 02000000 		.4byte	.LBE244-.LBB244
 4132 0d41 01       		.byte	0x1
 4133 0d42 BE       		.byte	0xbe
 4134 0d43 510D0000 		.4byte	0xd51
 4135 0d47 29       		.uleb128 0x29
 4136 0d48 F3090000 		.4byte	0x9f3
 4137 0d4c 32010000 		.4byte	.LLST8
 4138 0d50 00       		.byte	0
 4139 0d51 25       		.uleb128 0x25
 4140 0d52 DA080000 		.4byte	0x8da
 4141 0d56 28000000 		.4byte	.LBB246
 4142 0d5a 58000000 		.4byte	.Ldebug_ranges0+0x58
 4143 0d5e 01       		.byte	0x1
 4144 0d5f C2       		.byte	0xc2
 4145 0d60 C80D0000 		.4byte	0xdc8
 4146 0d64 29       		.uleb128 0x29
 4147 0d65 F1080000 		.4byte	0x8f1
 4148 0d69 74010000 		.4byte	.LLST9
 4149 0d6d 29       		.uleb128 0x29
 4150 0d6e F1080000 		.4byte	0x8f1
 4151 0d72 74010000 		.4byte	.LLST9
 4152 0d76 29       		.uleb128 0x29
 4153 0d77 E6080000 		.4byte	0x8e6
 4154 0d7b 92010000 		.4byte	.LLST11
 4155 0d7f 25       		.uleb128 0x25
 4156 0d80 AE080000 		.4byte	0x8ae
 4157 0d84 28000000 		.4byte	.LBB248
 4158 0d88 88000000 		.4byte	.Ldebug_ranges0+0x88
 4159 0d8c 01       		.byte	0x1
 4160 0d8d 35       		.byte	0x35
 4161 0d8e A50D0000 		.4byte	0xda5
ARM GAS  /tmp/cc7TFFKb.s 			page 104


 4162 0d92 29       		.uleb128 0x29
 4163 0d93 C7080000 		.4byte	0x8c7
 4164 0d97 B0010000 		.4byte	.LLST12
 4165 0d9b 29       		.uleb128 0x29
 4166 0d9c BB080000 		.4byte	0x8bb
 4167 0da0 C5010000 		.4byte	.LLST13
 4168 0da4 00       		.byte	0
 4169 0da5 28       		.uleb128 0x28
 4170 0da6 AE080000 		.4byte	0x8ae
 4171 0daa 8E000000 		.4byte	.LBB253
 4172 0dae 04000000 		.4byte	.LBE253-.LBB253
 4173 0db2 01       		.byte	0x1
 4174 0db3 31       		.byte	0x31
 4175 0db4 29       		.uleb128 0x29
 4176 0db5 C7080000 		.4byte	0x8c7
 4177 0db9 D8010000 		.4byte	.LLST14
 4178 0dbd 29       		.uleb128 0x29
 4179 0dbe BB080000 		.4byte	0x8bb
 4180 0dc2 FA010000 		.4byte	.LLST15
 4181 0dc6 00       		.byte	0
 4182 0dc7 00       		.byte	0
 4183 0dc8 25       		.uleb128 0x25
 4184 0dc9 44090000 		.4byte	0x944
 4185 0dcd 2A000000 		.4byte	.LBB260
 4186 0dd1 A8000000 		.4byte	.Ldebug_ranges0+0xa8
 4187 0dd5 01       		.byte	0x1
 4188 0dd6 C1       		.byte	0xc1
 4189 0dd7 EE0D0000 		.4byte	0xdee
 4190 0ddb 29       		.uleb128 0x29
 4191 0ddc 61090000 		.4byte	0x961
 4192 0de0 0D020000 		.4byte	.LLST16
 4193 0de4 29       		.uleb128 0x29
 4194 0de5 55090000 		.4byte	0x955
 4195 0de9 2D020000 		.4byte	.LLST17
 4196 0ded 00       		.byte	0
 4197 0dee 25       		.uleb128 0x25
 4198 0def 000A0000 		.4byte	0xa00
 4199 0df3 2E000000 		.4byte	.LBB265
 4200 0df7 C8000000 		.4byte	.Ldebug_ranges0+0xc8
 4201 0dfb 01       		.byte	0x1
 4202 0dfc C6       		.byte	0xc6
 4203 0dfd 140E0000 		.4byte	0xe14
 4204 0e01 29       		.uleb128 0x29
 4205 0e02 1D0A0000 		.4byte	0xa1d
 4206 0e06 4B020000 		.4byte	.LLST18
 4207 0e0a 29       		.uleb128 0x29
 4208 0e0b 110A0000 		.4byte	0xa11
 4209 0e0f 6B020000 		.4byte	.LLST19
 4210 0e13 00       		.byte	0
 4211 0e14 25       		.uleb128 0x25
 4212 0e15 2A0A0000 		.4byte	0xa2a
 4213 0e19 30000000 		.4byte	.LBB270
 4214 0e1d F0000000 		.4byte	.Ldebug_ranges0+0xf0
 4215 0e21 01       		.byte	0x1
 4216 0e22 CB       		.byte	0xcb
 4217 0e23 7C0E0000 		.4byte	0xe7c
 4218 0e27 2F       		.uleb128 0x2f
ARM GAS  /tmp/cc7TFFKb.s 			page 105


 4219 0e28 410A0000 		.4byte	0xa41
 4220 0e2c 2F       		.uleb128 0x2f
 4221 0e2d 360A0000 		.4byte	0xa36
 4222 0e31 30       		.uleb128 0x30
 4223 0e32 F0000000 		.4byte	.Ldebug_ranges0+0xf0
 4224 0e36 31       		.uleb128 0x31
 4225 0e37 4C0A0000 		.4byte	0xa4c
 4226 0e3b 25       		.uleb128 0x25
 4227 0e3c 44090000 		.4byte	0x944
 4228 0e40 30000000 		.4byte	.LBB272
 4229 0e44 08010000 		.4byte	.Ldebug_ranges0+0x108
 4230 0e48 01       		.byte	0x1
 4231 0e49 4D       		.byte	0x4d
 4232 0e4a 610E0000 		.4byte	0xe61
 4233 0e4e 29       		.uleb128 0x29
 4234 0e4f 61090000 		.4byte	0x961
 4235 0e53 89020000 		.4byte	.LLST20
 4236 0e57 29       		.uleb128 0x29
 4237 0e58 55090000 		.4byte	0x955
 4238 0e5c 9D020000 		.4byte	.LLST21
 4239 0e60 00       		.byte	0
 4240 0e61 28       		.uleb128 0x28
 4241 0e62 26090000 		.4byte	0x926
 4242 0e66 64000000 		.4byte	.LBB277
 4243 0e6a 04000000 		.4byte	.LBE277-.LBB277
 4244 0e6e 01       		.byte	0x1
 4245 0e6f 4F       		.byte	0x4f
 4246 0e70 29       		.uleb128 0x29
 4247 0e71 37090000 		.4byte	0x937
 4248 0e75 B0020000 		.4byte	.LLST22
 4249 0e79 00       		.byte	0
 4250 0e7a 00       		.byte	0
 4251 0e7b 00       		.byte	0
 4252 0e7c 25       		.uleb128 0x25
 4253 0e7d 03090000 		.4byte	0x903
 4254 0e81 A8000000 		.4byte	.LBB289
 4255 0e85 28010000 		.4byte	.Ldebug_ranges0+0x128
 4256 0e89 01       		.byte	0x1
 4257 0e8a D2       		.byte	0xd2
 4258 0e8b EE0E0000 		.4byte	0xeee
 4259 0e8f 29       		.uleb128 0x29
 4260 0e90 1A090000 		.4byte	0x91a
 4261 0e94 C3020000 		.4byte	.LLST23
 4262 0e98 29       		.uleb128 0x29
 4263 0e99 1A090000 		.4byte	0x91a
 4264 0e9d C3020000 		.4byte	.LLST23
 4265 0ea1 29       		.uleb128 0x29
 4266 0ea2 0F090000 		.4byte	0x90f
 4267 0ea6 E1020000 		.4byte	.LLST25
 4268 0eaa 25       		.uleb128 0x25
 4269 0eab AE080000 		.4byte	0x8ae
 4270 0eaf A8000000 		.4byte	.LBB291
 4271 0eb3 50010000 		.4byte	.Ldebug_ranges0+0x150
 4272 0eb7 01       		.byte	0x1
 4273 0eb8 42       		.byte	0x42
 4274 0eb9 CB0E0000 		.4byte	0xecb
 4275 0ebd 26       		.uleb128 0x26
ARM GAS  /tmp/cc7TFFKb.s 			page 106


 4276 0ebe C7080000 		.4byte	0x8c7
 4277 0ec2 FF       		.byte	0xff
 4278 0ec3 27       		.uleb128 0x27
 4279 0ec4 BB080000 		.4byte	0x8bb
 4280 0ec8 01       		.uleb128 0x1
 4281 0ec9 54       		.byte	0x54
 4282 0eca 00       		.byte	0
 4283 0ecb 28       		.uleb128 0x28
 4284 0ecc AE080000 		.4byte	0x8ae
 4285 0ed0 E8000000 		.4byte	.LBB296
 4286 0ed4 04000000 		.4byte	.LBE296-.LBB296
 4287 0ed8 01       		.byte	0x1
 4288 0ed9 3F       		.byte	0x3f
 4289 0eda 29       		.uleb128 0x29
 4290 0edb C7080000 		.4byte	0x8c7
 4291 0edf FF020000 		.4byte	.LLST26
 4292 0ee3 29       		.uleb128 0x29
 4293 0ee4 BB080000 		.4byte	0x8bb
 4294 0ee8 32030000 		.4byte	.LLST27
 4295 0eec 00       		.byte	0
 4296 0eed 00       		.byte	0
 4297 0eee 25       		.uleb128 0x25
 4298 0eef 44090000 		.4byte	0x944
 4299 0ef3 AA000000 		.4byte	.LBB302
 4300 0ef7 70010000 		.4byte	.Ldebug_ranges0+0x170
 4301 0efb 01       		.byte	0x1
 4302 0efc D1       		.byte	0xd1
 4303 0efd 140F0000 		.4byte	0xf14
 4304 0f01 29       		.uleb128 0x29
 4305 0f02 61090000 		.4byte	0x961
 4306 0f06 45030000 		.4byte	.LLST28
 4307 0f0a 29       		.uleb128 0x29
 4308 0f0b 55090000 		.4byte	0x955
 4309 0f0f 71030000 		.4byte	.LLST29
 4310 0f13 00       		.byte	0
 4311 0f14 25       		.uleb128 0x25
 4312 0f15 000A0000 		.4byte	0xa00
 4313 0f19 AE000000 		.4byte	.LBB307
 4314 0f1d 90010000 		.4byte	.Ldebug_ranges0+0x190
 4315 0f21 01       		.byte	0x1
 4316 0f22 D6       		.byte	0xd6
 4317 0f23 3A0F0000 		.4byte	0xf3a
 4318 0f27 29       		.uleb128 0x29
 4319 0f28 1D0A0000 		.4byte	0xa1d
 4320 0f2c 9A030000 		.4byte	.LLST30
 4321 0f30 29       		.uleb128 0x29
 4322 0f31 110A0000 		.4byte	0xa11
 4323 0f35 AE030000 		.4byte	.LLST31
 4324 0f39 00       		.byte	0
 4325 0f3a 32       		.uleb128 0x32
 4326 0f3b CE000000 		.4byte	.LVL32
 4327 0f3f F10B0000 		.4byte	0xbf1
 4328 0f43 33       		.uleb128 0x33
 4329 0f44 01       		.uleb128 0x1
 4330 0f45 51       		.byte	0x51
 4331 0f46 02       		.uleb128 0x2
 4332 0f47 76       		.byte	0x76
ARM GAS  /tmp/cc7TFFKb.s 			page 107


 4333 0f48 00       		.sleb128 0
 4334 0f49 33       		.uleb128 0x33
 4335 0f4a 01       		.uleb128 0x1
 4336 0f4b 50       		.byte	0x50
 4337 0f4c 02       		.uleb128 0x2
 4338 0f4d 74       		.byte	0x74
 4339 0f4e 00       		.sleb128 0
 4340 0f4f 00       		.byte	0
 4341 0f50 00       		.byte	0
 4342 0f51 2C       		.uleb128 0x2c
 4343 0f52 AB760000 		.4byte	.LASF1216
 4344 0f56 01       		.byte	0x1
 4345 0f57 E9       		.byte	0xe9
 4346 0f58 A6000000 		.4byte	0xa6
 4347 0f5c 00000000 		.4byte	.LFB208
 4348 0f60 C6000000 		.4byte	.LFE208-.LFB208
 4349 0f64 01       		.uleb128 0x1
 4350 0f65 9C       		.byte	0x9c
 4351 0f66 CD110000 		.4byte	0x11cd
 4352 0f6a 2D       		.uleb128 0x2d
 4353 0f6b B60F0000 		.4byte	.LASF1177
 4354 0f6f 01       		.byte	0x1
 4355 0f70 E9       		.byte	0xe9
 4356 0f71 D4080000 		.4byte	0x8d4
 4357 0f75 C1030000 		.4byte	.LLST32
 4358 0f79 2D       		.uleb128 0x2d
 4359 0f7a DE2E0000 		.4byte	.LASF1217
 4360 0f7e 01       		.byte	0x1
 4361 0f7f E9       		.byte	0xe9
 4362 0f80 78080000 		.4byte	0x878
 4363 0f84 FB030000 		.4byte	.LLST33
 4364 0f88 24       		.uleb128 0x24
 4365 0f89 C1310000 		.4byte	.LASF1218
 4366 0f8d 01       		.byte	0x1
 4367 0f8e E9       		.byte	0xe9
 4368 0f8f A6000000 		.4byte	0xa6
 4369 0f93 01       		.uleb128 0x1
 4370 0f94 52       		.byte	0x52
 4371 0f95 34       		.uleb128 0x34
 4372 0f96 1A600000 		.4byte	.LASF1168
 4373 0f9a 01       		.byte	0x1
 4374 0f9b EB       		.byte	0xeb
 4375 0f9c A6000000 		.4byte	0xa6
 4376 0fa0 4B040000 		.4byte	.LLST34
 4377 0fa4 34       		.uleb128 0x34
 4378 0fa5 CB420000 		.4byte	.LASF1170
 4379 0fa9 01       		.byte	0x1
 4380 0faa EB       		.byte	0xeb
 4381 0fab A6000000 		.4byte	0xa6
 4382 0faf 81040000 		.4byte	.LLST35
 4383 0fb3 25       		.uleb128 0x25
 4384 0fb4 44090000 		.4byte	0x944
 4385 0fb8 06000000 		.4byte	.LBB316
 4386 0fbc A8010000 		.4byte	.Ldebug_ranges0+0x1a8
 4387 0fc0 01       		.byte	0x1
 4388 0fc1 EE       		.byte	0xee
 4389 0fc2 D60F0000 		.4byte	0xfd6
ARM GAS  /tmp/cc7TFFKb.s 			page 108


 4390 0fc6 26       		.uleb128 0x26
 4391 0fc7 61090000 		.4byte	0x961
 4392 0fcb 04       		.byte	0x4
 4393 0fcc 29       		.uleb128 0x29
 4394 0fcd 55090000 		.4byte	0x955
 4395 0fd1 C1030000 		.4byte	.LLST32
 4396 0fd5 00       		.byte	0
 4397 0fd6 2E       		.uleb128 0x2e
 4398 0fd7 26090000 		.4byte	0x926
 4399 0fdb 12000000 		.4byte	.LBB321
 4400 0fdf 02000000 		.4byte	.LBE321-.LBB321
 4401 0fe3 01       		.byte	0x1
 4402 0fe4 EF       		.byte	0xef
 4403 0fe5 F30F0000 		.4byte	0xff3
 4404 0fe9 29       		.uleb128 0x29
 4405 0fea 37090000 		.4byte	0x937
 4406 0fee CF040000 		.4byte	.LLST37
 4407 0ff2 00       		.byte	0
 4408 0ff3 25       		.uleb128 0x25
 4409 0ff4 BC090000 		.4byte	0x9bc
 4410 0ff8 1A000000 		.4byte	.LBB324
 4411 0ffc C8010000 		.4byte	.Ldebug_ranges0+0x1c8
 4412 1000 01       		.byte	0x1
 4413 1001 F3       		.byte	0xf3
 4414 1002 16100000 		.4byte	0x1016
 4415 1006 26       		.uleb128 0x26
 4416 1007 D5090000 		.4byte	0x9d5
 4417 100b 03       		.byte	0x3
 4418 100c 29       		.uleb128 0x29
 4419 100d C9090000 		.4byte	0x9c9
 4420 1011 E2040000 		.4byte	.LLST38
 4421 1015 00       		.byte	0
 4422 1016 2E       		.uleb128 0x2e
 4423 1017 E2090000 		.4byte	0x9e2
 4424 101b 20000000 		.4byte	.LBB328
 4425 101f 02000000 		.4byte	.LBE328-.LBB328
 4426 1023 01       		.byte	0x1
 4427 1024 F5       		.byte	0xf5
 4428 1025 33100000 		.4byte	0x1033
 4429 1029 29       		.uleb128 0x29
 4430 102a F3090000 		.4byte	0x9f3
 4431 102e 1C050000 		.4byte	.LLST39
 4432 1032 00       		.byte	0
 4433 1033 35       		.uleb128 0x35
 4434 1034 E0010000 		.4byte	.Ldebug_ranges0+0x1e0
 4435 1038 03110000 		.4byte	0x1103
 4436 103c 36       		.uleb128 0x36
 4437 103d 6F000000 		.4byte	.LASF1219
 4438 1041 01       		.byte	0x1
 4439 1042 0F01     		.2byte	0x10f
 4440 1044 78080000 		.4byte	0x878
 4441 1048 56050000 		.4byte	.LLST40
 4442 104c 37       		.uleb128 0x37
 4443 104d 44090000 		.4byte	0x944
 4444 1051 28000000 		.4byte	.LBB331
 4445 1055 00020000 		.4byte	.Ldebug_ranges0+0x200
 4446 1059 01       		.byte	0x1
ARM GAS  /tmp/cc7TFFKb.s 			page 109


 4447 105a 1501     		.2byte	0x115
 4448 105c 73100000 		.4byte	0x1073
 4449 1060 29       		.uleb128 0x29
 4450 1061 61090000 		.4byte	0x961
 4451 1065 69050000 		.4byte	.LLST41
 4452 1069 29       		.uleb128 0x29
 4453 106a 55090000 		.4byte	0x955
 4454 106e 7D050000 		.4byte	.LLST42
 4455 1072 00       		.byte	0
 4456 1073 37       		.uleb128 0x37
 4457 1074 000A0000 		.4byte	0xa00
 4458 1078 30000000 		.4byte	.LBB337
 4459 107c 28020000 		.4byte	.Ldebug_ranges0+0x228
 4460 1080 01       		.byte	0x1
 4461 1081 1C01     		.2byte	0x11c
 4462 1083 9A100000 		.4byte	0x109a
 4463 1087 29       		.uleb128 0x29
 4464 1088 1D0A0000 		.4byte	0xa1d
 4465 108c 90050000 		.4byte	.LLST43
 4466 1090 29       		.uleb128 0x29
 4467 1091 110A0000 		.4byte	0xa11
 4468 1095 B0050000 		.4byte	.LLST44
 4469 1099 00       		.byte	0
 4470 109a 37       		.uleb128 0x37
 4471 109b 44090000 		.4byte	0x944
 4472 109f 32000000 		.4byte	.LBB341
 4473 10a3 48020000 		.4byte	.Ldebug_ranges0+0x248
 4474 10a7 01       		.byte	0x1
 4475 10a8 2101     		.2byte	0x121
 4476 10aa C1100000 		.4byte	0x10c1
 4477 10ae 29       		.uleb128 0x29
 4478 10af 61090000 		.4byte	0x961
 4479 10b3 CE050000 		.4byte	.LLST45
 4480 10b7 29       		.uleb128 0x29
 4481 10b8 55090000 		.4byte	0x955
 4482 10bc E2050000 		.4byte	.LLST46
 4483 10c0 00       		.byte	0
 4484 10c1 38       		.uleb128 0x38
 4485 10c2 26090000 		.4byte	0x926
 4486 10c6 4E000000 		.4byte	.LBB348
 4487 10ca 02000000 		.4byte	.LBE348-.LBB348
 4488 10ce 01       		.byte	0x1
 4489 10cf 2201     		.2byte	0x122
 4490 10d1 DF100000 		.4byte	0x10df
 4491 10d5 29       		.uleb128 0x29
 4492 10d6 37090000 		.4byte	0x937
 4493 10da F5050000 		.4byte	.LLST47
 4494 10de 00       		.byte	0
 4495 10df 39       		.uleb128 0x39
 4496 10e0 AE080000 		.4byte	0x8ae
 4497 10e4 64000000 		.4byte	.LBB352
 4498 10e8 68020000 		.4byte	.Ldebug_ranges0+0x268
 4499 10ec 01       		.byte	0x1
 4500 10ed 1601     		.2byte	0x116
 4501 10ef 29       		.uleb128 0x29
 4502 10f0 C7080000 		.4byte	0x8c7
 4503 10f4 08060000 		.4byte	.LLST48
ARM GAS  /tmp/cc7TFFKb.s 			page 110


 4504 10f8 29       		.uleb128 0x29
 4505 10f9 BB080000 		.4byte	0x8bb
 4506 10fd 43060000 		.4byte	.LLST49
 4507 1101 00       		.byte	0
 4508 1102 00       		.byte	0
 4509 1103 30       		.uleb128 0x30
 4510 1104 80020000 		.4byte	.Ldebug_ranges0+0x280
 4511 1108 34       		.uleb128 0x34
 4512 1109 05520000 		.4byte	.LASF1220
 4513 110d 01       		.byte	0x1
 4514 110e F6       		.byte	0xf6
 4515 110f CD110000 		.4byte	0x11cd
 4516 1113 56060000 		.4byte	.LLST50
 4517 1117 25       		.uleb128 0x25
 4518 1118 44090000 		.4byte	0x944
 4519 111c 82000000 		.4byte	.LBB359
 4520 1120 A0020000 		.4byte	.Ldebug_ranges0+0x2a0
 4521 1124 01       		.byte	0x1
 4522 1125 FC       		.byte	0xfc
 4523 1126 3D110000 		.4byte	0x113d
 4524 112a 29       		.uleb128 0x29
 4525 112b 61090000 		.4byte	0x961
 4526 112f 69060000 		.4byte	.LLST51
 4527 1133 29       		.uleb128 0x29
 4528 1134 55090000 		.4byte	0x955
 4529 1138 7D060000 		.4byte	.LLST52
 4530 113c 00       		.byte	0
 4531 113d 37       		.uleb128 0x37
 4532 113e 000A0000 		.4byte	0xa00
 4533 1142 8A000000 		.4byte	.LBB365
 4534 1146 C8020000 		.4byte	.Ldebug_ranges0+0x2c8
 4535 114a 01       		.byte	0x1
 4536 114b 0301     		.2byte	0x103
 4537 114d 64110000 		.4byte	0x1164
 4538 1151 29       		.uleb128 0x29
 4539 1152 1D0A0000 		.4byte	0xa1d
 4540 1156 90060000 		.4byte	.LLST53
 4541 115a 29       		.uleb128 0x29
 4542 115b 110A0000 		.4byte	0xa11
 4543 115f A4060000 		.4byte	.LLST54
 4544 1163 00       		.byte	0
 4545 1164 37       		.uleb128 0x37
 4546 1165 44090000 		.4byte	0x944
 4547 1169 8C000000 		.4byte	.LBB368
 4548 116d E0020000 		.4byte	.Ldebug_ranges0+0x2e0
 4549 1171 01       		.byte	0x1
 4550 1172 0801     		.2byte	0x108
 4551 1174 8B110000 		.4byte	0x118b
 4552 1178 29       		.uleb128 0x29
 4553 1179 61090000 		.4byte	0x961
 4554 117d B7060000 		.4byte	.LLST55
 4555 1181 29       		.uleb128 0x29
 4556 1182 55090000 		.4byte	0x955
 4557 1186 CB060000 		.4byte	.LLST56
 4558 118a 00       		.byte	0
 4559 118b 38       		.uleb128 0x38
 4560 118c 26090000 		.4byte	0x926
ARM GAS  /tmp/cc7TFFKb.s 			page 111


 4561 1190 A4000000 		.4byte	.LBB374
 4562 1194 02000000 		.4byte	.LBE374-.LBB374
 4563 1198 01       		.byte	0x1
 4564 1199 0901     		.2byte	0x109
 4565 119b A9110000 		.4byte	0x11a9
 4566 119f 29       		.uleb128 0x29
 4567 11a0 37090000 		.4byte	0x937
 4568 11a4 DE060000 		.4byte	.LLST57
 4569 11a8 00       		.byte	0
 4570 11a9 3A       		.uleb128 0x3a
 4571 11aa AE080000 		.4byte	0x8ae
 4572 11ae B2000000 		.4byte	.LBB377
 4573 11b2 F8020000 		.4byte	.Ldebug_ranges0+0x2f8
 4574 11b6 01       		.byte	0x1
 4575 11b7 FD       		.byte	0xfd
 4576 11b8 29       		.uleb128 0x29
 4577 11b9 C7080000 		.4byte	0x8c7
 4578 11bd F1060000 		.4byte	.LLST58
 4579 11c1 29       		.uleb128 0x29
 4580 11c2 BB080000 		.4byte	0x8bb
 4581 11c6 10070000 		.4byte	.LLST59
 4582 11ca 00       		.byte	0
 4583 11cb 00       		.byte	0
 4584 11cc 00       		.byte	0
 4585 11cd 17       		.uleb128 0x17
 4586 11ce 04       		.byte	0x4
 4587 11cf 9B000000 		.4byte	0x9b
 4588 11d3 3B       		.uleb128 0x3b
 4589 11d4 42440000 		.4byte	.LASF1221
 4590 11d8 01       		.byte	0x1
 4591 11d9 2D01     		.2byte	0x12d
 4592 11db A6000000 		.4byte	0xa6
 4593 11df 00000000 		.4byte	.LFB209
 4594 11e3 DC000000 		.4byte	.LFE209-.LFB209
 4595 11e7 01       		.uleb128 0x1
 4596 11e8 9C       		.byte	0x9c
 4597 11e9 5C140000 		.4byte	0x145c
 4598 11ed 3C       		.uleb128 0x3c
 4599 11ee B60F0000 		.4byte	.LASF1177
 4600 11f2 01       		.byte	0x1
 4601 11f3 2D01     		.2byte	0x12d
 4602 11f5 D4080000 		.4byte	0x8d4
 4603 11f9 23070000 		.4byte	.LLST60
 4604 11fd 3C       		.uleb128 0x3c
 4605 11fe DE2E0000 		.4byte	.LASF1217
 4606 1202 01       		.byte	0x1
 4607 1203 2D01     		.2byte	0x12d
 4608 1205 78080000 		.4byte	0x878
 4609 1209 5D070000 		.4byte	.LLST61
 4610 120d 3D       		.uleb128 0x3d
 4611 120e C1310000 		.4byte	.LASF1218
 4612 1212 01       		.byte	0x1
 4613 1213 2D01     		.2byte	0x12d
 4614 1215 A6000000 		.4byte	0xa6
 4615 1219 01       		.uleb128 0x1
 4616 121a 52       		.byte	0x52
 4617 121b 36       		.uleb128 0x36
ARM GAS  /tmp/cc7TFFKb.s 			page 112


 4618 121c CB420000 		.4byte	.LASF1170
 4619 1220 01       		.byte	0x1
 4620 1221 2F01     		.2byte	0x12f
 4621 1223 A6000000 		.4byte	0xa6
 4622 1227 97070000 		.4byte	.LLST62
 4623 122b 36       		.uleb128 0x36
 4624 122c 1A600000 		.4byte	.LASF1168
 4625 1230 01       		.byte	0x1
 4626 1231 2F01     		.2byte	0x12f
 4627 1233 A6000000 		.4byte	0xa6
 4628 1237 FD070000 		.4byte	.LLST63
 4629 123b 37       		.uleb128 0x37
 4630 123c 44090000 		.4byte	0x944
 4631 1240 06000000 		.4byte	.LBB384
 4632 1244 10030000 		.4byte	.Ldebug_ranges0+0x310
 4633 1248 01       		.byte	0x1
 4634 1249 3201     		.2byte	0x132
 4635 124b 5F120000 		.4byte	0x125f
 4636 124f 26       		.uleb128 0x26
 4637 1250 61090000 		.4byte	0x961
 4638 1254 04       		.byte	0x4
 4639 1255 29       		.uleb128 0x29
 4640 1256 55090000 		.4byte	0x955
 4641 125a 23070000 		.4byte	.LLST60
 4642 125e 00       		.byte	0
 4643 125f 38       		.uleb128 0x38
 4644 1260 26090000 		.4byte	0x926
 4645 1264 10000000 		.4byte	.LBB389
 4646 1268 02000000 		.4byte	.LBE389-.LBB389
 4647 126c 01       		.byte	0x1
 4648 126d 3301     		.2byte	0x133
 4649 126f 7D120000 		.4byte	0x127d
 4650 1273 29       		.uleb128 0x29
 4651 1274 37090000 		.4byte	0x937
 4652 1278 33080000 		.4byte	.LLST65
 4653 127c 00       		.byte	0
 4654 127d 37       		.uleb128 0x37
 4655 127e BC090000 		.4byte	0x9bc
 4656 1282 18000000 		.4byte	.LBB392
 4657 1286 30030000 		.4byte	.Ldebug_ranges0+0x330
 4658 128a 01       		.byte	0x1
 4659 128b 3701     		.2byte	0x137
 4660 128d A1120000 		.4byte	0x12a1
 4661 1291 26       		.uleb128 0x26
 4662 1292 D5090000 		.4byte	0x9d5
 4663 1296 03       		.byte	0x3
 4664 1297 29       		.uleb128 0x29
 4665 1298 C9090000 		.4byte	0x9c9
 4666 129c 46080000 		.4byte	.LLST66
 4667 12a0 00       		.byte	0
 4668 12a1 38       		.uleb128 0x38
 4669 12a2 E2090000 		.4byte	0x9e2
 4670 12a6 1E000000 		.4byte	.LBB396
 4671 12aa 02000000 		.4byte	.LBE396-.LBB396
 4672 12ae 01       		.byte	0x1
 4673 12af 3901     		.2byte	0x139
 4674 12b1 BF120000 		.4byte	0x12bf
ARM GAS  /tmp/cc7TFFKb.s 			page 113


 4675 12b5 29       		.uleb128 0x29
 4676 12b6 F3090000 		.4byte	0x9f3
 4677 12ba 80080000 		.4byte	.LLST67
 4678 12be 00       		.byte	0
 4679 12bf 35       		.uleb128 0x35
 4680 12c0 48030000 		.4byte	.Ldebug_ranges0+0x348
 4681 12c4 8F130000 		.4byte	0x138f
 4682 12c8 36       		.uleb128 0x36
 4683 12c9 D04C0000 		.4byte	.LASF1222
 4684 12cd 01       		.byte	0x1
 4685 12ce 5301     		.2byte	0x153
 4686 12d0 78080000 		.4byte	0x878
 4687 12d4 BA080000 		.4byte	.LLST68
 4688 12d8 37       		.uleb128 0x37
 4689 12d9 44090000 		.4byte	0x944
 4690 12dd 28000000 		.4byte	.LBB399
 4691 12e1 68030000 		.4byte	.Ldebug_ranges0+0x368
 4692 12e5 01       		.byte	0x1
 4693 12e6 5901     		.2byte	0x159
 4694 12e8 FF120000 		.4byte	0x12ff
 4695 12ec 29       		.uleb128 0x29
 4696 12ed 61090000 		.4byte	0x961
 4697 12f1 CD080000 		.4byte	.LLST69
 4698 12f5 29       		.uleb128 0x29
 4699 12f6 55090000 		.4byte	0x955
 4700 12fa E1080000 		.4byte	.LLST70
 4701 12fe 00       		.byte	0
 4702 12ff 37       		.uleb128 0x37
 4703 1300 AE080000 		.4byte	0x8ae
 4704 1304 2C000000 		.4byte	.LBB403
 4705 1308 88030000 		.4byte	.Ldebug_ranges0+0x388
 4706 130c 01       		.byte	0x1
 4707 130d 5A01     		.2byte	0x15a
 4708 130f 26130000 		.4byte	0x1326
 4709 1313 29       		.uleb128 0x29
 4710 1314 C7080000 		.4byte	0x8c7
 4711 1318 F4080000 		.4byte	.LLST71
 4712 131c 29       		.uleb128 0x29
 4713 131d BB080000 		.4byte	0x8bb
 4714 1321 09090000 		.4byte	.LLST72
 4715 1325 00       		.byte	0
 4716 1326 37       		.uleb128 0x37
 4717 1327 000A0000 		.4byte	0xa00
 4718 132b 30000000 		.4byte	.LBB407
 4719 132f A8030000 		.4byte	.Ldebug_ranges0+0x3a8
 4720 1333 01       		.byte	0x1
 4721 1334 5F01     		.2byte	0x15f
 4722 1336 4D130000 		.4byte	0x134d
 4723 133a 29       		.uleb128 0x29
 4724 133b 1D0A0000 		.4byte	0xa1d
 4725 133f 1C090000 		.4byte	.LLST73
 4726 1343 29       		.uleb128 0x29
 4727 1344 110A0000 		.4byte	0xa11
 4728 1348 3C090000 		.4byte	.LLST74
 4729 134c 00       		.byte	0
 4730 134d 37       		.uleb128 0x37
 4731 134e 44090000 		.4byte	0x944
ARM GAS  /tmp/cc7TFFKb.s 			page 114


 4732 1352 36000000 		.4byte	.LBB413
 4733 1356 D0030000 		.4byte	.Ldebug_ranges0+0x3d0
 4734 135a 01       		.byte	0x1
 4735 135b 6401     		.2byte	0x164
 4736 135d 74130000 		.4byte	0x1374
 4737 1361 29       		.uleb128 0x29
 4738 1362 61090000 		.4byte	0x961
 4739 1366 5A090000 		.4byte	.LLST75
 4740 136a 29       		.uleb128 0x29
 4741 136b 55090000 		.4byte	0x955
 4742 136f 6E090000 		.4byte	.LLST76
 4743 1373 00       		.byte	0
 4744 1374 3E       		.uleb128 0x3e
 4745 1375 26090000 		.4byte	0x926
 4746 1379 54000000 		.4byte	.LBB420
 4747 137d 02000000 		.4byte	.LBE420-.LBB420
 4748 1381 01       		.byte	0x1
 4749 1382 6501     		.2byte	0x165
 4750 1384 29       		.uleb128 0x29
 4751 1385 37090000 		.4byte	0x937
 4752 1389 81090000 		.4byte	.LLST77
 4753 138d 00       		.byte	0
 4754 138e 00       		.byte	0
 4755 138f 30       		.uleb128 0x30
 4756 1390 F0030000 		.4byte	.Ldebug_ranges0+0x3f0
 4757 1394 36       		.uleb128 0x36
 4758 1395 AB090000 		.4byte	.LASF1223
 4759 1399 01       		.byte	0x1
 4760 139a 3A01     		.2byte	0x13a
 4761 139c CD110000 		.4byte	0x11cd
 4762 13a0 94090000 		.4byte	.LLST78
 4763 13a4 37       		.uleb128 0x37
 4764 13a5 44090000 		.4byte	0x944
 4765 13a9 86000000 		.4byte	.LBB429
 4766 13ad 10040000 		.4byte	.Ldebug_ranges0+0x410
 4767 13b1 01       		.byte	0x1
 4768 13b2 4001     		.2byte	0x140
 4769 13b4 CB130000 		.4byte	0x13cb
 4770 13b8 29       		.uleb128 0x29
 4771 13b9 61090000 		.4byte	0x961
 4772 13bd A7090000 		.4byte	.LLST79
 4773 13c1 29       		.uleb128 0x29
 4774 13c2 55090000 		.4byte	0x955
 4775 13c6 BB090000 		.4byte	.LLST80
 4776 13ca 00       		.byte	0
 4777 13cb 37       		.uleb128 0x37
 4778 13cc AE080000 		.4byte	0x8ae
 4779 13d0 8A000000 		.4byte	.LBB433
 4780 13d4 30040000 		.4byte	.Ldebug_ranges0+0x430
 4781 13d8 01       		.byte	0x1
 4782 13d9 4101     		.2byte	0x141
 4783 13db F2130000 		.4byte	0x13f2
 4784 13df 29       		.uleb128 0x29
 4785 13e0 C7080000 		.4byte	0x8c7
 4786 13e4 CE090000 		.4byte	.LLST81
 4787 13e8 29       		.uleb128 0x29
 4788 13e9 BB080000 		.4byte	0x8bb
ARM GAS  /tmp/cc7TFFKb.s 			page 115


 4789 13ed E3090000 		.4byte	.LLST82
 4790 13f1 00       		.byte	0
 4791 13f2 37       		.uleb128 0x37
 4792 13f3 000A0000 		.4byte	0xa00
 4793 13f7 90000000 		.4byte	.LBB439
 4794 13fb 58040000 		.4byte	.Ldebug_ranges0+0x458
 4795 13ff 01       		.byte	0x1
 4796 1400 4601     		.2byte	0x146
 4797 1402 19140000 		.4byte	0x1419
 4798 1406 29       		.uleb128 0x29
 4799 1407 1D0A0000 		.4byte	0xa1d
 4800 140b F6090000 		.4byte	.LLST83
 4801 140f 29       		.uleb128 0x29
 4802 1410 110A0000 		.4byte	0xa11
 4803 1414 0A0A0000 		.4byte	.LLST84
 4804 1418 00       		.byte	0
 4805 1419 37       		.uleb128 0x37
 4806 141a 44090000 		.4byte	0x944
 4807 141e 92000000 		.4byte	.LBB443
 4808 1422 78040000 		.4byte	.Ldebug_ranges0+0x478
 4809 1426 01       		.byte	0x1
 4810 1427 4B01     		.2byte	0x14b
 4811 1429 40140000 		.4byte	0x1440
 4812 142d 29       		.uleb128 0x29
 4813 142e 61090000 		.4byte	0x961
 4814 1432 1D0A0000 		.4byte	.LLST85
 4815 1436 29       		.uleb128 0x29
 4816 1437 55090000 		.4byte	0x955
 4817 143b 310A0000 		.4byte	.LLST86
 4818 143f 00       		.byte	0
 4819 1440 39       		.uleb128 0x39
 4820 1441 26090000 		.4byte	0x926
 4821 1445 B2000000 		.4byte	.LBB451
 4822 1449 98040000 		.4byte	.Ldebug_ranges0+0x498
 4823 144d 01       		.byte	0x1
 4824 144e 4C01     		.2byte	0x14c
 4825 1450 29       		.uleb128 0x29
 4826 1451 37090000 		.4byte	0x937
 4827 1455 440A0000 		.4byte	.LLST87
 4828 1459 00       		.byte	0
 4829 145a 00       		.byte	0
 4830 145b 00       		.byte	0
 4831 145c 3F       		.uleb128 0x3f
 4832 145d 1F300000 		.4byte	.LASF1226
 4833 1461 01       		.byte	0x1
 4834 1462 7101     		.2byte	0x171
 4835 1464 00000000 		.4byte	.LFB210
 4836 1468 24000000 		.4byte	.LFE210-.LFB210
 4837 146c 01       		.uleb128 0x1
 4838 146d 9C       		.byte	0x9c
 4839 146e 28150000 		.4byte	0x1528
 4840 1472 3D       		.uleb128 0x3d
 4841 1473 B60F0000 		.4byte	.LASF1177
 4842 1477 01       		.byte	0x1
 4843 1478 7101     		.2byte	0x171
 4844 147a D4080000 		.4byte	0x8d4
 4845 147e 01       		.uleb128 0x1
ARM GAS  /tmp/cc7TFFKb.s 			page 116


 4846 147f 50       		.byte	0x50
 4847 1480 38       		.uleb128 0x38
 4848 1481 44090000 		.4byte	0x944
 4849 1485 00000000 		.4byte	.LBB462
 4850 1489 02000000 		.4byte	.LBE462-.LBB462
 4851 148d 01       		.byte	0x1
 4852 148e 7301     		.2byte	0x173
 4853 1490 A2140000 		.4byte	0x14a2
 4854 1494 26       		.uleb128 0x26
 4855 1495 61090000 		.4byte	0x961
 4856 1499 10       		.byte	0x10
 4857 149a 27       		.uleb128 0x27
 4858 149b 55090000 		.4byte	0x955
 4859 149f 01       		.uleb128 0x1
 4860 14a0 50       		.byte	0x50
 4861 14a1 00       		.byte	0
 4862 14a2 38       		.uleb128 0x38
 4863 14a3 44090000 		.4byte	0x944
 4864 14a7 06000000 		.4byte	.LBB464
 4865 14ab 04000000 		.4byte	.LBE464-.LBB464
 4866 14af 01       		.byte	0x1
 4867 14b0 7401     		.2byte	0x174
 4868 14b2 C9140000 		.4byte	0x14c9
 4869 14b6 29       		.uleb128 0x29
 4870 14b7 61090000 		.4byte	0x961
 4871 14bb 570A0000 		.4byte	.LLST88
 4872 14bf 29       		.uleb128 0x29
 4873 14c0 55090000 		.4byte	0x955
 4874 14c4 6B0A0000 		.4byte	.LLST89
 4875 14c8 00       		.byte	0
 4876 14c9 37       		.uleb128 0x37
 4877 14ca 44090000 		.4byte	0x944
 4878 14ce 0E000000 		.4byte	.LBB466
 4879 14d2 B0040000 		.4byte	.Ldebug_ranges0+0x4b0
 4880 14d6 01       		.byte	0x1
 4881 14d7 7801     		.2byte	0x178
 4882 14d9 EB140000 		.4byte	0x14eb
 4883 14dd 26       		.uleb128 0x26
 4884 14de 61090000 		.4byte	0x961
 4885 14e2 04       		.byte	0x4
 4886 14e3 27       		.uleb128 0x27
 4887 14e4 55090000 		.4byte	0x955
 4888 14e8 01       		.uleb128 0x1
 4889 14e9 50       		.byte	0x50
 4890 14ea 00       		.byte	0
 4891 14eb 38       		.uleb128 0x38
 4892 14ec 26090000 		.4byte	0x926
 4893 14f0 16000000 		.4byte	.LBB469
 4894 14f4 02000000 		.4byte	.LBE469-.LBB469
 4895 14f8 01       		.byte	0x1
 4896 14f9 7901     		.2byte	0x179
 4897 14fb 09150000 		.4byte	0x1509
 4898 14ff 29       		.uleb128 0x29
 4899 1500 37090000 		.4byte	0x937
 4900 1504 7E0A0000 		.4byte	.LLST90
 4901 1508 00       		.byte	0
 4902 1509 39       		.uleb128 0x39
ARM GAS  /tmp/cc7TFFKb.s 			page 117


 4903 150a BC090000 		.4byte	0x9bc
 4904 150e 1E000000 		.4byte	.LBB472
 4905 1512 C8040000 		.4byte	.Ldebug_ranges0+0x4c8
 4906 1516 01       		.byte	0x1
 4907 1517 7D01     		.2byte	0x17d
 4908 1519 26       		.uleb128 0x26
 4909 151a D5090000 		.4byte	0x9d5
 4910 151e 03       		.byte	0x3
 4911 151f 27       		.uleb128 0x27
 4912 1520 C9090000 		.4byte	0x9c9
 4913 1524 01       		.uleb128 0x1
 4914 1525 50       		.byte	0x50
 4915 1526 00       		.byte	0
 4916 1527 00       		.byte	0
 4917 1528 3B       		.uleb128 0x3b
 4918 1529 CC470000 		.4byte	.LASF1224
 4919 152d 01       		.byte	0x1
 4920 152e 8101     		.2byte	0x181
 4921 1530 F1000000 		.4byte	0xf1
 4922 1534 00000000 		.4byte	.LFB211
 4923 1538 84000000 		.4byte	.LFE211-.LFB211
 4924 153c 01       		.uleb128 0x1
 4925 153d 9C       		.byte	0x9c
 4926 153e 7D160000 		.4byte	0x167d
 4927 1542 3C       		.uleb128 0x3c
 4928 1543 B60F0000 		.4byte	.LASF1177
 4929 1547 01       		.byte	0x1
 4930 1548 8101     		.2byte	0x181
 4931 154a D4080000 		.4byte	0x8d4
 4932 154e 910A0000 		.4byte	.LLST91
 4933 1552 3C       		.uleb128 0x3c
 4934 1553 2D200000 		.4byte	.LASF1179
 4935 1557 01       		.byte	0x1
 4936 1558 8101     		.2byte	0x181
 4937 155a FD080000 		.4byte	0x8fd
 4938 155e D30A0000 		.4byte	.LLST92
 4939 1562 38       		.uleb128 0x38
 4940 1563 000A0000 		.4byte	0xa00
 4941 1567 04000000 		.4byte	.LBB476
 4942 156b 02000000 		.4byte	.LBE476-.LBB476
 4943 156f 01       		.byte	0x1
 4944 1570 8401     		.2byte	0x184
 4945 1572 86150000 		.4byte	0x1586
 4946 1576 26       		.uleb128 0x26
 4947 1577 1D0A0000 		.4byte	0xa1d
 4948 157b 01       		.byte	0x1
 4949 157c 29       		.uleb128 0x29
 4950 157d 110A0000 		.4byte	0xa11
 4951 1581 910A0000 		.4byte	.LLST91
 4952 1585 00       		.byte	0
 4953 1586 37       		.uleb128 0x37
 4954 1587 44090000 		.4byte	0x944
 4955 158b 1C000000 		.4byte	.LBB478
 4956 158f E0040000 		.4byte	.Ldebug_ranges0+0x4e0
 4957 1593 01       		.byte	0x1
 4958 1594 8C01     		.2byte	0x18c
 4959 1596 AD150000 		.4byte	0x15ad
ARM GAS  /tmp/cc7TFFKb.s 			page 118


 4960 159a 29       		.uleb128 0x29
 4961 159b 61090000 		.4byte	0x961
 4962 159f 150B0000 		.4byte	.LLST94
 4963 15a3 29       		.uleb128 0x29
 4964 15a4 55090000 		.4byte	0x955
 4965 15a8 350B0000 		.4byte	.LLST95
 4966 15ac 00       		.byte	0
 4967 15ad 37       		.uleb128 0x37
 4968 15ae 03090000 		.4byte	0x903
 4969 15b2 2A000000 		.4byte	.LBB482
 4970 15b6 00050000 		.4byte	.Ldebug_ranges0+0x500
 4971 15ba 01       		.byte	0x1
 4972 15bb 8E01     		.2byte	0x18e
 4973 15bd 25160000 		.4byte	0x1625
 4974 15c1 29       		.uleb128 0x29
 4975 15c2 1A090000 		.4byte	0x91a
 4976 15c6 530B0000 		.4byte	.LLST96
 4977 15ca 29       		.uleb128 0x29
 4978 15cb 1A090000 		.4byte	0x91a
 4979 15cf 530B0000 		.4byte	.LLST96
 4980 15d3 29       		.uleb128 0x29
 4981 15d4 0F090000 		.4byte	0x90f
 4982 15d8 710B0000 		.4byte	.LLST98
 4983 15dc 25       		.uleb128 0x25
 4984 15dd AE080000 		.4byte	0x8ae
 4985 15e1 2A000000 		.4byte	.LBB484
 4986 15e5 28050000 		.4byte	.Ldebug_ranges0+0x528
 4987 15e9 01       		.byte	0x1
 4988 15ea 42       		.byte	0x42
 4989 15eb 02160000 		.4byte	0x1602
 4990 15ef 29       		.uleb128 0x29
 4991 15f0 C7080000 		.4byte	0x8c7
 4992 15f4 8F0B0000 		.4byte	.LLST99
 4993 15f8 29       		.uleb128 0x29
 4994 15f9 BB080000 		.4byte	0x8bb
 4995 15fd A40B0000 		.4byte	.LLST100
 4996 1601 00       		.byte	0
 4997 1602 28       		.uleb128 0x28
 4998 1603 AE080000 		.4byte	0x8ae
 4999 1607 34000000 		.4byte	.LBB489
 5000 160b 04000000 		.4byte	.LBE489-.LBB489
 5001 160f 01       		.byte	0x1
 5002 1610 3F       		.byte	0x3f
 5003 1611 29       		.uleb128 0x29
 5004 1612 C7080000 		.4byte	0x8c7
 5005 1616 B70B0000 		.4byte	.LLST101
 5006 161a 29       		.uleb128 0x29
 5007 161b BB080000 		.4byte	0x8bb
 5008 161f F50B0000 		.4byte	.LLST102
 5009 1623 00       		.byte	0
 5010 1624 00       		.byte	0
 5011 1625 37       		.uleb128 0x37
 5012 1626 000A0000 		.4byte	0xa00
 5013 162a 2C000000 		.4byte	.LBB495
 5014 162e 48050000 		.4byte	.Ldebug_ranges0+0x548
 5015 1632 01       		.byte	0x1
 5016 1633 9101     		.2byte	0x191
ARM GAS  /tmp/cc7TFFKb.s 			page 119


 5017 1635 4C160000 		.4byte	0x164c
 5018 1639 29       		.uleb128 0x29
 5019 163a 1D0A0000 		.4byte	0xa1d
 5020 163e 080C0000 		.4byte	.LLST103
 5021 1642 29       		.uleb128 0x29
 5022 1643 110A0000 		.4byte	0xa11
 5023 1647 280C0000 		.4byte	.LLST104
 5024 164b 00       		.byte	0
 5025 164c 40       		.uleb128 0x40
 5026 164d 1C000000 		.4byte	.LVL112
 5027 1651 F10B0000 		.4byte	0xbf1
 5028 1655 66160000 		.4byte	0x1666
 5029 1659 33       		.uleb128 0x33
 5030 165a 01       		.uleb128 0x1
 5031 165b 51       		.byte	0x51
 5032 165c 02       		.uleb128 0x2
 5033 165d 74       		.byte	0x74
 5034 165e 00       		.sleb128 0
 5035 165f 33       		.uleb128 0x33
 5036 1660 01       		.uleb128 0x1
 5037 1661 50       		.byte	0x50
 5038 1662 02       		.uleb128 0x2
 5039 1663 75       		.byte	0x75
 5040 1664 00       		.sleb128 0
 5041 1665 00       		.byte	0
 5042 1666 32       		.uleb128 0x32
 5043 1667 4C000000 		.4byte	.LVL118
 5044 166b F10B0000 		.4byte	0xbf1
 5045 166f 33       		.uleb128 0x33
 5046 1670 01       		.uleb128 0x1
 5047 1671 51       		.byte	0x51
 5048 1672 02       		.uleb128 0x2
 5049 1673 74       		.byte	0x74
 5050 1674 00       		.sleb128 0
 5051 1675 33       		.uleb128 0x33
 5052 1676 01       		.uleb128 0x1
 5053 1677 50       		.byte	0x50
 5054 1678 02       		.uleb128 0x2
 5055 1679 75       		.byte	0x75
 5056 167a 00       		.sleb128 0
 5057 167b 00       		.byte	0
 5058 167c 00       		.byte	0
 5059 167d 3B       		.uleb128 0x3b
 5060 167e 5B330000 		.4byte	.LASF1225
 5061 1682 01       		.byte	0x1
 5062 1683 A001     		.2byte	0x1a0
 5063 1685 F1000000 		.4byte	0xf1
 5064 1689 00000000 		.4byte	.LFB212
 5065 168d C8000000 		.4byte	.LFE212-.LFB212
 5066 1691 01       		.uleb128 0x1
 5067 1692 9C       		.byte	0x9c
 5068 1693 72180000 		.4byte	0x1872
 5069 1697 3C       		.uleb128 0x3c
 5070 1698 B60F0000 		.4byte	.LASF1177
 5071 169c 01       		.byte	0x1
 5072 169d A001     		.2byte	0x1a0
 5073 169f D4080000 		.4byte	0x8d4
ARM GAS  /tmp/cc7TFFKb.s 			page 120


 5074 16a3 460C0000 		.4byte	.LLST105
 5075 16a7 3D       		.uleb128 0x3d
 5076 16a8 2D200000 		.4byte	.LASF1179
 5077 16ac 01       		.byte	0x1
 5078 16ad A001     		.2byte	0x1a0
 5079 16af FD080000 		.4byte	0x8fd
 5080 16b3 01       		.uleb128 0x1
 5081 16b4 51       		.byte	0x51
 5082 16b5 38       		.uleb128 0x38
 5083 16b6 000A0000 		.4byte	0xa00
 5084 16ba 04000000 		.4byte	.LBB506
 5085 16be 02000000 		.4byte	.LBE506-.LBB506
 5086 16c2 01       		.byte	0x1
 5087 16c3 A301     		.2byte	0x1a3
 5088 16c5 D9160000 		.4byte	0x16d9
 5089 16c9 26       		.uleb128 0x26
 5090 16ca 1D0A0000 		.4byte	0xa1d
 5091 16ce 01       		.byte	0x1
 5092 16cf 29       		.uleb128 0x29
 5093 16d0 110A0000 		.4byte	0xa11
 5094 16d4 460C0000 		.4byte	.LLST105
 5095 16d8 00       		.byte	0
 5096 16d9 38       		.uleb128 0x38
 5097 16da 2A0A0000 		.4byte	0xa2a
 5098 16de 14000000 		.4byte	.LBB508
 5099 16e2 2A000000 		.4byte	.LBE508-.LBB508
 5100 16e6 01       		.byte	0x1
 5101 16e7 A901     		.2byte	0x1a9
 5102 16e9 46170000 		.4byte	0x1746
 5103 16ed 2F       		.uleb128 0x2f
 5104 16ee 410A0000 		.4byte	0xa41
 5105 16f2 2F       		.uleb128 0x2f
 5106 16f3 360A0000 		.4byte	0xa36
 5107 16f7 41       		.uleb128 0x41
 5108 16f8 14000000 		.4byte	.LBB509
 5109 16fc 2A000000 		.4byte	.LBE509-.LBB509
 5110 1700 31       		.uleb128 0x31
 5111 1701 4C0A0000 		.4byte	0xa4c
 5112 1705 25       		.uleb128 0x25
 5113 1706 44090000 		.4byte	0x944
 5114 170a 14000000 		.4byte	.LBB510
 5115 170e 68050000 		.4byte	.Ldebug_ranges0+0x568
 5116 1712 01       		.byte	0x1
 5117 1713 4D       		.byte	0x4d
 5118 1714 2B170000 		.4byte	0x172b
 5119 1718 29       		.uleb128 0x29
 5120 1719 61090000 		.4byte	0x961
 5121 171d 990C0000 		.4byte	.LLST107
 5122 1721 29       		.uleb128 0x29
 5123 1722 55090000 		.4byte	0x955
 5124 1726 B90C0000 		.4byte	.LLST108
 5125 172a 00       		.byte	0
 5126 172b 28       		.uleb128 0x28
 5127 172c 26090000 		.4byte	0x926
 5128 1730 2A000000 		.4byte	.LBB515
 5129 1734 04000000 		.4byte	.LBE515-.LBB515
 5130 1738 01       		.byte	0x1
ARM GAS  /tmp/cc7TFFKb.s 			page 121


 5131 1739 4F       		.byte	0x4f
 5132 173a 29       		.uleb128 0x29
 5133 173b 37090000 		.4byte	0x937
 5134 173f D70C0000 		.4byte	.LLST109
 5135 1743 00       		.byte	0
 5136 1744 00       		.byte	0
 5137 1745 00       		.byte	0
 5138 1746 37       		.uleb128 0x37
 5139 1747 DA080000 		.4byte	0x8da
 5140 174b 3E000000 		.4byte	.LBB518
 5141 174f 88050000 		.4byte	.Ldebug_ranges0+0x588
 5142 1753 01       		.byte	0x1
 5143 1754 AD01     		.2byte	0x1ad
 5144 1756 BE170000 		.4byte	0x17be
 5145 175a 29       		.uleb128 0x29
 5146 175b F1080000 		.4byte	0x8f1
 5147 175f EA0C0000 		.4byte	.LLST110
 5148 1763 29       		.uleb128 0x29
 5149 1764 F1080000 		.4byte	0x8f1
 5150 1768 EA0C0000 		.4byte	.LLST110
 5151 176c 29       		.uleb128 0x29
 5152 176d E6080000 		.4byte	0x8e6
 5153 1771 080D0000 		.4byte	.LLST112
 5154 1775 25       		.uleb128 0x25
 5155 1776 AE080000 		.4byte	0x8ae
 5156 177a 3E000000 		.4byte	.LBB520
 5157 177e C0050000 		.4byte	.Ldebug_ranges0+0x5c0
 5158 1782 01       		.byte	0x1
 5159 1783 35       		.byte	0x35
 5160 1784 9B170000 		.4byte	0x179b
 5161 1788 29       		.uleb128 0x29
 5162 1789 C7080000 		.4byte	0x8c7
 5163 178d 260D0000 		.4byte	.LLST113
 5164 1791 29       		.uleb128 0x29
 5165 1792 BB080000 		.4byte	0x8bb
 5166 1796 3B0D0000 		.4byte	.LLST114
 5167 179a 00       		.byte	0
 5168 179b 3A       		.uleb128 0x3a
 5169 179c AE080000 		.4byte	0x8ae
 5170 17a0 5C000000 		.4byte	.LBB526
 5171 17a4 E8050000 		.4byte	.Ldebug_ranges0+0x5e8
 5172 17a8 01       		.byte	0x1
 5173 17a9 31       		.byte	0x31
 5174 17aa 29       		.uleb128 0x29
 5175 17ab C7080000 		.4byte	0x8c7
 5176 17af 4E0D0000 		.4byte	.LLST115
 5177 17b3 29       		.uleb128 0x29
 5178 17b4 BB080000 		.4byte	0x8bb
 5179 17b8 9F0D0000 		.4byte	.LLST116
 5180 17bc 00       		.byte	0
 5181 17bd 00       		.byte	0
 5182 17be 37       		.uleb128 0x37
 5183 17bf 44090000 		.4byte	0x944
 5184 17c3 40000000 		.4byte	.LBB537
 5185 17c7 00060000 		.4byte	.Ldebug_ranges0+0x600
 5186 17cb 01       		.byte	0x1
 5187 17cc AB01     		.2byte	0x1ab
ARM GAS  /tmp/cc7TFFKb.s 			page 122


 5188 17ce E5170000 		.4byte	0x17e5
 5189 17d2 29       		.uleb128 0x29
 5190 17d3 61090000 		.4byte	0x961
 5191 17d7 B20D0000 		.4byte	.LLST117
 5192 17db 29       		.uleb128 0x29
 5193 17dc 55090000 		.4byte	0x955
 5194 17e0 D20D0000 		.4byte	.LLST118
 5195 17e4 00       		.byte	0
 5196 17e5 37       		.uleb128 0x37
 5197 17e6 000A0000 		.4byte	0xa00
 5198 17ea 44000000 		.4byte	.LBB542
 5199 17ee 20060000 		.4byte	.Ldebug_ranges0+0x620
 5200 17f2 01       		.byte	0x1
 5201 17f3 B001     		.2byte	0x1b0
 5202 17f5 0C180000 		.4byte	0x180c
 5203 17f9 29       		.uleb128 0x29
 5204 17fa 1D0A0000 		.4byte	0xa1d
 5205 17fe F00D0000 		.4byte	.LLST119
 5206 1802 29       		.uleb128 0x29
 5207 1803 110A0000 		.4byte	0xa11
 5208 1807 100E0000 		.4byte	.LLST120
 5209 180b 00       		.byte	0
 5210 180c 39       		.uleb128 0x39
 5211 180d 2A0A0000 		.4byte	0xa2a
 5212 1811 46000000 		.4byte	.LBB547
 5213 1815 48060000 		.4byte	.Ldebug_ranges0+0x648
 5214 1819 01       		.byte	0x1
 5215 181a B501     		.2byte	0x1b5
 5216 181c 2F       		.uleb128 0x2f
 5217 181d 410A0000 		.4byte	0xa41
 5218 1821 2F       		.uleb128 0x2f
 5219 1822 360A0000 		.4byte	0xa36
 5220 1826 30       		.uleb128 0x30
 5221 1827 48060000 		.4byte	.Ldebug_ranges0+0x648
 5222 182b 31       		.uleb128 0x31
 5223 182c 4C0A0000 		.4byte	0xa4c
 5224 1830 25       		.uleb128 0x25
 5225 1831 44090000 		.4byte	0x944
 5226 1835 46000000 		.4byte	.LBB549
 5227 1839 60060000 		.4byte	.Ldebug_ranges0+0x660
 5228 183d 01       		.byte	0x1
 5229 183e 4D       		.byte	0x4d
 5230 183f 56180000 		.4byte	0x1856
 5231 1843 29       		.uleb128 0x29
 5232 1844 61090000 		.4byte	0x961
 5233 1848 2E0E0000 		.4byte	.LLST121
 5234 184c 29       		.uleb128 0x29
 5235 184d 55090000 		.4byte	0x955
 5236 1851 420E0000 		.4byte	.LLST122
 5237 1855 00       		.byte	0
 5238 1856 28       		.uleb128 0x28
 5239 1857 26090000 		.4byte	0x926
 5240 185b 82000000 		.4byte	.LBB554
 5241 185f 04000000 		.4byte	.LBE554-.LBB554
 5242 1863 01       		.byte	0x1
 5243 1864 4F       		.byte	0x4f
 5244 1865 29       		.uleb128 0x29
ARM GAS  /tmp/cc7TFFKb.s 			page 123


 5245 1866 37090000 		.4byte	0x937
 5246 186a 550E0000 		.4byte	.LLST123
 5247 186e 00       		.byte	0
 5248 186f 00       		.byte	0
 5249 1870 00       		.byte	0
 5250 1871 00       		.byte	0
 5251 1872 3F       		.uleb128 0x3f
 5252 1873 205B0000 		.4byte	.LASF1227
 5253 1877 01       		.byte	0x1
 5254 1878 BF01     		.2byte	0x1bf
 5255 187a 00000000 		.4byte	.LFB213
 5256 187e 18000000 		.4byte	.LFE213-.LFB213
 5257 1882 01       		.uleb128 0x1
 5258 1883 9C       		.byte	0x9c
 5259 1884 EA180000 		.4byte	0x18ea
 5260 1888 3D       		.uleb128 0x3d
 5261 1889 B60F0000 		.4byte	.LASF1177
 5262 188d 01       		.byte	0x1
 5263 188e BF01     		.2byte	0x1bf
 5264 1890 D4080000 		.4byte	0x8d4
 5265 1894 01       		.uleb128 0x1
 5266 1895 50       		.byte	0x50
 5267 1896 3D       		.uleb128 0x3d
 5268 1897 F84B0000 		.4byte	.LASF1228
 5269 189b 01       		.byte	0x1
 5270 189c BF01     		.2byte	0x1bf
 5271 189e 03010000 		.4byte	0x103
 5272 18a2 01       		.uleb128 0x1
 5273 18a3 51       		.byte	0x51
 5274 18a4 38       		.uleb128 0x38
 5275 18a5 580A0000 		.4byte	0xa58
 5276 18a9 04000000 		.4byte	.LBB568
 5277 18ad 08000000 		.4byte	.LBE568-.LBB568
 5278 18b1 01       		.byte	0x1
 5279 18b2 C501     		.2byte	0x1c5
 5280 18b4 CB180000 		.4byte	0x18cb
 5281 18b8 29       		.uleb128 0x29
 5282 18b9 710A0000 		.4byte	0xa71
 5283 18bd 680E0000 		.4byte	.LLST124
 5284 18c1 29       		.uleb128 0x29
 5285 18c2 650A0000 		.4byte	0xa65
 5286 18c6 7C0E0000 		.4byte	.LLST125
 5287 18ca 00       		.byte	0
 5288 18cb 3E       		.uleb128 0x3e
 5289 18cc 580A0000 		.4byte	0xa58
 5290 18d0 0E000000 		.4byte	.LBB570
 5291 18d4 0A000000 		.4byte	.LBE570-.LBB570
 5292 18d8 01       		.byte	0x1
 5293 18d9 C201     		.2byte	0x1c2
 5294 18db 26       		.uleb128 0x26
 5295 18dc 710A0000 		.4byte	0xa71
 5296 18e0 00       		.byte	0
 5297 18e1 27       		.uleb128 0x27
 5298 18e2 650A0000 		.4byte	0xa65
 5299 18e6 01       		.uleb128 0x1
 5300 18e7 50       		.byte	0x50
 5301 18e8 00       		.byte	0
ARM GAS  /tmp/cc7TFFKb.s 			page 124


 5302 18e9 00       		.byte	0
 5303 18ea 42       		.uleb128 0x42
 5304 18eb FF0F0000 		.4byte	.LASF1229
 5305 18ef 01       		.byte	0x1
 5306 18f0 CA01     		.2byte	0x1ca
 5307 18f2 00000000 		.4byte	.LFB214
 5308 18f6 90000000 		.4byte	.LFE214-.LFB214
 5309 18fa 01       		.uleb128 0x1
 5310 18fb 9C       		.byte	0x9c
 5311 18fc EA190000 		.4byte	0x19ea
 5312 1900 3C       		.uleb128 0x3c
 5313 1901 B60F0000 		.4byte	.LASF1177
 5314 1905 01       		.byte	0x1
 5315 1906 CA01     		.2byte	0x1ca
 5316 1908 D4080000 		.4byte	0x8d4
 5317 190c 8F0E0000 		.4byte	.LLST126
 5318 1910 3C       		.uleb128 0x3c
 5319 1911 7E620000 		.4byte	.LASF1230
 5320 1915 01       		.byte	0x1
 5321 1916 CA01     		.2byte	0x1ca
 5322 1918 A6000000 		.4byte	0xa6
 5323 191c C60E0000 		.4byte	.LLST127
 5324 1920 43       		.uleb128 0x43
 5325 1921 E7340000 		.4byte	.LASF1231
 5326 1925 01       		.byte	0x1
 5327 1926 CC01     		.2byte	0x1cc
 5328 1928 A6000000 		.4byte	0xa6
 5329 192c 01       		.uleb128 0x1
 5330 192d 59       		.byte	0x59
 5331 192e 36       		.uleb128 0x36
 5332 192f FD580000 		.4byte	.LASF1232
 5333 1933 01       		.byte	0x1
 5334 1934 CC01     		.2byte	0x1cc
 5335 1936 A6000000 		.4byte	0xa6
 5336 193a FD0E0000 		.4byte	.LLST128
 5337 193e 36       		.uleb128 0x36
 5338 193f 6F760000 		.4byte	.LASF1233
 5339 1943 01       		.byte	0x1
 5340 1944 CC01     		.2byte	0x1cc
 5341 1946 A6000000 		.4byte	0xa6
 5342 194a 550F0000 		.4byte	.LLST129
 5343 194e 36       		.uleb128 0x36
 5344 194f 8F770000 		.4byte	.LASF1200
 5345 1953 01       		.byte	0x1
 5346 1954 CC01     		.2byte	0x1cc
 5347 1956 A6000000 		.4byte	0xa6
 5348 195a CF0F0000 		.4byte	.LLST130
 5349 195e 37       		.uleb128 0x37
 5350 195f 7E0A0000 		.4byte	0xa7e
 5351 1963 0C000000 		.4byte	.LBB572
 5352 1967 80060000 		.4byte	.Ldebug_ranges0+0x680
 5353 196b 01       		.byte	0x1
 5354 196c CE01     		.2byte	0x1ce
 5355 196e B2190000 		.4byte	0x19b2
 5356 1972 29       		.uleb128 0x29
 5357 1973 8E0A0000 		.4byte	0xa8e
 5358 1977 FA0F0000 		.4byte	.LLST131
ARM GAS  /tmp/cc7TFFKb.s 			page 125


 5359 197b 30       		.uleb128 0x30
 5360 197c 80060000 		.4byte	.Ldebug_ranges0+0x680
 5361 1980 2B       		.uleb128 0x2b
 5362 1981 990A0000 		.4byte	0xa99
 5363 1985 31100000 		.4byte	.LLST132
 5364 1989 44       		.uleb128 0x44
 5365 198a AF090000 		.4byte	0x9af
 5366 198e 16000000 		.4byte	.LBB574
 5367 1992 06000000 		.4byte	.LBE574-.LBB574
 5368 1996 01       		.byte	0x1
 5369 1997 9F       		.byte	0x9f
 5370 1998 44       		.uleb128 0x44
 5371 1999 A2090000 		.4byte	0x9a2
 5372 199d 6E000000 		.4byte	.LBB576
 5373 19a1 06000000 		.4byte	.LBE576-.LBB576
 5374 19a5 01       		.byte	0x1
 5375 19a6 9B       		.byte	0x9b
 5376 19a7 45       		.uleb128 0x45
 5377 19a8 10000000 		.4byte	.LVL156
 5378 19ac 6D1C0000 		.4byte	0x1c6d
 5379 19b0 00       		.byte	0
 5380 19b1 00       		.byte	0
 5381 19b2 39       		.uleb128 0x39
 5382 19b3 A50A0000 		.4byte	0xaa5
 5383 19b7 5A000000 		.4byte	.LBB579
 5384 19bb 98060000 		.4byte	.Ldebug_ranges0+0x698
 5385 19bf 01       		.byte	0x1
 5386 19c0 DF01     		.2byte	0x1df
 5387 19c2 29       		.uleb128 0x29
 5388 19c3 C70A0000 		.4byte	0xac7
 5389 19c7 70100000 		.4byte	.LLST133
 5390 19cb 2F       		.uleb128 0x2f
 5391 19cc BC0A0000 		.4byte	0xabc
 5392 19d0 29       		.uleb128 0x29
 5393 19d1 B10A0000 		.4byte	0xab1
 5394 19d5 9E100000 		.4byte	.LLST134
 5395 19d9 30       		.uleb128 0x30
 5396 19da 98060000 		.4byte	.Ldebug_ranges0+0x698
 5397 19de 2B       		.uleb128 0x2b
 5398 19df D20A0000 		.4byte	0xad2
 5399 19e3 BF100000 		.4byte	.LLST135
 5400 19e7 00       		.byte	0
 5401 19e8 00       		.byte	0
 5402 19e9 00       		.byte	0
 5403 19ea 3F       		.uleb128 0x3f
 5404 19eb 65310000 		.4byte	.LASF1234
 5405 19ef 01       		.byte	0x1
 5406 19f0 E301     		.2byte	0x1e3
 5407 19f2 00000000 		.4byte	.LFB215
 5408 19f6 70000000 		.4byte	.LFE215-.LFB215
 5409 19fa 01       		.uleb128 0x1
 5410 19fb 9C       		.byte	0x9c
 5411 19fc 781B0000 		.4byte	0x1b78
 5412 1a00 3C       		.uleb128 0x3c
 5413 1a01 B60F0000 		.4byte	.LASF1177
 5414 1a05 01       		.byte	0x1
 5415 1a06 E301     		.2byte	0x1e3
ARM GAS  /tmp/cc7TFFKb.s 			page 126


 5416 1a08 D4080000 		.4byte	0x8d4
 5417 1a0c E4100000 		.4byte	.LLST136
 5418 1a10 37       		.uleb128 0x37
 5419 1a11 DE0A0000 		.4byte	0xade
 5420 1a15 00000000 		.4byte	.LBB584
 5421 1a19 B0060000 		.4byte	.Ldebug_ranges0+0x6b0
 5422 1a1d 01       		.byte	0x1
 5423 1a1e E501     		.2byte	0x1e5
 5424 1a20 3D1A0000 		.4byte	0x1a3d
 5425 1a24 29       		.uleb128 0x29
 5426 1a25 EE0A0000 		.4byte	0xaee
 5427 1a29 E4100000 		.4byte	.LLST136
 5428 1a2d 30       		.uleb128 0x30
 5429 1a2e B0060000 		.4byte	.Ldebug_ranges0+0x6b0
 5430 1a32 2B       		.uleb128 0x2b
 5431 1a33 F90A0000 		.4byte	0xaf9
 5432 1a37 10110000 		.4byte	.LLST138
 5433 1a3b 00       		.byte	0
 5434 1a3c 00       		.byte	0
 5435 1a3d 37       		.uleb128 0x37
 5436 1a3e 050B0000 		.4byte	0xb05
 5437 1a42 08000000 		.4byte	.LBB588
 5438 1a46 C8060000 		.4byte	.Ldebug_ranges0+0x6c8
 5439 1a4a 01       		.byte	0x1
 5440 1a4b E501     		.2byte	0x1e5
 5441 1a4d 5B1A0000 		.4byte	0x1a5b
 5442 1a51 29       		.uleb128 0x29
 5443 1a52 120B0000 		.4byte	0xb12
 5444 1a56 10110000 		.4byte	.LLST138
 5445 1a5a 00       		.byte	0
 5446 1a5b 37       		.uleb128 0x37
 5447 1a5c 1F0B0000 		.4byte	0xb1f
 5448 1a60 16000000 		.4byte	.LBB591
 5449 1a64 E0060000 		.4byte	.Ldebug_ranges0+0x6e0
 5450 1a68 01       		.byte	0x1
 5451 1a69 E601     		.2byte	0x1e6
 5452 1a6b B51A0000 		.4byte	0x1ab5
 5453 1a6f 29       		.uleb128 0x29
 5454 1a70 360B0000 		.4byte	0xb36
 5455 1a74 30110000 		.4byte	.LLST140
 5456 1a78 29       		.uleb128 0x29
 5457 1a79 2B0B0000 		.4byte	0xb2b
 5458 1a7d 50110000 		.4byte	.LLST141
 5459 1a81 2E       		.uleb128 0x2e
 5460 1a82 88090000 		.4byte	0x988
 5461 1a86 16000000 		.4byte	.LBB592
 5462 1a8a 0A000000 		.4byte	.LBE592-.LBB592
 5463 1a8e 01       		.byte	0x1
 5464 1a8f 90       		.byte	0x90
 5465 1a90 9E1A0000 		.4byte	0x1a9e
 5466 1a94 29       		.uleb128 0x29
 5467 1a95 95090000 		.4byte	0x995
 5468 1a99 73110000 		.4byte	.LLST142
 5469 1a9d 00       		.byte	0
 5470 1a9e 28       		.uleb128 0x28
 5471 1a9f 6E090000 		.4byte	0x96e
 5472 1aa3 58000000 		.4byte	.LBB594
ARM GAS  /tmp/cc7TFFKb.s 			page 127


 5473 1aa7 18000000 		.4byte	.LBE594-.LBB594
 5474 1aab 01       		.byte	0x1
 5475 1aac 8C       		.byte	0x8c
 5476 1aad 26       		.uleb128 0x26
 5477 1aae 7B090000 		.4byte	0x97b
 5478 1ab2 01       		.byte	0x1
 5479 1ab3 00       		.byte	0
 5480 1ab4 00       		.byte	0
 5481 1ab5 37       		.uleb128 0x37
 5482 1ab6 690B0000 		.4byte	0xb69
 5483 1aba 20000000 		.4byte	.LBB596
 5484 1abe F8060000 		.4byte	.Ldebug_ranges0+0x6f8
 5485 1ac2 01       		.byte	0x1
 5486 1ac3 E701     		.2byte	0x1e7
 5487 1ac5 FD1A0000 		.4byte	0x1afd
 5488 1ac9 2F       		.uleb128 0x2f
 5489 1aca 750B0000 		.4byte	0xb75
 5490 1ace 25       		.uleb128 0x25
 5491 1acf 7E080000 		.4byte	0x87e
 5492 1ad3 20000000 		.4byte	.LBB597
 5493 1ad7 10070000 		.4byte	.Ldebug_ranges0+0x710
 5494 1adb 04       		.byte	0x4
 5495 1adc B5       		.byte	0xb5
 5496 1add E71A0000 		.4byte	0x1ae7
 5497 1ae1 2F       		.uleb128 0x2f
 5498 1ae2 8A080000 		.4byte	0x88a
 5499 1ae6 00       		.byte	0
 5500 1ae7 28       		.uleb128 0x28
 5501 1ae8 96080000 		.4byte	0x896
 5502 1aec 28000000 		.4byte	.LBB601
 5503 1af0 06000000 		.4byte	.LBE601-.LBB601
 5504 1af4 04       		.byte	0x4
 5505 1af5 B6       		.byte	0xb6
 5506 1af6 2F       		.uleb128 0x2f
 5507 1af7 A2080000 		.4byte	0x8a2
 5508 1afb 00       		.byte	0
 5509 1afc 00       		.byte	0
 5510 1afd 37       		.uleb128 0x37
 5511 1afe 580A0000 		.4byte	0xa58
 5512 1b02 2E000000 		.4byte	.LBB604
 5513 1b06 28070000 		.4byte	.Ldebug_ranges0+0x728
 5514 1b0a 01       		.byte	0x1
 5515 1b0b E901     		.2byte	0x1e9
 5516 1b0d 241B0000 		.4byte	0x1b24
 5517 1b11 29       		.uleb128 0x29
 5518 1b12 710A0000 		.4byte	0xa71
 5519 1b16 87110000 		.4byte	.LLST143
 5520 1b1a 29       		.uleb128 0x29
 5521 1b1b 650A0000 		.4byte	0xa65
 5522 1b1f 9B110000 		.4byte	.LLST144
 5523 1b23 00       		.byte	0
 5524 1b24 38       		.uleb128 0x38
 5525 1b25 810B0000 		.4byte	0xb81
 5526 1b29 38000000 		.4byte	.LBB608
 5527 1b2d 0C000000 		.4byte	.LBE608-.LBB608
 5528 1b31 01       		.byte	0x1
 5529 1b32 EA01     		.2byte	0x1ea
ARM GAS  /tmp/cc7TFFKb.s 			page 128


 5530 1b34 5D1B0000 		.4byte	0x1b5d
 5531 1b38 29       		.uleb128 0x29
 5532 1b39 B20B0000 		.4byte	0xbb2
 5533 1b3d BC110000 		.4byte	.LLST145
 5534 1b41 29       		.uleb128 0x29
 5535 1b42 A60B0000 		.4byte	0xba6
 5536 1b46 BC110000 		.4byte	.LLST145
 5537 1b4a 29       		.uleb128 0x29
 5538 1b4b 9A0B0000 		.4byte	0xb9a
 5539 1b4f D0110000 		.4byte	.LLST147
 5540 1b53 29       		.uleb128 0x29
 5541 1b54 8E0B0000 		.4byte	0xb8e
 5542 1b58 E4110000 		.4byte	.LLST148
 5543 1b5c 00       		.byte	0
 5544 1b5d 32       		.uleb128 0x32
 5545 1b5e 48000000 		.4byte	.LVL188
 5546 1b62 EA180000 		.4byte	0x18ea
 5547 1b66 33       		.uleb128 0x33
 5548 1b67 01       		.uleb128 0x1
 5549 1b68 51       		.byte	0x51
 5550 1b69 05       		.uleb128 0x5
 5551 1b6a 0C       		.byte	0xc
 5552 1b6b A0860100 		.4byte	0x186a0
 5553 1b6f 33       		.uleb128 0x33
 5554 1b70 01       		.uleb128 0x1
 5555 1b71 50       		.byte	0x50
 5556 1b72 03       		.uleb128 0x3
 5557 1b73 F3       		.byte	0xf3
 5558 1b74 01       		.uleb128 0x1
 5559 1b75 50       		.byte	0x50
 5560 1b76 00       		.byte	0
 5561 1b77 00       		.byte	0
 5562 1b78 3F       		.uleb128 0x3f
 5563 1b79 CE260000 		.4byte	.LASF1235
 5564 1b7d 01       		.byte	0x1
 5565 1b7e EF01     		.2byte	0x1ef
 5566 1b80 00000000 		.4byte	.LFB216
 5567 1b84 48000000 		.4byte	.LFE216-.LFB216
 5568 1b88 01       		.uleb128 0x1
 5569 1b89 9C       		.byte	0x9c
 5570 1b8a 621C0000 		.4byte	0x1c62
 5571 1b8e 3C       		.uleb128 0x3c
 5572 1b8f B60F0000 		.4byte	.LASF1177
 5573 1b93 01       		.byte	0x1
 5574 1b94 EF01     		.2byte	0x1ef
 5575 1b96 D4080000 		.4byte	0x8d4
 5576 1b9a 05120000 		.4byte	.LLST149
 5577 1b9e 38       		.uleb128 0x38
 5578 1b9f BF0B0000 		.4byte	0xbbf
 5579 1ba3 00000000 		.4byte	.LBB612
 5580 1ba7 08000000 		.4byte	.LBE612-.LBB612
 5581 1bab 01       		.byte	0x1
 5582 1bac F101     		.2byte	0x1f1
 5583 1bae BC1B0000 		.4byte	0x1bbc
 5584 1bb2 29       		.uleb128 0x29
 5585 1bb3 CB0B0000 		.4byte	0xbcb
 5586 1bb7 05120000 		.4byte	.LLST149
ARM GAS  /tmp/cc7TFFKb.s 			page 129


 5587 1bbb 00       		.byte	0
 5588 1bbc 38       		.uleb128 0x38
 5589 1bbd DE0A0000 		.4byte	0xade
 5590 1bc1 08000000 		.4byte	.LBB614
 5591 1bc5 06000000 		.4byte	.LBE614-.LBB614
 5592 1bc9 01       		.byte	0x1
 5593 1bca F301     		.2byte	0x1f3
 5594 1bcc ED1B0000 		.4byte	0x1bed
 5595 1bd0 29       		.uleb128 0x29
 5596 1bd1 EE0A0000 		.4byte	0xaee
 5597 1bd5 3F120000 		.4byte	.LLST151
 5598 1bd9 41       		.uleb128 0x41
 5599 1bda 08000000 		.4byte	.LBB615
 5600 1bde 06000000 		.4byte	.LBE615-.LBB615
 5601 1be2 2B       		.uleb128 0x2b
 5602 1be3 F90A0000 		.4byte	0xaf9
 5603 1be7 79120000 		.4byte	.LLST152
 5604 1beb 00       		.byte	0
 5605 1bec 00       		.byte	0
 5606 1bed 37       		.uleb128 0x37
 5607 1bee D70B0000 		.4byte	0xbd7
 5608 1bf2 0E000000 		.4byte	.LBB616
 5609 1bf6 40070000 		.4byte	.Ldebug_ranges0+0x740
 5610 1bfa 01       		.byte	0x1
 5611 1bfb F301     		.2byte	0x1f3
 5612 1bfd 0B1C0000 		.4byte	0x1c0b
 5613 1c01 29       		.uleb128 0x29
 5614 1c02 E40B0000 		.4byte	0xbe4
 5615 1c06 79120000 		.4byte	.LLST152
 5616 1c0a 00       		.byte	0
 5617 1c0b 39       		.uleb128 0x39
 5618 1c0c 1F0B0000 		.4byte	0xb1f
 5619 1c10 1A000000 		.4byte	.LBB619
 5620 1c14 58070000 		.4byte	.Ldebug_ranges0+0x758
 5621 1c18 01       		.byte	0x1
 5622 1c19 F401     		.2byte	0x1f4
 5623 1c1b 29       		.uleb128 0x29
 5624 1c1c 360B0000 		.4byte	0xb36
 5625 1c20 99120000 		.4byte	.LLST154
 5626 1c24 29       		.uleb128 0x29
 5627 1c25 2B0B0000 		.4byte	0xb2b
 5628 1c29 B9120000 		.4byte	.LLST155
 5629 1c2d 2E       		.uleb128 0x2e
 5630 1c2e 88090000 		.4byte	0x988
 5631 1c32 1A000000 		.4byte	.LBB620
 5632 1c36 06000000 		.4byte	.LBE620-.LBB620
 5633 1c3a 01       		.byte	0x1
 5634 1c3b 90       		.byte	0x90
 5635 1c3c 4A1C0000 		.4byte	0x1c4a
 5636 1c40 29       		.uleb128 0x29
 5637 1c41 95090000 		.4byte	0x995
 5638 1c45 DF120000 		.4byte	.LLST156
 5639 1c49 00       		.byte	0
 5640 1c4a 28       		.uleb128 0x28
 5641 1c4b 6E090000 		.4byte	0x96e
 5642 1c4f 2E000000 		.4byte	.LBB622
 5643 1c53 1A000000 		.4byte	.LBE622-.LBB622
ARM GAS  /tmp/cc7TFFKb.s 			page 130


 5644 1c57 01       		.byte	0x1
 5645 1c58 8C       		.byte	0x8c
 5646 1c59 26       		.uleb128 0x26
 5647 1c5a 7B090000 		.4byte	0x97b
 5648 1c5e 00       		.byte	0
 5649 1c5f 00       		.byte	0
 5650 1c60 00       		.byte	0
 5651 1c61 00       		.byte	0
 5652 1c62 46       		.uleb128 0x46
 5653 1c63 BF550000 		.4byte	.LASF1241
 5654 1c67 08       		.byte	0x8
 5655 1c68 D3       		.byte	0xd3
 5656 1c69 73080000 		.4byte	0x873
 5657 1c6d 47       		.uleb128 0x47
 5658 1c6e F1410000 		.4byte	.LASF1242
 5659 1c72 03       		.byte	0x3
 5660 1c73 1302     		.2byte	0x213
 5661 1c75 A6000000 		.4byte	0xa6
 5662 1c79 00       		.byte	0
 5663              		.section	.debug_abbrev,"",%progbits
 5664              	.Ldebug_abbrev0:
 5665 0000 01       		.uleb128 0x1
 5666 0001 11       		.uleb128 0x11
 5667 0002 01       		.byte	0x1
 5668 0003 25       		.uleb128 0x25
 5669 0004 0E       		.uleb128 0xe
 5670 0005 13       		.uleb128 0x13
 5671 0006 0B       		.uleb128 0xb
 5672 0007 03       		.uleb128 0x3
 5673 0008 0E       		.uleb128 0xe
 5674 0009 1B       		.uleb128 0x1b
 5675 000a 0E       		.uleb128 0xe
 5676 000b 55       		.uleb128 0x55
 5677 000c 17       		.uleb128 0x17
 5678 000d 11       		.uleb128 0x11
 5679 000e 01       		.uleb128 0x1
 5680 000f 10       		.uleb128 0x10
 5681 0010 17       		.uleb128 0x17
 5682 0011 9942     		.uleb128 0x2119
 5683 0013 17       		.uleb128 0x17
 5684 0014 00       		.byte	0
 5685 0015 00       		.byte	0
 5686 0016 02       		.uleb128 0x2
 5687 0017 24       		.uleb128 0x24
 5688 0018 00       		.byte	0
 5689 0019 0B       		.uleb128 0xb
 5690 001a 0B       		.uleb128 0xb
 5691 001b 3E       		.uleb128 0x3e
 5692 001c 0B       		.uleb128 0xb
 5693 001d 03       		.uleb128 0x3
 5694 001e 0E       		.uleb128 0xe
 5695 001f 00       		.byte	0
 5696 0020 00       		.byte	0
 5697 0021 03       		.uleb128 0x3
 5698 0022 16       		.uleb128 0x16
 5699 0023 00       		.byte	0
 5700 0024 03       		.uleb128 0x3
ARM GAS  /tmp/cc7TFFKb.s 			page 131


 5701 0025 0E       		.uleb128 0xe
 5702 0026 3A       		.uleb128 0x3a
 5703 0027 0B       		.uleb128 0xb
 5704 0028 3B       		.uleb128 0x3b
 5705 0029 0B       		.uleb128 0xb
 5706 002a 49       		.uleb128 0x49
 5707 002b 13       		.uleb128 0x13
 5708 002c 00       		.byte	0
 5709 002d 00       		.byte	0
 5710 002e 04       		.uleb128 0x4
 5711 002f 24       		.uleb128 0x24
 5712 0030 00       		.byte	0
 5713 0031 0B       		.uleb128 0xb
 5714 0032 0B       		.uleb128 0xb
 5715 0033 3E       		.uleb128 0x3e
 5716 0034 0B       		.uleb128 0xb
 5717 0035 03       		.uleb128 0x3
 5718 0036 08       		.uleb128 0x8
 5719 0037 00       		.byte	0
 5720 0038 00       		.byte	0
 5721 0039 05       		.uleb128 0x5
 5722 003a 04       		.uleb128 0x4
 5723 003b 01       		.byte	0x1
 5724 003c 0B       		.uleb128 0xb
 5725 003d 0B       		.uleb128 0xb
 5726 003e 3A       		.uleb128 0x3a
 5727 003f 0B       		.uleb128 0xb
 5728 0040 3B       		.uleb128 0x3b
 5729 0041 0B       		.uleb128 0xb
 5730 0042 01       		.uleb128 0x1
 5731 0043 13       		.uleb128 0x13
 5732 0044 00       		.byte	0
 5733 0045 00       		.byte	0
 5734 0046 06       		.uleb128 0x6
 5735 0047 28       		.uleb128 0x28
 5736 0048 00       		.byte	0
 5737 0049 03       		.uleb128 0x3
 5738 004a 0E       		.uleb128 0xe
 5739 004b 1C       		.uleb128 0x1c
 5740 004c 0D       		.uleb128 0xd
 5741 004d 00       		.byte	0
 5742 004e 00       		.byte	0
 5743 004f 07       		.uleb128 0x7
 5744 0050 28       		.uleb128 0x28
 5745 0051 00       		.byte	0
 5746 0052 03       		.uleb128 0x3
 5747 0053 08       		.uleb128 0x8
 5748 0054 1C       		.uleb128 0x1c
 5749 0055 0D       		.uleb128 0xd
 5750 0056 00       		.byte	0
 5751 0057 00       		.byte	0
 5752 0058 08       		.uleb128 0x8
 5753 0059 01       		.uleb128 0x1
 5754 005a 01       		.byte	0x1
 5755 005b 49       		.uleb128 0x49
 5756 005c 13       		.uleb128 0x13
 5757 005d 01       		.uleb128 0x1
ARM GAS  /tmp/cc7TFFKb.s 			page 132


 5758 005e 13       		.uleb128 0x13
 5759 005f 00       		.byte	0
 5760 0060 00       		.byte	0
 5761 0061 09       		.uleb128 0x9
 5762 0062 21       		.uleb128 0x21
 5763 0063 00       		.byte	0
 5764 0064 49       		.uleb128 0x49
 5765 0065 13       		.uleb128 0x13
 5766 0066 2F       		.uleb128 0x2f
 5767 0067 0B       		.uleb128 0xb
 5768 0068 00       		.byte	0
 5769 0069 00       		.byte	0
 5770 006a 0A       		.uleb128 0xa
 5771 006b 26       		.uleb128 0x26
 5772 006c 00       		.byte	0
 5773 006d 49       		.uleb128 0x49
 5774 006e 13       		.uleb128 0x13
 5775 006f 00       		.byte	0
 5776 0070 00       		.byte	0
 5777 0071 0B       		.uleb128 0xb
 5778 0072 35       		.uleb128 0x35
 5779 0073 00       		.byte	0
 5780 0074 49       		.uleb128 0x49
 5781 0075 13       		.uleb128 0x13
 5782 0076 00       		.byte	0
 5783 0077 00       		.byte	0
 5784 0078 0C       		.uleb128 0xc
 5785 0079 13       		.uleb128 0x13
 5786 007a 01       		.byte	0x1
 5787 007b 0B       		.uleb128 0xb
 5788 007c 05       		.uleb128 0x5
 5789 007d 3A       		.uleb128 0x3a
 5790 007e 0B       		.uleb128 0xb
 5791 007f 3B       		.uleb128 0x3b
 5792 0080 0B       		.uleb128 0xb
 5793 0081 01       		.uleb128 0x1
 5794 0082 13       		.uleb128 0x13
 5795 0083 00       		.byte	0
 5796 0084 00       		.byte	0
 5797 0085 0D       		.uleb128 0xd
 5798 0086 0D       		.uleb128 0xd
 5799 0087 00       		.byte	0
 5800 0088 03       		.uleb128 0x3
 5801 0089 0E       		.uleb128 0xe
 5802 008a 3A       		.uleb128 0x3a
 5803 008b 0B       		.uleb128 0xb
 5804 008c 3B       		.uleb128 0x3b
 5805 008d 0B       		.uleb128 0xb
 5806 008e 49       		.uleb128 0x49
 5807 008f 13       		.uleb128 0x13
 5808 0090 38       		.uleb128 0x38
 5809 0091 0B       		.uleb128 0xb
 5810 0092 00       		.byte	0
 5811 0093 00       		.byte	0
 5812 0094 0E       		.uleb128 0xe
 5813 0095 0D       		.uleb128 0xd
 5814 0096 00       		.byte	0
ARM GAS  /tmp/cc7TFFKb.s 			page 133


 5815 0097 03       		.uleb128 0x3
 5816 0098 0E       		.uleb128 0xe
 5817 0099 3A       		.uleb128 0x3a
 5818 009a 0B       		.uleb128 0xb
 5819 009b 3B       		.uleb128 0x3b
 5820 009c 0B       		.uleb128 0xb
 5821 009d 49       		.uleb128 0x49
 5822 009e 13       		.uleb128 0x13
 5823 009f 38       		.uleb128 0x38
 5824 00a0 05       		.uleb128 0x5
 5825 00a1 00       		.byte	0
 5826 00a2 00       		.byte	0
 5827 00a3 0F       		.uleb128 0xf
 5828 00a4 04       		.uleb128 0x4
 5829 00a5 01       		.byte	0x1
 5830 00a6 03       		.uleb128 0x3
 5831 00a7 0E       		.uleb128 0xe
 5832 00a8 0B       		.uleb128 0xb
 5833 00a9 0B       		.uleb128 0xb
 5834 00aa 3A       		.uleb128 0x3a
 5835 00ab 0B       		.uleb128 0xb
 5836 00ac 3B       		.uleb128 0x3b
 5837 00ad 0B       		.uleb128 0xb
 5838 00ae 01       		.uleb128 0x1
 5839 00af 13       		.uleb128 0x13
 5840 00b0 00       		.byte	0
 5841 00b1 00       		.byte	0
 5842 00b2 10       		.uleb128 0x10
 5843 00b3 16       		.uleb128 0x16
 5844 00b4 00       		.byte	0
 5845 00b5 03       		.uleb128 0x3
 5846 00b6 0E       		.uleb128 0xe
 5847 00b7 3A       		.uleb128 0x3a
 5848 00b8 0B       		.uleb128 0xb
 5849 00b9 3B       		.uleb128 0x3b
 5850 00ba 05       		.uleb128 0x5
 5851 00bb 49       		.uleb128 0x49
 5852 00bc 13       		.uleb128 0x13
 5853 00bd 00       		.byte	0
 5854 00be 00       		.byte	0
 5855 00bf 11       		.uleb128 0x11
 5856 00c0 0F       		.uleb128 0xf
 5857 00c1 00       		.byte	0
 5858 00c2 0B       		.uleb128 0xb
 5859 00c3 0B       		.uleb128 0xb
 5860 00c4 00       		.byte	0
 5861 00c5 00       		.byte	0
 5862 00c6 12       		.uleb128 0x12
 5863 00c7 13       		.uleb128 0x13
 5864 00c8 01       		.byte	0x1
 5865 00c9 0B       		.uleb128 0xb
 5866 00ca 0B       		.uleb128 0xb
 5867 00cb 3A       		.uleb128 0x3a
 5868 00cc 0B       		.uleb128 0xb
 5869 00cd 3B       		.uleb128 0x3b
 5870 00ce 0B       		.uleb128 0xb
 5871 00cf 01       		.uleb128 0x1
ARM GAS  /tmp/cc7TFFKb.s 			page 134


 5872 00d0 13       		.uleb128 0x13
 5873 00d1 00       		.byte	0
 5874 00d2 00       		.byte	0
 5875 00d3 13       		.uleb128 0x13
 5876 00d4 0D       		.uleb128 0xd
 5877 00d5 00       		.byte	0
 5878 00d6 03       		.uleb128 0x3
 5879 00d7 08       		.uleb128 0x8
 5880 00d8 3A       		.uleb128 0x3a
 5881 00d9 0B       		.uleb128 0xb
 5882 00da 3B       		.uleb128 0x3b
 5883 00db 0B       		.uleb128 0xb
 5884 00dc 49       		.uleb128 0x49
 5885 00dd 13       		.uleb128 0x13
 5886 00de 38       		.uleb128 0x38
 5887 00df 0B       		.uleb128 0xb
 5888 00e0 00       		.byte	0
 5889 00e1 00       		.byte	0
 5890 00e2 14       		.uleb128 0x14
 5891 00e3 04       		.uleb128 0x4
 5892 00e4 01       		.byte	0x1
 5893 00e5 03       		.uleb128 0x3
 5894 00e6 0E       		.uleb128 0xe
 5895 00e7 0B       		.uleb128 0xb
 5896 00e8 0B       		.uleb128 0xb
 5897 00e9 3A       		.uleb128 0x3a
 5898 00ea 0B       		.uleb128 0xb
 5899 00eb 3B       		.uleb128 0x3b
 5900 00ec 05       		.uleb128 0x5
 5901 00ed 01       		.uleb128 0x1
 5902 00ee 13       		.uleb128 0x13
 5903 00ef 00       		.byte	0
 5904 00f0 00       		.byte	0
 5905 00f1 15       		.uleb128 0x15
 5906 00f2 13       		.uleb128 0x13
 5907 00f3 01       		.byte	0x1
 5908 00f4 0B       		.uleb128 0xb
 5909 00f5 0B       		.uleb128 0xb
 5910 00f6 3A       		.uleb128 0x3a
 5911 00f7 0B       		.uleb128 0xb
 5912 00f8 3B       		.uleb128 0x3b
 5913 00f9 05       		.uleb128 0x5
 5914 00fa 01       		.uleb128 0x1
 5915 00fb 13       		.uleb128 0x13
 5916 00fc 00       		.byte	0
 5917 00fd 00       		.byte	0
 5918 00fe 16       		.uleb128 0x16
 5919 00ff 0D       		.uleb128 0xd
 5920 0100 00       		.byte	0
 5921 0101 03       		.uleb128 0x3
 5922 0102 0E       		.uleb128 0xe
 5923 0103 3A       		.uleb128 0x3a
 5924 0104 0B       		.uleb128 0xb
 5925 0105 3B       		.uleb128 0x3b
 5926 0106 05       		.uleb128 0x5
 5927 0107 49       		.uleb128 0x49
 5928 0108 13       		.uleb128 0x13
ARM GAS  /tmp/cc7TFFKb.s 			page 135


 5929 0109 38       		.uleb128 0x38
 5930 010a 0B       		.uleb128 0xb
 5931 010b 00       		.byte	0
 5932 010c 00       		.byte	0
 5933 010d 17       		.uleb128 0x17
 5934 010e 0F       		.uleb128 0xf
 5935 010f 00       		.byte	0
 5936 0110 0B       		.uleb128 0xb
 5937 0111 0B       		.uleb128 0xb
 5938 0112 49       		.uleb128 0x49
 5939 0113 13       		.uleb128 0x13
 5940 0114 00       		.byte	0
 5941 0115 00       		.byte	0
 5942 0116 18       		.uleb128 0x18
 5943 0117 2E       		.uleb128 0x2e
 5944 0118 01       		.byte	0x1
 5945 0119 03       		.uleb128 0x3
 5946 011a 0E       		.uleb128 0xe
 5947 011b 3A       		.uleb128 0x3a
 5948 011c 0B       		.uleb128 0xb
 5949 011d 3B       		.uleb128 0x3b
 5950 011e 0B       		.uleb128 0xb
 5951 011f 27       		.uleb128 0x27
 5952 0120 19       		.uleb128 0x19
 5953 0121 20       		.uleb128 0x20
 5954 0122 0B       		.uleb128 0xb
 5955 0123 01       		.uleb128 0x1
 5956 0124 13       		.uleb128 0x13
 5957 0125 00       		.byte	0
 5958 0126 00       		.byte	0
 5959 0127 19       		.uleb128 0x19
 5960 0128 05       		.uleb128 0x5
 5961 0129 00       		.byte	0
 5962 012a 03       		.uleb128 0x3
 5963 012b 0E       		.uleb128 0xe
 5964 012c 3A       		.uleb128 0x3a
 5965 012d 0B       		.uleb128 0xb
 5966 012e 3B       		.uleb128 0x3b
 5967 012f 0B       		.uleb128 0xb
 5968 0130 49       		.uleb128 0x49
 5969 0131 13       		.uleb128 0x13
 5970 0132 00       		.byte	0
 5971 0133 00       		.byte	0
 5972 0134 1A       		.uleb128 0x1a
 5973 0135 2E       		.uleb128 0x2e
 5974 0136 01       		.byte	0x1
 5975 0137 03       		.uleb128 0x3
 5976 0138 0E       		.uleb128 0xe
 5977 0139 3A       		.uleb128 0x3a
 5978 013a 0B       		.uleb128 0xb
 5979 013b 3B       		.uleb128 0x3b
 5980 013c 05       		.uleb128 0x5
 5981 013d 27       		.uleb128 0x27
 5982 013e 19       		.uleb128 0x19
 5983 013f 20       		.uleb128 0x20
 5984 0140 0B       		.uleb128 0xb
 5985 0141 01       		.uleb128 0x1
ARM GAS  /tmp/cc7TFFKb.s 			page 136


 5986 0142 13       		.uleb128 0x13
 5987 0143 00       		.byte	0
 5988 0144 00       		.byte	0
 5989 0145 1B       		.uleb128 0x1b
 5990 0146 05       		.uleb128 0x5
 5991 0147 00       		.byte	0
 5992 0148 03       		.uleb128 0x3
 5993 0149 0E       		.uleb128 0xe
 5994 014a 3A       		.uleb128 0x3a
 5995 014b 0B       		.uleb128 0xb
 5996 014c 3B       		.uleb128 0x3b
 5997 014d 05       		.uleb128 0x5
 5998 014e 49       		.uleb128 0x49
 5999 014f 13       		.uleb128 0x13
 6000 0150 00       		.byte	0
 6001 0151 00       		.byte	0
 6002 0152 1C       		.uleb128 0x1c
 6003 0153 2E       		.uleb128 0x2e
 6004 0154 01       		.byte	0x1
 6005 0155 03       		.uleb128 0x3
 6006 0156 0E       		.uleb128 0xe
 6007 0157 3A       		.uleb128 0x3a
 6008 0158 0B       		.uleb128 0xb
 6009 0159 3B       		.uleb128 0x3b
 6010 015a 05       		.uleb128 0x5
 6011 015b 27       		.uleb128 0x27
 6012 015c 19       		.uleb128 0x19
 6013 015d 49       		.uleb128 0x49
 6014 015e 13       		.uleb128 0x13
 6015 015f 20       		.uleb128 0x20
 6016 0160 0B       		.uleb128 0xb
 6017 0161 01       		.uleb128 0x1
 6018 0162 13       		.uleb128 0x13
 6019 0163 00       		.byte	0
 6020 0164 00       		.byte	0
 6021 0165 1D       		.uleb128 0x1d
 6022 0166 05       		.uleb128 0x5
 6023 0167 00       		.byte	0
 6024 0168 03       		.uleb128 0x3
 6025 0169 08       		.uleb128 0x8
 6026 016a 3A       		.uleb128 0x3a
 6027 016b 0B       		.uleb128 0xb
 6028 016c 3B       		.uleb128 0x3b
 6029 016d 05       		.uleb128 0x5
 6030 016e 49       		.uleb128 0x49
 6031 016f 13       		.uleb128 0x13
 6032 0170 00       		.byte	0
 6033 0171 00       		.byte	0
 6034 0172 1E       		.uleb128 0x1e
 6035 0173 2E       		.uleb128 0x2e
 6036 0174 00       		.byte	0
 6037 0175 03       		.uleb128 0x3
 6038 0176 0E       		.uleb128 0xe
 6039 0177 3A       		.uleb128 0x3a
 6040 0178 0B       		.uleb128 0xb
 6041 0179 3B       		.uleb128 0x3b
 6042 017a 05       		.uleb128 0x5
ARM GAS  /tmp/cc7TFFKb.s 			page 137


 6043 017b 27       		.uleb128 0x27
 6044 017c 19       		.uleb128 0x19
 6045 017d 49       		.uleb128 0x49
 6046 017e 13       		.uleb128 0x13
 6047 017f 20       		.uleb128 0x20
 6048 0180 0B       		.uleb128 0xb
 6049 0181 00       		.byte	0
 6050 0182 00       		.byte	0
 6051 0183 1F       		.uleb128 0x1f
 6052 0184 34       		.uleb128 0x34
 6053 0185 00       		.byte	0
 6054 0186 03       		.uleb128 0x3
 6055 0187 0E       		.uleb128 0xe
 6056 0188 3A       		.uleb128 0x3a
 6057 0189 0B       		.uleb128 0xb
 6058 018a 3B       		.uleb128 0x3b
 6059 018b 0B       		.uleb128 0xb
 6060 018c 49       		.uleb128 0x49
 6061 018d 13       		.uleb128 0x13
 6062 018e 00       		.byte	0
 6063 018f 00       		.byte	0
 6064 0190 20       		.uleb128 0x20
 6065 0191 2E       		.uleb128 0x2e
 6066 0192 01       		.byte	0x1
 6067 0193 03       		.uleb128 0x3
 6068 0194 0E       		.uleb128 0xe
 6069 0195 3A       		.uleb128 0x3a
 6070 0196 0B       		.uleb128 0xb
 6071 0197 3B       		.uleb128 0x3b
 6072 0198 0B       		.uleb128 0xb
 6073 0199 27       		.uleb128 0x27
 6074 019a 19       		.uleb128 0x19
 6075 019b 49       		.uleb128 0x49
 6076 019c 13       		.uleb128 0x13
 6077 019d 20       		.uleb128 0x20
 6078 019e 0B       		.uleb128 0xb
 6079 019f 01       		.uleb128 0x1
 6080 01a0 13       		.uleb128 0x13
 6081 01a1 00       		.byte	0
 6082 01a2 00       		.byte	0
 6083 01a3 21       		.uleb128 0x21
 6084 01a4 2E       		.uleb128 0x2e
 6085 01a5 01       		.byte	0x1
 6086 01a6 3F       		.uleb128 0x3f
 6087 01a7 19       		.uleb128 0x19
 6088 01a8 03       		.uleb128 0x3
 6089 01a9 0E       		.uleb128 0xe
 6090 01aa 3A       		.uleb128 0x3a
 6091 01ab 0B       		.uleb128 0xb
 6092 01ac 3B       		.uleb128 0x3b
 6093 01ad 0B       		.uleb128 0xb
 6094 01ae 27       		.uleb128 0x27
 6095 01af 19       		.uleb128 0x19
 6096 01b0 20       		.uleb128 0x20
 6097 01b1 0B       		.uleb128 0xb
 6098 01b2 01       		.uleb128 0x1
 6099 01b3 13       		.uleb128 0x13
ARM GAS  /tmp/cc7TFFKb.s 			page 138


 6100 01b4 00       		.byte	0
 6101 01b5 00       		.byte	0
 6102 01b6 22       		.uleb128 0x22
 6103 01b7 05       		.uleb128 0x5
 6104 01b8 00       		.byte	0
 6105 01b9 03       		.uleb128 0x3
 6106 01ba 08       		.uleb128 0x8
 6107 01bb 3A       		.uleb128 0x3a
 6108 01bc 0B       		.uleb128 0xb
 6109 01bd 3B       		.uleb128 0x3b
 6110 01be 0B       		.uleb128 0xb
 6111 01bf 49       		.uleb128 0x49
 6112 01c0 13       		.uleb128 0x13
 6113 01c1 00       		.byte	0
 6114 01c2 00       		.byte	0
 6115 01c3 23       		.uleb128 0x23
 6116 01c4 2E       		.uleb128 0x2e
 6117 01c5 01       		.byte	0x1
 6118 01c6 03       		.uleb128 0x3
 6119 01c7 0E       		.uleb128 0xe
 6120 01c8 3A       		.uleb128 0x3a
 6121 01c9 0B       		.uleb128 0xb
 6122 01ca 3B       		.uleb128 0x3b
 6123 01cb 0B       		.uleb128 0xb
 6124 01cc 27       		.uleb128 0x27
 6125 01cd 19       		.uleb128 0x19
 6126 01ce 11       		.uleb128 0x11
 6127 01cf 01       		.uleb128 0x1
 6128 01d0 12       		.uleb128 0x12
 6129 01d1 06       		.uleb128 0x6
 6130 01d2 40       		.uleb128 0x40
 6131 01d3 18       		.uleb128 0x18
 6132 01d4 9742     		.uleb128 0x2117
 6133 01d6 19       		.uleb128 0x19
 6134 01d7 01       		.uleb128 0x1
 6135 01d8 13       		.uleb128 0x13
 6136 01d9 00       		.byte	0
 6137 01da 00       		.byte	0
 6138 01db 24       		.uleb128 0x24
 6139 01dc 05       		.uleb128 0x5
 6140 01dd 00       		.byte	0
 6141 01de 03       		.uleb128 0x3
 6142 01df 0E       		.uleb128 0xe
 6143 01e0 3A       		.uleb128 0x3a
 6144 01e1 0B       		.uleb128 0xb
 6145 01e2 3B       		.uleb128 0x3b
 6146 01e3 0B       		.uleb128 0xb
 6147 01e4 49       		.uleb128 0x49
 6148 01e5 13       		.uleb128 0x13
 6149 01e6 02       		.uleb128 0x2
 6150 01e7 18       		.uleb128 0x18
 6151 01e8 00       		.byte	0
 6152 01e9 00       		.byte	0
 6153 01ea 25       		.uleb128 0x25
 6154 01eb 1D       		.uleb128 0x1d
 6155 01ec 01       		.byte	0x1
 6156 01ed 31       		.uleb128 0x31
ARM GAS  /tmp/cc7TFFKb.s 			page 139


 6157 01ee 13       		.uleb128 0x13
 6158 01ef 52       		.uleb128 0x52
 6159 01f0 01       		.uleb128 0x1
 6160 01f1 55       		.uleb128 0x55
 6161 01f2 17       		.uleb128 0x17
 6162 01f3 58       		.uleb128 0x58
 6163 01f4 0B       		.uleb128 0xb
 6164 01f5 59       		.uleb128 0x59
 6165 01f6 0B       		.uleb128 0xb
 6166 01f7 01       		.uleb128 0x1
 6167 01f8 13       		.uleb128 0x13
 6168 01f9 00       		.byte	0
 6169 01fa 00       		.byte	0
 6170 01fb 26       		.uleb128 0x26
 6171 01fc 05       		.uleb128 0x5
 6172 01fd 00       		.byte	0
 6173 01fe 31       		.uleb128 0x31
 6174 01ff 13       		.uleb128 0x13
 6175 0200 1C       		.uleb128 0x1c
 6176 0201 0B       		.uleb128 0xb
 6177 0202 00       		.byte	0
 6178 0203 00       		.byte	0
 6179 0204 27       		.uleb128 0x27
 6180 0205 05       		.uleb128 0x5
 6181 0206 00       		.byte	0
 6182 0207 31       		.uleb128 0x31
 6183 0208 13       		.uleb128 0x13
 6184 0209 02       		.uleb128 0x2
 6185 020a 18       		.uleb128 0x18
 6186 020b 00       		.byte	0
 6187 020c 00       		.byte	0
 6188 020d 28       		.uleb128 0x28
 6189 020e 1D       		.uleb128 0x1d
 6190 020f 01       		.byte	0x1
 6191 0210 31       		.uleb128 0x31
 6192 0211 13       		.uleb128 0x13
 6193 0212 11       		.uleb128 0x11
 6194 0213 01       		.uleb128 0x1
 6195 0214 12       		.uleb128 0x12
 6196 0215 06       		.uleb128 0x6
 6197 0216 58       		.uleb128 0x58
 6198 0217 0B       		.uleb128 0xb
 6199 0218 59       		.uleb128 0x59
 6200 0219 0B       		.uleb128 0xb
 6201 021a 00       		.byte	0
 6202 021b 00       		.byte	0
 6203 021c 29       		.uleb128 0x29
 6204 021d 05       		.uleb128 0x5
 6205 021e 00       		.byte	0
 6206 021f 31       		.uleb128 0x31
 6207 0220 13       		.uleb128 0x13
 6208 0221 02       		.uleb128 0x2
 6209 0222 17       		.uleb128 0x17
 6210 0223 00       		.byte	0
 6211 0224 00       		.byte	0
 6212 0225 2A       		.uleb128 0x2a
 6213 0226 2E       		.uleb128 0x2e
ARM GAS  /tmp/cc7TFFKb.s 			page 140


 6214 0227 01       		.byte	0x1
 6215 0228 31       		.uleb128 0x31
 6216 0229 13       		.uleb128 0x13
 6217 022a 11       		.uleb128 0x11
 6218 022b 01       		.uleb128 0x1
 6219 022c 12       		.uleb128 0x12
 6220 022d 06       		.uleb128 0x6
 6221 022e 40       		.uleb128 0x40
 6222 022f 18       		.uleb128 0x18
 6223 0230 9742     		.uleb128 0x2117
 6224 0232 19       		.uleb128 0x19
 6225 0233 01       		.uleb128 0x1
 6226 0234 13       		.uleb128 0x13
 6227 0235 00       		.byte	0
 6228 0236 00       		.byte	0
 6229 0237 2B       		.uleb128 0x2b
 6230 0238 34       		.uleb128 0x34
 6231 0239 00       		.byte	0
 6232 023a 31       		.uleb128 0x31
 6233 023b 13       		.uleb128 0x13
 6234 023c 02       		.uleb128 0x2
 6235 023d 17       		.uleb128 0x17
 6236 023e 00       		.byte	0
 6237 023f 00       		.byte	0
 6238 0240 2C       		.uleb128 0x2c
 6239 0241 2E       		.uleb128 0x2e
 6240 0242 01       		.byte	0x1
 6241 0243 3F       		.uleb128 0x3f
 6242 0244 19       		.uleb128 0x19
 6243 0245 03       		.uleb128 0x3
 6244 0246 0E       		.uleb128 0xe
 6245 0247 3A       		.uleb128 0x3a
 6246 0248 0B       		.uleb128 0xb
 6247 0249 3B       		.uleb128 0x3b
 6248 024a 0B       		.uleb128 0xb
 6249 024b 27       		.uleb128 0x27
 6250 024c 19       		.uleb128 0x19
 6251 024d 49       		.uleb128 0x49
 6252 024e 13       		.uleb128 0x13
 6253 024f 11       		.uleb128 0x11
 6254 0250 01       		.uleb128 0x1
 6255 0251 12       		.uleb128 0x12
 6256 0252 06       		.uleb128 0x6
 6257 0253 40       		.uleb128 0x40
 6258 0254 18       		.uleb128 0x18
 6259 0255 9742     		.uleb128 0x2117
 6260 0257 19       		.uleb128 0x19
 6261 0258 01       		.uleb128 0x1
 6262 0259 13       		.uleb128 0x13
 6263 025a 00       		.byte	0
 6264 025b 00       		.byte	0
 6265 025c 2D       		.uleb128 0x2d
 6266 025d 05       		.uleb128 0x5
 6267 025e 00       		.byte	0
 6268 025f 03       		.uleb128 0x3
 6269 0260 0E       		.uleb128 0xe
 6270 0261 3A       		.uleb128 0x3a
ARM GAS  /tmp/cc7TFFKb.s 			page 141


 6271 0262 0B       		.uleb128 0xb
 6272 0263 3B       		.uleb128 0x3b
 6273 0264 0B       		.uleb128 0xb
 6274 0265 49       		.uleb128 0x49
 6275 0266 13       		.uleb128 0x13
 6276 0267 02       		.uleb128 0x2
 6277 0268 17       		.uleb128 0x17
 6278 0269 00       		.byte	0
 6279 026a 00       		.byte	0
 6280 026b 2E       		.uleb128 0x2e
 6281 026c 1D       		.uleb128 0x1d
 6282 026d 01       		.byte	0x1
 6283 026e 31       		.uleb128 0x31
 6284 026f 13       		.uleb128 0x13
 6285 0270 11       		.uleb128 0x11
 6286 0271 01       		.uleb128 0x1
 6287 0272 12       		.uleb128 0x12
 6288 0273 06       		.uleb128 0x6
 6289 0274 58       		.uleb128 0x58
 6290 0275 0B       		.uleb128 0xb
 6291 0276 59       		.uleb128 0x59
 6292 0277 0B       		.uleb128 0xb
 6293 0278 01       		.uleb128 0x1
 6294 0279 13       		.uleb128 0x13
 6295 027a 00       		.byte	0
 6296 027b 00       		.byte	0
 6297 027c 2F       		.uleb128 0x2f
 6298 027d 05       		.uleb128 0x5
 6299 027e 00       		.byte	0
 6300 027f 31       		.uleb128 0x31
 6301 0280 13       		.uleb128 0x13
 6302 0281 00       		.byte	0
 6303 0282 00       		.byte	0
 6304 0283 30       		.uleb128 0x30
 6305 0284 0B       		.uleb128 0xb
 6306 0285 01       		.byte	0x1
 6307 0286 55       		.uleb128 0x55
 6308 0287 17       		.uleb128 0x17
 6309 0288 00       		.byte	0
 6310 0289 00       		.byte	0
 6311 028a 31       		.uleb128 0x31
 6312 028b 34       		.uleb128 0x34
 6313 028c 00       		.byte	0
 6314 028d 31       		.uleb128 0x31
 6315 028e 13       		.uleb128 0x13
 6316 028f 00       		.byte	0
 6317 0290 00       		.byte	0
 6318 0291 32       		.uleb128 0x32
 6319 0292 898201   		.uleb128 0x4109
 6320 0295 01       		.byte	0x1
 6321 0296 11       		.uleb128 0x11
 6322 0297 01       		.uleb128 0x1
 6323 0298 31       		.uleb128 0x31
 6324 0299 13       		.uleb128 0x13
 6325 029a 00       		.byte	0
 6326 029b 00       		.byte	0
 6327 029c 33       		.uleb128 0x33
ARM GAS  /tmp/cc7TFFKb.s 			page 142


 6328 029d 8A8201   		.uleb128 0x410a
 6329 02a0 00       		.byte	0
 6330 02a1 02       		.uleb128 0x2
 6331 02a2 18       		.uleb128 0x18
 6332 02a3 9142     		.uleb128 0x2111
 6333 02a5 18       		.uleb128 0x18
 6334 02a6 00       		.byte	0
 6335 02a7 00       		.byte	0
 6336 02a8 34       		.uleb128 0x34
 6337 02a9 34       		.uleb128 0x34
 6338 02aa 00       		.byte	0
 6339 02ab 03       		.uleb128 0x3
 6340 02ac 0E       		.uleb128 0xe
 6341 02ad 3A       		.uleb128 0x3a
 6342 02ae 0B       		.uleb128 0xb
 6343 02af 3B       		.uleb128 0x3b
 6344 02b0 0B       		.uleb128 0xb
 6345 02b1 49       		.uleb128 0x49
 6346 02b2 13       		.uleb128 0x13
 6347 02b3 02       		.uleb128 0x2
 6348 02b4 17       		.uleb128 0x17
 6349 02b5 00       		.byte	0
 6350 02b6 00       		.byte	0
 6351 02b7 35       		.uleb128 0x35
 6352 02b8 0B       		.uleb128 0xb
 6353 02b9 01       		.byte	0x1
 6354 02ba 55       		.uleb128 0x55
 6355 02bb 17       		.uleb128 0x17
 6356 02bc 01       		.uleb128 0x1
 6357 02bd 13       		.uleb128 0x13
 6358 02be 00       		.byte	0
 6359 02bf 00       		.byte	0
 6360 02c0 36       		.uleb128 0x36
 6361 02c1 34       		.uleb128 0x34
 6362 02c2 00       		.byte	0
 6363 02c3 03       		.uleb128 0x3
 6364 02c4 0E       		.uleb128 0xe
 6365 02c5 3A       		.uleb128 0x3a
 6366 02c6 0B       		.uleb128 0xb
 6367 02c7 3B       		.uleb128 0x3b
 6368 02c8 05       		.uleb128 0x5
 6369 02c9 49       		.uleb128 0x49
 6370 02ca 13       		.uleb128 0x13
 6371 02cb 02       		.uleb128 0x2
 6372 02cc 17       		.uleb128 0x17
 6373 02cd 00       		.byte	0
 6374 02ce 00       		.byte	0
 6375 02cf 37       		.uleb128 0x37
 6376 02d0 1D       		.uleb128 0x1d
 6377 02d1 01       		.byte	0x1
 6378 02d2 31       		.uleb128 0x31
 6379 02d3 13       		.uleb128 0x13
 6380 02d4 52       		.uleb128 0x52
 6381 02d5 01       		.uleb128 0x1
 6382 02d6 55       		.uleb128 0x55
 6383 02d7 17       		.uleb128 0x17
 6384 02d8 58       		.uleb128 0x58
ARM GAS  /tmp/cc7TFFKb.s 			page 143


 6385 02d9 0B       		.uleb128 0xb
 6386 02da 59       		.uleb128 0x59
 6387 02db 05       		.uleb128 0x5
 6388 02dc 01       		.uleb128 0x1
 6389 02dd 13       		.uleb128 0x13
 6390 02de 00       		.byte	0
 6391 02df 00       		.byte	0
 6392 02e0 38       		.uleb128 0x38
 6393 02e1 1D       		.uleb128 0x1d
 6394 02e2 01       		.byte	0x1
 6395 02e3 31       		.uleb128 0x31
 6396 02e4 13       		.uleb128 0x13
 6397 02e5 11       		.uleb128 0x11
 6398 02e6 01       		.uleb128 0x1
 6399 02e7 12       		.uleb128 0x12
 6400 02e8 06       		.uleb128 0x6
 6401 02e9 58       		.uleb128 0x58
 6402 02ea 0B       		.uleb128 0xb
 6403 02eb 59       		.uleb128 0x59
 6404 02ec 05       		.uleb128 0x5
 6405 02ed 01       		.uleb128 0x1
 6406 02ee 13       		.uleb128 0x13
 6407 02ef 00       		.byte	0
 6408 02f0 00       		.byte	0
 6409 02f1 39       		.uleb128 0x39
 6410 02f2 1D       		.uleb128 0x1d
 6411 02f3 01       		.byte	0x1
 6412 02f4 31       		.uleb128 0x31
 6413 02f5 13       		.uleb128 0x13
 6414 02f6 52       		.uleb128 0x52
 6415 02f7 01       		.uleb128 0x1
 6416 02f8 55       		.uleb128 0x55
 6417 02f9 17       		.uleb128 0x17
 6418 02fa 58       		.uleb128 0x58
 6419 02fb 0B       		.uleb128 0xb
 6420 02fc 59       		.uleb128 0x59
 6421 02fd 05       		.uleb128 0x5
 6422 02fe 00       		.byte	0
 6423 02ff 00       		.byte	0
 6424 0300 3A       		.uleb128 0x3a
 6425 0301 1D       		.uleb128 0x1d
 6426 0302 01       		.byte	0x1
 6427 0303 31       		.uleb128 0x31
 6428 0304 13       		.uleb128 0x13
 6429 0305 52       		.uleb128 0x52
 6430 0306 01       		.uleb128 0x1
 6431 0307 55       		.uleb128 0x55
 6432 0308 17       		.uleb128 0x17
 6433 0309 58       		.uleb128 0x58
 6434 030a 0B       		.uleb128 0xb
 6435 030b 59       		.uleb128 0x59
 6436 030c 0B       		.uleb128 0xb
 6437 030d 00       		.byte	0
 6438 030e 00       		.byte	0
 6439 030f 3B       		.uleb128 0x3b
 6440 0310 2E       		.uleb128 0x2e
 6441 0311 01       		.byte	0x1
ARM GAS  /tmp/cc7TFFKb.s 			page 144


 6442 0312 3F       		.uleb128 0x3f
 6443 0313 19       		.uleb128 0x19
 6444 0314 03       		.uleb128 0x3
 6445 0315 0E       		.uleb128 0xe
 6446 0316 3A       		.uleb128 0x3a
 6447 0317 0B       		.uleb128 0xb
 6448 0318 3B       		.uleb128 0x3b
 6449 0319 05       		.uleb128 0x5
 6450 031a 27       		.uleb128 0x27
 6451 031b 19       		.uleb128 0x19
 6452 031c 49       		.uleb128 0x49
 6453 031d 13       		.uleb128 0x13
 6454 031e 11       		.uleb128 0x11
 6455 031f 01       		.uleb128 0x1
 6456 0320 12       		.uleb128 0x12
 6457 0321 06       		.uleb128 0x6
 6458 0322 40       		.uleb128 0x40
 6459 0323 18       		.uleb128 0x18
 6460 0324 9742     		.uleb128 0x2117
 6461 0326 19       		.uleb128 0x19
 6462 0327 01       		.uleb128 0x1
 6463 0328 13       		.uleb128 0x13
 6464 0329 00       		.byte	0
 6465 032a 00       		.byte	0
 6466 032b 3C       		.uleb128 0x3c
 6467 032c 05       		.uleb128 0x5
 6468 032d 00       		.byte	0
 6469 032e 03       		.uleb128 0x3
 6470 032f 0E       		.uleb128 0xe
 6471 0330 3A       		.uleb128 0x3a
 6472 0331 0B       		.uleb128 0xb
 6473 0332 3B       		.uleb128 0x3b
 6474 0333 05       		.uleb128 0x5
 6475 0334 49       		.uleb128 0x49
 6476 0335 13       		.uleb128 0x13
 6477 0336 02       		.uleb128 0x2
 6478 0337 17       		.uleb128 0x17
 6479 0338 00       		.byte	0
 6480 0339 00       		.byte	0
 6481 033a 3D       		.uleb128 0x3d
 6482 033b 05       		.uleb128 0x5
 6483 033c 00       		.byte	0
 6484 033d 03       		.uleb128 0x3
 6485 033e 0E       		.uleb128 0xe
 6486 033f 3A       		.uleb128 0x3a
 6487 0340 0B       		.uleb128 0xb
 6488 0341 3B       		.uleb128 0x3b
 6489 0342 05       		.uleb128 0x5
 6490 0343 49       		.uleb128 0x49
 6491 0344 13       		.uleb128 0x13
 6492 0345 02       		.uleb128 0x2
 6493 0346 18       		.uleb128 0x18
 6494 0347 00       		.byte	0
 6495 0348 00       		.byte	0
 6496 0349 3E       		.uleb128 0x3e
 6497 034a 1D       		.uleb128 0x1d
 6498 034b 01       		.byte	0x1
ARM GAS  /tmp/cc7TFFKb.s 			page 145


 6499 034c 31       		.uleb128 0x31
 6500 034d 13       		.uleb128 0x13
 6501 034e 11       		.uleb128 0x11
 6502 034f 01       		.uleb128 0x1
 6503 0350 12       		.uleb128 0x12
 6504 0351 06       		.uleb128 0x6
 6505 0352 58       		.uleb128 0x58
 6506 0353 0B       		.uleb128 0xb
 6507 0354 59       		.uleb128 0x59
 6508 0355 05       		.uleb128 0x5
 6509 0356 00       		.byte	0
 6510 0357 00       		.byte	0
 6511 0358 3F       		.uleb128 0x3f
 6512 0359 2E       		.uleb128 0x2e
 6513 035a 01       		.byte	0x1
 6514 035b 3F       		.uleb128 0x3f
 6515 035c 19       		.uleb128 0x19
 6516 035d 03       		.uleb128 0x3
 6517 035e 0E       		.uleb128 0xe
 6518 035f 3A       		.uleb128 0x3a
 6519 0360 0B       		.uleb128 0xb
 6520 0361 3B       		.uleb128 0x3b
 6521 0362 05       		.uleb128 0x5
 6522 0363 27       		.uleb128 0x27
 6523 0364 19       		.uleb128 0x19
 6524 0365 11       		.uleb128 0x11
 6525 0366 01       		.uleb128 0x1
 6526 0367 12       		.uleb128 0x12
 6527 0368 06       		.uleb128 0x6
 6528 0369 40       		.uleb128 0x40
 6529 036a 18       		.uleb128 0x18
 6530 036b 9742     		.uleb128 0x2117
 6531 036d 19       		.uleb128 0x19
 6532 036e 01       		.uleb128 0x1
 6533 036f 13       		.uleb128 0x13
 6534 0370 00       		.byte	0
 6535 0371 00       		.byte	0
 6536 0372 40       		.uleb128 0x40
 6537 0373 898201   		.uleb128 0x4109
 6538 0376 01       		.byte	0x1
 6539 0377 11       		.uleb128 0x11
 6540 0378 01       		.uleb128 0x1
 6541 0379 31       		.uleb128 0x31
 6542 037a 13       		.uleb128 0x13
 6543 037b 01       		.uleb128 0x1
 6544 037c 13       		.uleb128 0x13
 6545 037d 00       		.byte	0
 6546 037e 00       		.byte	0
 6547 037f 41       		.uleb128 0x41
 6548 0380 0B       		.uleb128 0xb
 6549 0381 01       		.byte	0x1
 6550 0382 11       		.uleb128 0x11
 6551 0383 01       		.uleb128 0x1
 6552 0384 12       		.uleb128 0x12
 6553 0385 06       		.uleb128 0x6
 6554 0386 00       		.byte	0
 6555 0387 00       		.byte	0
ARM GAS  /tmp/cc7TFFKb.s 			page 146


 6556 0388 42       		.uleb128 0x42
 6557 0389 2E       		.uleb128 0x2e
 6558 038a 01       		.byte	0x1
 6559 038b 3F       		.uleb128 0x3f
 6560 038c 19       		.uleb128 0x19
 6561 038d 03       		.uleb128 0x3
 6562 038e 0E       		.uleb128 0xe
 6563 038f 3A       		.uleb128 0x3a
 6564 0390 0B       		.uleb128 0xb
 6565 0391 3B       		.uleb128 0x3b
 6566 0392 05       		.uleb128 0x5
 6567 0393 27       		.uleb128 0x27
 6568 0394 19       		.uleb128 0x19
 6569 0395 11       		.uleb128 0x11
 6570 0396 01       		.uleb128 0x1
 6571 0397 12       		.uleb128 0x12
 6572 0398 06       		.uleb128 0x6
 6573 0399 40       		.uleb128 0x40
 6574 039a 18       		.uleb128 0x18
 6575 039b 9642     		.uleb128 0x2116
 6576 039d 19       		.uleb128 0x19
 6577 039e 01       		.uleb128 0x1
 6578 039f 13       		.uleb128 0x13
 6579 03a0 00       		.byte	0
 6580 03a1 00       		.byte	0
 6581 03a2 43       		.uleb128 0x43
 6582 03a3 34       		.uleb128 0x34
 6583 03a4 00       		.byte	0
 6584 03a5 03       		.uleb128 0x3
 6585 03a6 0E       		.uleb128 0xe
 6586 03a7 3A       		.uleb128 0x3a
 6587 03a8 0B       		.uleb128 0xb
 6588 03a9 3B       		.uleb128 0x3b
 6589 03aa 05       		.uleb128 0x5
 6590 03ab 49       		.uleb128 0x49
 6591 03ac 13       		.uleb128 0x13
 6592 03ad 02       		.uleb128 0x2
 6593 03ae 18       		.uleb128 0x18
 6594 03af 00       		.byte	0
 6595 03b0 00       		.byte	0
 6596 03b1 44       		.uleb128 0x44
 6597 03b2 1D       		.uleb128 0x1d
 6598 03b3 00       		.byte	0
 6599 03b4 31       		.uleb128 0x31
 6600 03b5 13       		.uleb128 0x13
 6601 03b6 11       		.uleb128 0x11
 6602 03b7 01       		.uleb128 0x1
 6603 03b8 12       		.uleb128 0x12
 6604 03b9 06       		.uleb128 0x6
 6605 03ba 58       		.uleb128 0x58
 6606 03bb 0B       		.uleb128 0xb
 6607 03bc 59       		.uleb128 0x59
 6608 03bd 0B       		.uleb128 0xb
 6609 03be 00       		.byte	0
 6610 03bf 00       		.byte	0
 6611 03c0 45       		.uleb128 0x45
 6612 03c1 898201   		.uleb128 0x4109
ARM GAS  /tmp/cc7TFFKb.s 			page 147


 6613 03c4 00       		.byte	0
 6614 03c5 11       		.uleb128 0x11
 6615 03c6 01       		.uleb128 0x1
 6616 03c7 31       		.uleb128 0x31
 6617 03c8 13       		.uleb128 0x13
 6618 03c9 00       		.byte	0
 6619 03ca 00       		.byte	0
 6620 03cb 46       		.uleb128 0x46
 6621 03cc 34       		.uleb128 0x34
 6622 03cd 00       		.byte	0
 6623 03ce 03       		.uleb128 0x3
 6624 03cf 0E       		.uleb128 0xe
 6625 03d0 3A       		.uleb128 0x3a
 6626 03d1 0B       		.uleb128 0xb
 6627 03d2 3B       		.uleb128 0x3b
 6628 03d3 0B       		.uleb128 0xb
 6629 03d4 49       		.uleb128 0x49
 6630 03d5 13       		.uleb128 0x13
 6631 03d6 3F       		.uleb128 0x3f
 6632 03d7 19       		.uleb128 0x19
 6633 03d8 3C       		.uleb128 0x3c
 6634 03d9 19       		.uleb128 0x19
 6635 03da 00       		.byte	0
 6636 03db 00       		.byte	0
 6637 03dc 47       		.uleb128 0x47
 6638 03dd 2E       		.uleb128 0x2e
 6639 03de 00       		.byte	0
 6640 03df 3F       		.uleb128 0x3f
 6641 03e0 19       		.uleb128 0x19
 6642 03e1 03       		.uleb128 0x3
 6643 03e2 0E       		.uleb128 0xe
 6644 03e3 3A       		.uleb128 0x3a
 6645 03e4 0B       		.uleb128 0xb
 6646 03e5 3B       		.uleb128 0x3b
 6647 03e6 05       		.uleb128 0x5
 6648 03e7 27       		.uleb128 0x27
 6649 03e8 19       		.uleb128 0x19
 6650 03e9 49       		.uleb128 0x49
 6651 03ea 13       		.uleb128 0x13
 6652 03eb 3C       		.uleb128 0x3c
 6653 03ec 19       		.uleb128 0x19
 6654 03ed 00       		.byte	0
 6655 03ee 00       		.byte	0
 6656 03ef 00       		.byte	0
 6657              		.section	.debug_loc,"",%progbits
 6658              	.Ldebug_loc0:
 6659              	.LLST0:
 6660 0000 14000000 		.4byte	.LVL1
 6661 0004 30000000 		.4byte	.LVL3
 6662 0008 0100     		.2byte	0x1
 6663 000a 50       		.byte	0x50
 6664 000b 00000000 		.4byte	0
 6665 000f 00000000 		.4byte	0
 6666              	.LLST1:
 6667 0013 00000000 		.4byte	.LVL4
 6668 0017 08000000 		.4byte	.LVL6
 6669 001b 0100     		.2byte	0x1
ARM GAS  /tmp/cc7TFFKb.s 			page 148


 6670 001d 51       		.byte	0x51
 6671 001e 08000000 		.4byte	.LVL6
 6672 0022 18000000 		.4byte	.LFE206
 6673 0026 0400     		.2byte	0x4
 6674 0028 F3       		.byte	0xf3
 6675 0029 01       		.uleb128 0x1
 6676 002a 51       		.byte	0x51
 6677 002b 9F       		.byte	0x9f
 6678 002c 00000000 		.4byte	0
 6679 0030 00000000 		.4byte	0
 6680              	.LLST2:
 6681 0034 06000000 		.4byte	.LVL5
 6682 0038 0A000000 		.4byte	.LVL7
 6683 003c 0800     		.2byte	0x8
 6684 003e 74       		.byte	0x74
 6685 003f 00       		.sleb128 0
 6686 0040 11       		.byte	0x11
 6687 0041 FF817C   		.sleb128 -65281
 6688 0044 1A       		.byte	0x1a
 6689 0045 9F       		.byte	0x9f
 6690 0046 0A000000 		.4byte	.LVL7
 6691 004a 18000000 		.4byte	.LFE206
 6692 004e 0100     		.2byte	0x1
 6693 0050 53       		.byte	0x53
 6694 0051 00000000 		.4byte	0
 6695 0055 00000000 		.4byte	0
 6696              	.LLST3:
 6697 0059 00000000 		.4byte	.LVL8
 6698 005d 2C000000 		.4byte	.LVL12
 6699 0061 0100     		.2byte	0x1
 6700 0063 50       		.byte	0x50
 6701 0064 2C000000 		.4byte	.LVL12
 6702 0068 A2000000 		.4byte	.LVL26
 6703 006c 0100     		.2byte	0x1
 6704 006e 54       		.byte	0x54
 6705 006f A2000000 		.4byte	.LVL26
 6706 0073 A8000000 		.4byte	.LVL28
 6707 0077 0400     		.2byte	0x4
 6708 0079 F3       		.byte	0xf3
 6709 007a 01       		.uleb128 0x1
 6710 007b 50       		.byte	0x50
 6711 007c 9F       		.byte	0x9f
 6712 007d A8000000 		.4byte	.LVL28
 6713 0081 B2000000 		.4byte	.LVL29
 6714 0085 0100     		.2byte	0x1
 6715 0087 50       		.byte	0x50
 6716 0088 B2000000 		.4byte	.LVL29
 6717 008c 18010000 		.4byte	.LFE207
 6718 0090 0100     		.2byte	0x1
 6719 0092 54       		.byte	0x54
 6720 0093 00000000 		.4byte	0
 6721 0097 00000000 		.4byte	0
 6722              	.LLST4:
 6723 009b 00000000 		.4byte	.LVL8
 6724 009f 38000000 		.4byte	.LVL13
 6725 00a3 0100     		.2byte	0x1
 6726 00a5 51       		.byte	0x51
ARM GAS  /tmp/cc7TFFKb.s 			page 149


 6727 00a6 38000000 		.4byte	.LVL13
 6728 00aa A2000000 		.4byte	.LVL27
 6729 00ae 0100     		.2byte	0x1
 6730 00b0 56       		.byte	0x56
 6731 00b1 A2000000 		.4byte	.LVL27
 6732 00b5 A8000000 		.4byte	.LVL28
 6733 00b9 0400     		.2byte	0x4
 6734 00bb F3       		.byte	0xf3
 6735 00bc 01       		.uleb128 0x1
 6736 00bd 51       		.byte	0x51
 6737 00be 9F       		.byte	0x9f
 6738 00bf A8000000 		.4byte	.LVL28
 6739 00c3 B2000000 		.4byte	.LVL29
 6740 00c7 0100     		.2byte	0x1
 6741 00c9 51       		.byte	0x51
 6742 00ca B2000000 		.4byte	.LVL29
 6743 00ce 18010000 		.4byte	.LFE207
 6744 00d2 0100     		.2byte	0x1
 6745 00d4 56       		.byte	0x56
 6746 00d5 00000000 		.4byte	0
 6747 00d9 00000000 		.4byte	0
 6748              	.LLST6:
 6749 00dd 12000000 		.4byte	.LVL9
 6750 00e1 1A000000 		.4byte	.LVL10
 6751 00e5 0100     		.2byte	0x1
 6752 00e7 50       		.byte	0x50
 6753 00e8 00000000 		.4byte	0
 6754 00ec 00000000 		.4byte	0
 6755              	.LLST7:
 6756 00f0 1A000000 		.4byte	.LVL10
 6757 00f4 2C000000 		.4byte	.LVL12
 6758 00f8 0100     		.2byte	0x1
 6759 00fa 50       		.byte	0x50
 6760 00fb 2C000000 		.4byte	.LVL12
 6761 00ff A2000000 		.4byte	.LVL26
 6762 0103 0100     		.2byte	0x1
 6763 0105 54       		.byte	0x54
 6764 0106 A2000000 		.4byte	.LVL26
 6765 010a A8000000 		.4byte	.LVL28
 6766 010e 0400     		.2byte	0x4
 6767 0110 F3       		.byte	0xf3
 6768 0111 01       		.uleb128 0x1
 6769 0112 50       		.byte	0x50
 6770 0113 9F       		.byte	0x9f
 6771 0114 A8000000 		.4byte	.LVL28
 6772 0118 B2000000 		.4byte	.LVL29
 6773 011c 0100     		.2byte	0x1
 6774 011e 50       		.byte	0x50
 6775 011f B2000000 		.4byte	.LVL29
 6776 0123 18010000 		.4byte	.LFE207
 6777 0127 0100     		.2byte	0x1
 6778 0129 54       		.byte	0x54
 6779 012a 00000000 		.4byte	0
 6780 012e 00000000 		.4byte	0
 6781              	.LLST8:
 6782 0132 20000000 		.4byte	.LVL11
 6783 0136 2C000000 		.4byte	.LVL12
ARM GAS  /tmp/cc7TFFKb.s 			page 150


 6784 013a 0100     		.2byte	0x1
 6785 013c 50       		.byte	0x50
 6786 013d 2C000000 		.4byte	.LVL12
 6787 0141 A2000000 		.4byte	.LVL26
 6788 0145 0100     		.2byte	0x1
 6789 0147 54       		.byte	0x54
 6790 0148 A2000000 		.4byte	.LVL26
 6791 014c A8000000 		.4byte	.LVL28
 6792 0150 0400     		.2byte	0x4
 6793 0152 F3       		.byte	0xf3
 6794 0153 01       		.uleb128 0x1
 6795 0154 50       		.byte	0x50
 6796 0155 9F       		.byte	0x9f
 6797 0156 A8000000 		.4byte	.LVL28
 6798 015a B2000000 		.4byte	.LVL29
 6799 015e 0100     		.2byte	0x1
 6800 0160 50       		.byte	0x50
 6801 0161 B2000000 		.4byte	.LVL29
 6802 0165 18010000 		.4byte	.LFE207
 6803 0169 0100     		.2byte	0x1
 6804 016b 54       		.byte	0x54
 6805 016c 00000000 		.4byte	0
 6806 0170 00000000 		.4byte	0
 6807              	.LLST9:
 6808 0174 8A000000 		.4byte	.LVL20
 6809 0178 A0000000 		.4byte	.LVL25
 6810 017c 0100     		.2byte	0x1
 6811 017e 56       		.byte	0x56
 6812 017f 06010000 		.4byte	.LVL39
 6813 0183 0C010000 		.4byte	.LVL40
 6814 0187 0100     		.2byte	0x1
 6815 0189 56       		.byte	0x56
 6816 018a 00000000 		.4byte	0
 6817 018e 00000000 		.4byte	0
 6818              	.LLST11:
 6819 0192 8A000000 		.4byte	.LVL20
 6820 0196 A0000000 		.4byte	.LVL25
 6821 019a 0100     		.2byte	0x1
 6822 019c 54       		.byte	0x54
 6823 019d 06010000 		.4byte	.LVL39
 6824 01a1 0C010000 		.4byte	.LVL40
 6825 01a5 0100     		.2byte	0x1
 6826 01a7 54       		.byte	0x54
 6827 01a8 00000000 		.4byte	0
 6828 01ac 00000000 		.4byte	0
 6829              	.LLST12:
 6830 01b0 06010000 		.4byte	.LVL39
 6831 01b4 0C010000 		.4byte	.LVL40
 6832 01b8 0300     		.2byte	0x3
 6833 01ba 09       		.byte	0x9
 6834 01bb FF       		.byte	0xff
 6835 01bc 9F       		.byte	0x9f
 6836 01bd 00000000 		.4byte	0
 6837 01c1 00000000 		.4byte	0
 6838              	.LLST13:
 6839 01c5 06010000 		.4byte	.LVL39
 6840 01c9 0C010000 		.4byte	.LVL40
ARM GAS  /tmp/cc7TFFKb.s 			page 151


 6841 01cd 0100     		.2byte	0x1
 6842 01cf 54       		.byte	0x54
 6843 01d0 00000000 		.4byte	0
 6844 01d4 00000000 		.4byte	0
 6845              	.LLST14:
 6846 01d8 8E000000 		.4byte	.LVL21
 6847 01dc 90000000 		.4byte	.LVL22
 6848 01e0 0500     		.2byte	0x5
 6849 01e2 71       		.byte	0x71
 6850 01e3 00       		.sleb128 0
 6851 01e4 72       		.byte	0x72
 6852 01e5 00       		.sleb128 0
 6853 01e6 22       		.byte	0x22
 6854 01e7 90000000 		.4byte	.LVL22
 6855 01eb 92000000 		.4byte	.LVL23
 6856 01ef 0100     		.2byte	0x1
 6857 01f1 52       		.byte	0x52
 6858 01f2 00000000 		.4byte	0
 6859 01f6 00000000 		.4byte	0
 6860              	.LLST15:
 6861 01fa 8E000000 		.4byte	.LVL21
 6862 01fe 92000000 		.4byte	.LVL23
 6863 0202 0100     		.2byte	0x1
 6864 0204 54       		.byte	0x54
 6865 0205 00000000 		.4byte	0
 6866 0209 00000000 		.4byte	0
 6867              	.LLST16:
 6868 020d 44000000 		.4byte	.LVL14
 6869 0211 A0000000 		.4byte	.LVL25
 6870 0215 0200     		.2byte	0x2
 6871 0217 32       		.byte	0x32
 6872 0218 9F       		.byte	0x9f
 6873 0219 06010000 		.4byte	.LVL39
 6874 021d 0C010000 		.4byte	.LVL40
 6875 0221 0200     		.2byte	0x2
 6876 0223 32       		.byte	0x32
 6877 0224 9F       		.byte	0x9f
 6878 0225 00000000 		.4byte	0
 6879 0229 00000000 		.4byte	0
 6880              	.LLST17:
 6881 022d 44000000 		.4byte	.LVL14
 6882 0231 A0000000 		.4byte	.LVL25
 6883 0235 0100     		.2byte	0x1
 6884 0237 54       		.byte	0x54
 6885 0238 06010000 		.4byte	.LVL39
 6886 023c 0C010000 		.4byte	.LVL40
 6887 0240 0100     		.2byte	0x1
 6888 0242 54       		.byte	0x54
 6889 0243 00000000 		.4byte	0
 6890 0247 00000000 		.4byte	0
 6891              	.LLST18:
 6892 024b 4A000000 		.4byte	.LVL15
 6893 024f 7C000000 		.4byte	.LVL19
 6894 0253 0200     		.2byte	0x2
 6895 0255 31       		.byte	0x31
 6896 0256 9F       		.byte	0x9f
 6897 0257 9A000000 		.4byte	.LVL24
ARM GAS  /tmp/cc7TFFKb.s 			page 152


 6898 025b A0000000 		.4byte	.LVL25
 6899 025f 0200     		.2byte	0x2
 6900 0261 31       		.byte	0x31
 6901 0262 9F       		.byte	0x9f
 6902 0263 00000000 		.4byte	0
 6903 0267 00000000 		.4byte	0
 6904              	.LLST19:
 6905 026b 4A000000 		.4byte	.LVL15
 6906 026f 7C000000 		.4byte	.LVL19
 6907 0273 0100     		.2byte	0x1
 6908 0275 54       		.byte	0x54
 6909 0276 9A000000 		.4byte	.LVL24
 6910 027a A0000000 		.4byte	.LVL25
 6911 027e 0100     		.2byte	0x1
 6912 0280 54       		.byte	0x54
 6913 0281 00000000 		.4byte	0
 6914 0285 00000000 		.4byte	0
 6915              	.LLST20:
 6916 0289 52000000 		.4byte	.LVL16
 6917 028d 7C000000 		.4byte	.LVL19
 6918 0291 0200     		.2byte	0x2
 6919 0293 34       		.byte	0x34
 6920 0294 9F       		.byte	0x9f
 6921 0295 00000000 		.4byte	0
 6922 0299 00000000 		.4byte	0
 6923              	.LLST21:
 6924 029d 52000000 		.4byte	.LVL16
 6925 02a1 7C000000 		.4byte	.LVL19
 6926 02a5 0100     		.2byte	0x1
 6927 02a7 54       		.byte	0x54
 6928 02a8 00000000 		.4byte	0
 6929 02ac 00000000 		.4byte	0
 6930              	.LLST22:
 6931 02b0 60000000 		.4byte	.LVL17
 6932 02b4 7C000000 		.4byte	.LVL19
 6933 02b8 0100     		.2byte	0x1
 6934 02ba 54       		.byte	0x54
 6935 02bb 00000000 		.4byte	0
 6936 02bf 00000000 		.4byte	0
 6937              	.LLST23:
 6938 02c3 E4000000 		.4byte	.LVL34
 6939 02c7 F4000000 		.4byte	.LVL38
 6940 02cb 0100     		.2byte	0x1
 6941 02cd 56       		.byte	0x56
 6942 02ce 0C010000 		.4byte	.LVL40
 6943 02d2 18010000 		.4byte	.LFE207
 6944 02d6 0100     		.2byte	0x1
 6945 02d8 56       		.byte	0x56
 6946 02d9 00000000 		.4byte	0
 6947 02dd 00000000 		.4byte	0
 6948              	.LLST25:
 6949 02e1 E4000000 		.4byte	.LVL34
 6950 02e5 F4000000 		.4byte	.LVL38
 6951 02e9 0100     		.2byte	0x1
 6952 02eb 54       		.byte	0x54
 6953 02ec 0C010000 		.4byte	.LVL40
 6954 02f0 18010000 		.4byte	.LFE207
ARM GAS  /tmp/cc7TFFKb.s 			page 153


 6955 02f4 0100     		.2byte	0x1
 6956 02f6 54       		.byte	0x54
 6957 02f7 00000000 		.4byte	0
 6958 02fb 00000000 		.4byte	0
 6959              	.LLST26:
 6960 02ff E8000000 		.4byte	.LVL35
 6961 0303 EA000000 		.4byte	.LVL36
 6962 0307 0B00     		.2byte	0xb
 6963 0309 73       		.byte	0x73
 6964 030a 00       		.sleb128 0
 6965 030b 72       		.byte	0x72
 6966 030c 00       		.sleb128 0
 6967 030d 22       		.byte	0x22
 6968 030e 94       		.byte	0x94
 6969 030f 01       		.byte	0x1
 6970 0310 08       		.byte	0x8
 6971 0311 FF       		.byte	0xff
 6972 0312 1A       		.byte	0x1a
 6973 0313 9F       		.byte	0x9f
 6974 0314 EA000000 		.4byte	.LVL36
 6975 0318 EC000000 		.4byte	.LVL37
 6976 031c 0C00     		.2byte	0xc
 6977 031e 76       		.byte	0x76
 6978 031f 00       		.sleb128 0
 6979 0320 06       		.byte	0x6
 6980 0321 72       		.byte	0x72
 6981 0322 00       		.sleb128 0
 6982 0323 22       		.byte	0x22
 6983 0324 94       		.byte	0x94
 6984 0325 01       		.byte	0x1
 6985 0326 08       		.byte	0x8
 6986 0327 FF       		.byte	0xff
 6987 0328 1A       		.byte	0x1a
 6988 0329 9F       		.byte	0x9f
 6989 032a 00000000 		.4byte	0
 6990 032e 00000000 		.4byte	0
 6991              	.LLST27:
 6992 0332 E8000000 		.4byte	.LVL35
 6993 0336 EC000000 		.4byte	.LVL37
 6994 033a 0100     		.2byte	0x1
 6995 033c 54       		.byte	0x54
 6996 033d 00000000 		.4byte	0
 6997 0341 00000000 		.4byte	0
 6998              	.LLST28:
 6999 0345 BA000000 		.4byte	.LVL30
 7000 0349 CE000000 		.4byte	.LVL32
 7001 034d 0200     		.2byte	0x2
 7002 034f 32       		.byte	0x32
 7003 0350 9F       		.byte	0x9f
 7004 0351 D6000000 		.4byte	.LVL33
 7005 0355 F4000000 		.4byte	.LVL38
 7006 0359 0200     		.2byte	0x2
 7007 035b 32       		.byte	0x32
 7008 035c 9F       		.byte	0x9f
 7009 035d 0C010000 		.4byte	.LVL40
 7010 0361 18010000 		.4byte	.LFE207
 7011 0365 0200     		.2byte	0x2
ARM GAS  /tmp/cc7TFFKb.s 			page 154


 7012 0367 32       		.byte	0x32
 7013 0368 9F       		.byte	0x9f
 7014 0369 00000000 		.4byte	0
 7015 036d 00000000 		.4byte	0
 7016              	.LLST29:
 7017 0371 BA000000 		.4byte	.LVL30
 7018 0375 CE000000 		.4byte	.LVL32
 7019 0379 0100     		.2byte	0x1
 7020 037b 54       		.byte	0x54
 7021 037c D6000000 		.4byte	.LVL33
 7022 0380 F4000000 		.4byte	.LVL38
 7023 0384 0100     		.2byte	0x1
 7024 0386 54       		.byte	0x54
 7025 0387 0C010000 		.4byte	.LVL40
 7026 038b 18010000 		.4byte	.LFE207
 7027 038f 0100     		.2byte	0x1
 7028 0391 54       		.byte	0x54
 7029 0392 00000000 		.4byte	0
 7030 0396 00000000 		.4byte	0
 7031              	.LLST30:
 7032 039a C0000000 		.4byte	.LVL31
 7033 039e CE000000 		.4byte	.LVL32
 7034 03a2 0200     		.2byte	0x2
 7035 03a4 31       		.byte	0x31
 7036 03a5 9F       		.byte	0x9f
 7037 03a6 00000000 		.4byte	0
 7038 03aa 00000000 		.4byte	0
 7039              	.LLST31:
 7040 03ae C0000000 		.4byte	.LVL31
 7041 03b2 CE000000 		.4byte	.LVL32
 7042 03b6 0100     		.2byte	0x1
 7043 03b8 54       		.byte	0x54
 7044 03b9 00000000 		.4byte	0
 7045 03bd 00000000 		.4byte	0
 7046              	.LLST32:
 7047 03c1 00000000 		.4byte	.LVL41
 7048 03c5 7A000000 		.4byte	.LVL59
 7049 03c9 0100     		.2byte	0x1
 7050 03cb 50       		.byte	0x50
 7051 03cc 7A000000 		.4byte	.LVL59
 7052 03d0 82000000 		.4byte	.LVL61
 7053 03d4 0400     		.2byte	0x4
 7054 03d6 F3       		.byte	0xf3
 7055 03d7 01       		.uleb128 0x1
 7056 03d8 50       		.byte	0x50
 7057 03d9 9F       		.byte	0x9f
 7058 03da 82000000 		.4byte	.LVL61
 7059 03de C4000000 		.4byte	.LVL75
 7060 03e2 0100     		.2byte	0x1
 7061 03e4 50       		.byte	0x50
 7062 03e5 C4000000 		.4byte	.LVL75
 7063 03e9 C6000000 		.4byte	.LFE208
 7064 03ed 0400     		.2byte	0x4
 7065 03ef F3       		.byte	0xf3
 7066 03f0 01       		.uleb128 0x1
 7067 03f1 50       		.byte	0x50
 7068 03f2 9F       		.byte	0x9f
ARM GAS  /tmp/cc7TFFKb.s 			page 155


 7069 03f3 00000000 		.4byte	0
 7070 03f7 00000000 		.4byte	0
 7071              	.LLST33:
 7072 03fb 00000000 		.4byte	.LVL41
 7073 03ff 2A000000 		.4byte	.LVL45
 7074 0403 0100     		.2byte	0x1
 7075 0405 51       		.byte	0x51
 7076 0406 2A000000 		.4byte	.LVL45
 7077 040a 34000000 		.4byte	.LVL46
 7078 040e 0100     		.2byte	0x1
 7079 0410 58       		.byte	0x58
 7080 0411 34000000 		.4byte	.LVL46
 7081 0415 82000000 		.4byte	.LVL61
 7082 0419 0400     		.2byte	0x4
 7083 041b F3       		.byte	0xf3
 7084 041c 01       		.uleb128 0x1
 7085 041d 51       		.byte	0x51
 7086 041e 9F       		.byte	0x9f
 7087 041f 82000000 		.4byte	.LVL61
 7088 0423 84000000 		.4byte	.LVL62
 7089 0427 0100     		.2byte	0x1
 7090 0429 51       		.byte	0x51
 7091 042a 84000000 		.4byte	.LVL62
 7092 042e 8E000000 		.4byte	.LVL63
 7093 0432 0100     		.2byte	0x1
 7094 0434 58       		.byte	0x58
 7095 0435 8E000000 		.4byte	.LVL63
 7096 0439 C6000000 		.4byte	.LFE208
 7097 043d 0400     		.2byte	0x4
 7098 043f F3       		.byte	0xf3
 7099 0440 01       		.uleb128 0x1
 7100 0441 51       		.byte	0x51
 7101 0442 9F       		.byte	0x9f
 7102 0443 00000000 		.4byte	0
 7103 0447 00000000 		.4byte	0
 7104              	.LLST34:
 7105 044b 00000000 		.4byte	.LVL41
 7106 044f 34000000 		.4byte	.LVL46
 7107 0453 0200     		.2byte	0x2
 7108 0455 30       		.byte	0x30
 7109 0456 9F       		.byte	0x9f
 7110 0457 34000000 		.4byte	.LVL46
 7111 045b 7A000000 		.4byte	.LVL60
 7112 045f 0100     		.2byte	0x1
 7113 0461 56       		.byte	0x56
 7114 0462 82000000 		.4byte	.LVL61
 7115 0466 8E000000 		.4byte	.LVL63
 7116 046a 0200     		.2byte	0x2
 7117 046c 30       		.byte	0x30
 7118 046d 9F       		.byte	0x9f
 7119 046e 8E000000 		.4byte	.LVL63
 7120 0472 C6000000 		.4byte	.LFE208
 7121 0476 0100     		.2byte	0x1
 7122 0478 56       		.byte	0x56
 7123 0479 00000000 		.4byte	0
 7124 047d 00000000 		.4byte	0
 7125              	.LLST35:
ARM GAS  /tmp/cc7TFFKb.s 			page 156


 7126 0481 00000000 		.4byte	.LVL41
 7127 0485 34000000 		.4byte	.LVL46
 7128 0489 0200     		.2byte	0x2
 7129 048b 30       		.byte	0x30
 7130 048c 9F       		.byte	0x9f
 7131 048d 34000000 		.4byte	.LVL46
 7132 0491 82000000 		.4byte	.LVL61
 7133 0495 0100     		.2byte	0x1
 7134 0497 53       		.byte	0x53
 7135 0498 82000000 		.4byte	.LVL61
 7136 049c 8E000000 		.4byte	.LVL63
 7137 04a0 0200     		.2byte	0x2
 7138 04a2 30       		.byte	0x30
 7139 04a3 9F       		.byte	0x9f
 7140 04a4 8E000000 		.4byte	.LVL63
 7141 04a8 A8000000 		.4byte	.LVL68
 7142 04ac 0100     		.2byte	0x1
 7143 04ae 53       		.byte	0x53
 7144 04af A8000000 		.4byte	.LVL68
 7145 04b3 AA000000 		.4byte	.LVL69
 7146 04b7 0300     		.2byte	0x3
 7147 04b9 73       		.byte	0x73
 7148 04ba 7E       		.sleb128 -2
 7149 04bb 9F       		.byte	0x9f
 7150 04bc AA000000 		.4byte	.LVL69
 7151 04c0 C6000000 		.4byte	.LFE208
 7152 04c4 0100     		.2byte	0x1
 7153 04c6 53       		.byte	0x53
 7154 04c7 00000000 		.4byte	0
 7155 04cb 00000000 		.4byte	0
 7156              	.LLST37:
 7157 04cf 12000000 		.4byte	.LVL42
 7158 04d3 1A000000 		.4byte	.LVL43
 7159 04d7 0100     		.2byte	0x1
 7160 04d9 50       		.byte	0x50
 7161 04da 00000000 		.4byte	0
 7162 04de 00000000 		.4byte	0
 7163              	.LLST38:
 7164 04e2 1A000000 		.4byte	.LVL43
 7165 04e6 7A000000 		.4byte	.LVL59
 7166 04ea 0100     		.2byte	0x1
 7167 04ec 50       		.byte	0x50
 7168 04ed 7A000000 		.4byte	.LVL59
 7169 04f1 82000000 		.4byte	.LVL61
 7170 04f5 0400     		.2byte	0x4
 7171 04f7 F3       		.byte	0xf3
 7172 04f8 01       		.uleb128 0x1
 7173 04f9 50       		.byte	0x50
 7174 04fa 9F       		.byte	0x9f
 7175 04fb 82000000 		.4byte	.LVL61
 7176 04ff C4000000 		.4byte	.LVL75
 7177 0503 0100     		.2byte	0x1
 7178 0505 50       		.byte	0x50
 7179 0506 C4000000 		.4byte	.LVL75
 7180 050a C6000000 		.4byte	.LFE208
 7181 050e 0400     		.2byte	0x4
 7182 0510 F3       		.byte	0xf3
ARM GAS  /tmp/cc7TFFKb.s 			page 157


 7183 0511 01       		.uleb128 0x1
 7184 0512 50       		.byte	0x50
 7185 0513 9F       		.byte	0x9f
 7186 0514 00000000 		.4byte	0
 7187 0518 00000000 		.4byte	0
 7188              	.LLST39:
 7189 051c 20000000 		.4byte	.LVL44
 7190 0520 7A000000 		.4byte	.LVL59
 7191 0524 0100     		.2byte	0x1
 7192 0526 50       		.byte	0x50
 7193 0527 7A000000 		.4byte	.LVL59
 7194 052b 82000000 		.4byte	.LVL61
 7195 052f 0400     		.2byte	0x4
 7196 0531 F3       		.byte	0xf3
 7197 0532 01       		.uleb128 0x1
 7198 0533 50       		.byte	0x50
 7199 0534 9F       		.byte	0x9f
 7200 0535 82000000 		.4byte	.LVL61
 7201 0539 C4000000 		.4byte	.LVL75
 7202 053d 0100     		.2byte	0x1
 7203 053f 50       		.byte	0x50
 7204 0540 C4000000 		.4byte	.LVL75
 7205 0544 C6000000 		.4byte	.LFE208
 7206 0548 0400     		.2byte	0x4
 7207 054a F3       		.byte	0xf3
 7208 054b 01       		.uleb128 0x1
 7209 054c 50       		.byte	0x50
 7210 054d 9F       		.byte	0x9f
 7211 054e 00000000 		.4byte	0
 7212 0552 00000000 		.4byte	0
 7213              	.LLST40:
 7214 0556 34000000 		.4byte	.LVL46
 7215 055a 78000000 		.4byte	.LVL58
 7216 055e 0100     		.2byte	0x1
 7217 0560 58       		.byte	0x58
 7218 0561 00000000 		.4byte	0
 7219 0565 00000000 		.4byte	0
 7220              	.LLST41:
 7221 0569 3C000000 		.4byte	.LVL47
 7222 056d 78000000 		.4byte	.LVL58
 7223 0571 0200     		.2byte	0x2
 7224 0573 32       		.byte	0x32
 7225 0574 9F       		.byte	0x9f
 7226 0575 00000000 		.4byte	0
 7227 0579 00000000 		.4byte	0
 7228              	.LLST42:
 7229 057d 3C000000 		.4byte	.LVL47
 7230 0581 78000000 		.4byte	.LVL58
 7231 0585 0100     		.2byte	0x1
 7232 0587 50       		.byte	0x50
 7233 0588 00000000 		.4byte	0
 7234 058c 00000000 		.4byte	0
 7235              	.LLST43:
 7236 0590 3E000000 		.4byte	.LVL48
 7237 0594 5C000000 		.4byte	.LVL52
 7238 0598 0200     		.2byte	0x2
 7239 059a 31       		.byte	0x31
ARM GAS  /tmp/cc7TFFKb.s 			page 158


 7240 059b 9F       		.byte	0x9f
 7241 059c 74000000 		.4byte	.LVL57
 7242 05a0 78000000 		.4byte	.LVL58
 7243 05a4 0200     		.2byte	0x2
 7244 05a6 31       		.byte	0x31
 7245 05a7 9F       		.byte	0x9f
 7246 05a8 00000000 		.4byte	0
 7247 05ac 00000000 		.4byte	0
 7248              	.LLST44:
 7249 05b0 3E000000 		.4byte	.LVL48
 7250 05b4 5C000000 		.4byte	.LVL52
 7251 05b8 0100     		.2byte	0x1
 7252 05ba 50       		.byte	0x50
 7253 05bb 74000000 		.4byte	.LVL57
 7254 05bf 78000000 		.4byte	.LVL58
 7255 05c3 0100     		.2byte	0x1
 7256 05c5 50       		.byte	0x50
 7257 05c6 00000000 		.4byte	0
 7258 05ca 00000000 		.4byte	0
 7259              	.LLST45:
 7260 05ce 44000000 		.4byte	.LVL49
 7261 05d2 5C000000 		.4byte	.LVL52
 7262 05d6 0200     		.2byte	0x2
 7263 05d8 34       		.byte	0x34
 7264 05d9 9F       		.byte	0x9f
 7265 05da 00000000 		.4byte	0
 7266 05de 00000000 		.4byte	0
 7267              	.LLST46:
 7268 05e2 44000000 		.4byte	.LVL49
 7269 05e6 5C000000 		.4byte	.LVL52
 7270 05ea 0100     		.2byte	0x1
 7271 05ec 50       		.byte	0x50
 7272 05ed 00000000 		.4byte	0
 7273 05f1 00000000 		.4byte	0
 7274              	.LLST47:
 7275 05f5 4E000000 		.4byte	.LVL50
 7276 05f9 5C000000 		.4byte	.LVL52
 7277 05fd 0100     		.2byte	0x1
 7278 05ff 50       		.byte	0x50
 7279 0600 00000000 		.4byte	0
 7280 0604 00000000 		.4byte	0
 7281              	.LLST48:
 7282 0608 64000000 		.4byte	.LVL53
 7283 060c 6E000000 		.4byte	.LVL54
 7284 0610 0800     		.2byte	0x8
 7285 0612 78       		.byte	0x78
 7286 0613 00       		.sleb128 0
 7287 0614 94       		.byte	0x94
 7288 0615 01       		.byte	0x1
 7289 0616 08       		.byte	0x8
 7290 0617 FF       		.byte	0xff
 7291 0618 1A       		.byte	0x1a
 7292 0619 9F       		.byte	0x9f
 7293 061a 6E000000 		.4byte	.LVL54
 7294 061e 70000000 		.4byte	.LVL55
 7295 0622 0600     		.2byte	0x6
 7296 0624 74       		.byte	0x74
ARM GAS  /tmp/cc7TFFKb.s 			page 159


 7297 0625 00       		.sleb128 0
 7298 0626 08       		.byte	0x8
 7299 0627 FF       		.byte	0xff
 7300 0628 1A       		.byte	0x1a
 7301 0629 9F       		.byte	0x9f
 7302 062a 70000000 		.4byte	.LVL55
 7303 062e 78000000 		.4byte	.LVL58
 7304 0632 0700     		.2byte	0x7
 7305 0634 70       		.byte	0x70
 7306 0635 08       		.sleb128 8
 7307 0636 06       		.byte	0x6
 7308 0637 08       		.byte	0x8
 7309 0638 FF       		.byte	0xff
 7310 0639 1A       		.byte	0x1a
 7311 063a 9F       		.byte	0x9f
 7312 063b 00000000 		.4byte	0
 7313 063f 00000000 		.4byte	0
 7314              	.LLST49:
 7315 0643 64000000 		.4byte	.LVL53
 7316 0647 78000000 		.4byte	.LVL58
 7317 064b 0100     		.2byte	0x1
 7318 064d 50       		.byte	0x50
 7319 064e 00000000 		.4byte	0
 7320 0652 00000000 		.4byte	0
 7321              	.LLST50:
 7322 0656 8E000000 		.4byte	.LVL63
 7323 065a C2000000 		.4byte	.LVL74
 7324 065e 0100     		.2byte	0x1
 7325 0660 58       		.byte	0x58
 7326 0661 00000000 		.4byte	0
 7327 0665 00000000 		.4byte	0
 7328              	.LLST51:
 7329 0669 96000000 		.4byte	.LVL64
 7330 066d C2000000 		.4byte	.LVL74
 7331 0671 0200     		.2byte	0x2
 7332 0673 32       		.byte	0x32
 7333 0674 9F       		.byte	0x9f
 7334 0675 00000000 		.4byte	0
 7335 0679 00000000 		.4byte	0
 7336              	.LLST52:
 7337 067d 96000000 		.4byte	.LVL64
 7338 0681 C2000000 		.4byte	.LVL74
 7339 0685 0100     		.2byte	0x1
 7340 0687 50       		.byte	0x50
 7341 0688 00000000 		.4byte	0
 7342 068c 00000000 		.4byte	0
 7343              	.LLST53:
 7344 0690 98000000 		.4byte	.LVL65
 7345 0694 AA000000 		.4byte	.LVL69
 7346 0698 0200     		.2byte	0x2
 7347 069a 31       		.byte	0x31
 7348 069b 9F       		.byte	0x9f
 7349 069c 00000000 		.4byte	0
 7350 06a0 00000000 		.4byte	0
 7351              	.LLST54:
 7352 06a4 98000000 		.4byte	.LVL65
 7353 06a8 AA000000 		.4byte	.LVL69
ARM GAS  /tmp/cc7TFFKb.s 			page 160


 7354 06ac 0100     		.2byte	0x1
 7355 06ae 50       		.byte	0x50
 7356 06af 00000000 		.4byte	0
 7357 06b3 00000000 		.4byte	0
 7358              	.LLST55:
 7359 06b7 9E000000 		.4byte	.LVL66
 7360 06bb AA000000 		.4byte	.LVL69
 7361 06bf 0200     		.2byte	0x2
 7362 06c1 34       		.byte	0x34
 7363 06c2 9F       		.byte	0x9f
 7364 06c3 00000000 		.4byte	0
 7365 06c7 00000000 		.4byte	0
 7366              	.LLST56:
 7367 06cb 9E000000 		.4byte	.LVL66
 7368 06cf AA000000 		.4byte	.LVL69
 7369 06d3 0100     		.2byte	0x1
 7370 06d5 50       		.byte	0x50
 7371 06d6 00000000 		.4byte	0
 7372 06da 00000000 		.4byte	0
 7373              	.LLST57:
 7374 06de A4000000 		.4byte	.LVL67
 7375 06e2 AA000000 		.4byte	.LVL69
 7376 06e6 0100     		.2byte	0x1
 7377 06e8 50       		.byte	0x50
 7378 06e9 00000000 		.4byte	0
 7379 06ed 00000000 		.4byte	0
 7380              	.LLST58:
 7381 06f1 B2000000 		.4byte	.LVL70
 7382 06f5 BC000000 		.4byte	.LVL71
 7383 06f9 0200     		.2byte	0x2
 7384 06fb 78       		.byte	0x78
 7385 06fc 00       		.sleb128 0
 7386 06fd BC000000 		.4byte	.LVL71
 7387 0701 C2000000 		.4byte	.LVL74
 7388 0705 0100     		.2byte	0x1
 7389 0707 54       		.byte	0x54
 7390 0708 00000000 		.4byte	0
 7391 070c 00000000 		.4byte	0
 7392              	.LLST59:
 7393 0710 B2000000 		.4byte	.LVL70
 7394 0714 C2000000 		.4byte	.LVL74
 7395 0718 0100     		.2byte	0x1
 7396 071a 50       		.byte	0x50
 7397 071b 00000000 		.4byte	0
 7398 071f 00000000 		.4byte	0
 7399              	.LLST60:
 7400 0723 00000000 		.4byte	.LVL76
 7401 0727 7E000000 		.4byte	.LVL91
 7402 072b 0100     		.2byte	0x1
 7403 072d 50       		.byte	0x50
 7404 072e 7E000000 		.4byte	.LVL91
 7405 0732 86000000 		.4byte	.LVL93
 7406 0736 0400     		.2byte	0x4
 7407 0738 F3       		.byte	0xf3
 7408 0739 01       		.uleb128 0x1
 7409 073a 50       		.byte	0x50
 7410 073b 9F       		.byte	0x9f
ARM GAS  /tmp/cc7TFFKb.s 			page 161


 7411 073c 86000000 		.4byte	.LVL93
 7412 0740 D6000000 		.4byte	.LVL105
 7413 0744 0100     		.2byte	0x1
 7414 0746 50       		.byte	0x50
 7415 0747 D6000000 		.4byte	.LVL105
 7416 074b DC000000 		.4byte	.LFE209
 7417 074f 0400     		.2byte	0x4
 7418 0751 F3       		.byte	0xf3
 7419 0752 01       		.uleb128 0x1
 7420 0753 50       		.byte	0x50
 7421 0754 9F       		.byte	0x9f
 7422 0755 00000000 		.4byte	0
 7423 0759 00000000 		.4byte	0
 7424              	.LLST61:
 7425 075d 00000000 		.4byte	.LVL76
 7426 0761 38000000 		.4byte	.LVL80
 7427 0765 0100     		.2byte	0x1
 7428 0767 51       		.byte	0x51
 7429 0768 38000000 		.4byte	.LVL80
 7430 076c 86000000 		.4byte	.LVL93
 7431 0770 0400     		.2byte	0x4
 7432 0772 F3       		.byte	0xf3
 7433 0773 01       		.uleb128 0x1
 7434 0774 51       		.byte	0x51
 7435 0775 9F       		.byte	0x9f
 7436 0776 86000000 		.4byte	.LVL93
 7437 077a 96000000 		.4byte	.LVL94
 7438 077e 0100     		.2byte	0x1
 7439 0780 51       		.byte	0x51
 7440 0781 96000000 		.4byte	.LVL94
 7441 0785 DC000000 		.4byte	.LFE209
 7442 0789 0400     		.2byte	0x4
 7443 078b F3       		.byte	0xf3
 7444 078c 01       		.uleb128 0x1
 7445 078d 51       		.byte	0x51
 7446 078e 9F       		.byte	0x9f
 7447 078f 00000000 		.4byte	0
 7448 0793 00000000 		.4byte	0
 7449              	.LLST62:
 7450 0797 00000000 		.4byte	.LVL76
 7451 079b 38000000 		.4byte	.LVL80
 7452 079f 0200     		.2byte	0x2
 7453 07a1 30       		.byte	0x30
 7454 07a2 9F       		.byte	0x9f
 7455 07a3 38000000 		.4byte	.LVL80
 7456 07a7 58000000 		.4byte	.LVL85
 7457 07ab 0100     		.2byte	0x1
 7458 07ad 53       		.byte	0x53
 7459 07ae 58000000 		.4byte	.LVL85
 7460 07b2 5E000000 		.4byte	.LVL86
 7461 07b6 0300     		.2byte	0x3
 7462 07b8 73       		.byte	0x73
 7463 07b9 7F       		.sleb128 -1
 7464 07ba 9F       		.byte	0x9f
 7465 07bb 5E000000 		.4byte	.LVL86
 7466 07bf 86000000 		.4byte	.LVL93
 7467 07c3 0100     		.2byte	0x1
ARM GAS  /tmp/cc7TFFKb.s 			page 162


 7468 07c5 53       		.byte	0x53
 7469 07c6 86000000 		.4byte	.LVL93
 7470 07ca 96000000 		.4byte	.LVL94
 7471 07ce 0200     		.2byte	0x2
 7472 07d0 30       		.byte	0x30
 7473 07d1 9F       		.byte	0x9f
 7474 07d2 96000000 		.4byte	.LVL94
 7475 07d6 B6000000 		.4byte	.LVL99
 7476 07da 0100     		.2byte	0x1
 7477 07dc 53       		.byte	0x53
 7478 07dd B6000000 		.4byte	.LVL99
 7479 07e1 BC000000 		.4byte	.LVL100
 7480 07e5 0300     		.2byte	0x3
 7481 07e7 73       		.byte	0x73
 7482 07e8 7E       		.sleb128 -2
 7483 07e9 9F       		.byte	0x9f
 7484 07ea BC000000 		.4byte	.LVL100
 7485 07ee DC000000 		.4byte	.LFE209
 7486 07f2 0100     		.2byte	0x1
 7487 07f4 53       		.byte	0x53
 7488 07f5 00000000 		.4byte	0
 7489 07f9 00000000 		.4byte	0
 7490              	.LLST63:
 7491 07fd 00000000 		.4byte	.LVL76
 7492 0801 38000000 		.4byte	.LVL80
 7493 0805 0200     		.2byte	0x2
 7494 0807 30       		.byte	0x30
 7495 0808 9F       		.byte	0x9f
 7496 0809 38000000 		.4byte	.LVL80
 7497 080d 7E000000 		.4byte	.LVL92
 7498 0811 0100     		.2byte	0x1
 7499 0813 56       		.byte	0x56
 7500 0814 86000000 		.4byte	.LVL93
 7501 0818 96000000 		.4byte	.LVL94
 7502 081c 0200     		.2byte	0x2
 7503 081e 30       		.byte	0x30
 7504 081f 9F       		.byte	0x9f
 7505 0820 96000000 		.4byte	.LVL94
 7506 0824 DC000000 		.4byte	.LFE209
 7507 0828 0100     		.2byte	0x1
 7508 082a 56       		.byte	0x56
 7509 082b 00000000 		.4byte	0
 7510 082f 00000000 		.4byte	0
 7511              	.LLST65:
 7512 0833 10000000 		.4byte	.LVL77
 7513 0837 18000000 		.4byte	.LVL78
 7514 083b 0100     		.2byte	0x1
 7515 083d 50       		.byte	0x50
 7516 083e 00000000 		.4byte	0
 7517 0842 00000000 		.4byte	0
 7518              	.LLST66:
 7519 0846 18000000 		.4byte	.LVL78
 7520 084a 7E000000 		.4byte	.LVL91
 7521 084e 0100     		.2byte	0x1
 7522 0850 50       		.byte	0x50
 7523 0851 7E000000 		.4byte	.LVL91
 7524 0855 86000000 		.4byte	.LVL93
ARM GAS  /tmp/cc7TFFKb.s 			page 163


 7525 0859 0400     		.2byte	0x4
 7526 085b F3       		.byte	0xf3
 7527 085c 01       		.uleb128 0x1
 7528 085d 50       		.byte	0x50
 7529 085e 9F       		.byte	0x9f
 7530 085f 86000000 		.4byte	.LVL93
 7531 0863 D6000000 		.4byte	.LVL105
 7532 0867 0100     		.2byte	0x1
 7533 0869 50       		.byte	0x50
 7534 086a D6000000 		.4byte	.LVL105
 7535 086e DC000000 		.4byte	.LFE209
 7536 0872 0400     		.2byte	0x4
 7537 0874 F3       		.byte	0xf3
 7538 0875 01       		.uleb128 0x1
 7539 0876 50       		.byte	0x50
 7540 0877 9F       		.byte	0x9f
 7541 0878 00000000 		.4byte	0
 7542 087c 00000000 		.4byte	0
 7543              	.LLST67:
 7544 0880 1E000000 		.4byte	.LVL79
 7545 0884 7E000000 		.4byte	.LVL91
 7546 0888 0100     		.2byte	0x1
 7547 088a 50       		.byte	0x50
 7548 088b 7E000000 		.4byte	.LVL91
 7549 088f 86000000 		.4byte	.LVL93
 7550 0893 0400     		.2byte	0x4
 7551 0895 F3       		.byte	0xf3
 7552 0896 01       		.uleb128 0x1
 7553 0897 50       		.byte	0x50
 7554 0898 9F       		.byte	0x9f
 7555 0899 86000000 		.4byte	.LVL93
 7556 089d D6000000 		.4byte	.LVL105
 7557 08a1 0100     		.2byte	0x1
 7558 08a3 50       		.byte	0x50
 7559 08a4 D6000000 		.4byte	.LVL105
 7560 08a8 DC000000 		.4byte	.LFE209
 7561 08ac 0400     		.2byte	0x4
 7562 08ae F3       		.byte	0xf3
 7563 08af 01       		.uleb128 0x1
 7564 08b0 50       		.byte	0x50
 7565 08b1 9F       		.byte	0x9f
 7566 08b2 00000000 		.4byte	0
 7567 08b6 00000000 		.4byte	0
 7568              	.LLST68:
 7569 08ba 38000000 		.4byte	.LVL80
 7570 08be 7C000000 		.4byte	.LVL90
 7571 08c2 0100     		.2byte	0x1
 7572 08c4 51       		.byte	0x51
 7573 08c5 00000000 		.4byte	0
 7574 08c9 00000000 		.4byte	0
 7575              	.LLST69:
 7576 08cd 40000000 		.4byte	.LVL81
 7577 08d1 7C000000 		.4byte	.LVL90
 7578 08d5 0200     		.2byte	0x2
 7579 08d7 32       		.byte	0x32
 7580 08d8 9F       		.byte	0x9f
 7581 08d9 00000000 		.4byte	0
ARM GAS  /tmp/cc7TFFKb.s 			page 164


 7582 08dd 00000000 		.4byte	0
 7583              	.LLST70:
 7584 08e1 40000000 		.4byte	.LVL81
 7585 08e5 7C000000 		.4byte	.LVL90
 7586 08e9 0100     		.2byte	0x1
 7587 08eb 50       		.byte	0x50
 7588 08ec 00000000 		.4byte	0
 7589 08f0 00000000 		.4byte	0
 7590              	.LLST71:
 7591 08f4 6E000000 		.4byte	.LVL88
 7592 08f8 7C000000 		.4byte	.LVL90
 7593 08fc 0300     		.2byte	0x3
 7594 08fe 08       		.byte	0x8
 7595 08ff FF       		.byte	0xff
 7596 0900 9F       		.byte	0x9f
 7597 0901 00000000 		.4byte	0
 7598 0905 00000000 		.4byte	0
 7599              	.LLST72:
 7600 0909 6E000000 		.4byte	.LVL88
 7601 090d 7C000000 		.4byte	.LVL90
 7602 0911 0100     		.2byte	0x1
 7603 0913 50       		.byte	0x50
 7604 0914 00000000 		.4byte	0
 7605 0918 00000000 		.4byte	0
 7606              	.LLST73:
 7607 091c 42000000 		.4byte	.LVL82
 7608 0920 66000000 		.4byte	.LVL87
 7609 0924 0200     		.2byte	0x2
 7610 0926 31       		.byte	0x31
 7611 0927 9F       		.byte	0x9f
 7612 0928 78000000 		.4byte	.LVL89
 7613 092c 7C000000 		.4byte	.LVL90
 7614 0930 0200     		.2byte	0x2
 7615 0932 31       		.byte	0x31
 7616 0933 9F       		.byte	0x9f
 7617 0934 00000000 		.4byte	0
 7618 0938 00000000 		.4byte	0
 7619              	.LLST74:
 7620 093c 42000000 		.4byte	.LVL82
 7621 0940 66000000 		.4byte	.LVL87
 7622 0944 0100     		.2byte	0x1
 7623 0946 50       		.byte	0x50
 7624 0947 78000000 		.4byte	.LVL89
 7625 094b 7C000000 		.4byte	.LVL90
 7626 094f 0100     		.2byte	0x1
 7627 0951 50       		.byte	0x50
 7628 0952 00000000 		.4byte	0
 7629 0956 00000000 		.4byte	0
 7630              	.LLST75:
 7631 095a 4A000000 		.4byte	.LVL83
 7632 095e 66000000 		.4byte	.LVL87
 7633 0962 0200     		.2byte	0x2
 7634 0964 34       		.byte	0x34
 7635 0965 9F       		.byte	0x9f
 7636 0966 00000000 		.4byte	0
 7637 096a 00000000 		.4byte	0
 7638              	.LLST76:
ARM GAS  /tmp/cc7TFFKb.s 			page 165


 7639 096e 4A000000 		.4byte	.LVL83
 7640 0972 66000000 		.4byte	.LVL87
 7641 0976 0100     		.2byte	0x1
 7642 0978 50       		.byte	0x50
 7643 0979 00000000 		.4byte	0
 7644 097d 00000000 		.4byte	0
 7645              	.LLST77:
 7646 0981 54000000 		.4byte	.LVL84
 7647 0985 66000000 		.4byte	.LVL87
 7648 0989 0100     		.2byte	0x1
 7649 098b 50       		.byte	0x50
 7650 098c 00000000 		.4byte	0
 7651 0990 00000000 		.4byte	0
 7652              	.LLST78:
 7653 0994 96000000 		.4byte	.LVL94
 7654 0998 D4000000 		.4byte	.LVL104
 7655 099c 0100     		.2byte	0x1
 7656 099e 51       		.byte	0x51
 7657 099f 00000000 		.4byte	0
 7658 09a3 00000000 		.4byte	0
 7659              	.LLST79:
 7660 09a7 9E000000 		.4byte	.LVL95
 7661 09ab D4000000 		.4byte	.LVL104
 7662 09af 0200     		.2byte	0x2
 7663 09b1 32       		.byte	0x32
 7664 09b2 9F       		.byte	0x9f
 7665 09b3 00000000 		.4byte	0
 7666 09b7 00000000 		.4byte	0
 7667              	.LLST80:
 7668 09bb 9E000000 		.4byte	.LVL95
 7669 09bf D4000000 		.4byte	.LVL104
 7670 09c3 0100     		.2byte	0x1
 7671 09c5 50       		.byte	0x50
 7672 09c6 00000000 		.4byte	0
 7673 09ca 00000000 		.4byte	0
 7674              	.LLST81:
 7675 09ce CC000000 		.4byte	.LVL102
 7676 09d2 D4000000 		.4byte	.LVL104
 7677 09d6 0300     		.2byte	0x3
 7678 09d8 09       		.byte	0x9
 7679 09d9 FF       		.byte	0xff
 7680 09da 9F       		.byte	0x9f
 7681 09db 00000000 		.4byte	0
 7682 09df 00000000 		.4byte	0
 7683              	.LLST82:
 7684 09e3 CC000000 		.4byte	.LVL102
 7685 09e7 D4000000 		.4byte	.LVL104
 7686 09eb 0100     		.2byte	0x1
 7687 09ed 50       		.byte	0x50
 7688 09ee 00000000 		.4byte	0
 7689 09f2 00000000 		.4byte	0
 7690              	.LLST83:
 7691 09f6 A0000000 		.4byte	.LVL96
 7692 09fa C4000000 		.4byte	.LVL101
 7693 09fe 0200     		.2byte	0x2
 7694 0a00 31       		.byte	0x31
 7695 0a01 9F       		.byte	0x9f
ARM GAS  /tmp/cc7TFFKb.s 			page 166


 7696 0a02 00000000 		.4byte	0
 7697 0a06 00000000 		.4byte	0
 7698              	.LLST84:
 7699 0a0a A0000000 		.4byte	.LVL96
 7700 0a0e C4000000 		.4byte	.LVL101
 7701 0a12 0100     		.2byte	0x1
 7702 0a14 50       		.byte	0x50
 7703 0a15 00000000 		.4byte	0
 7704 0a19 00000000 		.4byte	0
 7705              	.LLST85:
 7706 0a1d A8000000 		.4byte	.LVL97
 7707 0a21 C4000000 		.4byte	.LVL101
 7708 0a25 0200     		.2byte	0x2
 7709 0a27 34       		.byte	0x34
 7710 0a28 9F       		.byte	0x9f
 7711 0a29 00000000 		.4byte	0
 7712 0a2d 00000000 		.4byte	0
 7713              	.LLST86:
 7714 0a31 A8000000 		.4byte	.LVL97
 7715 0a35 C4000000 		.4byte	.LVL101
 7716 0a39 0100     		.2byte	0x1
 7717 0a3b 50       		.byte	0x50
 7718 0a3c 00000000 		.4byte	0
 7719 0a40 00000000 		.4byte	0
 7720              	.LLST87:
 7721 0a44 B2000000 		.4byte	.LVL98
 7722 0a48 C4000000 		.4byte	.LVL101
 7723 0a4c 0100     		.2byte	0x1
 7724 0a4e 50       		.byte	0x50
 7725 0a4f 00000000 		.4byte	0
 7726 0a53 00000000 		.4byte	0
 7727              	.LLST88:
 7728 0a57 08000000 		.4byte	.LVL107
 7729 0a5b 0E000000 		.4byte	.LVL108
 7730 0a5f 0200     		.2byte	0x2
 7731 0a61 40       		.byte	0x40
 7732 0a62 9F       		.byte	0x9f
 7733 0a63 00000000 		.4byte	0
 7734 0a67 00000000 		.4byte	0
 7735              	.LLST89:
 7736 0a6b 08000000 		.4byte	.LVL107
 7737 0a6f 0E000000 		.4byte	.LVL108
 7738 0a73 0100     		.2byte	0x1
 7739 0a75 50       		.byte	0x50
 7740 0a76 00000000 		.4byte	0
 7741 0a7a 00000000 		.4byte	0
 7742              	.LLST90:
 7743 0a7e 16000000 		.4byte	.LVL109
 7744 0a82 1E000000 		.4byte	.LVL110
 7745 0a86 0100     		.2byte	0x1
 7746 0a88 50       		.byte	0x50
 7747 0a89 00000000 		.4byte	0
 7748 0a8d 00000000 		.4byte	0
 7749              	.LLST91:
 7750 0a91 00000000 		.4byte	.LVL111
 7751 0a95 1B000000 		.4byte	.LVL112-1
 7752 0a99 0100     		.2byte	0x1
ARM GAS  /tmp/cc7TFFKb.s 			page 167


 7753 0a9b 50       		.byte	0x50
 7754 0a9c 1B000000 		.4byte	.LVL112-1
 7755 0aa0 70000000 		.4byte	.LVL123
 7756 0aa4 0100     		.2byte	0x1
 7757 0aa6 55       		.byte	0x55
 7758 0aa7 70000000 		.4byte	.LVL123
 7759 0aab 78000000 		.4byte	.LVL124
 7760 0aaf 0400     		.2byte	0x4
 7761 0ab1 F3       		.byte	0xf3
 7762 0ab2 01       		.uleb128 0x1
 7763 0ab3 50       		.byte	0x50
 7764 0ab4 9F       		.byte	0x9f
 7765 0ab5 78000000 		.4byte	.LVL124
 7766 0ab9 80000000 		.4byte	.LVL125
 7767 0abd 0100     		.2byte	0x1
 7768 0abf 50       		.byte	0x50
 7769 0ac0 80000000 		.4byte	.LVL125
 7770 0ac4 84000000 		.4byte	.LFE211
 7771 0ac8 0100     		.2byte	0x1
 7772 0aca 55       		.byte	0x55
 7773 0acb 00000000 		.4byte	0
 7774 0acf 00000000 		.4byte	0
 7775              	.LLST92:
 7776 0ad3 00000000 		.4byte	.LVL111
 7777 0ad7 1B000000 		.4byte	.LVL112-1
 7778 0adb 0100     		.2byte	0x1
 7779 0add 51       		.byte	0x51
 7780 0ade 1B000000 		.4byte	.LVL112-1
 7781 0ae2 70000000 		.4byte	.LVL123
 7782 0ae6 0100     		.2byte	0x1
 7783 0ae8 54       		.byte	0x54
 7784 0ae9 70000000 		.4byte	.LVL123
 7785 0aed 78000000 		.4byte	.LVL124
 7786 0af1 0400     		.2byte	0x4
 7787 0af3 F3       		.byte	0xf3
 7788 0af4 01       		.uleb128 0x1
 7789 0af5 51       		.byte	0x51
 7790 0af6 9F       		.byte	0x9f
 7791 0af7 78000000 		.4byte	.LVL124
 7792 0afb 80000000 		.4byte	.LVL125
 7793 0aff 0100     		.2byte	0x1
 7794 0b01 51       		.byte	0x51
 7795 0b02 80000000 		.4byte	.LVL125
 7796 0b06 84000000 		.4byte	.LFE211
 7797 0b0a 0100     		.2byte	0x1
 7798 0b0c 54       		.byte	0x54
 7799 0b0d 00000000 		.4byte	0
 7800 0b11 00000000 		.4byte	0
 7801              	.LLST94:
 7802 0b15 1C000000 		.4byte	.LVL112
 7803 0b19 70000000 		.4byte	.LVL123
 7804 0b1d 0200     		.2byte	0x2
 7805 0b1f 32       		.byte	0x32
 7806 0b20 9F       		.byte	0x9f
 7807 0b21 80000000 		.4byte	.LVL125
 7808 0b25 84000000 		.4byte	.LFE211
 7809 0b29 0200     		.2byte	0x2
ARM GAS  /tmp/cc7TFFKb.s 			page 168


 7810 0b2b 32       		.byte	0x32
 7811 0b2c 9F       		.byte	0x9f
 7812 0b2d 00000000 		.4byte	0
 7813 0b31 00000000 		.4byte	0
 7814              	.LLST95:
 7815 0b35 1C000000 		.4byte	.LVL112
 7816 0b39 70000000 		.4byte	.LVL123
 7817 0b3d 0100     		.2byte	0x1
 7818 0b3f 55       		.byte	0x55
 7819 0b40 80000000 		.4byte	.LVL125
 7820 0b44 84000000 		.4byte	.LFE211
 7821 0b48 0100     		.2byte	0x1
 7822 0b4a 55       		.byte	0x55
 7823 0b4b 00000000 		.4byte	0
 7824 0b4f 00000000 		.4byte	0
 7825              	.LLST96:
 7826 0b53 34000000 		.4byte	.LVL113
 7827 0b57 5A000000 		.4byte	.LVL119
 7828 0b5b 0100     		.2byte	0x1
 7829 0b5d 54       		.byte	0x54
 7830 0b5e 5C000000 		.4byte	.LVL120
 7831 0b62 70000000 		.4byte	.LVL123
 7832 0b66 0100     		.2byte	0x1
 7833 0b68 54       		.byte	0x54
 7834 0b69 00000000 		.4byte	0
 7835 0b6d 00000000 		.4byte	0
 7836              	.LLST98:
 7837 0b71 34000000 		.4byte	.LVL113
 7838 0b75 5A000000 		.4byte	.LVL119
 7839 0b79 0100     		.2byte	0x1
 7840 0b7b 55       		.byte	0x55
 7841 0b7c 5C000000 		.4byte	.LVL120
 7842 0b80 70000000 		.4byte	.LVL123
 7843 0b84 0100     		.2byte	0x1
 7844 0b86 55       		.byte	0x55
 7845 0b87 00000000 		.4byte	0
 7846 0b8b 00000000 		.4byte	0
 7847              	.LLST99:
 7848 0b8f 60000000 		.4byte	.LVL121
 7849 0b93 70000000 		.4byte	.LVL123
 7850 0b97 0300     		.2byte	0x3
 7851 0b99 08       		.byte	0x8
 7852 0b9a FF       		.byte	0xff
 7853 0b9b 9F       		.byte	0x9f
 7854 0b9c 00000000 		.4byte	0
 7855 0ba0 00000000 		.4byte	0
 7856              	.LLST100:
 7857 0ba4 60000000 		.4byte	.LVL121
 7858 0ba8 70000000 		.4byte	.LVL123
 7859 0bac 0100     		.2byte	0x1
 7860 0bae 55       		.byte	0x55
 7861 0baf 00000000 		.4byte	0
 7862 0bb3 00000000 		.4byte	0
 7863              	.LLST101:
 7864 0bb7 34000000 		.4byte	.LVL113
 7865 0bbb 36000000 		.4byte	.LVL114
 7866 0bbf 0B00     		.2byte	0xb
ARM GAS  /tmp/cc7TFFKb.s 			page 169


 7867 0bc1 72       		.byte	0x72
 7868 0bc2 00       		.sleb128 0
 7869 0bc3 73       		.byte	0x73
 7870 0bc4 00       		.sleb128 0
 7871 0bc5 22       		.byte	0x22
 7872 0bc6 94       		.byte	0x94
 7873 0bc7 01       		.byte	0x1
 7874 0bc8 08       		.byte	0x8
 7875 0bc9 FF       		.byte	0xff
 7876 0bca 1A       		.byte	0x1a
 7877 0bcb 9F       		.byte	0x9f
 7878 0bcc 36000000 		.4byte	.LVL114
 7879 0bd0 3A000000 		.4byte	.LVL115
 7880 0bd4 0600     		.2byte	0x6
 7881 0bd6 73       		.byte	0x73
 7882 0bd7 00       		.sleb128 0
 7883 0bd8 08       		.byte	0x8
 7884 0bd9 FF       		.byte	0xff
 7885 0bda 1A       		.byte	0x1a
 7886 0bdb 9F       		.byte	0x9f
 7887 0bdc 3A000000 		.4byte	.LVL115
 7888 0be0 3E000000 		.4byte	.LVL116
 7889 0be4 0700     		.2byte	0x7
 7890 0be6 75       		.byte	0x75
 7891 0be7 08       		.sleb128 8
 7892 0be8 06       		.byte	0x6
 7893 0be9 08       		.byte	0x8
 7894 0bea FF       		.byte	0xff
 7895 0beb 1A       		.byte	0x1a
 7896 0bec 9F       		.byte	0x9f
 7897 0bed 00000000 		.4byte	0
 7898 0bf1 00000000 		.4byte	0
 7899              	.LLST102:
 7900 0bf5 34000000 		.4byte	.LVL113
 7901 0bf9 44000000 		.4byte	.LVL117
 7902 0bfd 0100     		.2byte	0x1
 7903 0bff 55       		.byte	0x55
 7904 0c00 00000000 		.4byte	0
 7905 0c04 00000000 		.4byte	0
 7906              	.LLST103:
 7907 0c08 3E000000 		.4byte	.LVL116
 7908 0c0c 5A000000 		.4byte	.LVL119
 7909 0c10 0200     		.2byte	0x2
 7910 0c12 31       		.byte	0x31
 7911 0c13 9F       		.byte	0x9f
 7912 0c14 6A000000 		.4byte	.LVL122
 7913 0c18 70000000 		.4byte	.LVL123
 7914 0c1c 0200     		.2byte	0x2
 7915 0c1e 31       		.byte	0x31
 7916 0c1f 9F       		.byte	0x9f
 7917 0c20 00000000 		.4byte	0
 7918 0c24 00000000 		.4byte	0
 7919              	.LLST104:
 7920 0c28 3E000000 		.4byte	.LVL116
 7921 0c2c 5A000000 		.4byte	.LVL119
 7922 0c30 0100     		.2byte	0x1
 7923 0c32 55       		.byte	0x55
ARM GAS  /tmp/cc7TFFKb.s 			page 170


 7924 0c33 6A000000 		.4byte	.LVL122
 7925 0c37 70000000 		.4byte	.LVL123
 7926 0c3b 0100     		.2byte	0x1
 7927 0c3d 55       		.byte	0x55
 7928 0c3e 00000000 		.4byte	0
 7929 0c42 00000000 		.4byte	0
 7930              	.LLST105:
 7931 0c46 00000000 		.4byte	.LVL126
 7932 0c4a 9E000000 		.4byte	.LVL143
 7933 0c4e 0100     		.2byte	0x1
 7934 0c50 50       		.byte	0x50
 7935 0c51 9E000000 		.4byte	.LVL143
 7936 0c55 A4000000 		.4byte	.LVL144
 7937 0c59 0400     		.2byte	0x4
 7938 0c5b F3       		.byte	0xf3
 7939 0c5c 01       		.uleb128 0x1
 7940 0c5d 50       		.byte	0x50
 7941 0c5e 9F       		.byte	0x9f
 7942 0c5f A4000000 		.4byte	.LVL144
 7943 0c63 B8000000 		.4byte	.LVL147
 7944 0c67 0100     		.2byte	0x1
 7945 0c69 50       		.byte	0x50
 7946 0c6a B8000000 		.4byte	.LVL147
 7947 0c6e BA000000 		.4byte	.LVL148
 7948 0c72 0400     		.2byte	0x4
 7949 0c74 F3       		.byte	0xf3
 7950 0c75 01       		.uleb128 0x1
 7951 0c76 50       		.byte	0x50
 7952 0c77 9F       		.byte	0x9f
 7953 0c78 BA000000 		.4byte	.LVL148
 7954 0c7c C2000000 		.4byte	.LVL149
 7955 0c80 0100     		.2byte	0x1
 7956 0c82 50       		.byte	0x50
 7957 0c83 C2000000 		.4byte	.LVL149
 7958 0c87 C8000000 		.4byte	.LFE212
 7959 0c8b 0400     		.2byte	0x4
 7960 0c8d F3       		.byte	0xf3
 7961 0c8e 01       		.uleb128 0x1
 7962 0c8f 50       		.byte	0x50
 7963 0c90 9F       		.byte	0x9f
 7964 0c91 00000000 		.4byte	0
 7965 0c95 00000000 		.4byte	0
 7966              	.LLST107:
 7967 0c99 14000000 		.4byte	.LVL127
 7968 0c9d 9E000000 		.4byte	.LVL143
 7969 0ca1 0200     		.2byte	0x2
 7970 0ca3 34       		.byte	0x34
 7971 0ca4 9F       		.byte	0x9f
 7972 0ca5 A4000000 		.4byte	.LVL144
 7973 0ca9 B6000000 		.4byte	.LVL146
 7974 0cad 0200     		.2byte	0x2
 7975 0caf 34       		.byte	0x34
 7976 0cb0 9F       		.byte	0x9f
 7977 0cb1 00000000 		.4byte	0
 7978 0cb5 00000000 		.4byte	0
 7979              	.LLST108:
 7980 0cb9 14000000 		.4byte	.LVL127
ARM GAS  /tmp/cc7TFFKb.s 			page 171


 7981 0cbd 9E000000 		.4byte	.LVL143
 7982 0cc1 0100     		.2byte	0x1
 7983 0cc3 50       		.byte	0x50
 7984 0cc4 A4000000 		.4byte	.LVL144
 7985 0cc8 B6000000 		.4byte	.LVL146
 7986 0ccc 0100     		.2byte	0x1
 7987 0cce 50       		.byte	0x50
 7988 0ccf 00000000 		.4byte	0
 7989 0cd3 00000000 		.4byte	0
 7990              	.LLST109:
 7991 0cd7 26000000 		.4byte	.LVL128
 7992 0cdb 3E000000 		.4byte	.LVL130
 7993 0cdf 0100     		.2byte	0x1
 7994 0ce1 50       		.byte	0x50
 7995 0ce2 00000000 		.4byte	0
 7996 0ce6 00000000 		.4byte	0
 7997              	.LLST110:
 7998 0cea 58000000 		.4byte	.LVL132
 7999 0cee 9C000000 		.4byte	.LVL142
 8000 0cf2 0100     		.2byte	0x1
 8001 0cf4 51       		.byte	0x51
 8002 0cf5 A4000000 		.4byte	.LVL144
 8003 0cf9 B6000000 		.4byte	.LVL146
 8004 0cfd 0100     		.2byte	0x1
 8005 0cff 51       		.byte	0x51
 8006 0d00 00000000 		.4byte	0
 8007 0d04 00000000 		.4byte	0
 8008              	.LLST112:
 8009 0d08 58000000 		.4byte	.LVL132
 8010 0d0c 9C000000 		.4byte	.LVL142
 8011 0d10 0100     		.2byte	0x1
 8012 0d12 50       		.byte	0x50
 8013 0d13 A4000000 		.4byte	.LVL144
 8014 0d17 B6000000 		.4byte	.LVL146
 8015 0d1b 0100     		.2byte	0x1
 8016 0d1d 50       		.byte	0x50
 8017 0d1e 00000000 		.4byte	0
 8018 0d22 00000000 		.4byte	0
 8019              	.LLST113:
 8020 0d26 A4000000 		.4byte	.LVL144
 8021 0d2a B6000000 		.4byte	.LVL146
 8022 0d2e 0300     		.2byte	0x3
 8023 0d30 09       		.byte	0x9
 8024 0d31 FF       		.byte	0xff
 8025 0d32 9F       		.byte	0x9f
 8026 0d33 00000000 		.4byte	0
 8027 0d37 00000000 		.4byte	0
 8028              	.LLST114:
 8029 0d3b A4000000 		.4byte	.LVL144
 8030 0d3f B6000000 		.4byte	.LVL146
 8031 0d43 0100     		.2byte	0x1
 8032 0d45 50       		.byte	0x50
 8033 0d46 00000000 		.4byte	0
 8034 0d4a 00000000 		.4byte	0
 8035              	.LLST115:
 8036 0d4e 5C000000 		.4byte	.LVL133
 8037 0d52 5E000000 		.4byte	.LVL134
ARM GAS  /tmp/cc7TFFKb.s 			page 172


 8038 0d56 0500     		.2byte	0x5
 8039 0d58 72       		.byte	0x72
 8040 0d59 00       		.sleb128 0
 8041 0d5a 73       		.byte	0x73
 8042 0d5b 00       		.sleb128 0
 8043 0d5c 22       		.byte	0x22
 8044 0d5d 5E000000 		.4byte	.LVL134
 8045 0d61 60000000 		.4byte	.LVL135
 8046 0d65 0600     		.2byte	0x6
 8047 0d67 72       		.byte	0x72
 8048 0d68 00       		.sleb128 0
 8049 0d69 71       		.byte	0x71
 8050 0d6a 04       		.sleb128 4
 8051 0d6b 06       		.byte	0x6
 8052 0d6c 22       		.byte	0x22
 8053 0d6d 60000000 		.4byte	.LVL135
 8054 0d71 62000000 		.4byte	.LVL136
 8055 0d75 0700     		.2byte	0x7
 8056 0d77 71       		.byte	0x71
 8057 0d78 00       		.sleb128 0
 8058 0d79 06       		.byte	0x6
 8059 0d7a 71       		.byte	0x71
 8060 0d7b 04       		.sleb128 4
 8061 0d7c 06       		.byte	0x6
 8062 0d7d 22       		.byte	0x22
 8063 0d7e 62000000 		.4byte	.LVL136
 8064 0d82 64000000 		.4byte	.LVL137
 8065 0d86 0100     		.2byte	0x1
 8066 0d88 53       		.byte	0x53
 8067 0d89 64000000 		.4byte	.LVL137
 8068 0d8d 68000000 		.4byte	.LVL138
 8069 0d91 0400     		.2byte	0x4
 8070 0d93 70       		.byte	0x70
 8071 0d94 08       		.sleb128 8
 8072 0d95 06       		.byte	0x6
 8073 0d96 9F       		.byte	0x9f
 8074 0d97 00000000 		.4byte	0
 8075 0d9b 00000000 		.4byte	0
 8076              	.LLST116:
 8077 0d9f 5C000000 		.4byte	.LVL133
 8078 0da3 6E000000 		.4byte	.LVL139
 8079 0da7 0100     		.2byte	0x1
 8080 0da9 50       		.byte	0x50
 8081 0daa 00000000 		.4byte	0
 8082 0dae 00000000 		.4byte	0
 8083              	.LLST117:
 8084 0db2 4A000000 		.4byte	.LVL131
 8085 0db6 9E000000 		.4byte	.LVL143
 8086 0dba 0200     		.2byte	0x2
 8087 0dbc 32       		.byte	0x32
 8088 0dbd 9F       		.byte	0x9f
 8089 0dbe A4000000 		.4byte	.LVL144
 8090 0dc2 B6000000 		.4byte	.LVL146
 8091 0dc6 0200     		.2byte	0x2
 8092 0dc8 32       		.byte	0x32
 8093 0dc9 9F       		.byte	0x9f
 8094 0dca 00000000 		.4byte	0
ARM GAS  /tmp/cc7TFFKb.s 			page 173


 8095 0dce 00000000 		.4byte	0
 8096              	.LLST118:
 8097 0dd2 4A000000 		.4byte	.LVL131
 8098 0dd6 9E000000 		.4byte	.LVL143
 8099 0dda 0100     		.2byte	0x1
 8100 0ddc 50       		.byte	0x50
 8101 0ddd A4000000 		.4byte	.LVL144
 8102 0de1 B6000000 		.4byte	.LVL146
 8103 0de5 0100     		.2byte	0x1
 8104 0de7 50       		.byte	0x50
 8105 0de8 00000000 		.4byte	0
 8106 0dec 00000000 		.4byte	0
 8107              	.LLST119:
 8108 0df0 68000000 		.4byte	.LVL138
 8109 0df4 9C000000 		.4byte	.LVL142
 8110 0df8 0200     		.2byte	0x2
 8111 0dfa 31       		.byte	0x31
 8112 0dfb 9F       		.byte	0x9f
 8113 0dfc B0000000 		.4byte	.LVL145
 8114 0e00 B6000000 		.4byte	.LVL146
 8115 0e04 0200     		.2byte	0x2
 8116 0e06 31       		.byte	0x31
 8117 0e07 9F       		.byte	0x9f
 8118 0e08 00000000 		.4byte	0
 8119 0e0c 00000000 		.4byte	0
 8120              	.LLST120:
 8121 0e10 68000000 		.4byte	.LVL138
 8122 0e14 9C000000 		.4byte	.LVL142
 8123 0e18 0100     		.2byte	0x1
 8124 0e1a 50       		.byte	0x50
 8125 0e1b B0000000 		.4byte	.LVL145
 8126 0e1f B6000000 		.4byte	.LVL146
 8127 0e23 0100     		.2byte	0x1
 8128 0e25 50       		.byte	0x50
 8129 0e26 00000000 		.4byte	0
 8130 0e2a 00000000 		.4byte	0
 8131              	.LLST121:
 8132 0e2e 6E000000 		.4byte	.LVL139
 8133 0e32 9C000000 		.4byte	.LVL142
 8134 0e36 0200     		.2byte	0x2
 8135 0e38 34       		.byte	0x34
 8136 0e39 9F       		.byte	0x9f
 8137 0e3a 00000000 		.4byte	0
 8138 0e3e 00000000 		.4byte	0
 8139              	.LLST122:
 8140 0e42 6E000000 		.4byte	.LVL139
 8141 0e46 9C000000 		.4byte	.LVL142
 8142 0e4a 0100     		.2byte	0x1
 8143 0e4c 50       		.byte	0x50
 8144 0e4d 00000000 		.4byte	0
 8145 0e51 00000000 		.4byte	0
 8146              	.LLST123:
 8147 0e55 7E000000 		.4byte	.LVL140
 8148 0e59 9C000000 		.4byte	.LVL142
 8149 0e5d 0100     		.2byte	0x1
 8150 0e5f 50       		.byte	0x50
 8151 0e60 00000000 		.4byte	0
ARM GAS  /tmp/cc7TFFKb.s 			page 174


 8152 0e64 00000000 		.4byte	0
 8153              	.LLST124:
 8154 0e68 04000000 		.4byte	.LVL151
 8155 0e6c 0C000000 		.4byte	.LVL152
 8156 0e70 0200     		.2byte	0x2
 8157 0e72 34       		.byte	0x34
 8158 0e73 9F       		.byte	0x9f
 8159 0e74 00000000 		.4byte	0
 8160 0e78 00000000 		.4byte	0
 8161              	.LLST125:
 8162 0e7c 04000000 		.4byte	.LVL151
 8163 0e80 0C000000 		.4byte	.LVL152
 8164 0e84 0100     		.2byte	0x1
 8165 0e86 50       		.byte	0x50
 8166 0e87 00000000 		.4byte	0
 8167 0e8b 00000000 		.4byte	0
 8168              	.LLST126:
 8169 0e8f 00000000 		.4byte	.LVL154
 8170 0e93 0F000000 		.4byte	.LVL156-1
 8171 0e97 0100     		.2byte	0x1
 8172 0e99 50       		.byte	0x50
 8173 0e9a 0F000000 		.4byte	.LVL156-1
 8174 0e9e 66000000 		.4byte	.LVL174
 8175 0ea2 0100     		.2byte	0x1
 8176 0ea4 57       		.byte	0x57
 8177 0ea5 66000000 		.4byte	.LVL174
 8178 0ea9 6E000000 		.4byte	.LVL177
 8179 0ead 0400     		.2byte	0x4
 8180 0eaf F3       		.byte	0xf3
 8181 0eb0 01       		.uleb128 0x1
 8182 0eb1 50       		.byte	0x50
 8183 0eb2 9F       		.byte	0x9f
 8184 0eb3 6E000000 		.4byte	.LVL177
 8185 0eb7 90000000 		.4byte	.LFE214
 8186 0ebb 0100     		.2byte	0x1
 8187 0ebd 57       		.byte	0x57
 8188 0ebe 00000000 		.4byte	0
 8189 0ec2 00000000 		.4byte	0
 8190              	.LLST127:
 8191 0ec6 00000000 		.4byte	.LVL154
 8192 0eca 0F000000 		.4byte	.LVL156-1
 8193 0ece 0100     		.2byte	0x1
 8194 0ed0 51       		.byte	0x51
 8195 0ed1 0F000000 		.4byte	.LVL156-1
 8196 0ed5 66000000 		.4byte	.LVL175
 8197 0ed9 0100     		.2byte	0x1
 8198 0edb 58       		.byte	0x58
 8199 0edc 66000000 		.4byte	.LVL175
 8200 0ee0 6E000000 		.4byte	.LVL177
 8201 0ee4 0400     		.2byte	0x4
 8202 0ee6 F3       		.byte	0xf3
 8203 0ee7 01       		.uleb128 0x1
 8204 0ee8 51       		.byte	0x51
 8205 0ee9 9F       		.byte	0x9f
 8206 0eea 6E000000 		.4byte	.LVL177
 8207 0eee 90000000 		.4byte	.LFE214
 8208 0ef2 0100     		.2byte	0x1
ARM GAS  /tmp/cc7TFFKb.s 			page 175


 8209 0ef4 58       		.byte	0x58
 8210 0ef5 00000000 		.4byte	0
 8211 0ef9 00000000 		.4byte	0
 8212              	.LLST128:
 8213 0efd 22000000 		.4byte	.LVL158
 8214 0f01 2C000000 		.4byte	.LVL159
 8215 0f05 0200     		.2byte	0x2
 8216 0f07 30       		.byte	0x30
 8217 0f08 9F       		.byte	0x9f
 8218 0f09 2C000000 		.4byte	.LVL159
 8219 0f0d 3C000000 		.4byte	.LVL162
 8220 0f11 0100     		.2byte	0x1
 8221 0f13 54       		.byte	0x54
 8222 0f14 3C000000 		.4byte	.LVL162
 8223 0f18 40000000 		.4byte	.LVL163
 8224 0f1c 0100     		.2byte	0x1
 8225 0f1e 55       		.byte	0x55
 8226 0f1f 40000000 		.4byte	.LVL163
 8227 0f23 44000000 		.4byte	.LVL164
 8228 0f27 0200     		.2byte	0x2
 8229 0f29 30       		.byte	0x30
 8230 0f2a 9F       		.byte	0x9f
 8231 0f2b 44000000 		.4byte	.LVL164
 8232 0f2f 4A000000 		.4byte	.LVL166
 8233 0f33 0100     		.2byte	0x1
 8234 0f35 55       		.byte	0x55
 8235 0f36 4A000000 		.4byte	.LVL166
 8236 0f3a 58000000 		.4byte	.LVL169
 8237 0f3e 0100     		.2byte	0x1
 8238 0f40 54       		.byte	0x54
 8239 0f41 7C000000 		.4byte	.LVL180
 8240 0f45 90000000 		.4byte	.LFE214
 8241 0f49 0200     		.2byte	0x2
 8242 0f4b 30       		.byte	0x30
 8243 0f4c 9F       		.byte	0x9f
 8244 0f4d 00000000 		.4byte	0
 8245 0f51 00000000 		.4byte	0
 8246              	.LLST129:
 8247 0f55 22000000 		.4byte	.LVL158
 8248 0f59 30000000 		.4byte	.LVL160
 8249 0f5d 0300     		.2byte	0x3
 8250 0f5f 09       		.byte	0x9
 8251 0f60 FF       		.byte	0xff
 8252 0f61 9F       		.byte	0x9f
 8253 0f62 30000000 		.4byte	.LVL160
 8254 0f66 37000000 		.4byte	.LVL161-1
 8255 0f6a 0F00     		.2byte	0xf
 8256 0f6c 70       		.byte	0x70
 8257 0f6d 00       		.sleb128 0
 8258 0f6e F7       		.byte	0xf7
 8259 0f6f 29       		.uleb128 0x29
 8260 0f70 75       		.byte	0x75
 8261 0f71 00       		.sleb128 0
 8262 0f72 76       		.byte	0x76
 8263 0f73 00       		.sleb128 0
 8264 0f74 1E       		.byte	0x1e
 8265 0f75 F7       		.byte	0xf7
ARM GAS  /tmp/cc7TFFKb.s 			page 176


 8266 0f76 29       		.uleb128 0x29
 8267 0f77 1B       		.byte	0x1b
 8268 0f78 F7       		.byte	0xf7
 8269 0f79 00       		.uleb128 0
 8270 0f7a 9F       		.byte	0x9f
 8271 0f7b 37000000 		.4byte	.LVL161-1
 8272 0f7f 3C000000 		.4byte	.LVL162
 8273 0f83 0F00     		.2byte	0xf
 8274 0f85 79       		.byte	0x79
 8275 0f86 00       		.sleb128 0
 8276 0f87 F7       		.byte	0xf7
 8277 0f88 29       		.uleb128 0x29
 8278 0f89 75       		.byte	0x75
 8279 0f8a 00       		.sleb128 0
 8280 0f8b 76       		.byte	0x76
 8281 0f8c 00       		.sleb128 0
 8282 0f8d 1E       		.byte	0x1e
 8283 0f8e F7       		.byte	0xf7
 8284 0f8f 29       		.uleb128 0x29
 8285 0f90 1B       		.byte	0x1b
 8286 0f91 F7       		.byte	0xf7
 8287 0f92 00       		.uleb128 0
 8288 0f93 9F       		.byte	0x9f
 8289 0f94 46000000 		.4byte	.LVL165
 8290 0f98 4A000000 		.4byte	.LVL166
 8291 0f9c 0300     		.2byte	0x3
 8292 0f9e 09       		.byte	0x9
 8293 0f9f FF       		.byte	0xff
 8294 0fa0 9F       		.byte	0x9f
 8295 0fa1 4A000000 		.4byte	.LVL166
 8296 0fa5 56000000 		.4byte	.LVL168
 8297 0fa9 0F00     		.2byte	0xf
 8298 0fab 79       		.byte	0x79
 8299 0fac 00       		.sleb128 0
 8300 0fad F7       		.byte	0xf7
 8301 0fae 29       		.uleb128 0x29
 8302 0faf 75       		.byte	0x75
 8303 0fb0 00       		.sleb128 0
 8304 0fb1 76       		.byte	0x76
 8305 0fb2 00       		.sleb128 0
 8306 0fb3 1E       		.byte	0x1e
 8307 0fb4 F7       		.byte	0xf7
 8308 0fb5 29       		.uleb128 0x29
 8309 0fb6 1B       		.byte	0x1b
 8310 0fb7 F7       		.byte	0xf7
 8311 0fb8 00       		.uleb128 0
 8312 0fb9 9F       		.byte	0x9f
 8313 0fba 7C000000 		.4byte	.LVL180
 8314 0fbe 90000000 		.4byte	.LFE214
 8315 0fc2 0300     		.2byte	0x3
 8316 0fc4 09       		.byte	0x9
 8317 0fc5 FF       		.byte	0xff
 8318 0fc6 9F       		.byte	0x9f
 8319 0fc7 00000000 		.4byte	0
 8320 0fcb 00000000 		.4byte	0
 8321              	.LLST130:
 8322 0fcf 22000000 		.4byte	.LVL158
ARM GAS  /tmp/cc7TFFKb.s 			page 177


 8323 0fd3 2C000000 		.4byte	.LVL159
 8324 0fd7 0200     		.2byte	0x2
 8325 0fd9 32       		.byte	0x32
 8326 0fda 9F       		.byte	0x9f
 8327 0fdb 2C000000 		.4byte	.LVL159
 8328 0fdf 5A000000 		.4byte	.LVL170
 8329 0fe3 0100     		.2byte	0x1
 8330 0fe5 56       		.byte	0x56
 8331 0fe6 7C000000 		.4byte	.LVL180
 8332 0fea 90000000 		.4byte	.LFE214
 8333 0fee 0200     		.2byte	0x2
 8334 0ff0 32       		.byte	0x32
 8335 0ff1 9F       		.byte	0x9f
 8336 0ff2 00000000 		.4byte	0
 8337 0ff6 00000000 		.4byte	0
 8338              	.LLST131:
 8339 0ffa 0C000000 		.4byte	.LVL155
 8340 0ffe 0F000000 		.4byte	.LVL156-1
 8341 1002 0100     		.2byte	0x1
 8342 1004 50       		.byte	0x50
 8343 1005 0F000000 		.4byte	.LVL156-1
 8344 1009 66000000 		.4byte	.LVL174
 8345 100d 0100     		.2byte	0x1
 8346 100f 57       		.byte	0x57
 8347 1010 66000000 		.4byte	.LVL174
 8348 1014 6E000000 		.4byte	.LVL177
 8349 1018 0400     		.2byte	0x4
 8350 101a F3       		.byte	0xf3
 8351 101b 01       		.uleb128 0x1
 8352 101c 50       		.byte	0x50
 8353 101d 9F       		.byte	0x9f
 8354 101e 6E000000 		.4byte	.LVL177
 8355 1022 90000000 		.4byte	.LFE214
 8356 1026 0100     		.2byte	0x1
 8357 1028 57       		.byte	0x57
 8358 1029 00000000 		.4byte	0
 8359 102d 00000000 		.4byte	0
 8360              	.LLST132:
 8361 1031 10000000 		.4byte	.LVL156
 8362 1035 1F000000 		.4byte	.LVL157-1
 8363 1039 0100     		.2byte	0x1
 8364 103b 50       		.byte	0x50
 8365 103c 22000000 		.4byte	.LVL158
 8366 1040 37000000 		.4byte	.LVL161-1
 8367 1044 0100     		.2byte	0x1
 8368 1046 50       		.byte	0x50
 8369 1047 37000000 		.4byte	.LVL161-1
 8370 104b 66000000 		.4byte	.LVL176
 8371 104f 0100     		.2byte	0x1
 8372 1051 59       		.byte	0x59
 8373 1052 6E000000 		.4byte	.LVL177
 8374 1056 77000000 		.4byte	.LVL178-1
 8375 105a 0100     		.2byte	0x1
 8376 105c 50       		.byte	0x50
 8377 105d 7A000000 		.4byte	.LVL179
 8378 1061 90000000 		.4byte	.LFE214
 8379 1065 0100     		.2byte	0x1
ARM GAS  /tmp/cc7TFFKb.s 			page 178


 8380 1067 50       		.byte	0x50
 8381 1068 00000000 		.4byte	0
 8382 106c 00000000 		.4byte	0
 8383              	.LLST133:
 8384 1070 5A000000 		.4byte	.LVL170
 8385 1074 66000000 		.4byte	.LVL173
 8386 1078 0100     		.2byte	0x1
 8387 107a 56       		.byte	0x56
 8388 107b 66000000 		.4byte	.LVL173
 8389 107f 66000000 		.4byte	.LVL174
 8390 1083 0200     		.2byte	0x2
 8391 1085 77       		.byte	0x77
 8392 1086 10       		.sleb128 16
 8393 1087 66000000 		.4byte	.LVL174
 8394 108b 6E000000 		.4byte	.LVL177
 8395 108f 0500     		.2byte	0x5
 8396 1091 F3       		.byte	0xf3
 8397 1092 01       		.uleb128 0x1
 8398 1093 50       		.byte	0x50
 8399 1094 23       		.byte	0x23
 8400 1095 10       		.uleb128 0x10
 8401 1096 00000000 		.4byte	0
 8402 109a 00000000 		.4byte	0
 8403              	.LLST134:
 8404 109e 5A000000 		.4byte	.LVL170
 8405 10a2 66000000 		.4byte	.LVL174
 8406 10a6 0100     		.2byte	0x1
 8407 10a8 57       		.byte	0x57
 8408 10a9 66000000 		.4byte	.LVL174
 8409 10ad 6E000000 		.4byte	.LVL177
 8410 10b1 0400     		.2byte	0x4
 8411 10b3 F3       		.byte	0xf3
 8412 10b4 01       		.uleb128 0x1
 8413 10b5 50       		.byte	0x50
 8414 10b6 9F       		.byte	0x9f
 8415 10b7 00000000 		.4byte	0
 8416 10bb 00000000 		.4byte	0
 8417              	.LLST135:
 8418 10bf 5C000000 		.4byte	.LVL171
 8419 10c3 60000000 		.4byte	.LVL172
 8420 10c7 0800     		.2byte	0x8
 8421 10c9 72       		.byte	0x72
 8422 10ca 00       		.sleb128 0
 8423 10cb 11       		.byte	0x11
 8424 10cc FF817C   		.sleb128 -65281
 8425 10cf 1A       		.byte	0x1a
 8426 10d0 9F       		.byte	0x9f
 8427 10d1 60000000 		.4byte	.LVL172
 8428 10d5 6E000000 		.4byte	.LVL177
 8429 10d9 0100     		.2byte	0x1
 8430 10db 53       		.byte	0x53
 8431 10dc 00000000 		.4byte	0
 8432 10e0 00000000 		.4byte	0
 8433              	.LLST136:
 8434 10e4 00000000 		.4byte	.LVL181
 8435 10e8 47000000 		.4byte	.LVL188-1
 8436 10ec 0100     		.2byte	0x1
ARM GAS  /tmp/cc7TFFKb.s 			page 179


 8437 10ee 50       		.byte	0x50
 8438 10ef 47000000 		.4byte	.LVL188-1
 8439 10f3 4A000000 		.4byte	.LVL189
 8440 10f7 0400     		.2byte	0x4
 8441 10f9 F3       		.byte	0xf3
 8442 10fa 01       		.uleb128 0x1
 8443 10fb 50       		.byte	0x50
 8444 10fc 9F       		.byte	0x9f
 8445 10fd 4A000000 		.4byte	.LVL189
 8446 1101 70000000 		.4byte	.LFE215
 8447 1105 0100     		.2byte	0x1
 8448 1107 50       		.byte	0x50
 8449 1108 00000000 		.4byte	0
 8450 110c 00000000 		.4byte	0
 8451              	.LLST138:
 8452 1110 08000000 		.4byte	.LVL182
 8453 1114 20000000 		.4byte	.LVL185
 8454 1118 0200     		.2byte	0x2
 8455 111a 42       		.byte	0x42
 8456 111b 9F       		.byte	0x9f
 8457 111c 4A000000 		.4byte	.LVL189
 8458 1120 70000000 		.4byte	.LFE215
 8459 1124 0200     		.2byte	0x2
 8460 1126 3B       		.byte	0x3b
 8461 1127 9F       		.byte	0x9f
 8462 1128 00000000 		.4byte	0
 8463 112c 00000000 		.4byte	0
 8464              	.LLST140:
 8465 1130 16000000 		.4byte	.LVL183
 8466 1134 4A000000 		.4byte	.LVL189
 8467 1138 0200     		.2byte	0x2
 8468 113a 31       		.byte	0x31
 8469 113b 9F       		.byte	0x9f
 8470 113c 58000000 		.4byte	.LVL190
 8471 1140 70000000 		.4byte	.LFE215
 8472 1144 0200     		.2byte	0x2
 8473 1146 31       		.byte	0x31
 8474 1147 9F       		.byte	0x9f
 8475 1148 00000000 		.4byte	0
 8476 114c 00000000 		.4byte	0
 8477              	.LLST141:
 8478 1150 16000000 		.4byte	.LVL183
 8479 1154 20000000 		.4byte	.LVL185
 8480 1158 0100     		.2byte	0x1
 8481 115a 50       		.byte	0x50
 8482 115b 58000000 		.4byte	.LVL190
 8483 115f 70000000 		.4byte	.LFE215
 8484 1163 0600     		.2byte	0x6
 8485 1165 0C       		.byte	0xc
 8486 1166 00000440 		.4byte	0x40040000
 8487 116a 9F       		.byte	0x9f
 8488 116b 00000000 		.4byte	0
 8489 116f 00000000 		.4byte	0
 8490              	.LLST142:
 8491 1173 16000000 		.4byte	.LVL183
 8492 1177 20000000 		.4byte	.LVL185
 8493 117b 0200     		.2byte	0x2
ARM GAS  /tmp/cc7TFFKb.s 			page 180


 8494 117d 31       		.byte	0x31
 8495 117e 9F       		.byte	0x9f
 8496 117f 00000000 		.4byte	0
 8497 1183 00000000 		.4byte	0
 8498              	.LLST143:
 8499 1187 2E000000 		.4byte	.LVL186
 8500 118b 4A000000 		.4byte	.LVL189
 8501 118f 0200     		.2byte	0x2
 8502 1191 30       		.byte	0x30
 8503 1192 9F       		.byte	0x9f
 8504 1193 00000000 		.4byte	0
 8505 1197 00000000 		.4byte	0
 8506              	.LLST144:
 8507 119b 2E000000 		.4byte	.LVL186
 8508 119f 47000000 		.4byte	.LVL188-1
 8509 11a3 0100     		.2byte	0x1
 8510 11a5 50       		.byte	0x50
 8511 11a6 47000000 		.4byte	.LVL188-1
 8512 11aa 4A000000 		.4byte	.LVL189
 8513 11ae 0400     		.2byte	0x4
 8514 11b0 F3       		.byte	0xf3
 8515 11b1 01       		.uleb128 0x1
 8516 11b2 50       		.byte	0x50
 8517 11b3 9F       		.byte	0x9f
 8518 11b4 00000000 		.4byte	0
 8519 11b8 00000000 		.4byte	0
 8520              	.LLST145:
 8521 11bc 38000000 		.4byte	.LVL187
 8522 11c0 4A000000 		.4byte	.LVL189
 8523 11c4 0200     		.2byte	0x2
 8524 11c6 30       		.byte	0x30
 8525 11c7 9F       		.byte	0x9f
 8526 11c8 00000000 		.4byte	0
 8527 11cc 00000000 		.4byte	0
 8528              	.LLST147:
 8529 11d0 38000000 		.4byte	.LVL187
 8530 11d4 4A000000 		.4byte	.LVL189
 8531 11d8 0200     		.2byte	0x2
 8532 11da 37       		.byte	0x37
 8533 11db 9F       		.byte	0x9f
 8534 11dc 00000000 		.4byte	0
 8535 11e0 00000000 		.4byte	0
 8536              	.LLST148:
 8537 11e4 38000000 		.4byte	.LVL187
 8538 11e8 47000000 		.4byte	.LVL188-1
 8539 11ec 0100     		.2byte	0x1
 8540 11ee 50       		.byte	0x50
 8541 11ef 47000000 		.4byte	.LVL188-1
 8542 11f3 4A000000 		.4byte	.LVL189
 8543 11f7 0400     		.2byte	0x4
 8544 11f9 F3       		.byte	0xf3
 8545 11fa 01       		.uleb128 0x1
 8546 11fb 50       		.byte	0x50
 8547 11fc 9F       		.byte	0x9f
 8548 11fd 00000000 		.4byte	0
 8549 1201 00000000 		.4byte	0
 8550              	.LLST149:
ARM GAS  /tmp/cc7TFFKb.s 			page 181


 8551 1205 00000000 		.4byte	.LVL192
 8552 1209 16000000 		.4byte	.LVL195
 8553 120d 0100     		.2byte	0x1
 8554 120f 50       		.byte	0x50
 8555 1210 16000000 		.4byte	.LVL195
 8556 1214 22000000 		.4byte	.LVL198
 8557 1218 0400     		.2byte	0x4
 8558 121a F3       		.byte	0xf3
 8559 121b 01       		.uleb128 0x1
 8560 121c 50       		.byte	0x50
 8561 121d 9F       		.byte	0x9f
 8562 121e 22000000 		.4byte	.LVL198
 8563 1222 2A000000 		.4byte	.LVL199
 8564 1226 0100     		.2byte	0x1
 8565 1228 50       		.byte	0x50
 8566 1229 2A000000 		.4byte	.LVL199
 8567 122d 48000000 		.4byte	.LFE216
 8568 1231 0400     		.2byte	0x4
 8569 1233 F3       		.byte	0xf3
 8570 1234 01       		.uleb128 0x1
 8571 1235 50       		.byte	0x50
 8572 1236 9F       		.byte	0x9f
 8573 1237 00000000 		.4byte	0
 8574 123b 00000000 		.4byte	0
 8575              	.LLST151:
 8576 123f 08000000 		.4byte	.LVL193
 8577 1243 16000000 		.4byte	.LVL195
 8578 1247 0100     		.2byte	0x1
 8579 1249 50       		.byte	0x50
 8580 124a 16000000 		.4byte	.LVL195
 8581 124e 22000000 		.4byte	.LVL198
 8582 1252 0400     		.2byte	0x4
 8583 1254 F3       		.byte	0xf3
 8584 1255 01       		.uleb128 0x1
 8585 1256 50       		.byte	0x50
 8586 1257 9F       		.byte	0x9f
 8587 1258 22000000 		.4byte	.LVL198
 8588 125c 2A000000 		.4byte	.LVL199
 8589 1260 0100     		.2byte	0x1
 8590 1262 50       		.byte	0x50
 8591 1263 2A000000 		.4byte	.LVL199
 8592 1267 48000000 		.4byte	.LFE216
 8593 126b 0400     		.2byte	0x4
 8594 126d F3       		.byte	0xf3
 8595 126e 01       		.uleb128 0x1
 8596 126f 50       		.byte	0x50
 8597 1270 9F       		.byte	0x9f
 8598 1271 00000000 		.4byte	0
 8599 1275 00000000 		.4byte	0
 8600              	.LLST152:
 8601 1279 0E000000 		.4byte	.LVL194
 8602 127d 20000000 		.4byte	.LVL197
 8603 1281 0200     		.2byte	0x2
 8604 1283 42       		.byte	0x42
 8605 1284 9F       		.byte	0x9f
 8606 1285 22000000 		.4byte	.LVL198
 8607 1289 48000000 		.4byte	.LFE216
ARM GAS  /tmp/cc7TFFKb.s 			page 182


 8608 128d 0200     		.2byte	0x2
 8609 128f 3B       		.byte	0x3b
 8610 1290 9F       		.byte	0x9f
 8611 1291 00000000 		.4byte	0
 8612 1295 00000000 		.4byte	0
 8613              	.LLST154:
 8614 1299 1A000000 		.4byte	.LVL196
 8615 129d 22000000 		.4byte	.LVL198
 8616 12a1 0200     		.2byte	0x2
 8617 12a3 30       		.byte	0x30
 8618 12a4 9F       		.byte	0x9f
 8619 12a5 2E000000 		.4byte	.LVL200
 8620 12a9 48000000 		.4byte	.LFE216
 8621 12ad 0200     		.2byte	0x2
 8622 12af 30       		.byte	0x30
 8623 12b0 9F       		.byte	0x9f
 8624 12b1 00000000 		.4byte	0
 8625 12b5 00000000 		.4byte	0
 8626              	.LLST155:
 8627 12b9 1A000000 		.4byte	.LVL196
 8628 12bd 20000000 		.4byte	.LVL197
 8629 12c1 0400     		.2byte	0x4
 8630 12c3 F3       		.byte	0xf3
 8631 12c4 01       		.uleb128 0x1
 8632 12c5 50       		.byte	0x50
 8633 12c6 9F       		.byte	0x9f
 8634 12c7 2E000000 		.4byte	.LVL200
 8635 12cb 48000000 		.4byte	.LFE216
 8636 12cf 0600     		.2byte	0x6
 8637 12d1 0C       		.byte	0xc
 8638 12d2 00000440 		.4byte	0x40040000
 8639 12d6 9F       		.byte	0x9f
 8640 12d7 00000000 		.4byte	0
 8641 12db 00000000 		.4byte	0
 8642              	.LLST156:
 8643 12df 1A000000 		.4byte	.LVL196
 8644 12e3 20000000 		.4byte	.LVL197
 8645 12e7 0200     		.2byte	0x2
 8646 12e9 30       		.byte	0x30
 8647 12ea 9F       		.byte	0x9f
 8648 12eb 00000000 		.4byte	0
 8649 12ef 00000000 		.4byte	0
 8650              		.section	.debug_aranges,"",%progbits
 8651 0000 74000000 		.4byte	0x74
 8652 0004 0200     		.2byte	0x2
 8653 0006 00000000 		.4byte	.Ldebug_info0
 8654 000a 04       		.byte	0x4
 8655 000b 00       		.byte	0
 8656 000c 0000     		.2byte	0
 8657 000e 0000     		.2byte	0
 8658 0010 00000000 		.4byte	.LFB201
 8659 0014 32000000 		.4byte	.LFE201-.LFB201
 8660 0018 00000000 		.4byte	.LFB206
 8661 001c 18000000 		.4byte	.LFE206-.LFB206
 8662 0020 00000000 		.4byte	.LFB207
 8663 0024 18010000 		.4byte	.LFE207-.LFB207
 8664 0028 00000000 		.4byte	.LFB208
ARM GAS  /tmp/cc7TFFKb.s 			page 183


 8665 002c C6000000 		.4byte	.LFE208-.LFB208
 8666 0030 00000000 		.4byte	.LFB209
 8667 0034 DC000000 		.4byte	.LFE209-.LFB209
 8668 0038 00000000 		.4byte	.LFB210
 8669 003c 24000000 		.4byte	.LFE210-.LFB210
 8670 0040 00000000 		.4byte	.LFB211
 8671 0044 84000000 		.4byte	.LFE211-.LFB211
 8672 0048 00000000 		.4byte	.LFB212
 8673 004c C8000000 		.4byte	.LFE212-.LFB212
 8674 0050 00000000 		.4byte	.LFB213
 8675 0054 18000000 		.4byte	.LFE213-.LFB213
 8676 0058 00000000 		.4byte	.LFB214
 8677 005c 90000000 		.4byte	.LFE214-.LFB214
 8678 0060 00000000 		.4byte	.LFB215
 8679 0064 70000000 		.4byte	.LFE215-.LFB215
 8680 0068 00000000 		.4byte	.LFB216
 8681 006c 48000000 		.4byte	.LFE216-.LFB216
 8682 0070 00000000 		.4byte	0
 8683 0074 00000000 		.4byte	0
 8684              		.section	.debug_ranges,"",%progbits
 8685              	.Ldebug_ranges0:
 8686 0000 00000000 		.4byte	.LBB224
 8687 0004 02000000 		.4byte	.LBE224
 8688 0008 10000000 		.4byte	.LBB228
 8689 000c 14000000 		.4byte	.LBE228
 8690 0010 26000000 		.4byte	.LBB231
 8691 0014 28000000 		.4byte	.LBE231
 8692 0018 00000000 		.4byte	0
 8693 001c 00000000 		.4byte	0
 8694 0020 04000000 		.4byte	.LBB232
 8695 0024 06000000 		.4byte	.LBE232
 8696 0028 10000000 		.4byte	.LBB236
 8697 002c 12000000 		.4byte	.LBE236
 8698 0030 14000000 		.4byte	.LBB239
 8699 0034 16000000 		.4byte	.LBE239
 8700 0038 00000000 		.4byte	0
 8701 003c 00000000 		.4byte	0
 8702 0040 1A000000 		.4byte	.LBB240
 8703 0044 1C000000 		.4byte	.LBE240
 8704 0048 1E000000 		.4byte	.LBB243
 8705 004c 20000000 		.4byte	.LBE243
 8706 0050 00000000 		.4byte	0
 8707 0054 00000000 		.4byte	0
 8708 0058 28000000 		.4byte	.LBB246
 8709 005c 2A000000 		.4byte	.LBE246
 8710 0060 2C000000 		.4byte	.LBB264
 8711 0064 2E000000 		.4byte	.LBE264
 8712 0068 8A000000 		.4byte	.LBB286
 8713 006c 92000000 		.4byte	.LBE286
 8714 0070 94000000 		.4byte	.LBB287
 8715 0074 9A000000 		.4byte	.LBE287
 8716 0078 06010000 		.4byte	.LBB314
 8717 007c 0C010000 		.4byte	.LBE314
 8718 0080 00000000 		.4byte	0
 8719 0084 00000000 		.4byte	0
 8720 0088 28000000 		.4byte	.LBB248
 8721 008c 2A000000 		.4byte	.LBE248
ARM GAS  /tmp/cc7TFFKb.s 			page 184


 8722 0090 2C000000 		.4byte	.LBB252
 8723 0094 2E000000 		.4byte	.LBE252
 8724 0098 06010000 		.4byte	.LBB255
 8725 009c 0C010000 		.4byte	.LBE255
 8726 00a0 00000000 		.4byte	0
 8727 00a4 00000000 		.4byte	0
 8728 00a8 2A000000 		.4byte	.LBB260
 8729 00ac 2C000000 		.4byte	.LBE260
 8730 00b0 44000000 		.4byte	.LBB282
 8731 00b4 46000000 		.4byte	.LBE282
 8732 00b8 7C000000 		.4byte	.LBB285
 8733 00bc 7E000000 		.4byte	.LBE285
 8734 00c0 00000000 		.4byte	0
 8735 00c4 00000000 		.4byte	0
 8736 00c8 2E000000 		.4byte	.LBB265
 8737 00cc 30000000 		.4byte	.LBE265
 8738 00d0 32000000 		.4byte	.LBB281
 8739 00d4 38000000 		.4byte	.LBE281
 8740 00d8 4C000000 		.4byte	.LBB283
 8741 00dc 4E000000 		.4byte	.LBE283
 8742 00e0 9A000000 		.4byte	.LBB288
 8743 00e4 9C000000 		.4byte	.LBE288
 8744 00e8 00000000 		.4byte	0
 8745 00ec 00000000 		.4byte	0
 8746 00f0 30000000 		.4byte	.LBB270
 8747 00f4 32000000 		.4byte	.LBE270
 8748 00f8 52000000 		.4byte	.LBB284
 8749 00fc 78000000 		.4byte	.LBE284
 8750 0100 00000000 		.4byte	0
 8751 0104 00000000 		.4byte	0
 8752 0108 30000000 		.4byte	.LBB272
 8753 010c 32000000 		.4byte	.LBE272
 8754 0110 52000000 		.4byte	.LBB276
 8755 0114 54000000 		.4byte	.LBE276
 8756 0118 6E000000 		.4byte	.LBB279
 8757 011c 70000000 		.4byte	.LBE279
 8758 0120 00000000 		.4byte	0
 8759 0124 00000000 		.4byte	0
 8760 0128 A8000000 		.4byte	.LBB289
 8761 012c AA000000 		.4byte	.LBE289
 8762 0130 AC000000 		.4byte	.LBB306
 8763 0134 AE000000 		.4byte	.LBE306
 8764 0138 E4000000 		.4byte	.LBB313
 8765 013c F4000000 		.4byte	.LBE313
 8766 0140 0C010000 		.4byte	.LBB315
 8767 0144 18010000 		.4byte	.LBE315
 8768 0148 00000000 		.4byte	0
 8769 014c 00000000 		.4byte	0
 8770 0150 A8000000 		.4byte	.LBB291
 8771 0154 AA000000 		.4byte	.LBE291
 8772 0158 AC000000 		.4byte	.LBB295
 8773 015c AE000000 		.4byte	.LBE295
 8774 0160 0C010000 		.4byte	.LBB298
 8775 0164 18010000 		.4byte	.LBE298
 8776 0168 00000000 		.4byte	0
 8777 016c 00000000 		.4byte	0
 8778 0170 AA000000 		.4byte	.LBB302
ARM GAS  /tmp/cc7TFFKb.s 			page 185


 8779 0174 AC000000 		.4byte	.LBE302
 8780 0178 BA000000 		.4byte	.LBB310
 8781 017c BC000000 		.4byte	.LBE310
 8782 0180 D6000000 		.4byte	.LBB312
 8783 0184 D8000000 		.4byte	.LBE312
 8784 0188 00000000 		.4byte	0
 8785 018c 00000000 		.4byte	0
 8786 0190 AE000000 		.4byte	.LBB307
 8787 0194 B2000000 		.4byte	.LBE307
 8788 0198 C0000000 		.4byte	.LBB311
 8789 019c C2000000 		.4byte	.LBE311
 8790 01a0 00000000 		.4byte	0
 8791 01a4 00000000 		.4byte	0
 8792 01a8 06000000 		.4byte	.LBB316
 8793 01ac 08000000 		.4byte	.LBE316
 8794 01b0 10000000 		.4byte	.LBB320
 8795 01b4 12000000 		.4byte	.LBE320
 8796 01b8 14000000 		.4byte	.LBB323
 8797 01bc 16000000 		.4byte	.LBE323
 8798 01c0 00000000 		.4byte	0
 8799 01c4 00000000 		.4byte	0
 8800 01c8 1A000000 		.4byte	.LBB324
 8801 01cc 1C000000 		.4byte	.LBE324
 8802 01d0 1E000000 		.4byte	.LBB327
 8803 01d4 20000000 		.4byte	.LBE327
 8804 01d8 00000000 		.4byte	0
 8805 01dc 00000000 		.4byte	0
 8806 01e0 28000000 		.4byte	.LBB330
 8807 01e4 2A000000 		.4byte	.LBE330
 8808 01e8 2E000000 		.4byte	.LBB357
 8809 01ec 78000000 		.4byte	.LBE357
 8810 01f0 C2000000 		.4byte	.LBB383
 8811 01f4 C6000000 		.4byte	.LBE383
 8812 01f8 00000000 		.4byte	0
 8813 01fc 00000000 		.4byte	0
 8814 0200 28000000 		.4byte	.LBB331
 8815 0204 2A000000 		.4byte	.LBE331
 8816 0208 2E000000 		.4byte	.LBB336
 8817 020c 30000000 		.4byte	.LBE336
 8818 0210 3C000000 		.4byte	.LBB345
 8819 0214 3E000000 		.4byte	.LBE345
 8820 0218 5E000000 		.4byte	.LBB351
 8821 021c 60000000 		.4byte	.LBE351
 8822 0220 00000000 		.4byte	0
 8823 0224 00000000 		.4byte	0
 8824 0228 30000000 		.4byte	.LBB337
 8825 022c 32000000 		.4byte	.LBE337
 8826 0230 3E000000 		.4byte	.LBB346
 8827 0234 40000000 		.4byte	.LBE346
 8828 0238 6E000000 		.4byte	.LBB356
 8829 023c 70000000 		.4byte	.LBE356
 8830 0240 00000000 		.4byte	0
 8831 0244 00000000 		.4byte	0
 8832 0248 32000000 		.4byte	.LBB341
 8833 024c 34000000 		.4byte	.LBE341
 8834 0250 44000000 		.4byte	.LBB347
 8835 0254 46000000 		.4byte	.LBE347
ARM GAS  /tmp/cc7TFFKb.s 			page 186


 8836 0258 50000000 		.4byte	.LBB350
 8837 025c 52000000 		.4byte	.LBE350
 8838 0260 00000000 		.4byte	0
 8839 0264 00000000 		.4byte	0
 8840 0268 64000000 		.4byte	.LBB352
 8841 026c 68000000 		.4byte	.LBE352
 8842 0270 6C000000 		.4byte	.LBB355
 8843 0274 6E000000 		.4byte	.LBE355
 8844 0278 00000000 		.4byte	0
 8845 027c 00000000 		.4byte	0
 8846 0280 78000000 		.4byte	.LBB358
 8847 0284 7A000000 		.4byte	.LBE358
 8848 0288 82000000 		.4byte	.LBB381
 8849 028c 84000000 		.4byte	.LBE381
 8850 0290 88000000 		.4byte	.LBB382
 8851 0294 C2000000 		.4byte	.LBE382
 8852 0298 00000000 		.4byte	0
 8853 029c 00000000 		.4byte	0
 8854 02a0 82000000 		.4byte	.LBB359
 8855 02a4 84000000 		.4byte	.LBE359
 8856 02a8 88000000 		.4byte	.LBB364
 8857 02ac 8A000000 		.4byte	.LBE364
 8858 02b0 96000000 		.4byte	.LBB371
 8859 02b4 98000000 		.4byte	.LBE371
 8860 02b8 AC000000 		.4byte	.LBB376
 8861 02bc AE000000 		.4byte	.LBE376
 8862 02c0 00000000 		.4byte	0
 8863 02c4 00000000 		.4byte	0
 8864 02c8 8A000000 		.4byte	.LBB365
 8865 02cc 8C000000 		.4byte	.LBE365
 8866 02d0 98000000 		.4byte	.LBB372
 8867 02d4 9A000000 		.4byte	.LBE372
 8868 02d8 00000000 		.4byte	0
 8869 02dc 00000000 		.4byte	0
 8870 02e0 8C000000 		.4byte	.LBB368
 8871 02e4 8E000000 		.4byte	.LBE368
 8872 02e8 9E000000 		.4byte	.LBB373
 8873 02ec A0000000 		.4byte	.LBE373
 8874 02f0 00000000 		.4byte	0
 8875 02f4 00000000 		.4byte	0
 8876 02f8 B2000000 		.4byte	.LBB377
 8877 02fc B6000000 		.4byte	.LBE377
 8878 0300 BA000000 		.4byte	.LBB380
 8879 0304 BC000000 		.4byte	.LBE380
 8880 0308 00000000 		.4byte	0
 8881 030c 00000000 		.4byte	0
 8882 0310 06000000 		.4byte	.LBB384
 8883 0314 08000000 		.4byte	.LBE384
 8884 0318 0E000000 		.4byte	.LBB388
 8885 031c 10000000 		.4byte	.LBE388
 8886 0320 12000000 		.4byte	.LBB391
 8887 0324 14000000 		.4byte	.LBE391
 8888 0328 00000000 		.4byte	0
 8889 032c 00000000 		.4byte	0
 8890 0330 18000000 		.4byte	.LBB392
 8891 0334 1A000000 		.4byte	.LBE392
 8892 0338 1C000000 		.4byte	.LBB395
ARM GAS  /tmp/cc7TFFKb.s 			page 187


 8893 033c 1E000000 		.4byte	.LBE395
 8894 0340 00000000 		.4byte	0
 8895 0344 00000000 		.4byte	0
 8896 0348 28000000 		.4byte	.LBB398
 8897 034c 32000000 		.4byte	.LBE398
 8898 0350 34000000 		.4byte	.LBB427
 8899 0354 7C000000 		.4byte	.LBE427
 8900 0358 D4000000 		.4byte	.LBB461
 8901 035c DC000000 		.4byte	.LBE461
 8902 0360 00000000 		.4byte	0
 8903 0364 00000000 		.4byte	0
 8904 0368 28000000 		.4byte	.LBB399
 8905 036c 2C000000 		.4byte	.LBE399
 8906 0370 40000000 		.4byte	.LBB417
 8907 0374 42000000 		.4byte	.LBE417
 8908 0378 68000000 		.4byte	.LBB423
 8909 037c 6A000000 		.4byte	.LBE423
 8910 0380 00000000 		.4byte	0
 8911 0384 00000000 		.4byte	0
 8912 0388 2C000000 		.4byte	.LBB403
 8913 038c 30000000 		.4byte	.LBE403
 8914 0390 6E000000 		.4byte	.LBB424
 8915 0394 70000000 		.4byte	.LBE424
 8916 0398 72000000 		.4byte	.LBB425
 8917 039c 74000000 		.4byte	.LBE425
 8918 03a0 00000000 		.4byte	0
 8919 03a4 00000000 		.4byte	0
 8920 03a8 30000000 		.4byte	.LBB407
 8921 03ac 32000000 		.4byte	.LBE407
 8922 03b0 34000000 		.4byte	.LBB412
 8923 03b4 36000000 		.4byte	.LBE412
 8924 03b8 44000000 		.4byte	.LBB418
 8925 03bc 46000000 		.4byte	.LBE418
 8926 03c0 74000000 		.4byte	.LBB426
 8927 03c4 76000000 		.4byte	.LBE426
 8928 03c8 00000000 		.4byte	0
 8929 03cc 00000000 		.4byte	0
 8930 03d0 36000000 		.4byte	.LBB413
 8931 03d4 38000000 		.4byte	.LBE413
 8932 03d8 4A000000 		.4byte	.LBB419
 8933 03dc 4C000000 		.4byte	.LBE419
 8934 03e0 5A000000 		.4byte	.LBB422
 8935 03e4 5C000000 		.4byte	.LBE422
 8936 03e8 00000000 		.4byte	0
 8937 03ec 00000000 		.4byte	0
 8938 03f0 7C000000 		.4byte	.LBB428
 8939 03f4 7E000000 		.4byte	.LBE428
 8940 03f8 86000000 		.4byte	.LBB459
 8941 03fc 8C000000 		.4byte	.LBE459
 8942 0400 8E000000 		.4byte	.LBB460
 8943 0404 D4000000 		.4byte	.LBE460
 8944 0408 00000000 		.4byte	0
 8945 040c 00000000 		.4byte	0
 8946 0410 86000000 		.4byte	.LBB429
 8947 0414 8A000000 		.4byte	.LBE429
 8948 0418 9E000000 		.4byte	.LBB448
 8949 041c A0000000 		.4byte	.LBE448
ARM GAS  /tmp/cc7TFFKb.s 			page 188


 8950 0420 C6000000 		.4byte	.LBB456
 8951 0424 C8000000 		.4byte	.LBE456
 8952 0428 00000000 		.4byte	0
 8953 042c 00000000 		.4byte	0
 8954 0430 8A000000 		.4byte	.LBB433
 8955 0434 8C000000 		.4byte	.LBE433
 8956 0438 8E000000 		.4byte	.LBB438
 8957 043c 90000000 		.4byte	.LBE438
 8958 0440 CC000000 		.4byte	.LBB457
 8959 0444 CE000000 		.4byte	.LBE457
 8960 0448 D0000000 		.4byte	.LBB458
 8961 044c D4000000 		.4byte	.LBE458
 8962 0450 00000000 		.4byte	0
 8963 0454 00000000 		.4byte	0
 8964 0458 90000000 		.4byte	.LBB439
 8965 045c 92000000 		.4byte	.LBE439
 8966 0460 94000000 		.4byte	.LBB447
 8967 0464 96000000 		.4byte	.LBE447
 8968 0468 A2000000 		.4byte	.LBB449
 8969 046c A4000000 		.4byte	.LBE449
 8970 0470 00000000 		.4byte	0
 8971 0474 00000000 		.4byte	0
 8972 0478 92000000 		.4byte	.LBB443
 8973 047c 94000000 		.4byte	.LBE443
 8974 0480 A8000000 		.4byte	.LBB450
 8975 0484 AA000000 		.4byte	.LBE450
 8976 0488 B8000000 		.4byte	.LBB455
 8977 048c BA000000 		.4byte	.LBE455
 8978 0490 00000000 		.4byte	0
 8979 0494 00000000 		.4byte	0
 8980 0498 B2000000 		.4byte	.LBB451
 8981 049c B4000000 		.4byte	.LBE451
 8982 04a0 B6000000 		.4byte	.LBB454
 8983 04a4 B8000000 		.4byte	.LBE454
 8984 04a8 00000000 		.4byte	0
 8985 04ac 00000000 		.4byte	0
 8986 04b0 0E000000 		.4byte	.LBB466
 8987 04b4 12000000 		.4byte	.LBE466
 8988 04b8 18000000 		.4byte	.LBB471
 8989 04bc 1A000000 		.4byte	.LBE471
 8990 04c0 00000000 		.4byte	0
 8991 04c4 00000000 		.4byte	0
 8992 04c8 1E000000 		.4byte	.LBB472
 8993 04cc 20000000 		.4byte	.LBE472
 8994 04d0 20000000 		.4byte	.LBB475
 8995 04d4 22000000 		.4byte	.LBE475
 8996 04d8 00000000 		.4byte	0
 8997 04dc 00000000 		.4byte	0
 8998 04e0 1C000000 		.4byte	.LBB478
 8999 04e4 1E000000 		.4byte	.LBE478
 9000 04e8 30000000 		.4byte	.LBB500
 9001 04ec 34000000 		.4byte	.LBE500
 9002 04f0 4C000000 		.4byte	.LBB503
 9003 04f4 4E000000 		.4byte	.LBE503
 9004 04f8 00000000 		.4byte	0
 9005 04fc 00000000 		.4byte	0
 9006 0500 2A000000 		.4byte	.LBB482
ARM GAS  /tmp/cc7TFFKb.s 			page 189


 9007 0504 2C000000 		.4byte	.LBE482
 9008 0508 2E000000 		.4byte	.LBB499
 9009 050c 30000000 		.4byte	.LBE499
 9010 0510 34000000 		.4byte	.LBB501
 9011 0514 3E000000 		.4byte	.LBE501
 9012 0518 5C000000 		.4byte	.LBB504
 9013 051c 6A000000 		.4byte	.LBE504
 9014 0520 00000000 		.4byte	0
 9015 0524 00000000 		.4byte	0
 9016 0528 2A000000 		.4byte	.LBB484
 9017 052c 2C000000 		.4byte	.LBE484
 9018 0530 2E000000 		.4byte	.LBB488
 9019 0534 30000000 		.4byte	.LBE488
 9020 0538 60000000 		.4byte	.LBB491
 9021 053c 64000000 		.4byte	.LBE491
 9022 0540 00000000 		.4byte	0
 9023 0544 00000000 		.4byte	0
 9024 0548 2C000000 		.4byte	.LBB495
 9025 054c 2E000000 		.4byte	.LBE495
 9026 0550 3E000000 		.4byte	.LBB502
 9027 0554 40000000 		.4byte	.LBE502
 9028 0558 6A000000 		.4byte	.LBB505
 9029 055c 6C000000 		.4byte	.LBE505
 9030 0560 00000000 		.4byte	0
 9031 0564 00000000 		.4byte	0
 9032 0568 14000000 		.4byte	.LBB510
 9033 056c 16000000 		.4byte	.LBE510
 9034 0570 22000000 		.4byte	.LBB514
 9035 0574 26000000 		.4byte	.LBE514
 9036 0578 34000000 		.4byte	.LBB517
 9037 057c 36000000 		.4byte	.LBE517
 9038 0580 00000000 		.4byte	0
 9039 0584 00000000 		.4byte	0
 9040 0588 3E000000 		.4byte	.LBB518
 9041 058c 40000000 		.4byte	.LBE518
 9042 0590 42000000 		.4byte	.LBB541
 9043 0594 44000000 		.4byte	.LBE541
 9044 0598 58000000 		.4byte	.LBB560
 9045 059c 5E000000 		.4byte	.LBE560
 9046 05a0 60000000 		.4byte	.LBB561
 9047 05a4 68000000 		.4byte	.LBE561
 9048 05a8 A4000000 		.4byte	.LBB565
 9049 05ac A6000000 		.4byte	.LBE565
 9050 05b0 A8000000 		.4byte	.LBB566
 9051 05b4 B0000000 		.4byte	.LBE566
 9052 05b8 00000000 		.4byte	0
 9053 05bc 00000000 		.4byte	0
 9054 05c0 3E000000 		.4byte	.LBB520
 9055 05c4 40000000 		.4byte	.LBE520
 9056 05c8 42000000 		.4byte	.LBB525
 9057 05cc 44000000 		.4byte	.LBE525
 9058 05d0 A4000000 		.4byte	.LBB530
 9059 05d4 A6000000 		.4byte	.LBE530
 9060 05d8 A8000000 		.4byte	.LBB531
 9061 05dc AA000000 		.4byte	.LBE531
 9062 05e0 00000000 		.4byte	0
 9063 05e4 00000000 		.4byte	0
ARM GAS  /tmp/cc7TFFKb.s 			page 190


 9064 05e8 5C000000 		.4byte	.LBB526
 9065 05ec 5E000000 		.4byte	.LBE526
 9066 05f0 60000000 		.4byte	.LBB529
 9067 05f4 62000000 		.4byte	.LBE529
 9068 05f8 00000000 		.4byte	0
 9069 05fc 00000000 		.4byte	0
 9070 0600 40000000 		.4byte	.LBB537
 9071 0604 42000000 		.4byte	.LBE537
 9072 0608 4A000000 		.4byte	.LBB559
 9073 060c 4C000000 		.4byte	.LBE559
 9074 0610 96000000 		.4byte	.LBB564
 9075 0614 98000000 		.4byte	.LBE564
 9076 0618 00000000 		.4byte	0
 9077 061c 00000000 		.4byte	0
 9078 0620 44000000 		.4byte	.LBB542
 9079 0624 46000000 		.4byte	.LBE542
 9080 0628 48000000 		.4byte	.LBB558
 9081 062c 4A000000 		.4byte	.LBE558
 9082 0630 68000000 		.4byte	.LBB562
 9083 0634 6A000000 		.4byte	.LBE562
 9084 0638 B0000000 		.4byte	.LBB567
 9085 063c B2000000 		.4byte	.LBE567
 9086 0640 00000000 		.4byte	0
 9087 0644 00000000 		.4byte	0
 9088 0648 46000000 		.4byte	.LBB547
 9089 064c 48000000 		.4byte	.LBE547
 9090 0650 6E000000 		.4byte	.LBB563
 9091 0654 96000000 		.4byte	.LBE563
 9092 0658 00000000 		.4byte	0
 9093 065c 00000000 		.4byte	0
 9094 0660 46000000 		.4byte	.LBB549
 9095 0664 48000000 		.4byte	.LBE549
 9096 0668 6E000000 		.4byte	.LBB553
 9097 066c 70000000 		.4byte	.LBE553
 9098 0670 8C000000 		.4byte	.LBB556
 9099 0674 8E000000 		.4byte	.LBE556
 9100 0678 00000000 		.4byte	0
 9101 067c 00000000 		.4byte	0
 9102 0680 0C000000 		.4byte	.LBB572
 9103 0684 22000000 		.4byte	.LBE572
 9104 0688 6E000000 		.4byte	.LBB583
 9105 068c 7C000000 		.4byte	.LBE583
 9106 0690 00000000 		.4byte	0
 9107 0694 00000000 		.4byte	0
 9108 0698 5A000000 		.4byte	.LBB579
 9109 069c 5E000000 		.4byte	.LBE579
 9110 06a0 5E000000 		.4byte	.LBB582
 9111 06a4 66000000 		.4byte	.LBE582
 9112 06a8 00000000 		.4byte	0
 9113 06ac 00000000 		.4byte	0
 9114 06b0 00000000 		.4byte	.LBB584
 9115 06b4 02000000 		.4byte	.LBE584
 9116 06b8 04000000 		.4byte	.LBB587
 9117 06bc 08000000 		.4byte	.LBE587
 9118 06c0 00000000 		.4byte	0
 9119 06c4 00000000 		.4byte	0
 9120 06c8 08000000 		.4byte	.LBB588
ARM GAS  /tmp/cc7TFFKb.s 			page 191


 9121 06cc 16000000 		.4byte	.LBE588
 9122 06d0 4A000000 		.4byte	.LBB610
 9123 06d4 58000000 		.4byte	.LBE610
 9124 06d8 00000000 		.4byte	0
 9125 06dc 00000000 		.4byte	0
 9126 06e0 16000000 		.4byte	.LBB591
 9127 06e4 20000000 		.4byte	.LBE591
 9128 06e8 58000000 		.4byte	.LBB611
 9129 06ec 70000000 		.4byte	.LBE611
 9130 06f0 00000000 		.4byte	0
 9131 06f4 00000000 		.4byte	0
 9132 06f8 20000000 		.4byte	.LBB596
 9133 06fc 22000000 		.4byte	.LBE596
 9134 0700 22000000 		.4byte	.LBB603
 9135 0704 2E000000 		.4byte	.LBE603
 9136 0708 00000000 		.4byte	0
 9137 070c 00000000 		.4byte	0
 9138 0710 20000000 		.4byte	.LBB597
 9139 0714 22000000 		.4byte	.LBE597
 9140 0718 22000000 		.4byte	.LBB600
 9141 071c 28000000 		.4byte	.LBE600
 9142 0720 00000000 		.4byte	0
 9143 0724 00000000 		.4byte	0
 9144 0728 2E000000 		.4byte	.LBB604
 9145 072c 32000000 		.4byte	.LBE604
 9146 0730 34000000 		.4byte	.LBB607
 9147 0734 38000000 		.4byte	.LBE607
 9148 0738 00000000 		.4byte	0
 9149 073c 00000000 		.4byte	0
 9150 0740 0E000000 		.4byte	.LBB616
 9151 0744 1A000000 		.4byte	.LBE616
 9152 0748 22000000 		.4byte	.LBB624
 9153 074c 2E000000 		.4byte	.LBE624
 9154 0750 00000000 		.4byte	0
 9155 0754 00000000 		.4byte	0
 9156 0758 1A000000 		.4byte	.LBB619
 9157 075c 20000000 		.4byte	.LBE619
 9158 0760 2E000000 		.4byte	.LBB625
 9159 0764 48000000 		.4byte	.LBE625
 9160 0768 00000000 		.4byte	0
 9161 076c 00000000 		.4byte	0
 9162 0770 00000000 		.4byte	.LFB201
 9163 0774 32000000 		.4byte	.LFE201
 9164 0778 00000000 		.4byte	.LFB206
 9165 077c 18000000 		.4byte	.LFE206
 9166 0780 00000000 		.4byte	.LFB207
 9167 0784 18010000 		.4byte	.LFE207
 9168 0788 00000000 		.4byte	.LFB208
 9169 078c C6000000 		.4byte	.LFE208
 9170 0790 00000000 		.4byte	.LFB209
 9171 0794 DC000000 		.4byte	.LFE209
 9172 0798 00000000 		.4byte	.LFB210
 9173 079c 24000000 		.4byte	.LFE210
 9174 07a0 00000000 		.4byte	.LFB211
 9175 07a4 84000000 		.4byte	.LFE211
 9176 07a8 00000000 		.4byte	.LFB212
 9177 07ac C8000000 		.4byte	.LFE212
ARM GAS  /tmp/cc7TFFKb.s 			page 192


 9178 07b0 00000000 		.4byte	.LFB213
 9179 07b4 18000000 		.4byte	.LFE213
 9180 07b8 00000000 		.4byte	.LFB214
 9181 07bc 90000000 		.4byte	.LFE214
 9182 07c0 00000000 		.4byte	.LFB215
 9183 07c4 70000000 		.4byte	.LFE215
 9184 07c8 00000000 		.4byte	.LFB216
 9185 07cc 48000000 		.4byte	.LFE216
 9186 07d0 00000000 		.4byte	0
 9187 07d4 00000000 		.4byte	0
 9188              		.section	.debug_macro,"",%progbits
 9189              	.Ldebug_macro0:
 9190 0000 0400     		.2byte	0x4
 9191 0002 02       		.byte	0x2
 9192 0003 00000000 		.4byte	.Ldebug_line0
 9193 0007 07       		.byte	0x7
 9194 0008 00000000 		.4byte	.Ldebug_macro1
 9195 000c 03       		.byte	0x3
 9196 000d 00       		.uleb128 0
 9197 000e 01       		.uleb128 0x1
 9198 000f 03       		.byte	0x3
 9199 0010 20       		.uleb128 0x20
 9200 0011 08       		.uleb128 0x8
 9201 0012 05       		.byte	0x5
 9202 0013 1E       		.uleb128 0x1e
 9203 0014 667A0000 		.4byte	.LASF345
 9204 0018 03       		.byte	0x3
 9205 0019 20       		.uleb128 0x20
 9206 001a 07       		.uleb128 0x7
 9207 001b 05       		.byte	0x5
 9208 001c 21       		.uleb128 0x21
 9209 001d A3210000 		.4byte	.LASF346
 9210              		.file 9 "/usr/lib/gcc/arm-none-eabi/4.9.3/include/stdint.h"
 9211 0021 03       		.byte	0x3
 9212 0022 23       		.uleb128 0x23
 9213 0023 09       		.uleb128 0x9
 9214 0024 03       		.byte	0x3
 9215 0025 09       		.uleb128 0x9
 9216 0026 06       		.uleb128 0x6
 9217 0027 05       		.byte	0x5
 9218 0028 0A       		.uleb128 0xa
 9219 0029 BF1C0000 		.4byte	.LASF347
 9220 002d 03       		.byte	0x3
 9221 002e 0C       		.uleb128 0xc
 9222 002f 05       		.uleb128 0x5
 9223 0030 05       		.byte	0x5
 9224 0031 06       		.uleb128 0x6
 9225 0032 8B500000 		.4byte	.LASF348
 9226              		.file 10 "/usr/arm-none-eabi/include/sys/features.h"
 9227 0036 03       		.byte	0x3
 9228 0037 08       		.uleb128 0x8
 9229 0038 0A       		.uleb128 0xa
 9230 0039 07       		.byte	0x7
 9231 003a 00000000 		.4byte	.Ldebug_macro2
 9232 003e 04       		.byte	0x4
 9233 003f 07       		.byte	0x7
 9234 0040 00000000 		.4byte	.Ldebug_macro3
ARM GAS  /tmp/cc7TFFKb.s 			page 193


 9235 0044 04       		.byte	0x4
 9236              		.file 11 "/usr/arm-none-eabi/include/sys/_intsup.h"
 9237 0045 03       		.byte	0x3
 9238 0046 0D       		.uleb128 0xd
 9239 0047 0B       		.uleb128 0xb
 9240 0048 07       		.byte	0x7
 9241 0049 00000000 		.4byte	.Ldebug_macro4
 9242 004d 04       		.byte	0x4
 9243 004e 07       		.byte	0x7
 9244 004f 00000000 		.4byte	.Ldebug_macro5
 9245 0053 04       		.byte	0x4
 9246 0054 05       		.byte	0x5
 9247 0055 0D       		.uleb128 0xd
 9248 0056 AE660000 		.4byte	.LASF441
 9249 005a 04       		.byte	0x4
 9250              		.file 12 "/usr/lib/gcc/arm-none-eabi/4.9.3/include/stdbool.h"
 9251 005b 03       		.byte	0x3
 9252 005c 24       		.uleb128 0x24
 9253 005d 0C       		.uleb128 0xc
 9254 005e 07       		.byte	0x7
 9255 005f 00000000 		.4byte	.Ldebug_macro6
 9256 0063 04       		.byte	0x4
 9257 0064 07       		.byte	0x7
 9258 0065 00000000 		.4byte	.Ldebug_macro7
 9259 0069 04       		.byte	0x4
 9260              		.file 13 "../lpc11cx4-library/lpc_chip_11cxx_lib/inc/sys_config.h"
 9261 006a 03       		.byte	0x3
 9262 006b 21       		.uleb128 0x21
 9263 006c 0D       		.uleb128 0xd
 9264 006d 07       		.byte	0x7
 9265 006e 00000000 		.4byte	.Ldebug_macro8
 9266 0072 04       		.byte	0x4
 9267              		.file 14 "../lpc11cx4-library/lpc_chip_11cxx_lib/inc/cmsis.h"
 9268 0073 03       		.byte	0x3
 9269 0074 22       		.uleb128 0x22
 9270 0075 0E       		.uleb128 0xe
 9271 0076 05       		.byte	0x5
 9272 0077 1E       		.uleb128 0x1e
 9273 0078 934F0000 		.4byte	.LASF464
 9274              		.file 15 "../lpc11cx4-library/lpc_chip_11cxx_lib/inc/cmsis_11cxx.h"
 9275 007c 03       		.byte	0x3
 9276 007d 2E       		.uleb128 0x2e
 9277 007e 0F       		.uleb128 0xf
 9278 007f 07       		.byte	0x7
 9279 0080 00000000 		.4byte	.Ldebug_macro9
 9280 0084 04       		.byte	0x4
 9281              		.file 16 "../lpc11cx4-library/lpc_chip_11cxx_lib/inc/core_cm0.h"
 9282 0085 03       		.byte	0x3
 9283 0086 3E       		.uleb128 0x3e
 9284 0087 10       		.uleb128 0x10
 9285 0088 07       		.byte	0x7
 9286 0089 00000000 		.4byte	.Ldebug_macro10
 9287              		.file 17 "../lpc11cx4-library/lpc_chip_11cxx_lib/inc/core_cmInstr.h"
 9288 008d 03       		.byte	0x3
 9289 008e 70       		.uleb128 0x70
 9290 008f 11       		.uleb128 0x11
 9291 0090 05       		.byte	0x5
ARM GAS  /tmp/cc7TFFKb.s 			page 194


 9292 0091 19       		.uleb128 0x19
 9293 0092 2D1D0000 		.4byte	.LASF478
 9294 0096 04       		.byte	0x4
 9295              		.file 18 "../lpc11cx4-library/lpc_chip_11cxx_lib/inc/core_cmFunc.h"
 9296 0097 03       		.byte	0x3
 9297 0098 71       		.uleb128 0x71
 9298 0099 12       		.uleb128 0x12
 9299 009a 05       		.byte	0x5
 9300 009b 19       		.uleb128 0x19
 9301 009c 9E0B0000 		.4byte	.LASF479
 9302 00a0 04       		.byte	0x4
 9303 00a1 07       		.byte	0x7
 9304 00a2 00000000 		.4byte	.Ldebug_macro11
 9305 00a6 04       		.byte	0x4
 9306 00a7 04       		.byte	0x4
 9307 00a8 07       		.byte	0x7
 9308 00a9 00000000 		.4byte	.Ldebug_macro12
 9309              		.file 19 "../lpc11cx4-library/lpc_chip_11cxx_lib/inc/pmu_11xx.h"
 9310 00ad 03       		.byte	0x3
 9311 00ae E801     		.uleb128 0xe8
 9312 00b0 13       		.uleb128 0x13
 9313 00b1 07       		.byte	0x7
 9314 00b2 00000000 		.4byte	.Ldebug_macro13
 9315 00b6 04       		.byte	0x4
 9316              		.file 20 "../lpc11cx4-library/lpc_chip_11cxx_lib/inc/fmc_11xx.h"
 9317 00b7 03       		.byte	0x3
 9318 00b8 E901     		.uleb128 0xe9
 9319 00ba 14       		.uleb128 0x14
 9320 00bb 05       		.byte	0x5
 9321 00bc 21       		.uleb128 0x21
 9322 00bd ED680000 		.4byte	.LASF608
 9323 00c1 04       		.byte	0x4
 9324 00c2 03       		.byte	0x3
 9325 00c3 EA01     		.uleb128 0xea
 9326 00c5 04       		.uleb128 0x4
 9327 00c6 07       		.byte	0x7
 9328 00c7 00000000 		.4byte	.Ldebug_macro14
 9329 00cb 04       		.byte	0x4
 9330 00cc 03       		.byte	0x3
 9331 00cd EB01     		.uleb128 0xeb
 9332 00cf 03       		.uleb128 0x3
 9333 00d0 07       		.byte	0x7
 9334 00d1 00000000 		.4byte	.Ldebug_macro15
 9335 00d5 04       		.byte	0x4
 9336              		.file 21 "../lpc11cx4-library/lpc_chip_11cxx_lib/inc/iocon_11xx.h"
 9337 00d6 03       		.byte	0x3
 9338 00d7 EC01     		.uleb128 0xec
 9339 00d9 15       		.uleb128 0x15
 9340 00da 07       		.byte	0x7
 9341 00db 00000000 		.4byte	.Ldebug_macro16
 9342 00df 04       		.byte	0x4
 9343              		.file 22 "../lpc11cx4-library/lpc_chip_11cxx_lib/inc/timer_11xx.h"
 9344 00e0 03       		.byte	0x3
 9345 00e1 ED01     		.uleb128 0xed
 9346 00e3 16       		.uleb128 0x16
 9347 00e4 07       		.byte	0x7
 9348 00e5 00000000 		.4byte	.Ldebug_macro17
ARM GAS  /tmp/cc7TFFKb.s 			page 195


 9349 00e9 04       		.byte	0x4
 9350              		.file 23 "../lpc11cx4-library/lpc_chip_11cxx_lib/inc/uart_11xx.h"
 9351 00ea 03       		.byte	0x3
 9352 00eb EE01     		.uleb128 0xee
 9353 00ed 17       		.uleb128 0x17
 9354 00ee 05       		.byte	0x5
 9355 00ef 21       		.uleb128 0x21
 9356 00f0 A0240000 		.4byte	.LASF692
 9357              		.file 24 "../lpc11cx4-library/lpc_chip_11cxx_lib/inc/ring_buffer.h"
 9358 00f4 03       		.byte	0x3
 9359 00f5 23       		.uleb128 0x23
 9360 00f6 18       		.uleb128 0x18
 9361 00f7 07       		.byte	0x7
 9362 00f8 00000000 		.4byte	.Ldebug_macro18
 9363 00fc 04       		.byte	0x4
 9364 00fd 07       		.byte	0x7
 9365 00fe 00000000 		.4byte	.Ldebug_macro19
 9366 0102 04       		.byte	0x4
 9367              		.file 25 "../lpc11cx4-library/lpc_chip_11cxx_lib/inc/wwdt_11xx.h"
 9368 0103 03       		.byte	0x3
 9369 0104 EF01     		.uleb128 0xef
 9370 0106 19       		.uleb128 0x19
 9371 0107 07       		.byte	0x7
 9372 0108 00000000 		.4byte	.Ldebug_macro20
 9373 010c 04       		.byte	0x4
 9374 010d 03       		.byte	0x3
 9375 010e F001     		.uleb128 0xf0
 9376 0110 02       		.uleb128 0x2
 9377 0111 07       		.byte	0x7
 9378 0112 00000000 		.4byte	.Ldebug_macro21
 9379 0116 04       		.byte	0x4
 9380              		.file 26 "../lpc11cx4-library/lpc_chip_11cxx_lib/inc/romapi_11xx.h"
 9381 0117 03       		.byte	0x3
 9382 0118 F101     		.uleb128 0xf1
 9383 011a 1A       		.uleb128 0x1a
 9384 011b 05       		.byte	0x5
 9385 011c 21       		.uleb128 0x21
 9386 011d BE400000 		.4byte	.LASF845
 9387              		.file 27 "../lpc11cx4-library/lpc_chip_11cxx_lib/inc/error.h"
 9388 0121 03       		.byte	0x3
 9389 0122 23       		.uleb128 0x23
 9390 0123 1B       		.uleb128 0x1b
 9391 0124 07       		.byte	0x7
 9392 0125 00000000 		.4byte	.Ldebug_macro22
 9393 0129 04       		.byte	0x4
 9394 012a 04       		.byte	0x4
 9395              		.file 28 "../lpc11cx4-library/lpc_chip_11cxx_lib/inc/adc_11xx.h"
 9396 012b 03       		.byte	0x3
 9397 012c F501     		.uleb128 0xf5
 9398 012e 1C       		.uleb128 0x1c
 9399 012f 07       		.byte	0x7
 9400 0130 00000000 		.4byte	.Ldebug_macro23
 9401 0134 04       		.byte	0x4
 9402              		.file 29 "../lpc11cx4-library/lpc_chip_11cxx_lib/inc/gpio_11xx_2.h"
 9403 0135 03       		.byte	0x3
 9404 0136 FE01     		.uleb128 0xfe
 9405 0138 1D       		.uleb128 0x1d
ARM GAS  /tmp/cc7TFFKb.s 			page 196


 9406 0139 05       		.byte	0x5
 9407 013a 22       		.uleb128 0x22
 9408 013b 1C670000 		.4byte	.LASF868
 9409 013f 04       		.byte	0x4
 9410              		.file 30 "../lpc11cx4-library/lpc_chip_11cxx_lib/inc/i2c_11xx.h"
 9411 0140 03       		.byte	0x3
 9412 0141 8B02     		.uleb128 0x10b
 9413 0143 1E       		.uleb128 0x1e
 9414 0144 07       		.byte	0x7
 9415 0145 00000000 		.4byte	.Ldebug_macro24
 9416 0149 04       		.byte	0x4
 9417              		.file 31 "../lpc11cx4-library/lpc_chip_11cxx_lib/inc/ccand_11xx.h"
 9418 014a 03       		.byte	0x3
 9419 014b 8E02     		.uleb128 0x10e
 9420 014d 1F       		.uleb128 0x1f
 9421 014e 07       		.byte	0x7
 9422 014f 00000000 		.4byte	.Ldebug_macro25
 9423 0153 04       		.byte	0x4
 9424 0154 04       		.byte	0x4
 9425 0155 04       		.byte	0x4
 9426 0156 00       		.byte	0
 9427              		.section	.debug_macro,"G",%progbits,wm4.0.577787f3295b446bf0a2b287b3e6b6b4,comdat
 9428              	.Ldebug_macro1:
 9429 0000 0400     		.2byte	0x4
 9430 0002 00       		.byte	0
 9431 0003 05       		.byte	0x5
 9432 0004 00       		.uleb128 0
 9433 0005 9B4B0000 		.4byte	.LASF0
 9434 0009 05       		.byte	0x5
 9435 000a 00       		.uleb128 0
 9436 000b E6090000 		.4byte	.LASF1
 9437 000f 05       		.byte	0x5
 9438 0010 00       		.uleb128 0
 9439 0011 81360000 		.4byte	.LASF2
 9440 0015 05       		.byte	0x5
 9441 0016 00       		.uleb128 0
 9442 0017 11620000 		.4byte	.LASF3
 9443 001b 05       		.byte	0x5
 9444 001c 00       		.uleb128 0
 9445 001d 351C0000 		.4byte	.LASF4
 9446 0021 05       		.byte	0x5
 9447 0022 00       		.uleb128 0
 9448 0023 FD790000 		.4byte	.LASF5
 9449 0027 05       		.byte	0x5
 9450 0028 00       		.uleb128 0
 9451 0029 C2680000 		.4byte	.LASF6
 9452 002d 05       		.byte	0x5
 9453 002e 00       		.uleb128 0
 9454 002f C31E0000 		.4byte	.LASF7
 9455 0033 05       		.byte	0x5
 9456 0034 00       		.uleb128 0
 9457 0035 48330000 		.4byte	.LASF8
 9458 0039 05       		.byte	0x5
 9459 003a 00       		.uleb128 0
 9460 003b E23A0000 		.4byte	.LASF9
 9461 003f 05       		.byte	0x5
 9462 0040 00       		.uleb128 0
ARM GAS  /tmp/cc7TFFKb.s 			page 197


 9463 0041 EA790000 		.4byte	.LASF10
 9464 0045 05       		.byte	0x5
 9465 0046 00       		.uleb128 0
 9466 0047 8F030000 		.4byte	.LASF11
 9467 004b 05       		.byte	0x5
 9468 004c 00       		.uleb128 0
 9469 004d C73B0000 		.4byte	.LASF12
 9470 0051 05       		.byte	0x5
 9471 0052 00       		.uleb128 0
 9472 0053 EB5B0000 		.4byte	.LASF13
 9473 0057 05       		.byte	0x5
 9474 0058 00       		.uleb128 0
 9475 0059 41710000 		.4byte	.LASF14
 9476 005d 05       		.byte	0x5
 9477 005e 00       		.uleb128 0
 9478 005f 67170000 		.4byte	.LASF15
 9479 0063 05       		.byte	0x5
 9480 0064 00       		.uleb128 0
 9481 0065 F6040000 		.4byte	.LASF16
 9482 0069 05       		.byte	0x5
 9483 006a 00       		.uleb128 0
 9484 006b 10210000 		.4byte	.LASF17
 9485 006f 05       		.byte	0x5
 9486 0070 00       		.uleb128 0
 9487 0071 1E6A0000 		.4byte	.LASF18
 9488 0075 05       		.byte	0x5
 9489 0076 00       		.uleb128 0
 9490 0077 15180000 		.4byte	.LASF19
 9491 007b 05       		.byte	0x5
 9492 007c 00       		.uleb128 0
 9493 007d 18220000 		.4byte	.LASF20
 9494 0081 05       		.byte	0x5
 9495 0082 00       		.uleb128 0
 9496 0083 A9650000 		.4byte	.LASF21
 9497 0087 05       		.byte	0x5
 9498 0088 00       		.uleb128 0
 9499 0089 0A430000 		.4byte	.LASF22
 9500 008d 05       		.byte	0x5
 9501 008e 00       		.uleb128 0
 9502 008f A6500000 		.4byte	.LASF23
 9503 0093 05       		.byte	0x5
 9504 0094 00       		.uleb128 0
 9505 0095 3A580000 		.4byte	.LASF24
 9506 0099 05       		.byte	0x5
 9507 009a 00       		.uleb128 0
 9508 009b A70D0000 		.4byte	.LASF25
 9509 009f 05       		.byte	0x5
 9510 00a0 00       		.uleb128 0
 9511 00a1 55060000 		.4byte	.LASF26
 9512 00a5 05       		.byte	0x5
 9513 00a6 00       		.uleb128 0
 9514 00a7 16450000 		.4byte	.LASF27
 9515 00ab 05       		.byte	0x5
 9516 00ac 00       		.uleb128 0
 9517 00ad CB4B0000 		.4byte	.LASF28
 9518 00b1 05       		.byte	0x5
 9519 00b2 00       		.uleb128 0
ARM GAS  /tmp/cc7TFFKb.s 			page 198


 9520 00b3 FB140000 		.4byte	.LASF29
 9521 00b7 05       		.byte	0x5
 9522 00b8 00       		.uleb128 0
 9523 00b9 F9770000 		.4byte	.LASF30
 9524 00bd 05       		.byte	0x5
 9525 00be 00       		.uleb128 0
 9526 00bf 4F2A0000 		.4byte	.LASF31
 9527 00c3 05       		.byte	0x5
 9528 00c4 00       		.uleb128 0
 9529 00c5 7D220000 		.4byte	.LASF32
 9530 00c9 05       		.byte	0x5
 9531 00ca 00       		.uleb128 0
 9532 00cb 82460000 		.4byte	.LASF33
 9533 00cf 05       		.byte	0x5
 9534 00d0 00       		.uleb128 0
 9535 00d1 14780000 		.4byte	.LASF34
 9536 00d5 05       		.byte	0x5
 9537 00d6 00       		.uleb128 0
 9538 00d7 4D490000 		.4byte	.LASF35
 9539 00db 05       		.byte	0x5
 9540 00dc 00       		.uleb128 0
 9541 00dd 84640000 		.4byte	.LASF36
 9542 00e1 05       		.byte	0x5
 9543 00e2 00       		.uleb128 0
 9544 00e3 BA160000 		.4byte	.LASF37
 9545 00e7 05       		.byte	0x5
 9546 00e8 00       		.uleb128 0
 9547 00e9 50390000 		.4byte	.LASF38
 9548 00ed 05       		.byte	0x5
 9549 00ee 00       		.uleb128 0
 9550 00ef EF060000 		.4byte	.LASF39
 9551 00f3 05       		.byte	0x5
 9552 00f4 00       		.uleb128 0
 9553 00f5 0A080000 		.4byte	.LASF40
 9554 00f9 05       		.byte	0x5
 9555 00fa 00       		.uleb128 0
 9556 00fb 4E7A0000 		.4byte	.LASF41
 9557 00ff 05       		.byte	0x5
 9558 0100 00       		.uleb128 0
 9559 0101 D2420000 		.4byte	.LASF42
 9560 0105 05       		.byte	0x5
 9561 0106 00       		.uleb128 0
 9562 0107 1C4C0000 		.4byte	.LASF43
 9563 010b 05       		.byte	0x5
 9564 010c 00       		.uleb128 0
 9565 010d ED360000 		.4byte	.LASF44
 9566 0111 05       		.byte	0x5
 9567 0112 00       		.uleb128 0
 9568 0113 9D6F0000 		.4byte	.LASF45
 9569 0117 05       		.byte	0x5
 9570 0118 00       		.uleb128 0
 9571 0119 F7650000 		.4byte	.LASF46
 9572 011d 05       		.byte	0x5
 9573 011e 00       		.uleb128 0
 9574 011f 10150000 		.4byte	.LASF47
 9575 0123 05       		.byte	0x5
 9576 0124 00       		.uleb128 0
ARM GAS  /tmp/cc7TFFKb.s 			page 199


 9577 0125 5D740000 		.4byte	.LASF48
 9578 0129 05       		.byte	0x5
 9579 012a 00       		.uleb128 0
 9580 012b 6E3B0000 		.4byte	.LASF49
 9581 012f 05       		.byte	0x5
 9582 0130 00       		.uleb128 0
 9583 0131 457C0000 		.4byte	.LASF50
 9584 0135 05       		.byte	0x5
 9585 0136 00       		.uleb128 0
 9586 0137 6D120000 		.4byte	.LASF51
 9587 013b 05       		.byte	0x5
 9588 013c 00       		.uleb128 0
 9589 013d 6D5A0000 		.4byte	.LASF52
 9590 0141 05       		.byte	0x5
 9591 0142 00       		.uleb128 0
 9592 0143 DA610000 		.4byte	.LASF53
 9593 0147 05       		.byte	0x5
 9594 0148 00       		.uleb128 0
 9595 0149 133A0000 		.4byte	.LASF54
 9596 014d 05       		.byte	0x5
 9597 014e 00       		.uleb128 0
 9598 014f 86140000 		.4byte	.LASF55
 9599 0153 05       		.byte	0x5
 9600 0154 00       		.uleb128 0
 9601 0155 BD590000 		.4byte	.LASF56
 9602 0159 05       		.byte	0x5
 9603 015a 00       		.uleb128 0
 9604 015b 433B0000 		.4byte	.LASF57
 9605 015f 05       		.byte	0x5
 9606 0160 00       		.uleb128 0
 9607 0161 310A0000 		.4byte	.LASF58
 9608 0165 05       		.byte	0x5
 9609 0166 00       		.uleb128 0
 9610 0167 18380000 		.4byte	.LASF59
 9611 016b 05       		.byte	0x5
 9612 016c 00       		.uleb128 0
 9613 016d 45360000 		.4byte	.LASF60
 9614 0171 05       		.byte	0x5
 9615 0172 00       		.uleb128 0
 9616 0173 9B590000 		.4byte	.LASF61
 9617 0177 05       		.byte	0x5
 9618 0178 00       		.uleb128 0
 9619 0179 52230000 		.4byte	.LASF62
 9620 017d 05       		.byte	0x5
 9621 017e 00       		.uleb128 0
 9622 017f 70640000 		.4byte	.LASF63
 9623 0183 05       		.byte	0x5
 9624 0184 00       		.uleb128 0
 9625 0185 10370000 		.4byte	.LASF64
 9626 0189 05       		.byte	0x5
 9627 018a 00       		.uleb128 0
 9628 018b FA330000 		.4byte	.LASF65
 9629 018f 05       		.byte	0x5
 9630 0190 00       		.uleb128 0
 9631 0191 B8280000 		.4byte	.LASF66
 9632 0195 05       		.byte	0x5
 9633 0196 00       		.uleb128 0
ARM GAS  /tmp/cc7TFFKb.s 			page 200


 9634 0197 3B230000 		.4byte	.LASF67
 9635 019b 05       		.byte	0x5
 9636 019c 00       		.uleb128 0
 9637 019d DE0E0000 		.4byte	.LASF68
 9638 01a1 05       		.byte	0x5
 9639 01a2 00       		.uleb128 0
 9640 01a3 496A0000 		.4byte	.LASF69
 9641 01a7 05       		.byte	0x5
 9642 01a8 00       		.uleb128 0
 9643 01a9 FC390000 		.4byte	.LASF70
 9644 01ad 05       		.byte	0x5
 9645 01ae 00       		.uleb128 0
 9646 01af FC6B0000 		.4byte	.LASF71
 9647 01b3 05       		.byte	0x5
 9648 01b4 00       		.uleb128 0
 9649 01b5 AA010000 		.4byte	.LASF72
 9650 01b9 05       		.byte	0x5
 9651 01ba 00       		.uleb128 0
 9652 01bb 32140000 		.4byte	.LASF73
 9653 01bf 05       		.byte	0x5
 9654 01c0 00       		.uleb128 0
 9655 01c1 253F0000 		.4byte	.LASF74
 9656 01c5 05       		.byte	0x5
 9657 01c6 00       		.uleb128 0
 9658 01c7 A5400000 		.4byte	.LASF75
 9659 01cb 05       		.byte	0x5
 9660 01cc 00       		.uleb128 0
 9661 01cd E4730000 		.4byte	.LASF76
 9662 01d1 05       		.byte	0x5
 9663 01d2 00       		.uleb128 0
 9664 01d3 E8630000 		.4byte	.LASF77
 9665 01d7 05       		.byte	0x5
 9666 01d8 00       		.uleb128 0
 9667 01d9 775F0000 		.4byte	.LASF78
 9668 01dd 05       		.byte	0x5
 9669 01de 00       		.uleb128 0
 9670 01df 77100000 		.4byte	.LASF79
 9671 01e3 05       		.byte	0x5
 9672 01e4 00       		.uleb128 0
 9673 01e5 A9020000 		.4byte	.LASF80
 9674 01e9 05       		.byte	0x5
 9675 01ea 00       		.uleb128 0
 9676 01eb 7D610000 		.4byte	.LASF81
 9677 01ef 05       		.byte	0x5
 9678 01f0 00       		.uleb128 0
 9679 01f1 140B0000 		.4byte	.LASF82
 9680 01f5 05       		.byte	0x5
 9681 01f6 00       		.uleb128 0
 9682 01f7 1D4D0000 		.4byte	.LASF83
 9683 01fb 05       		.byte	0x5
 9684 01fc 00       		.uleb128 0
 9685 01fd 822E0000 		.4byte	.LASF84
 9686 0201 05       		.byte	0x5
 9687 0202 00       		.uleb128 0
 9688 0203 9C600000 		.4byte	.LASF85
 9689 0207 05       		.byte	0x5
 9690 0208 00       		.uleb128 0
ARM GAS  /tmp/cc7TFFKb.s 			page 201


 9691 0209 BB0F0000 		.4byte	.LASF86
 9692 020d 05       		.byte	0x5
 9693 020e 00       		.uleb128 0
 9694 020f 8A3A0000 		.4byte	.LASF87
 9695 0213 05       		.byte	0x5
 9696 0214 00       		.uleb128 0
 9697 0215 B1290000 		.4byte	.LASF88
 9698 0219 05       		.byte	0x5
 9699 021a 00       		.uleb128 0
 9700 021b 257B0000 		.4byte	.LASF89
 9701 021f 05       		.byte	0x5
 9702 0220 00       		.uleb128 0
 9703 0221 C3570000 		.4byte	.LASF90
 9704 0225 05       		.byte	0x5
 9705 0226 00       		.uleb128 0
 9706 0227 363F0000 		.4byte	.LASF91
 9707 022b 05       		.byte	0x5
 9708 022c 00       		.uleb128 0
 9709 022d CC7C0000 		.4byte	.LASF92
 9710 0231 05       		.byte	0x5
 9711 0232 00       		.uleb128 0
 9712 0233 634E0000 		.4byte	.LASF93
 9713 0237 05       		.byte	0x5
 9714 0238 00       		.uleb128 0
 9715 0239 CE530000 		.4byte	.LASF94
 9716 023d 05       		.byte	0x5
 9717 023e 00       		.uleb128 0
 9718 023f 3D280000 		.4byte	.LASF95
 9719 0243 05       		.byte	0x5
 9720 0244 00       		.uleb128 0
 9721 0245 2C790000 		.4byte	.LASF96
 9722 0249 05       		.byte	0x5
 9723 024a 00       		.uleb128 0
 9724 024b 4A620000 		.4byte	.LASF97
 9725 024f 05       		.byte	0x5
 9726 0250 00       		.uleb128 0
 9727 0251 830D0000 		.4byte	.LASF98
 9728 0255 05       		.byte	0x5
 9729 0256 00       		.uleb128 0
 9730 0257 325E0000 		.4byte	.LASF99
 9731 025b 05       		.byte	0x5
 9732 025c 00       		.uleb128 0
 9733 025d 37660000 		.4byte	.LASF100
 9734 0261 05       		.byte	0x5
 9735 0262 00       		.uleb128 0
 9736 0263 6D7B0000 		.4byte	.LASF101
 9737 0267 05       		.byte	0x5
 9738 0268 00       		.uleb128 0
 9739 0269 FB070000 		.4byte	.LASF102
 9740 026d 05       		.byte	0x5
 9741 026e 00       		.uleb128 0
 9742 026f 405B0000 		.4byte	.LASF103
 9743 0273 05       		.byte	0x5
 9744 0274 00       		.uleb128 0
 9745 0275 16680000 		.4byte	.LASF104
 9746 0279 05       		.byte	0x5
 9747 027a 00       		.uleb128 0
ARM GAS  /tmp/cc7TFFKb.s 			page 202


 9748 027b EF6A0000 		.4byte	.LASF105
 9749 027f 05       		.byte	0x5
 9750 0280 00       		.uleb128 0
 9751 0281 2E290000 		.4byte	.LASF106
 9752 0285 05       		.byte	0x5
 9753 0286 00       		.uleb128 0
 9754 0287 6E520000 		.4byte	.LASF107
 9755 028b 05       		.byte	0x5
 9756 028c 00       		.uleb128 0
 9757 028d 7C560000 		.4byte	.LASF108
 9758 0291 05       		.byte	0x5
 9759 0292 00       		.uleb128 0
 9760 0293 D3520000 		.4byte	.LASF109
 9761 0297 05       		.byte	0x5
 9762 0298 00       		.uleb128 0
 9763 0299 80150000 		.4byte	.LASF110
 9764 029d 05       		.byte	0x5
 9765 029e 00       		.uleb128 0
 9766 029f C2000000 		.4byte	.LASF111
 9767 02a3 05       		.byte	0x5
 9768 02a4 00       		.uleb128 0
 9769 02a5 15310000 		.4byte	.LASF112
 9770 02a9 05       		.byte	0x5
 9771 02aa 00       		.uleb128 0
 9772 02ab E71F0000 		.4byte	.LASF113
 9773 02af 05       		.byte	0x5
 9774 02b0 00       		.uleb128 0
 9775 02b1 83750000 		.4byte	.LASF114
 9776 02b5 05       		.byte	0x5
 9777 02b6 00       		.uleb128 0
 9778 02b7 4D7B0000 		.4byte	.LASF115
 9779 02bb 05       		.byte	0x5
 9780 02bc 00       		.uleb128 0
 9781 02bd 40130000 		.4byte	.LASF116
 9782 02c1 05       		.byte	0x5
 9783 02c2 00       		.uleb128 0
 9784 02c3 294A0000 		.4byte	.LASF117
 9785 02c7 05       		.byte	0x5
 9786 02c8 00       		.uleb128 0
 9787 02c9 0F490000 		.4byte	.LASF118
 9788 02cd 05       		.byte	0x5
 9789 02ce 00       		.uleb128 0
 9790 02cf 0D1E0000 		.4byte	.LASF119
 9791 02d3 05       		.byte	0x5
 9792 02d4 00       		.uleb128 0
 9793 02d5 8E110000 		.4byte	.LASF120
 9794 02d9 05       		.byte	0x5
 9795 02da 00       		.uleb128 0
 9796 02db C2490000 		.4byte	.LASF121
 9797 02df 05       		.byte	0x5
 9798 02e0 00       		.uleb128 0
 9799 02e1 25480000 		.4byte	.LASF122
 9800 02e5 05       		.byte	0x5
 9801 02e6 00       		.uleb128 0
 9802 02e7 C73F0000 		.4byte	.LASF123
 9803 02eb 05       		.byte	0x5
 9804 02ec 00       		.uleb128 0
ARM GAS  /tmp/cc7TFFKb.s 			page 203


 9805 02ed 173B0000 		.4byte	.LASF124
 9806 02f1 05       		.byte	0x5
 9807 02f2 00       		.uleb128 0
 9808 02f3 3F490000 		.4byte	.LASF125
 9809 02f7 05       		.byte	0x5
 9810 02f8 00       		.uleb128 0
 9811 02f9 0E480000 		.4byte	.LASF126
 9812 02fd 05       		.byte	0x5
 9813 02fe 00       		.uleb128 0
 9814 02ff F3190000 		.4byte	.LASF127
 9815 0303 05       		.byte	0x5
 9816 0304 00       		.uleb128 0
 9817 0305 53170000 		.4byte	.LASF128
 9818 0309 05       		.byte	0x5
 9819 030a 00       		.uleb128 0
 9820 030b A5610000 		.4byte	.LASF129
 9821 030f 05       		.byte	0x5
 9822 0310 00       		.uleb128 0
 9823 0311 4F1A0000 		.4byte	.LASF130
 9824 0315 05       		.byte	0x5
 9825 0316 00       		.uleb128 0
 9826 0317 5D240000 		.4byte	.LASF131
 9827 031b 05       		.byte	0x5
 9828 031c 00       		.uleb128 0
 9829 031d C9230000 		.4byte	.LASF132
 9830 0321 05       		.byte	0x5
 9831 0322 00       		.uleb128 0
 9832 0323 D5290000 		.4byte	.LASF133
 9833 0327 05       		.byte	0x5
 9834 0328 00       		.uleb128 0
 9835 0329 12280000 		.4byte	.LASF134
 9836 032d 05       		.byte	0x5
 9837 032e 00       		.uleb128 0
 9838 032f DA060000 		.4byte	.LASF135
 9839 0333 05       		.byte	0x5
 9840 0334 00       		.uleb128 0
 9841 0335 EF340000 		.4byte	.LASF136
 9842 0339 05       		.byte	0x5
 9843 033a 00       		.uleb128 0
 9844 033b AB1B0000 		.4byte	.LASF137
 9845 033f 05       		.byte	0x5
 9846 0340 00       		.uleb128 0
 9847 0341 967B0000 		.4byte	.LASF138
 9848 0345 05       		.byte	0x5
 9849 0346 00       		.uleb128 0
 9850 0347 94040000 		.4byte	.LASF139
 9851 034b 05       		.byte	0x5
 9852 034c 00       		.uleb128 0
 9853 034d 9D540000 		.4byte	.LASF140
 9854 0351 05       		.byte	0x5
 9855 0352 00       		.uleb128 0
 9856 0353 717A0000 		.4byte	.LASF141
 9857 0357 05       		.byte	0x5
 9858 0358 00       		.uleb128 0
 9859 0359 D21F0000 		.4byte	.LASF142
 9860 035d 05       		.byte	0x5
 9861 035e 00       		.uleb128 0
ARM GAS  /tmp/cc7TFFKb.s 			page 204


 9862 035f 0D050000 		.4byte	.LASF143
 9863 0363 05       		.byte	0x5
 9864 0364 00       		.uleb128 0
 9865 0365 856A0000 		.4byte	.LASF144
 9866 0369 05       		.byte	0x5
 9867 036a 00       		.uleb128 0
 9868 036b A6740000 		.4byte	.LASF145
 9869 036f 05       		.byte	0x5
 9870 0370 00       		.uleb128 0
 9871 0371 BF130000 		.4byte	.LASF146
 9872 0375 05       		.byte	0x5
 9873 0376 00       		.uleb128 0
 9874 0377 B5340000 		.4byte	.LASF147
 9875 037b 05       		.byte	0x5
 9876 037c 00       		.uleb128 0
 9877 037d 8B6E0000 		.4byte	.LASF148
 9878 0381 05       		.byte	0x5
 9879 0382 00       		.uleb128 0
 9880 0383 9F260000 		.4byte	.LASF149
 9881 0387 05       		.byte	0x5
 9882 0388 00       		.uleb128 0
 9883 0389 F9760000 		.4byte	.LASF150
 9884 038d 05       		.byte	0x5
 9885 038e 00       		.uleb128 0
 9886 038f 48700000 		.4byte	.LASF151
 9887 0393 05       		.byte	0x5
 9888 0394 00       		.uleb128 0
 9889 0395 A1070000 		.4byte	.LASF152
 9890 0399 05       		.byte	0x5
 9891 039a 00       		.uleb128 0
 9892 039b 8A730000 		.4byte	.LASF153
 9893 039f 05       		.byte	0x5
 9894 03a0 00       		.uleb128 0
 9895 03a1 88070000 		.4byte	.LASF154
 9896 03a5 05       		.byte	0x5
 9897 03a6 00       		.uleb128 0
 9898 03a7 6D350000 		.4byte	.LASF155
 9899 03ab 05       		.byte	0x5
 9900 03ac 00       		.uleb128 0
 9901 03ad 17260000 		.4byte	.LASF156
 9902 03b1 05       		.byte	0x5
 9903 03b2 00       		.uleb128 0
 9904 03b3 0C470000 		.4byte	.LASF157
 9905 03b7 05       		.byte	0x5
 9906 03b8 00       		.uleb128 0
 9907 03b9 3D000000 		.4byte	.LASF158
 9908 03bd 05       		.byte	0x5
 9909 03be 00       		.uleb128 0
 9910 03bf A13F0000 		.4byte	.LASF159
 9911 03c3 05       		.byte	0x5
 9912 03c4 00       		.uleb128 0
 9913 03c5 E4660000 		.4byte	.LASF160
 9914 03c9 05       		.byte	0x5
 9915 03ca 00       		.uleb128 0
 9916 03cb 53250000 		.4byte	.LASF161
 9917 03cf 05       		.byte	0x5
 9918 03d0 00       		.uleb128 0
ARM GAS  /tmp/cc7TFFKb.s 			page 205


 9919 03d1 A93C0000 		.4byte	.LASF162
 9920 03d5 05       		.byte	0x5
 9921 03d6 00       		.uleb128 0
 9922 03d7 FF550000 		.4byte	.LASF163
 9923 03db 05       		.byte	0x5
 9924 03dc 00       		.uleb128 0
 9925 03dd 8D470000 		.4byte	.LASF164
 9926 03e1 05       		.byte	0x5
 9927 03e2 00       		.uleb128 0
 9928 03e3 C2110000 		.4byte	.LASF165
 9929 03e7 05       		.byte	0x5
 9930 03e8 00       		.uleb128 0
 9931 03e9 4D500000 		.4byte	.LASF166
 9932 03ed 05       		.byte	0x5
 9933 03ee 00       		.uleb128 0
 9934 03ef 0A250000 		.4byte	.LASF167
 9935 03f3 05       		.byte	0x5
 9936 03f4 00       		.uleb128 0
 9937 03f5 4F370000 		.4byte	.LASF168
 9938 03f9 05       		.byte	0x5
 9939 03fa 00       		.uleb128 0
 9940 03fb EE050000 		.4byte	.LASF169
 9941 03ff 05       		.byte	0x5
 9942 0400 00       		.uleb128 0
 9943 0401 A6110000 		.4byte	.LASF170
 9944 0405 05       		.byte	0x5
 9945 0406 00       		.uleb128 0
 9946 0407 F00E0000 		.4byte	.LASF171
 9947 040b 05       		.byte	0x5
 9948 040c 00       		.uleb128 0
 9949 040d 16030000 		.4byte	.LASF172
 9950 0411 05       		.byte	0x5
 9951 0412 00       		.uleb128 0
 9952 0413 EC540000 		.4byte	.LASF173
 9953 0417 05       		.byte	0x5
 9954 0418 00       		.uleb128 0
 9955 0419 7F790000 		.4byte	.LASF174
 9956 041d 05       		.byte	0x5
 9957 041e 00       		.uleb128 0
 9958 041f 83060000 		.4byte	.LASF175
 9959 0423 05       		.byte	0x5
 9960 0424 00       		.uleb128 0
 9961 0425 57550000 		.4byte	.LASF176
 9962 0429 05       		.byte	0x5
 9963 042a 00       		.uleb128 0
 9964 042b 4A190000 		.4byte	.LASF177
 9965 042f 05       		.byte	0x5
 9966 0430 00       		.uleb128 0
 9967 0431 03740000 		.4byte	.LASF178
 9968 0435 05       		.byte	0x5
 9969 0436 00       		.uleb128 0
 9970 0437 AB300000 		.4byte	.LASF179
 9971 043b 05       		.byte	0x5
 9972 043c 00       		.uleb128 0
 9973 043d 064D0000 		.4byte	.LASF180
 9974 0441 05       		.byte	0x5
 9975 0442 00       		.uleb128 0
ARM GAS  /tmp/cc7TFFKb.s 			page 206


 9976 0443 4C140000 		.4byte	.LASF181
 9977 0447 05       		.byte	0x5
 9978 0448 00       		.uleb128 0
 9979 0449 F51D0000 		.4byte	.LASF182
 9980 044d 05       		.byte	0x5
 9981 044e 00       		.uleb128 0
 9982 044f 1E660000 		.4byte	.LASF183
 9983 0453 05       		.byte	0x5
 9984 0454 00       		.uleb128 0
 9985 0455 50020000 		.4byte	.LASF184
 9986 0459 05       		.byte	0x5
 9987 045a 00       		.uleb128 0
 9988 045b 403A0000 		.4byte	.LASF185
 9989 045f 05       		.byte	0x5
 9990 0460 00       		.uleb128 0
 9991 0461 0F650000 		.4byte	.LASF186
 9992 0465 05       		.byte	0x5
 9993 0466 00       		.uleb128 0
 9994 0467 8F010000 		.4byte	.LASF187
 9995 046b 05       		.byte	0x5
 9996 046c 00       		.uleb128 0
 9997 046d E7760000 		.4byte	.LASF188
 9998 0471 05       		.byte	0x5
 9999 0472 00       		.uleb128 0
 10000 0473 06360000 		.4byte	.LASF189
 10001 0477 05       		.byte	0x5
 10002 0478 00       		.uleb128 0
 10003 0479 84780000 		.4byte	.LASF190
 10004 047d 05       		.byte	0x5
 10005 047e 00       		.uleb128 0
 10006 047f 670D0000 		.4byte	.LASF191
 10007 0483 05       		.byte	0x5
 10008 0484 00       		.uleb128 0
 10009 0485 773A0000 		.4byte	.LASF192
 10010 0489 05       		.byte	0x5
 10011 048a 00       		.uleb128 0
 10012 048b 22250000 		.4byte	.LASF193
 10013 048f 05       		.byte	0x5
 10014 0490 00       		.uleb128 0
 10015 0491 A3250000 		.4byte	.LASF194
 10016 0495 05       		.byte	0x5
 10017 0496 00       		.uleb128 0
 10018 0497 2C0B0000 		.4byte	.LASF195
 10019 049b 05       		.byte	0x5
 10020 049c 00       		.uleb128 0
 10021 049d DC300000 		.4byte	.LASF196
 10022 04a1 05       		.byte	0x5
 10023 04a2 00       		.uleb128 0
 10024 04a3 8F1B0000 		.4byte	.LASF197
 10025 04a7 05       		.byte	0x5
 10026 04a8 00       		.uleb128 0
 10027 04a9 B2570000 		.4byte	.LASF198
 10028 04ad 05       		.byte	0x5
 10029 04ae 00       		.uleb128 0
 10030 04af 58050000 		.4byte	.LASF199
 10031 04b3 05       		.byte	0x5
 10032 04b4 00       		.uleb128 0
ARM GAS  /tmp/cc7TFFKb.s 			page 207


 10033 04b5 E7470000 		.4byte	.LASF200
 10034 04b9 05       		.byte	0x5
 10035 04ba 00       		.uleb128 0
 10036 04bb 8A380000 		.4byte	.LASF201
 10037 04bf 05       		.byte	0x5
 10038 04c0 00       		.uleb128 0
 10039 04c1 03680000 		.4byte	.LASF202
 10040 04c5 05       		.byte	0x5
 10041 04c6 00       		.uleb128 0
 10042 04c7 87530000 		.4byte	.LASF203
 10043 04cb 05       		.byte	0x5
 10044 04cc 00       		.uleb128 0
 10045 04cd 307C0000 		.4byte	.LASF204
 10046 04d1 05       		.byte	0x5
 10047 04d2 00       		.uleb128 0
 10048 04d3 26440000 		.4byte	.LASF205
 10049 04d7 05       		.byte	0x5
 10050 04d8 00       		.uleb128 0
 10051 04d9 083F0000 		.4byte	.LASF206
 10052 04dd 05       		.byte	0x5
 10053 04de 00       		.uleb128 0
 10054 04df 386D0000 		.4byte	.LASF207
 10055 04e3 05       		.byte	0x5
 10056 04e4 00       		.uleb128 0
 10057 04e5 DC530000 		.4byte	.LASF208
 10058 04e9 05       		.byte	0x5
 10059 04ea 00       		.uleb128 0
 10060 04eb A2030000 		.4byte	.LASF209
 10061 04ef 05       		.byte	0x5
 10062 04f0 00       		.uleb128 0
 10063 04f1 5F4B0000 		.4byte	.LASF210
 10064 04f5 05       		.byte	0x5
 10065 04f6 00       		.uleb128 0
 10066 04f7 164E0000 		.4byte	.LASF211
 10067 04fb 05       		.byte	0x5
 10068 04fc 00       		.uleb128 0
 10069 04fd 6E0C0000 		.4byte	.LASF212
 10070 0501 05       		.byte	0x5
 10071 0502 00       		.uleb128 0
 10072 0503 AA7B0000 		.4byte	.LASF213
 10073 0507 05       		.byte	0x5
 10074 0508 00       		.uleb128 0
 10075 0509 765D0000 		.4byte	.LASF214
 10076 050d 05       		.byte	0x5
 10077 050e 00       		.uleb128 0
 10078 050f 315A0000 		.4byte	.LASF215
 10079 0513 05       		.byte	0x5
 10080 0514 00       		.uleb128 0
 10081 0515 5E650000 		.4byte	.LASF216
 10082 0519 05       		.byte	0x5
 10083 051a 00       		.uleb128 0
 10084 051b E8740000 		.4byte	.LASF217
 10085 051f 05       		.byte	0x5
 10086 0520 00       		.uleb128 0
 10087 0521 52710000 		.4byte	.LASF218
 10088 0525 05       		.byte	0x5
 10089 0526 00       		.uleb128 0
ARM GAS  /tmp/cc7TFFKb.s 			page 208


 10090 0527 EB6D0000 		.4byte	.LASF219
 10091 052b 05       		.byte	0x5
 10092 052c 00       		.uleb128 0
 10093 052d 5E630000 		.4byte	.LASF220
 10094 0531 05       		.byte	0x5
 10095 0532 00       		.uleb128 0
 10096 0533 D65F0000 		.4byte	.LASF221
 10097 0537 05       		.byte	0x5
 10098 0538 00       		.uleb128 0
 10099 0539 F8090000 		.4byte	.LASF222
 10100 053d 05       		.byte	0x5
 10101 053e 00       		.uleb128 0
 10102 053f 2B3D0000 		.4byte	.LASF223
 10103 0543 05       		.byte	0x5
 10104 0544 00       		.uleb128 0
 10105 0545 A8700000 		.4byte	.LASF224
 10106 0549 05       		.byte	0x5
 10107 054a 00       		.uleb128 0
 10108 054b C6150000 		.4byte	.LASF225
 10109 054f 05       		.byte	0x5
 10110 0550 00       		.uleb128 0
 10111 0551 536C0000 		.4byte	.LASF226
 10112 0555 05       		.byte	0x5
 10113 0556 00       		.uleb128 0
 10114 0557 15560000 		.4byte	.LASF227
 10115 055b 05       		.byte	0x5
 10116 055c 00       		.uleb128 0
 10117 055d 9E150000 		.4byte	.LASF228
 10118 0561 05       		.byte	0x5
 10119 0562 00       		.uleb128 0
 10120 0563 0F5A0000 		.4byte	.LASF229
 10121 0567 05       		.byte	0x5
 10122 0568 00       		.uleb128 0
 10123 0569 55640000 		.4byte	.LASF230
 10124 056d 05       		.byte	0x5
 10125 056e 00       		.uleb128 0
 10126 056f 0A720000 		.4byte	.LASF231
 10127 0573 05       		.byte	0x5
 10128 0574 00       		.uleb128 0
 10129 0575 C52B0000 		.4byte	.LASF232
 10130 0579 05       		.byte	0x5
 10131 057a 00       		.uleb128 0
 10132 057b C6480000 		.4byte	.LASF233
 10133 057f 05       		.byte	0x5
 10134 0580 00       		.uleb128 0
 10135 0581 E0500000 		.4byte	.LASF234
 10136 0585 05       		.byte	0x5
 10137 0586 00       		.uleb128 0
 10138 0587 61450000 		.4byte	.LASF235
 10139 058b 05       		.byte	0x5
 10140 058c 00       		.uleb128 0
 10141 058d C4140000 		.4byte	.LASF236
 10142 0591 05       		.byte	0x5
 10143 0592 00       		.uleb128 0
 10144 0593 BE120000 		.4byte	.LASF237
 10145 0597 05       		.byte	0x5
 10146 0598 00       		.uleb128 0
ARM GAS  /tmp/cc7TFFKb.s 			page 209


 10147 0599 0A670000 		.4byte	.LASF238
 10148 059d 05       		.byte	0x5
 10149 059e 00       		.uleb128 0
 10150 059f 3A040000 		.4byte	.LASF239
 10151 05a3 05       		.byte	0x5
 10152 05a4 00       		.uleb128 0
 10153 05a5 16350000 		.4byte	.LASF240
 10154 05a9 05       		.byte	0x5
 10155 05aa 00       		.uleb128 0
 10156 05ab 50730000 		.4byte	.LASF241
 10157 05af 05       		.byte	0x5
 10158 05b0 00       		.uleb128 0
 10159 05b1 F53E0000 		.4byte	.LASF242
 10160 05b5 05       		.byte	0x5
 10161 05b6 00       		.uleb128 0
 10162 05b7 24130000 		.4byte	.LASF243
 10163 05bb 05       		.byte	0x5
 10164 05bc 00       		.uleb128 0
 10165 05bd AF2E0000 		.4byte	.LASF244
 10166 05c1 05       		.byte	0x5
 10167 05c2 00       		.uleb128 0
 10168 05c3 F6020000 		.4byte	.LASF245
 10169 05c7 05       		.byte	0x5
 10170 05c8 00       		.uleb128 0
 10171 05c9 D92A0000 		.4byte	.LASF246
 10172 05cd 05       		.byte	0x5
 10173 05ce 00       		.uleb128 0
 10174 05cf 892C0000 		.4byte	.LASF247
 10175 05d3 05       		.byte	0x5
 10176 05d4 00       		.uleb128 0
 10177 05d5 4C660000 		.4byte	.LASF248
 10178 05d9 05       		.byte	0x5
 10179 05da 00       		.uleb128 0
 10180 05db 306E0000 		.4byte	.LASF249
 10181 05df 05       		.byte	0x5
 10182 05e0 00       		.uleb128 0
 10183 05e1 77080000 		.4byte	.LASF250
 10184 05e5 05       		.byte	0x5
 10185 05e6 00       		.uleb128 0
 10186 05e7 1B020000 		.4byte	.LASF251
 10187 05eb 05       		.byte	0x5
 10188 05ec 00       		.uleb128 0
 10189 05ed 116B0000 		.4byte	.LASF252
 10190 05f1 05       		.byte	0x5
 10191 05f2 00       		.uleb128 0
 10192 05f3 B0580000 		.4byte	.LASF253
 10193 05f7 05       		.byte	0x5
 10194 05f8 00       		.uleb128 0
 10195 05f9 7F3F0000 		.4byte	.LASF254
 10196 05fd 05       		.byte	0x5
 10197 05fe 00       		.uleb128 0
 10198 05ff 2B5D0000 		.4byte	.LASF255
 10199 0603 05       		.byte	0x5
 10200 0604 00       		.uleb128 0
 10201 0605 6B730000 		.4byte	.LASF256
 10202 0609 05       		.byte	0x5
 10203 060a 00       		.uleb128 0
ARM GAS  /tmp/cc7TFFKb.s 			page 210


 10204 060b 69610000 		.4byte	.LASF257
 10205 060f 05       		.byte	0x5
 10206 0610 00       		.uleb128 0
 10207 0611 39380000 		.4byte	.LASF258
 10208 0615 05       		.byte	0x5
 10209 0616 00       		.uleb128 0
 10210 0617 F4010000 		.4byte	.LASF259
 10211 061b 05       		.byte	0x5
 10212 061c 00       		.uleb128 0
 10213 061d 73310000 		.4byte	.LASF260
 10214 0621 05       		.byte	0x5
 10215 0622 00       		.uleb128 0
 10216 0623 CC5B0000 		.4byte	.LASF261
 10217 0627 05       		.byte	0x5
 10218 0628 00       		.uleb128 0
 10219 0629 23210000 		.4byte	.LASF262
 10220 062d 05       		.byte	0x5
 10221 062e 00       		.uleb128 0
 10222 062f 166D0000 		.4byte	.LASF263
 10223 0633 05       		.byte	0x5
 10224 0634 00       		.uleb128 0
 10225 0635 AD0E0000 		.4byte	.LASF264
 10226 0639 05       		.byte	0x5
 10227 063a 00       		.uleb128 0
 10228 063b 73050000 		.4byte	.LASF265
 10229 063f 05       		.byte	0x5
 10230 0640 00       		.uleb128 0
 10231 0641 57280000 		.4byte	.LASF266
 10232 0645 05       		.byte	0x5
 10233 0646 00       		.uleb128 0
 10234 0647 156C0000 		.4byte	.LASF267
 10235 064b 05       		.byte	0x5
 10236 064c 00       		.uleb128 0
 10237 064d E2600000 		.4byte	.LASF268
 10238 0651 05       		.byte	0x5
 10239 0652 00       		.uleb128 0
 10240 0653 C0750000 		.4byte	.LASF269
 10241 0657 05       		.byte	0x5
 10242 0658 00       		.uleb128 0
 10243 0659 A52B0000 		.4byte	.LASF270
 10244 065d 05       		.byte	0x5
 10245 065e 00       		.uleb128 0
 10246 065f E90D0000 		.4byte	.LASF271
 10247 0663 05       		.byte	0x5
 10248 0664 00       		.uleb128 0
 10249 0665 47060000 		.4byte	.LASF272
 10250 0669 05       		.byte	0x5
 10251 066a 00       		.uleb128 0
 10252 066b 68590000 		.4byte	.LASF273
 10253 066f 05       		.byte	0x5
 10254 0670 00       		.uleb128 0
 10255 0671 975D0000 		.4byte	.LASF274
 10256 0675 05       		.byte	0x5
 10257 0676 00       		.uleb128 0
 10258 0677 1D200000 		.4byte	.LASF275
 10259 067b 05       		.byte	0x5
 10260 067c 00       		.uleb128 0
ARM GAS  /tmp/cc7TFFKb.s 			page 211


 10261 067d 3D030000 		.4byte	.LASF276
 10262 0681 05       		.byte	0x5
 10263 0682 00       		.uleb128 0
 10264 0683 754A0000 		.4byte	.LASF277
 10265 0687 05       		.byte	0x5
 10266 0688 00       		.uleb128 0
 10267 0689 523F0000 		.4byte	.LASF278
 10268 068d 05       		.byte	0x5
 10269 068e 00       		.uleb128 0
 10270 068f 560E0000 		.4byte	.LASF279
 10271 0693 05       		.byte	0x5
 10272 0694 00       		.uleb128 0
 10273 0695 02620000 		.4byte	.LASF280
 10274 0699 05       		.byte	0x5
 10275 069a 00       		.uleb128 0
 10276 069b 970D0000 		.4byte	.LASF281
 10277 069f 05       		.byte	0x5
 10278 06a0 00       		.uleb128 0
 10279 06a1 CB610000 		.4byte	.LASF282
 10280 06a5 05       		.byte	0x5
 10281 06a6 00       		.uleb128 0
 10282 06a7 BA460000 		.4byte	.LASF283
 10283 06ab 05       		.byte	0x5
 10284 06ac 00       		.uleb128 0
 10285 06ad 32710000 		.4byte	.LASF284
 10286 06b1 05       		.byte	0x5
 10287 06b2 00       		.uleb128 0
 10288 06b3 5B5B0000 		.4byte	.LASF285
 10289 06b7 05       		.byte	0x5
 10290 06b8 00       		.uleb128 0
 10291 06b9 965F0000 		.4byte	.LASF286
 10292 06bd 05       		.byte	0x5
 10293 06be 00       		.uleb128 0
 10294 06bf 03240000 		.4byte	.LASF287
 10295 06c3 05       		.byte	0x5
 10296 06c4 00       		.uleb128 0
 10297 06c5 7D410000 		.4byte	.LASF288
 10298 06c9 05       		.byte	0x5
 10299 06ca 00       		.uleb128 0
 10300 06cb C75F0000 		.4byte	.LASF289
 10301 06cf 05       		.byte	0x5
 10302 06d0 00       		.uleb128 0
 10303 06d1 36360000 		.4byte	.LASF290
 10304 06d5 05       		.byte	0x5
 10305 06d6 00       		.uleb128 0
 10306 06d7 90270000 		.4byte	.LASF291
 10307 06db 05       		.byte	0x5
 10308 06dc 00       		.uleb128 0
 10309 06dd 4B790000 		.4byte	.LASF292
 10310 06e1 05       		.byte	0x5
 10311 06e2 00       		.uleb128 0
 10312 06e3 4B2D0000 		.4byte	.LASF293
 10313 06e7 05       		.byte	0x5
 10314 06e8 00       		.uleb128 0
 10315 06e9 3B010000 		.4byte	.LASF294
 10316 06ed 05       		.byte	0x5
 10317 06ee 00       		.uleb128 0
ARM GAS  /tmp/cc7TFFKb.s 			page 212


 10318 06ef AE440000 		.4byte	.LASF295
 10319 06f3 05       		.byte	0x5
 10320 06f4 00       		.uleb128 0
 10321 06f5 23730000 		.4byte	.LASF296
 10322 06f9 05       		.byte	0x5
 10323 06fa 00       		.uleb128 0
 10324 06fb 6A4D0000 		.4byte	.LASF297
 10325 06ff 05       		.byte	0x5
 10326 0700 00       		.uleb128 0
 10327 0701 D1220000 		.4byte	.LASF298
 10328 0705 05       		.byte	0x5
 10329 0706 00       		.uleb128 0
 10330 0707 AA140000 		.4byte	.LASF299
 10331 070b 05       		.byte	0x5
 10332 070c 00       		.uleb128 0
 10333 070d 63680000 		.4byte	.LASF300
 10334 0711 05       		.byte	0x5
 10335 0712 00       		.uleb128 0
 10336 0713 070E0000 		.4byte	.LASF301
 10337 0717 05       		.byte	0x5
 10338 0718 00       		.uleb128 0
 10339 0719 066D0000 		.4byte	.LASF302
 10340 071d 05       		.byte	0x5
 10341 071e 00       		.uleb128 0
 10342 071f FA640000 		.4byte	.LASF303
 10343 0723 05       		.byte	0x5
 10344 0724 00       		.uleb128 0
 10345 0725 E6310000 		.4byte	.LASF304
 10346 0729 05       		.byte	0x5
 10347 072a 00       		.uleb128 0
 10348 072b 8B410000 		.4byte	.LASF305
 10349 072f 05       		.byte	0x5
 10350 0730 00       		.uleb128 0
 10351 0731 6A620000 		.4byte	.LASF306
 10352 0735 05       		.byte	0x5
 10353 0736 00       		.uleb128 0
 10354 0737 30150000 		.4byte	.LASF307
 10355 073b 05       		.byte	0x5
 10356 073c 00       		.uleb128 0
 10357 073d DC4D0000 		.4byte	.LASF308
 10358 0741 05       		.byte	0x5
 10359 0742 00       		.uleb128 0
 10360 0743 C03A0000 		.4byte	.LASF309
 10361 0747 05       		.byte	0x5
 10362 0748 00       		.uleb128 0
 10363 0749 DA1B0000 		.4byte	.LASF310
 10364 074d 05       		.byte	0x5
 10365 074e 00       		.uleb128 0
 10366 074f 1A010000 		.4byte	.LASF311
 10367 0753 05       		.byte	0x5
 10368 0754 00       		.uleb128 0
 10369 0755 3F2B0000 		.4byte	.LASF312
 10370 0759 05       		.byte	0x5
 10371 075a 00       		.uleb128 0
 10372 075b 2D620000 		.4byte	.LASF313
 10373 075f 05       		.byte	0x5
 10374 0760 00       		.uleb128 0
ARM GAS  /tmp/cc7TFFKb.s 			page 213


 10375 0761 613F0000 		.4byte	.LASF314
 10376 0765 05       		.byte	0x5
 10377 0766 00       		.uleb128 0
 10378 0767 81240000 		.4byte	.LASF315
 10379 076b 05       		.byte	0x5
 10380 076c 00       		.uleb128 0
 10381 076d D82B0000 		.4byte	.LASF316
 10382 0771 05       		.byte	0x5
 10383 0772 00       		.uleb128 0
 10384 0773 7C540000 		.4byte	.LASF317
 10385 0777 05       		.byte	0x5
 10386 0778 00       		.uleb128 0
 10387 0779 D6350000 		.4byte	.LASF318
 10388 077d 05       		.byte	0x5
 10389 077e 00       		.uleb128 0
 10390 077f 61220000 		.4byte	.LASF319
 10391 0783 05       		.byte	0x5
 10392 0784 00       		.uleb128 0
 10393 0785 19430000 		.4byte	.LASF320
 10394 0789 05       		.byte	0x5
 10395 078a 00       		.uleb128 0
 10396 078b 7D6D0000 		.4byte	.LASF321
 10397 078f 05       		.byte	0x5
 10398 0790 00       		.uleb128 0
 10399 0791 7F4B0000 		.4byte	.LASF322
 10400 0795 05       		.byte	0x5
 10401 0796 00       		.uleb128 0
 10402 0797 DF070000 		.4byte	.LASF323
 10403 079b 05       		.byte	0x5
 10404 079c 00       		.uleb128 0
 10405 079d E3330000 		.4byte	.LASF324
 10406 07a1 05       		.byte	0x5
 10407 07a2 00       		.uleb128 0
 10408 07a3 09070000 		.4byte	.LASF325
 10409 07a7 05       		.byte	0x5
 10410 07a8 00       		.uleb128 0
 10411 07a9 B94E0000 		.4byte	.LASF326
 10412 07ad 05       		.byte	0x5
 10413 07ae 00       		.uleb128 0
 10414 07af EB5C0000 		.4byte	.LASF327
 10415 07b3 05       		.byte	0x5
 10416 07b4 00       		.uleb128 0
 10417 07b5 05590000 		.4byte	.LASF328
 10418 07b9 05       		.byte	0x5
 10419 07ba 00       		.uleb128 0
 10420 07bb 3C750000 		.4byte	.LASF329
 10421 07bf 05       		.byte	0x5
 10422 07c0 00       		.uleb128 0
 10423 07c1 57520000 		.4byte	.LASF330
 10424 07c5 05       		.byte	0x5
 10425 07c6 00       		.uleb128 0
 10426 07c7 D16B0000 		.4byte	.LASF331
 10427 07cb 05       		.byte	0x5
 10428 07cc 00       		.uleb128 0
 10429 07cd 36200000 		.4byte	.LASF332
 10430 07d1 05       		.byte	0x5
 10431 07d2 00       		.uleb128 0
ARM GAS  /tmp/cc7TFFKb.s 			page 214


 10432 07d3 2E370000 		.4byte	.LASF333
 10433 07d7 05       		.byte	0x5
 10434 07d8 00       		.uleb128 0
 10435 07d9 F62A0000 		.4byte	.LASF334
 10436 07dd 05       		.byte	0x5
 10437 07de 00       		.uleb128 0
 10438 07df 6B5F0000 		.4byte	.LASF335
 10439 07e3 05       		.byte	0x5
 10440 07e4 00       		.uleb128 0
 10441 07e5 19060000 		.4byte	.LASF336
 10442 07e9 05       		.byte	0x5
 10443 07ea 00       		.uleb128 0
 10444 07eb B0150000 		.4byte	.LASF337
 10445 07ef 05       		.byte	0x5
 10446 07f0 00       		.uleb128 0
 10447 07f1 97650000 		.4byte	.LASF338
 10448 07f5 05       		.byte	0x5
 10449 07f6 00       		.uleb128 0
 10450 07f7 E62D0000 		.4byte	.LASF339
 10451 07fb 05       		.byte	0x5
 10452 07fc 00       		.uleb128 0
 10453 07fd 726E0000 		.4byte	.LASF340
 10454 0801 05       		.byte	0x5
 10455 0802 00       		.uleb128 0
 10456 0803 1F390000 		.4byte	.LASF341
 10457 0807 05       		.byte	0x5
 10458 0808 00       		.uleb128 0
 10459 0809 73600000 		.4byte	.LASF342
 10460 080d 05       		.byte	0x5
 10461 080e 00       		.uleb128 0
 10462 080f D0200000 		.4byte	.LASF343
 10463 0813 05       		.byte	0x5
 10464 0814 00       		.uleb128 0
 10465 0815 EB6F0000 		.4byte	.LASF344
 10466 0819 00       		.byte	0
 10467              		.section	.debug_macro,"G",%progbits,wm4.features.h.22.2e382148a0560adabf236cddd4e880f4,comdat
 10468              	.Ldebug_macro2:
 10469 0000 0400     		.2byte	0x4
 10470 0002 00       		.byte	0
 10471 0003 05       		.byte	0x5
 10472 0004 16       		.uleb128 0x16
 10473 0005 D6210000 		.4byte	.LASF349
 10474 0009 05       		.byte	0x5
 10475 000a 1F       		.uleb128 0x1f
 10476 000b 96680000 		.4byte	.LASF350
 10477 000f 05       		.byte	0x5
 10478 0010 20       		.uleb128 0x20
 10479 0011 B8170000 		.4byte	.LASF351
 10480 0015 05       		.byte	0x5
 10481 0016 25       		.uleb128 0x25
 10482 0017 D0120000 		.4byte	.LASF352
 10483 001b 05       		.byte	0x5
 10484 001c 2C       		.uleb128 0x2c
 10485 001d BF6C0000 		.4byte	.LASF353
 10486 0021 00       		.byte	0
 10487              		.section	.debug_macro,"G",%progbits,wm4._default_types.h.15.933e8edd27a65e0b69af4a865eb623d2,comda
 10488              	.Ldebug_macro3:
ARM GAS  /tmp/cc7TFFKb.s 			page 215


 10489 0000 0400     		.2byte	0x4
 10490 0002 00       		.byte	0
 10491 0003 05       		.byte	0x5
 10492 0004 0F       		.uleb128 0xf
 10493 0005 01450000 		.4byte	.LASF354
 10494 0009 05       		.byte	0x5
 10495 000a 21       		.uleb128 0x21
 10496 000b F2350000 		.4byte	.LASF355
 10497 000f 05       		.byte	0x5
 10498 0010 2F       		.uleb128 0x2f
 10499 0011 02260000 		.4byte	.LASF356
 10500 0015 05       		.byte	0x5
 10501 0016 45       		.uleb128 0x45
 10502 0017 6E420000 		.4byte	.LASF357
 10503 001b 05       		.byte	0x5
 10504 001c 5F       		.uleb128 0x5f
 10505 001d EA550000 		.4byte	.LASF358
 10506 0021 05       		.byte	0x5
 10507 0022 7E       		.uleb128 0x7e
 10508 0023 B14B0000 		.4byte	.LASF359
 10509 0027 05       		.byte	0x5
 10510 0028 9801     		.uleb128 0x98
 10511 002a 17140000 		.4byte	.LASF360
 10512 002e 05       		.byte	0x5
 10513 002f AE01     		.uleb128 0xae
 10514 0031 79170000 		.4byte	.LASF361
 10515 0035 05       		.byte	0x5
 10516 0036 C001     		.uleb128 0xc0
 10517 0038 42720000 		.4byte	.LASF362
 10518 003c 06       		.byte	0x6
 10519 003d D601     		.uleb128 0xd6
 10520 003f C9550000 		.4byte	.LASF363
 10521 0043 00       		.byte	0
 10522              		.section	.debug_macro,"G",%progbits,wm4._intsup.h.10.ca9f32a61b410c270a48d1161ca2c217,comdat
 10523              	.Ldebug_macro4:
 10524 0000 0400     		.2byte	0x4
 10525 0002 00       		.byte	0
 10526 0003 05       		.byte	0x5
 10527 0004 0A       		.uleb128 0xa
 10528 0005 F0710000 		.4byte	.LASF364
 10529 0009 05       		.byte	0x5
 10530 000a 10       		.uleb128 0x10
 10531 000b E5440000 		.4byte	.LASF365
 10532 000f 05       		.byte	0x5
 10533 0010 1A       		.uleb128 0x1a
 10534 0011 1B5C0000 		.4byte	.LASF366
 10535 0015 05       		.byte	0x5
 10536 0016 21       		.uleb128 0x21
 10537 0017 B66A0000 		.4byte	.LASF367
 10538 001b 00       		.byte	0
 10539              		.section	.debug_macro,"G",%progbits,wm4.stdint.h.22.f4a337c398d8b6d821a97202448bc0d0,comdat
 10540              	.Ldebug_macro5:
 10541 0000 0400     		.2byte	0x4
 10542 0002 00       		.byte	0
 10543 0003 05       		.byte	0x5
 10544 0004 16       		.uleb128 0x16
 10545 0005 70260000 		.4byte	.LASF368
ARM GAS  /tmp/cc7TFFKb.s 			page 216


 10546 0009 05       		.byte	0x5
 10547 000a 1C       		.uleb128 0x1c
 10548 000b 28770000 		.4byte	.LASF369
 10549 000f 05       		.byte	0x5
 10550 0010 22       		.uleb128 0x22
 10551 0011 173D0000 		.4byte	.LASF370
 10552 0015 05       		.byte	0x5
 10553 0016 28       		.uleb128 0x28
 10554 0017 BF2A0000 		.4byte	.LASF371
 10555 001b 05       		.byte	0x5
 10556 001c 2E       		.uleb128 0x2e
 10557 001d 3B370000 		.4byte	.LASF372
 10558 0021 05       		.byte	0x5
 10559 0022 34       		.uleb128 0x34
 10560 0023 CC310000 		.4byte	.LASF373
 10561 0027 05       		.byte	0x5
 10562 0028 3A       		.uleb128 0x3a
 10563 0029 A36B0000 		.4byte	.LASF374
 10564 002d 05       		.byte	0x5
 10565 002e 40       		.uleb128 0x40
 10566 002f 05300000 		.4byte	.LASF375
 10567 0033 05       		.byte	0x5
 10568 0034 4C       		.uleb128 0x4c
 10569 0035 774C0000 		.4byte	.LASF376
 10570 0039 05       		.byte	0x5
 10571 003a 56       		.uleb128 0x56
 10572 003b DA460000 		.4byte	.LASF377
 10573 003f 05       		.byte	0x5
 10574 0040 60       		.uleb128 0x60
 10575 0041 D50C0000 		.4byte	.LASF378
 10576 0045 05       		.byte	0x5
 10577 0046 6A       		.uleb128 0x6a
 10578 0047 97200000 		.4byte	.LASF379
 10579 004b 05       		.byte	0x5
 10580 004c AD01     		.uleb128 0xad
 10581 004e AE2D0000 		.4byte	.LASF380
 10582 0052 05       		.byte	0x5
 10583 0053 AE01     		.uleb128 0xae
 10584 0055 BF6F0000 		.4byte	.LASF381
 10585 0059 05       		.byte	0x5
 10586 005a AF01     		.uleb128 0xaf
 10587 005c 871C0000 		.4byte	.LASF382
 10588 0060 05       		.byte	0x5
 10589 0061 C501     		.uleb128 0xc5
 10590 0063 CC320000 		.4byte	.LASF383
 10591 0067 05       		.byte	0x5
 10592 0068 C601     		.uleb128 0xc6
 10593 006a E04F0000 		.4byte	.LASF384
 10594 006e 05       		.byte	0x5
 10595 006f C701     		.uleb128 0xc7
 10596 0071 A2160000 		.4byte	.LASF385
 10597 0075 05       		.byte	0x5
 10598 0076 CF01     		.uleb128 0xcf
 10599 0078 C66A0000 		.4byte	.LASF386
 10600 007c 05       		.byte	0x5
 10601 007d D001     		.uleb128 0xd0
 10602 007f 96280000 		.4byte	.LASF387
ARM GAS  /tmp/cc7TFFKb.s 			page 217


 10603 0083 05       		.byte	0x5
 10604 0084 D101     		.uleb128 0xd1
 10605 0086 1F530000 		.4byte	.LASF388
 10606 008a 05       		.byte	0x5
 10607 008b DB01     		.uleb128 0xdb
 10608 008d C14F0000 		.4byte	.LASF389
 10609 0091 05       		.byte	0x5
 10610 0092 DC01     		.uleb128 0xdc
 10611 0094 0E2F0000 		.4byte	.LASF390
 10612 0098 05       		.byte	0x5
 10613 0099 DD01     		.uleb128 0xdd
 10614 009b 5A2D0000 		.4byte	.LASF391
 10615 009f 05       		.byte	0x5
 10616 00a0 E501     		.uleb128 0xe5
 10617 00a2 6C430000 		.4byte	.LASF392
 10618 00a6 05       		.byte	0x5
 10619 00a7 E601     		.uleb128 0xe6
 10620 00a9 2A4B0000 		.4byte	.LASF393
 10621 00ad 05       		.byte	0x5
 10622 00ae E701     		.uleb128 0xe7
 10623 00b0 5C5E0000 		.4byte	.LASF394
 10624 00b4 05       		.byte	0x5
 10625 00b5 F101     		.uleb128 0xf1
 10626 00b7 7D600000 		.4byte	.LASF395
 10627 00bb 05       		.byte	0x5
 10628 00bc F201     		.uleb128 0xf2
 10629 00be DD3E0000 		.4byte	.LASF396
 10630 00c2 05       		.byte	0x5
 10631 00c3 F301     		.uleb128 0xf3
 10632 00c5 FE0B0000 		.4byte	.LASF397
 10633 00c9 05       		.byte	0x5
 10634 00ca 8102     		.uleb128 0x101
 10635 00cc 68660000 		.4byte	.LASF398
 10636 00d0 05       		.byte	0x5
 10637 00d1 8202     		.uleb128 0x102
 10638 00d3 A8320000 		.4byte	.LASF399
 10639 00d7 05       		.byte	0x5
 10640 00d8 8302     		.uleb128 0x103
 10641 00da 67690000 		.4byte	.LASF400
 10642 00de 05       		.byte	0x5
 10643 00df 9302     		.uleb128 0x113
 10644 00e1 A3680000 		.4byte	.LASF401
 10645 00e5 05       		.byte	0x5
 10646 00e6 9402     		.uleb128 0x114
 10647 00e8 38020000 		.4byte	.LASF402
 10648 00ec 05       		.byte	0x5
 10649 00ed 9502     		.uleb128 0x115
 10650 00ef AC4C0000 		.4byte	.LASF403
 10651 00f3 05       		.byte	0x5
 10652 00f4 A302     		.uleb128 0x123
 10653 00f6 CE100000 		.4byte	.LASF404
 10654 00fa 05       		.byte	0x5
 10655 00fb A402     		.uleb128 0x124
 10656 00fd 110D0000 		.4byte	.LASF405
 10657 0101 05       		.byte	0x5
 10658 0102 A502     		.uleb128 0x125
 10659 0104 41690000 		.4byte	.LASF406
ARM GAS  /tmp/cc7TFFKb.s 			page 218


 10660 0108 05       		.byte	0x5
 10661 0109 B302     		.uleb128 0x133
 10662 010b E8480000 		.4byte	.LASF407
 10663 010f 05       		.byte	0x5
 10664 0110 B402     		.uleb128 0x134
 10665 0112 40320000 		.4byte	.LASF408
 10666 0116 05       		.byte	0x5
 10667 0117 B502     		.uleb128 0x135
 10668 0119 5E160000 		.4byte	.LASF409
 10669 011d 05       		.byte	0x5
 10670 011e C302     		.uleb128 0x143
 10671 0120 B6070000 		.4byte	.LASF410
 10672 0124 05       		.byte	0x5
 10673 0125 C402     		.uleb128 0x144
 10674 0127 61750000 		.4byte	.LASF411
 10675 012b 05       		.byte	0x5
 10676 012c C502     		.uleb128 0x145
 10677 012e 39740000 		.4byte	.LASF412
 10678 0132 05       		.byte	0x5
 10679 0133 D302     		.uleb128 0x153
 10680 0135 29120000 		.4byte	.LASF413
 10681 0139 05       		.byte	0x5
 10682 013a D402     		.uleb128 0x154
 10683 013c A55F0000 		.4byte	.LASF414
 10684 0140 05       		.byte	0x5
 10685 0141 D502     		.uleb128 0x155
 10686 0143 05570000 		.4byte	.LASF415
 10687 0147 05       		.byte	0x5
 10688 0148 E302     		.uleb128 0x163
 10689 014a 62500000 		.4byte	.LASF416
 10690 014e 05       		.byte	0x5
 10691 014f E402     		.uleb128 0x164
 10692 0151 79090000 		.4byte	.LASF417
 10693 0155 05       		.byte	0x5
 10694 0156 E502     		.uleb128 0x165
 10695 0158 3D450000 		.4byte	.LASF418
 10696 015c 05       		.byte	0x5
 10697 015d F302     		.uleb128 0x173
 10698 015f D7410000 		.4byte	.LASF419
 10699 0163 05       		.byte	0x5
 10700 0164 F402     		.uleb128 0x174
 10701 0166 FF4B0000 		.4byte	.LASF420
 10702 016a 05       		.byte	0x5
 10703 016b FC02     		.uleb128 0x17c
 10704 016d 4B2E0000 		.4byte	.LASF421
 10705 0171 05       		.byte	0x5
 10706 0172 8403     		.uleb128 0x184
 10707 0174 99130000 		.4byte	.LASF422
 10708 0178 05       		.byte	0x5
 10709 0179 8A03     		.uleb128 0x18a
 10710 017b 262F0000 		.4byte	.LASF423
 10711 017f 05       		.byte	0x5
 10712 0180 8B03     		.uleb128 0x18b
 10713 0182 334E0000 		.4byte	.LASF424
 10714 0186 05       		.byte	0x5
 10715 0187 8F03     		.uleb128 0x18f
 10716 0189 845C0000 		.4byte	.LASF425
ARM GAS  /tmp/cc7TFFKb.s 			page 219


 10717 018d 05       		.byte	0x5
 10718 018e 9303     		.uleb128 0x193
 10719 0190 FB220000 		.4byte	.LASF426
 10720 0194 05       		.byte	0x5
 10721 0195 9803     		.uleb128 0x198
 10722 0197 BB520000 		.4byte	.LASF427
 10723 019b 05       		.byte	0x5
 10724 019c A303     		.uleb128 0x1a3
 10725 019e 01120000 		.4byte	.LASF428
 10726 01a2 05       		.byte	0x5
 10727 01a3 AD03     		.uleb128 0x1ad
 10728 01a5 99220000 		.4byte	.LASF429
 10729 01a9 05       		.byte	0x5
 10730 01aa B203     		.uleb128 0x1b2
 10731 01ac 57030000 		.4byte	.LASF430
 10732 01b0 05       		.byte	0x5
 10733 01b1 B903     		.uleb128 0x1b9
 10734 01b3 02380000 		.4byte	.LASF431
 10735 01b7 05       		.byte	0x5
 10736 01b8 BA03     		.uleb128 0x1ba
 10737 01ba 316A0000 		.4byte	.LASF432
 10738 01be 05       		.byte	0x5
 10739 01bf C503     		.uleb128 0x1c5
 10740 01c1 B1670000 		.4byte	.LASF433
 10741 01c5 05       		.byte	0x5
 10742 01c6 C603     		.uleb128 0x1c6
 10743 01c8 65710000 		.4byte	.LASF434
 10744 01cc 05       		.byte	0x5
 10745 01cd D103     		.uleb128 0x1d1
 10746 01cf 46630000 		.4byte	.LASF435
 10747 01d3 05       		.byte	0x5
 10748 01d4 D203     		.uleb128 0x1d2
 10749 01d6 3B480000 		.4byte	.LASF436
 10750 01da 05       		.byte	0x5
 10751 01db DE03     		.uleb128 0x1de
 10752 01dd 90320000 		.4byte	.LASF437
 10753 01e1 05       		.byte	0x5
 10754 01e2 DF03     		.uleb128 0x1df
 10755 01e4 4F610000 		.4byte	.LASF438
 10756 01e8 05       		.byte	0x5
 10757 01e9 EE03     		.uleb128 0x1ee
 10758 01eb E1220000 		.4byte	.LASF439
 10759 01ef 05       		.byte	0x5
 10760 01f0 EF03     		.uleb128 0x1ef
 10761 01f2 A3550000 		.4byte	.LASF440
 10762 01f6 00       		.byte	0
 10763              		.section	.debug_macro,"G",%progbits,wm4.stdbool.h.29.1c9ee6859ce8145f7838a4f2549ccec2,comdat
 10764              	.Ldebug_macro6:
 10765 0000 0400     		.2byte	0x4
 10766 0002 00       		.byte	0
 10767 0003 05       		.byte	0x5
 10768 0004 1D       		.uleb128 0x1d
 10769 0005 071D0000 		.4byte	.LASF442
 10770 0009 05       		.byte	0x5
 10771 000a 21       		.uleb128 0x21
 10772 000b F22D0000 		.4byte	.LASF443
 10773 000f 05       		.byte	0x5
ARM GAS  /tmp/cc7TFFKb.s 			page 220


 10774 0010 22       		.uleb128 0x22
 10775 0011 534D0000 		.4byte	.LASF444
 10776 0015 05       		.byte	0x5
 10777 0016 23       		.uleb128 0x23
 10778 0017 5E2B0000 		.4byte	.LASF445
 10779 001b 05       		.byte	0x5
 10780 001c 30       		.uleb128 0x30
 10781 001d CF750000 		.4byte	.LASF446
 10782 0021 00       		.byte	0
 10783              		.section	.debug_macro,"G",%progbits,wm4.lpc_types.h.63.5779355f7bf16476226d33c241ffb98a,comdat
 10784              	.Ldebug_macro7:
 10785 0000 0400     		.2byte	0x4
 10786 0002 00       		.byte	0
 10787 0003 05       		.byte	0x5
 10788 0004 3F       		.uleb128 0x3f
 10789 0005 DC160000 		.4byte	.LASF447
 10790 0009 05       		.byte	0x5
 10791 000a 45       		.uleb128 0x45
 10792 000b DC080000 		.4byte	.LASF448
 10793 000f 06       		.byte	0x6
 10794 0010 66       		.uleb128 0x66
 10795 0011 BD000000 		.4byte	.LASF449
 10796 0015 05       		.byte	0x5
 10797 0016 68       		.uleb128 0x68
 10798 0017 35250000 		.4byte	.LASF450
 10799 001b 06       		.byte	0x6
 10800 001c 6E       		.uleb128 0x6e
 10801 001d AC290000 		.4byte	.LASF451
 10802 0021 05       		.byte	0x5
 10803 0022 70       		.uleb128 0x70
 10804 0023 C31B0000 		.4byte	.LASF452
 10805 0027 06       		.byte	0x6
 10806 0028 7F       		.uleb128 0x7f
 10807 0029 0C310000 		.4byte	.LASF453
 10808 002d 05       		.byte	0x5
 10809 002e 8101     		.uleb128 0x81
 10810 0030 436F0000 		.4byte	.LASF454
 10811 0034 05       		.byte	0x5
 10812 0035 8501     		.uleb128 0x85
 10813 0037 CE540000 		.4byte	.LASF455
 10814 003b 05       		.byte	0x5
 10815 003c 8901     		.uleb128 0x89
 10816 003e 4E460000 		.4byte	.LASF456
 10817 0042 05       		.byte	0x5
 10818 0043 8C01     		.uleb128 0x8c
 10819 0045 F6210000 		.4byte	.LASF457
 10820 0049 05       		.byte	0x5
 10821 004a 8E01     		.uleb128 0x8e
 10822 004c A5380000 		.4byte	.LASF458
 10823 0050 05       		.byte	0x5
 10824 0051 9101     		.uleb128 0x91
 10825 0053 26680000 		.4byte	.LASF459
 10826 0057 05       		.byte	0x5
 10827 0058 9401     		.uleb128 0x94
 10828 005a B3210000 		.4byte	.LASF460
 10829 005e 05       		.byte	0x5
 10830 005f CD01     		.uleb128 0xcd
ARM GAS  /tmp/cc7TFFKb.s 			page 221


 10831 0061 746C0000 		.4byte	.LASF461
 10832 0065 00       		.byte	0
 10833              		.section	.debug_macro,"G",%progbits,wm4.sys_config.h.31.9f234e9c90333d233c7e647ebe63e928,comdat
 10834              	.Ldebug_macro8:
 10835 0000 0400     		.2byte	0x4
 10836 0002 00       		.byte	0
 10837 0003 05       		.byte	0x5
 10838 0004 1F       		.uleb128 0x1f
 10839 0005 3A3C0000 		.4byte	.LASF462
 10840 0009 05       		.byte	0x5
 10841 000a 26       		.uleb128 0x26
 10842 000b 291B0000 		.4byte	.LASF463
 10843 000f 00       		.byte	0
 10844              		.section	.debug_macro,"G",%progbits,wm4.cmsis_11cxx.h.33.407e9bbb5d170cd1552d3f7dc3fd5c42,comdat
 10845              	.Ldebug_macro9:
 10846 0000 0400     		.2byte	0x4
 10847 0002 00       		.byte	0
 10848 0003 05       		.byte	0x5
 10849 0004 21       		.uleb128 0x21
 10850 0005 77760000 		.4byte	.LASF465
 10851 0009 05       		.byte	0x5
 10852 000a 8801     		.uleb128 0x88
 10853 000c 40390000 		.4byte	.LASF466
 10854 0010 05       		.byte	0x5
 10855 0011 8901     		.uleb128 0x89
 10856 0013 BB720000 		.4byte	.LASF467
 10857 0017 05       		.byte	0x5
 10858 0018 8A01     		.uleb128 0x8a
 10859 001a 08540000 		.4byte	.LASF468
 10860 001e 00       		.byte	0
 10861              		.section	.debug_macro,"G",%progbits,wm4.core_cm0.h.32.192d13cfa8b31e63c86621de62eb153f,comdat
 10862              	.Ldebug_macro10:
 10863 0000 0400     		.2byte	0x4
 10864 0002 00       		.byte	0
 10865 0003 05       		.byte	0x5
 10866 0004 20       		.uleb128 0x20
 10867 0005 6E5C0000 		.4byte	.LASF469
 10868 0009 05       		.byte	0x5
 10869 000a 38       		.uleb128 0x38
 10870 000b 9B520000 		.4byte	.LASF470
 10871 000f 05       		.byte	0x5
 10872 0010 39       		.uleb128 0x39
 10873 0011 5E6D0000 		.4byte	.LASF471
 10874 0015 05       		.byte	0x5
 10875 0016 3A       		.uleb128 0x3a
 10876 0017 331E0000 		.4byte	.LASF472
 10877 001b 05       		.byte	0x5
 10878 001c 3D       		.uleb128 0x3d
 10879 001d B32B0000 		.4byte	.LASF473
 10880 0021 05       		.byte	0x5
 10881 0022 4B       		.uleb128 0x4b
 10882 0023 690F0000 		.4byte	.LASF474
 10883 0027 05       		.byte	0x5
 10884 0028 4C       		.uleb128 0x4c
 10885 0029 CA460000 		.4byte	.LASF475
 10886 002d 05       		.byte	0x5
 10887 002e 4D       		.uleb128 0x4d
ARM GAS  /tmp/cc7TFFKb.s 			page 222


 10888 002f 2C3E0000 		.4byte	.LASF476
 10889 0033 05       		.byte	0x5
 10890 0034 58       		.uleb128 0x58
 10891 0035 2B6D0000 		.4byte	.LASF477
 10892 0039 00       		.byte	0
 10893              		.section	.debug_macro,"G",%progbits,wm4.core_cm0.h.120.f4257ea7d0bce0cbabffe223e23b2fd4,comdat
 10894              	.Ldebug_macro11:
 10895 0000 0400     		.2byte	0x4
 10896 0002 00       		.byte	0
 10897 0003 05       		.byte	0x5
 10898 0004 78       		.uleb128 0x78
 10899 0005 10770000 		.4byte	.LASF480
 10900 0009 05       		.byte	0x5
 10901 000a 9701     		.uleb128 0x97
 10902 000c 4B3C0000 		.4byte	.LASF481
 10903 0010 05       		.byte	0x5
 10904 0011 9901     		.uleb128 0x99
 10905 0013 012F0000 		.4byte	.LASF482
 10906 0017 05       		.byte	0x5
 10907 0018 9A01     		.uleb128 0x9a
 10908 001a D5690000 		.4byte	.LASF483
 10909 001e 05       		.byte	0x5
 10910 001f B002     		.uleb128 0x130
 10911 0021 2F5C0000 		.4byte	.LASF484
 10912 0025 05       		.byte	0x5
 10913 0026 B102     		.uleb128 0x131
 10914 0028 FC740000 		.4byte	.LASF485
 10915 002c 05       		.byte	0x5
 10916 002d B302     		.uleb128 0x133
 10917 002f DB5D0000 		.4byte	.LASF486
 10918 0033 05       		.byte	0x5
 10919 0034 B402     		.uleb128 0x134
 10920 0036 55480000 		.4byte	.LASF487
 10921 003a 05       		.byte	0x5
 10922 003b B602     		.uleb128 0x136
 10923 003d E4200000 		.4byte	.LASF488
 10924 0041 05       		.byte	0x5
 10925 0042 B702     		.uleb128 0x137
 10926 0044 F9030000 		.4byte	.LASF489
 10927 0048 05       		.byte	0x5
 10928 0049 B902     		.uleb128 0x139
 10929 004b 44290000 		.4byte	.LASF490
 10930 004f 05       		.byte	0x5
 10931 0050 BA02     		.uleb128 0x13a
 10932 0052 811A0000 		.4byte	.LASF491
 10933 0056 05       		.byte	0x5
 10934 0057 BC02     		.uleb128 0x13c
 10935 0059 133E0000 		.4byte	.LASF492
 10936 005d 05       		.byte	0x5
 10937 005e BD02     		.uleb128 0x13d
 10938 0060 43540000 		.4byte	.LASF493
 10939 0064 05       		.byte	0x5
 10940 0065 C002     		.uleb128 0x140
 10941 0067 0D520000 		.4byte	.LASF494
 10942 006b 05       		.byte	0x5
 10943 006c C102     		.uleb128 0x141
 10944 006e 5B290000 		.4byte	.LASF495
ARM GAS  /tmp/cc7TFFKb.s 			page 223


 10945 0072 05       		.byte	0x5
 10946 0073 C302     		.uleb128 0x143
 10947 0075 C42E0000 		.4byte	.LASF496
 10948 0079 05       		.byte	0x5
 10949 007a C402     		.uleb128 0x144
 10950 007c 03640000 		.4byte	.LASF497
 10951 0080 05       		.byte	0x5
 10952 0081 C602     		.uleb128 0x146
 10953 0083 9C6A0000 		.4byte	.LASF498
 10954 0087 05       		.byte	0x5
 10955 0088 C702     		.uleb128 0x147
 10956 008a DB270000 		.4byte	.LASF499
 10957 008e 05       		.byte	0x5
 10958 008f C902     		.uleb128 0x149
 10959 0091 530A0000 		.4byte	.LASF500
 10960 0095 05       		.byte	0x5
 10961 0096 CA02     		.uleb128 0x14a
 10962 0098 53510000 		.4byte	.LASF501
 10963 009c 05       		.byte	0x5
 10964 009d CC02     		.uleb128 0x14c
 10965 009f A5470000 		.4byte	.LASF502
 10966 00a3 05       		.byte	0x5
 10967 00a4 CD02     		.uleb128 0x14d
 10968 00a6 BF020000 		.4byte	.LASF503
 10969 00aa 05       		.byte	0x5
 10970 00ab CF02     		.uleb128 0x14f
 10971 00ad EA510000 		.4byte	.LASF504
 10972 00b1 05       		.byte	0x5
 10973 00b2 D002     		.uleb128 0x150
 10974 00b4 B3380000 		.4byte	.LASF505
 10975 00b8 05       		.byte	0x5
 10976 00b9 D202     		.uleb128 0x152
 10977 00bb CA040000 		.4byte	.LASF506
 10978 00bf 05       		.byte	0x5
 10979 00c0 D302     		.uleb128 0x153
 10980 00c2 34350000 		.4byte	.LASF507
 10981 00c6 05       		.byte	0x5
 10982 00c7 D502     		.uleb128 0x155
 10983 00c9 E7430000 		.4byte	.LASF508
 10984 00cd 05       		.byte	0x5
 10985 00ce D602     		.uleb128 0x156
 10986 00d0 1E2C0000 		.4byte	.LASF509
 10987 00d4 05       		.byte	0x5
 10988 00d5 D802     		.uleb128 0x158
 10989 00d7 B4260000 		.4byte	.LASF510
 10990 00db 05       		.byte	0x5
 10991 00dc D902     		.uleb128 0x159
 10992 00de CA1C0000 		.4byte	.LASF511
 10993 00e2 05       		.byte	0x5
 10994 00e3 DC02     		.uleb128 0x15c
 10995 00e5 67150000 		.4byte	.LASF512
 10996 00e9 05       		.byte	0x5
 10997 00ea DD02     		.uleb128 0x15d
 10998 00ec C2390000 		.4byte	.LASF513
 10999 00f0 05       		.byte	0x5
 11000 00f1 DF02     		.uleb128 0x15f
 11001 00f3 AF0B0000 		.4byte	.LASF514
ARM GAS  /tmp/cc7TFFKb.s 			page 224


 11002 00f7 05       		.byte	0x5
 11003 00f8 E002     		.uleb128 0x160
 11004 00fa AB7A0000 		.4byte	.LASF515
 11005 00fe 05       		.byte	0x5
 11006 00ff E202     		.uleb128 0x162
 11007 0101 256B0000 		.4byte	.LASF516
 11008 0105 05       		.byte	0x5
 11009 0106 E302     		.uleb128 0x163
 11010 0108 FC1B0000 		.4byte	.LASF517
 11011 010c 05       		.byte	0x5
 11012 010d E502     		.uleb128 0x165
 11013 010f E52E0000 		.4byte	.LASF518
 11014 0113 05       		.byte	0x5
 11015 0114 E602     		.uleb128 0x166
 11016 0116 4D380000 		.4byte	.LASF519
 11017 011a 05       		.byte	0x5
 11018 011b E802     		.uleb128 0x168
 11019 011d 32760000 		.4byte	.LASF520
 11020 0121 05       		.byte	0x5
 11021 0122 E902     		.uleb128 0x169
 11022 0124 626B0000 		.4byte	.LASF521
 11023 0128 05       		.byte	0x5
 11024 0129 EC02     		.uleb128 0x16c
 11025 012b F7500000 		.4byte	.LASF522
 11026 012f 05       		.byte	0x5
 11027 0130 ED02     		.uleb128 0x16d
 11028 0132 98790000 		.4byte	.LASF523
 11029 0136 05       		.byte	0x5
 11030 0137 EF02     		.uleb128 0x16f
 11031 0139 C3270000 		.4byte	.LASF524
 11032 013d 05       		.byte	0x5
 11033 013e F002     		.uleb128 0x170
 11034 0140 81190000 		.4byte	.LASF525
 11035 0144 05       		.byte	0x5
 11036 0145 F202     		.uleb128 0x172
 11037 0147 3D260000 		.4byte	.LASF526
 11038 014b 05       		.byte	0x5
 11039 014c F302     		.uleb128 0x173
 11040 014e D61E0000 		.4byte	.LASF527
 11041 0152 05       		.byte	0x5
 11042 0153 F602     		.uleb128 0x176
 11043 0155 826C0000 		.4byte	.LASF528
 11044 0159 05       		.byte	0x5
 11045 015a F702     		.uleb128 0x177
 11046 015c 360F0000 		.4byte	.LASF529
 11047 0160 05       		.byte	0x5
 11048 0161 F902     		.uleb128 0x179
 11049 0163 75770000 		.4byte	.LASF530
 11050 0167 05       		.byte	0x5
 11051 0168 FA02     		.uleb128 0x17a
 11052 016a A1060000 		.4byte	.LASF531
 11053 016e 05       		.byte	0x5
 11054 016f FD02     		.uleb128 0x17d
 11055 0171 78680000 		.4byte	.LASF532
 11056 0175 05       		.byte	0x5
 11057 0176 FE02     		.uleb128 0x17e
 11058 0178 7A4E0000 		.4byte	.LASF533
ARM GAS  /tmp/cc7TFFKb.s 			page 225


 11059 017c 05       		.byte	0x5
 11060 017d 9403     		.uleb128 0x194
 11061 017f A12A0000 		.4byte	.LASF534
 11062 0183 05       		.byte	0x5
 11063 0184 9503     		.uleb128 0x195
 11064 0186 AC6D0000 		.4byte	.LASF535
 11065 018a 05       		.byte	0x5
 11066 018b 9703     		.uleb128 0x197
 11067 018d 470B0000 		.4byte	.LASF536
 11068 0191 05       		.byte	0x5
 11069 0192 9803     		.uleb128 0x198
 11070 0194 9F050000 		.4byte	.LASF537
 11071 0198 05       		.byte	0x5
 11072 0199 9A03     		.uleb128 0x19a
 11073 019b 52120000 		.4byte	.LASF538
 11074 019f 05       		.byte	0x5
 11075 01a0 9B03     		.uleb128 0x19b
 11076 01a2 1B5F0000 		.4byte	.LASF539
 11077 01a6 05       		.byte	0x5
 11078 01a7 9D03     		.uleb128 0x19d
 11079 01a9 FD260000 		.4byte	.LASF540
 11080 01ad 05       		.byte	0x5
 11081 01ae 9E03     		.uleb128 0x19e
 11082 01b0 C1640000 		.4byte	.LASF541
 11083 01b4 05       		.byte	0x5
 11084 01b5 A103     		.uleb128 0x1a1
 11085 01b7 B76B0000 		.4byte	.LASF542
 11086 01bb 05       		.byte	0x5
 11087 01bc A203     		.uleb128 0x1a2
 11088 01be 88630000 		.4byte	.LASF543
 11089 01c2 05       		.byte	0x5
 11090 01c3 A503     		.uleb128 0x1a5
 11091 01c5 535A0000 		.4byte	.LASF544
 11092 01c9 05       		.byte	0x5
 11093 01ca A603     		.uleb128 0x1a6
 11094 01cc 844A0000 		.4byte	.LASF545
 11095 01d0 05       		.byte	0x5
 11096 01d1 A903     		.uleb128 0x1a9
 11097 01d3 3A640000 		.4byte	.LASF546
 11098 01d7 05       		.byte	0x5
 11099 01d8 AA03     		.uleb128 0x1aa
 11100 01da 5F1F0000 		.4byte	.LASF547
 11101 01de 05       		.byte	0x5
 11102 01df AC03     		.uleb128 0x1ac
 11103 01e1 67360000 		.4byte	.LASF548
 11104 01e5 05       		.byte	0x5
 11105 01e6 AD03     		.uleb128 0x1ad
 11106 01e8 EC720000 		.4byte	.LASF549
 11107 01ec 05       		.byte	0x5
 11108 01ed AF03     		.uleb128 0x1af
 11109 01ef 64370000 		.4byte	.LASF550
 11110 01f3 05       		.byte	0x5
 11111 01f4 B003     		.uleb128 0x1b0
 11112 01f6 93560000 		.4byte	.LASF551
 11113 01fa 05       		.byte	0x5
 11114 01fb C603     		.uleb128 0x1c6
 11115 01fd B6530000 		.4byte	.LASF552
ARM GAS  /tmp/cc7TFFKb.s 			page 226


 11116 0201 05       		.byte	0x5
 11117 0202 C703     		.uleb128 0x1c7
 11118 0204 D2370000 		.4byte	.LASF553
 11119 0208 05       		.byte	0x5
 11120 0209 C803     		.uleb128 0x1c8
 11121 020b FA000000 		.4byte	.LASF554
 11122 020f 05       		.byte	0x5
 11123 0210 C903     		.uleb128 0x1c9
 11124 0212 56210000 		.4byte	.LASF555
 11125 0216 05       		.byte	0x5
 11126 0217 CB03     		.uleb128 0x1cb
 11127 0219 AF220000 		.4byte	.LASF556
 11128 021d 05       		.byte	0x5
 11129 021e CC03     		.uleb128 0x1cc
 11130 0220 5C6A0000 		.4byte	.LASF557
 11131 0224 05       		.byte	0x5
 11132 0225 CD03     		.uleb128 0x1cd
 11133 0227 24470000 		.4byte	.LASF558
 11134 022b 05       		.byte	0x5
 11135 022c E903     		.uleb128 0x1e9
 11136 022e A1410000 		.4byte	.LASF559
 11137 0232 05       		.byte	0x5
 11138 0233 EA03     		.uleb128 0x1ea
 11139 0235 BB5E0000 		.4byte	.LASF560
 11140 0239 05       		.byte	0x5
 11141 023a EB03     		.uleb128 0x1eb
 11142 023c CB170000 		.4byte	.LASF561
 11143 0240 00       		.byte	0
 11144              		.section	.debug_macro,"G",%progbits,wm4.chip.h.116.cf332ff1fd7689c827f4f040aaad9bfe,comdat
 11145              	.Ldebug_macro12:
 11146 0000 0400     		.2byte	0x4
 11147 0002 00       		.byte	0
 11148 0003 05       		.byte	0x5
 11149 0004 74       		.uleb128 0x74
 11150 0005 FC290000 		.4byte	.LASF562
 11151 0009 05       		.byte	0x5
 11152 000a 75       		.uleb128 0x75
 11153 000b D2010000 		.4byte	.LASF563
 11154 000f 05       		.byte	0x5
 11155 0010 76       		.uleb128 0x76
 11156 0011 EC6C0000 		.4byte	.LASF564
 11157 0015 05       		.byte	0x5
 11158 0016 77       		.uleb128 0x77
 11159 0017 31610000 		.4byte	.LASF565
 11160 001b 05       		.byte	0x5
 11161 001c 78       		.uleb128 0x78
 11162 001d 32270000 		.4byte	.LASF566
 11163 0021 05       		.byte	0x5
 11164 0022 79       		.uleb128 0x79
 11165 0023 9F080000 		.4byte	.LASF567
 11166 0027 05       		.byte	0x5
 11167 0028 7A       		.uleb128 0x7a
 11168 0029 29060000 		.4byte	.LASF568
 11169 002d 05       		.byte	0x5
 11170 002e 7B       		.uleb128 0x7b
 11171 002f 30700000 		.4byte	.LASF569
 11172 0033 05       		.byte	0x5
ARM GAS  /tmp/cc7TFFKb.s 			page 227


 11173 0034 7C       		.uleb128 0x7c
 11174 0035 DE6E0000 		.4byte	.LASF570
 11175 0039 05       		.byte	0x5
 11176 003a 7D       		.uleb128 0x7d
 11177 003b 4E150000 		.4byte	.LASF571
 11178 003f 05       		.byte	0x5
 11179 0040 7E       		.uleb128 0x7e
 11180 0041 513E0000 		.4byte	.LASF572
 11181 0045 05       		.byte	0x5
 11182 0046 7F       		.uleb128 0x7f
 11183 0047 52430000 		.4byte	.LASF573
 11184 004b 05       		.byte	0x5
 11185 004c 8001     		.uleb128 0x80
 11186 004e 0E4F0000 		.4byte	.LASF574
 11187 0052 05       		.byte	0x5
 11188 0053 8101     		.uleb128 0x81
 11189 0055 E0000000 		.4byte	.LASF575
 11190 0059 05       		.byte	0x5
 11191 005a 8201     		.uleb128 0x82
 11192 005c 672E0000 		.4byte	.LASF576
 11193 0060 05       		.byte	0x5
 11194 0061 8301     		.uleb128 0x83
 11195 0063 5D5D0000 		.4byte	.LASF577
 11196 0067 05       		.byte	0x5
 11197 0068 8401     		.uleb128 0x84
 11198 006a 29570000 		.4byte	.LASF578
 11199 006e 05       		.byte	0x5
 11200 006f 8501     		.uleb128 0x85
 11201 0071 CA0A0000 		.4byte	.LASF579
 11202 0075 05       		.byte	0x5
 11203 0076 9001     		.uleb128 0x90
 11204 0078 35600000 		.4byte	.LASF580
 11205 007c 05       		.byte	0x5
 11206 007d 9101     		.uleb128 0x91
 11207 007f C52F0000 		.4byte	.LASF581
 11208 0083 05       		.byte	0x5
 11209 0084 9301     		.uleb128 0x93
 11210 0086 D63C0000 		.4byte	.LASF582
 11211 008a 05       		.byte	0x5
 11212 008b 9401     		.uleb128 0x94
 11213 008d 21320000 		.4byte	.LASF583
 11214 0091 05       		.byte	0x5
 11215 0092 9701     		.uleb128 0x97
 11216 0094 546E0000 		.4byte	.LASF584
 11217 0098 05       		.byte	0x5
 11218 0099 9801     		.uleb128 0x98
 11219 009b B0200000 		.4byte	.LASF585
 11220 009f 05       		.byte	0x5
 11221 00a0 9B01     		.uleb128 0x9b
 11222 00a2 142A0000 		.4byte	.LASF586
 11223 00a6 05       		.byte	0x5
 11224 00a7 9E01     		.uleb128 0x9e
 11225 00a9 F35E0000 		.4byte	.LASF587
 11226 00ad 05       		.byte	0x5
 11227 00ae 9F01     		.uleb128 0x9f
 11228 00b0 07710000 		.4byte	.LASF588
 11229 00b4 05       		.byte	0x5
ARM GAS  /tmp/cc7TFFKb.s 			page 228


 11230 00b5 A001     		.uleb128 0xa0
 11231 00b7 A3350000 		.4byte	.LASF589
 11232 00bb 05       		.byte	0x5
 11233 00bc A101     		.uleb128 0xa1
 11234 00be 73390000 		.4byte	.LASF590
 11235 00c2 05       		.byte	0x5
 11236 00c3 A201     		.uleb128 0xa2
 11237 00c5 2B160000 		.4byte	.LASF591
 11238 00c9 05       		.byte	0x5
 11239 00ca A301     		.uleb128 0xa3
 11240 00cc 4B1D0000 		.4byte	.LASF592
 11241 00d0 05       		.byte	0x5
 11242 00d1 A401     		.uleb128 0xa4
 11243 00d3 032B0000 		.4byte	.LASF593
 11244 00d7 05       		.byte	0x5
 11245 00d8 B101     		.uleb128 0xb1
 11246 00da 2E410000 		.4byte	.LASF594
 11247 00de 05       		.byte	0x5
 11248 00df B201     		.uleb128 0xb2
 11249 00e1 A05C0000 		.4byte	.LASF595
 11250 00e5 05       		.byte	0x5
 11251 00e6 B301     		.uleb128 0xb3
 11252 00e8 3E310000 		.4byte	.LASF596
 11253 00ec 05       		.byte	0x5
 11254 00ed B401     		.uleb128 0xb4
 11255 00ef 6E550000 		.4byte	.LASF597
 11256 00f3 05       		.byte	0x5
 11257 00f4 B501     		.uleb128 0xb5
 11258 00f6 2F240000 		.4byte	.LASF598
 11259 00fa 05       		.byte	0x5
 11260 00fb B701     		.uleb128 0xb7
 11261 00fd B83D0000 		.4byte	.LASF599
 11262 0101 05       		.byte	0x5
 11263 0102 B901     		.uleb128 0xb9
 11264 0104 5D720000 		.4byte	.LASF600
 11265 0108 05       		.byte	0x5
 11266 0109 C001     		.uleb128 0xc0
 11267 010b 75210000 		.4byte	.LASF601
 11268 010f 05       		.byte	0x5
 11269 0110 C301     		.uleb128 0xc3
 11270 0112 F13B0000 		.4byte	.LASF602
 11271 0116 00       		.byte	0
 11272              		.section	.debug_macro,"G",%progbits,wm4.pmu_11xx.h.33.1d6b708881441cb98d19b8bab3caa180,comdat
 11273              	.Ldebug_macro13:
 11274 0000 0400     		.2byte	0x4
 11275 0002 00       		.byte	0
 11276 0003 05       		.byte	0x5
 11277 0004 21       		.uleb128 0x21
 11278 0005 074E0000 		.4byte	.LASF603
 11279 0009 05       		.byte	0x5
 11280 000a 4D       		.uleb128 0x4d
 11281 000b BD600000 		.4byte	.LASF604
 11282 000f 05       		.byte	0x5
 11283 0010 53       		.uleb128 0x53
 11284 0011 95330000 		.4byte	.LASF605
 11285 0015 05       		.byte	0x5
 11286 0016 55       		.uleb128 0x55
ARM GAS  /tmp/cc7TFFKb.s 			page 229


 11287 0017 26720000 		.4byte	.LASF606
 11288 001b 05       		.byte	0x5
 11289 001c 56       		.uleb128 0x56
 11290 001d 916D0000 		.4byte	.LASF607
 11291 0021 00       		.byte	0
 11292              		.section	.debug_macro,"G",%progbits,wm4.sysctl_11xx.h.33.ae61a1181e608f8409883008e291930c,comdat
 11293              	.Ldebug_macro14:
 11294 0000 0400     		.2byte	0x4
 11295 0002 00       		.byte	0
 11296 0003 05       		.byte	0x5
 11297 0004 21       		.uleb128 0x21
 11298 0005 D96F0000 		.4byte	.LASF609
 11299 0009 05       		.byte	0x5
 11300 000a BC01     		.uleb128 0xbc
 11301 000c ED7A0000 		.4byte	.LASF610
 11302 0010 05       		.byte	0x5
 11303 0011 BD01     		.uleb128 0xbd
 11304 0013 F4590000 		.4byte	.LASF611
 11305 0017 05       		.byte	0x5
 11306 0018 BE01     		.uleb128 0xbe
 11307 001a 332E0000 		.4byte	.LASF612
 11308 001e 05       		.byte	0x5
 11309 001f BF01     		.uleb128 0xbf
 11310 0021 726F0000 		.4byte	.LASF613
 11311 0025 05       		.byte	0x5
 11312 0026 C001     		.uleb128 0xc0
 11313 0028 CA700000 		.4byte	.LASF614
 11314 002c 05       		.byte	0x5
 11315 002d C501     		.uleb128 0xc5
 11316 002f 17170000 		.4byte	.LASF615
 11317 0033 05       		.byte	0x5
 11318 0034 A904     		.uleb128 0x229
 11319 0036 DE260000 		.4byte	.LASF616
 11320 003a 05       		.byte	0x5
 11321 003b AA04     		.uleb128 0x22a
 11322 003d F45D0000 		.4byte	.LASF617
 11323 0041 05       		.byte	0x5
 11324 0042 C904     		.uleb128 0x249
 11325 0044 E5700000 		.4byte	.LASF618
 11326 0048 05       		.byte	0x5
 11327 0049 CA04     		.uleb128 0x24a
 11328 004b 87740000 		.4byte	.LASF619
 11329 004f 05       		.byte	0x5
 11330 0050 CB04     		.uleb128 0x24b
 11331 0052 B1370000 		.4byte	.LASF620
 11332 0056 05       		.byte	0x5
 11333 0057 CC04     		.uleb128 0x24c
 11334 0059 970F0000 		.4byte	.LASF621
 11335 005d 05       		.byte	0x5
 11336 005e CD04     		.uleb128 0x24d
 11337 0060 D5590000 		.4byte	.LASF622
 11338 0064 05       		.byte	0x5
 11339 0065 CE04     		.uleb128 0x24e
 11340 0067 F0400000 		.4byte	.LASF623
 11341 006b 05       		.byte	0x5
 11342 006c CF04     		.uleb128 0x24f
 11343 006e 406B0000 		.4byte	.LASF624
ARM GAS  /tmp/cc7TFFKb.s 			page 230


 11344 0072 05       		.byte	0x5
 11345 0073 D004     		.uleb128 0x250
 11346 0075 B95D0000 		.4byte	.LASF625
 11347 0079 05       		.byte	0x5
 11348 007a F104     		.uleb128 0x271
 11349 007c 8C480000 		.4byte	.LASF626
 11350 0080 05       		.byte	0x5
 11351 0081 F204     		.uleb128 0x272
 11352 0083 9C4D0000 		.4byte	.LASF627
 11353 0087 05       		.byte	0x5
 11354 0088 F304     		.uleb128 0x273
 11355 008a F91A0000 		.4byte	.LASF628
 11356 008e 05       		.byte	0x5
 11357 008f F504     		.uleb128 0x275
 11358 0091 2D460000 		.4byte	.LASF629
 11359 0095 05       		.byte	0x5
 11360 0096 F704     		.uleb128 0x277
 11361 0098 3C100000 		.4byte	.LASF630
 11362 009c 05       		.byte	0x5
 11363 009d F804     		.uleb128 0x278
 11364 009f 8A0A0000 		.4byte	.LASF631
 11365 00a3 05       		.byte	0x5
 11366 00a4 F904     		.uleb128 0x279
 11367 00a6 6C270000 		.4byte	.LASF632
 11368 00aa 05       		.byte	0x5
 11369 00ab FA04     		.uleb128 0x27a
 11370 00ad D74C0000 		.4byte	.LASF633
 11371 00b1 00       		.byte	0
 11372              		.section	.debug_macro,"G",%progbits,wm4.clock_11xx.h.33.23290a9e2ed919e3a6958d25130bc848,comdat
 11373              	.Ldebug_macro15:
 11374 0000 0400     		.2byte	0x4
 11375 0002 00       		.byte	0
 11376 0003 05       		.byte	0x5
 11377 0004 21       		.uleb128 0x21
 11378 0005 4E4B0000 		.4byte	.LASF634
 11379 0009 05       		.byte	0x5
 11380 000a 2D       		.uleb128 0x2d
 11381 000b CD630000 		.4byte	.LASF635
 11382 000f 00       		.byte	0
 11383              		.section	.debug_macro,"G",%progbits,wm4.iocon_11xx.h.33.25e2b3cde122df23fb07b984cb4f3a93,comdat
 11384              	.Ldebug_macro16:
 11385 0000 0400     		.2byte	0x4
 11386 0002 00       		.byte	0
 11387 0003 05       		.byte	0x5
 11388 0004 21       		.uleb128 0x21
 11389 0005 9C2C0000 		.4byte	.LASF636
 11390 0009 05       		.byte	0x5
 11391 000a A601     		.uleb128 0xa6
 11392 000c BB610000 		.4byte	.LASF637
 11393 0010 05       		.byte	0x5
 11394 0011 A701     		.uleb128 0xa7
 11395 0013 9B090000 		.4byte	.LASF638
 11396 0017 05       		.byte	0x5
 11397 0018 A801     		.uleb128 0xa8
 11398 001a EA180000 		.4byte	.LASF639
 11399 001e 05       		.byte	0x5
 11400 001f A901     		.uleb128 0xa9
ARM GAS  /tmp/cc7TFFKb.s 			page 231


 11401 0021 AD600000 		.4byte	.LASF640
 11402 0025 05       		.byte	0x5
 11403 0026 AA01     		.uleb128 0xaa
 11404 0028 5A4D0000 		.4byte	.LASF641
 11405 002c 05       		.byte	0x5
 11406 002d AB01     		.uleb128 0xab
 11407 002f EE130000 		.4byte	.LASF642
 11408 0033 05       		.byte	0x5
 11409 0034 AC01     		.uleb128 0xac
 11410 0036 2D260000 		.4byte	.LASF643
 11411 003a 05       		.byte	0x5
 11412 003b AD01     		.uleb128 0xad
 11413 003d 19120000 		.4byte	.LASF644
 11414 0041 05       		.byte	0x5
 11415 0042 AE01     		.uleb128 0xae
 11416 0044 CC240000 		.4byte	.LASF645
 11417 0048 05       		.byte	0x5
 11418 0049 AF01     		.uleb128 0xaf
 11419 004b C34E0000 		.4byte	.LASF646
 11420 004f 05       		.byte	0x5
 11421 0050 B001     		.uleb128 0xb0
 11422 0052 AF620000 		.4byte	.LASF647
 11423 0056 05       		.byte	0x5
 11424 0057 B101     		.uleb128 0xb1
 11425 0059 3D1B0000 		.4byte	.LASF648
 11426 005d 05       		.byte	0x5
 11427 005e B201     		.uleb128 0xb2
 11428 0060 0F510000 		.4byte	.LASF649
 11429 0064 05       		.byte	0x5
 11430 0065 B301     		.uleb128 0xb3
 11431 0067 73670000 		.4byte	.LASF650
 11432 006b 05       		.byte	0x5
 11433 006c B401     		.uleb128 0xb4
 11434 006e CF550000 		.4byte	.LASF651
 11435 0072 05       		.byte	0x5
 11436 0073 B501     		.uleb128 0xb5
 11437 0075 23080000 		.4byte	.LASF652
 11438 0079 05       		.byte	0x5
 11439 007a B601     		.uleb128 0xb6
 11440 007c 5D100000 		.4byte	.LASF653
 11441 0080 05       		.byte	0x5
 11442 0081 B701     		.uleb128 0xb7
 11443 0083 93660000 		.4byte	.LASF654
 11444 0087 05       		.byte	0x5
 11445 0088 B801     		.uleb128 0xb8
 11446 008a 95670000 		.4byte	.LASF655
 11447 008e 05       		.byte	0x5
 11448 008f B901     		.uleb128 0xb9
 11449 0091 49680000 		.4byte	.LASF656
 11450 0095 05       		.byte	0x5
 11451 0096 BA01     		.uleb128 0xba
 11452 0098 67140000 		.4byte	.LASF657
 11453 009c 05       		.byte	0x5
 11454 009d C001     		.uleb128 0xc0
 11455 009f 6E0B0000 		.4byte	.LASF658
 11456 00a3 05       		.byte	0x5
 11457 00a4 C101     		.uleb128 0xc1
ARM GAS  /tmp/cc7TFFKb.s 			page 232


 11458 00a6 E3690000 		.4byte	.LASF659
 11459 00aa 05       		.byte	0x5
 11460 00ab C201     		.uleb128 0xc2
 11461 00ad 9F270000 		.4byte	.LASF660
 11462 00b1 05       		.byte	0x5
 11463 00b2 C301     		.uleb128 0xc3
 11464 00b4 FA300000 		.4byte	.LASF661
 11465 00b8 05       		.byte	0x5
 11466 00b9 C401     		.uleb128 0xc4
 11467 00bb 0F1F0000 		.4byte	.LASF662
 11468 00bf 05       		.byte	0x5
 11469 00c0 C501     		.uleb128 0xc5
 11470 00c2 41170000 		.4byte	.LASF663
 11471 00c6 05       		.byte	0x5
 11472 00c7 C601     		.uleb128 0xc6
 11473 00c9 C0030000 		.4byte	.LASF664
 11474 00cd 05       		.byte	0x5
 11475 00ce C701     		.uleb128 0xc7
 11476 00d0 B0480000 		.4byte	.LASF665
 11477 00d4 05       		.byte	0x5
 11478 00d5 C801     		.uleb128 0xc8
 11479 00d7 04060000 		.4byte	.LASF666
 11480 00db 05       		.byte	0x5
 11481 00dc C901     		.uleb128 0xc9
 11482 00de 53570000 		.4byte	.LASF667
 11483 00e2 05       		.byte	0x5
 11484 00e3 CA01     		.uleb128 0xca
 11485 00e5 2B490000 		.4byte	.LASF668
 11486 00e9 05       		.byte	0x5
 11487 00ea CB01     		.uleb128 0xcb
 11488 00ec 1A230000 		.4byte	.LASF669
 11489 00f0 05       		.byte	0x5
 11490 00f1 CC01     		.uleb128 0xcc
 11491 00f3 9A450000 		.4byte	.LASF670
 11492 00f7 05       		.byte	0x5
 11493 00f8 CD01     		.uleb128 0xcd
 11494 00fa B5540000 		.4byte	.LASF671
 11495 00fe 05       		.byte	0x5
 11496 00ff CE01     		.uleb128 0xce
 11497 0101 60700000 		.4byte	.LASF672
 11498 0105 05       		.byte	0x5
 11499 0106 CF01     		.uleb128 0xcf
 11500 0108 99550000 		.4byte	.LASF673
 11501 010c 05       		.byte	0x5
 11502 010d D001     		.uleb128 0xd0
 11503 010f 21600000 		.4byte	.LASF674
 11504 0113 05       		.byte	0x5
 11505 0114 D101     		.uleb128 0xd1
 11506 0116 C64C0000 		.4byte	.LASF675
 11507 011a 05       		.byte	0x5
 11508 011b D201     		.uleb128 0xd2
 11509 011d E53F0000 		.4byte	.LASF676
 11510 0121 05       		.byte	0x5
 11511 0122 D301     		.uleb128 0xd3
 11512 0124 BA250000 		.4byte	.LASF677
 11513 0128 05       		.byte	0x5
 11514 0129 D401     		.uleb128 0xd4
ARM GAS  /tmp/cc7TFFKb.s 			page 233


 11515 012b B7310000 		.4byte	.LASF678
 11516 012f 05       		.byte	0x5
 11517 0130 D501     		.uleb128 0xd5
 11518 0132 057B0000 		.4byte	.LASF679
 11519 0136 00       		.byte	0
 11520              		.section	.debug_macro,"G",%progbits,wm4.timer_11xx.h.33.c92f50a9325789ee6a8ffd6248980d70,comdat
 11521              	.Ldebug_macro17:
 11522 0000 0400     		.2byte	0x4
 11523 0002 00       		.byte	0
 11524 0003 05       		.byte	0x5
 11525 0004 21       		.uleb128 0x21
 11526 0005 1F700000 		.4byte	.LASF680
 11527 0009 05       		.byte	0x5
 11528 000a 40       		.uleb128 0x40
 11529 000b D8570000 		.4byte	.LASF681
 11530 000f 05       		.byte	0x5
 11531 0010 43       		.uleb128 0x43
 11532 0011 C7360000 		.4byte	.LASF682
 11533 0015 05       		.byte	0x5
 11534 0016 45       		.uleb128 0x45
 11535 0017 E42C0000 		.4byte	.LASF683
 11536 001b 05       		.byte	0x5
 11537 001c 48       		.uleb128 0x48
 11538 001d DC0F0000 		.4byte	.LASF684
 11539 0021 05       		.byte	0x5
 11540 0022 4A       		.uleb128 0x4a
 11541 0023 F37B0000 		.4byte	.LASF685
 11542 0027 05       		.byte	0x5
 11543 0028 4D       		.uleb128 0x4d
 11544 0029 63200000 		.4byte	.LASF686
 11545 002d 05       		.byte	0x5
 11546 002e 4F       		.uleb128 0x4f
 11547 002f 662B0000 		.4byte	.LASF687
 11548 0033 05       		.byte	0x5
 11549 0034 51       		.uleb128 0x51
 11550 0035 6C5B0000 		.4byte	.LASF688
 11551 0039 05       		.byte	0x5
 11552 003a 54       		.uleb128 0x54
 11553 003b B0450000 		.4byte	.LASF689
 11554 003f 05       		.byte	0x5
 11555 0040 56       		.uleb128 0x56
 11556 0041 81440000 		.4byte	.LASF690
 11557 0045 05       		.byte	0x5
 11558 0046 58       		.uleb128 0x58
 11559 0047 9D780000 		.4byte	.LASF691
 11560 004b 00       		.byte	0
 11561              		.section	.debug_macro,"G",%progbits,wm4.ring_buffer.h.33.ffd8153954783612f9c626df1ed9e770,comdat
 11562              	.Ldebug_macro18:
 11563 0000 0400     		.2byte	0x4
 11564 0002 00       		.byte	0
 11565 0003 05       		.byte	0x5
 11566 0004 21       		.uleb128 0x21
 11567 0005 45520000 		.4byte	.LASF693
 11568 0009 05       		.byte	0x5
 11569 000a 39       		.uleb128 0x39
 11570 000b D3560000 		.4byte	.LASF694
 11571 000f 05       		.byte	0x5
ARM GAS  /tmp/cc7TFFKb.s 			page 234


 11572 0010 3F       		.uleb128 0x3f
 11573 0011 98770000 		.4byte	.LASF695
 11574 0015 00       		.byte	0
 11575              		.section	.debug_macro,"G",%progbits,wm4.uart_11xx.h.98.fe68b709973730a4fba3f3ce60c5c312,comdat
 11576              	.Ldebug_macro19:
 11577 0000 0400     		.2byte	0x4
 11578 0002 00       		.byte	0
 11579 0003 05       		.byte	0x5
 11580 0004 62       		.uleb128 0x62
 11581 0005 274F0000 		.4byte	.LASF696
 11582 0009 05       		.byte	0x5
 11583 000a 67       		.uleb128 0x67
 11584 000b 21540000 		.4byte	.LASF697
 11585 000f 05       		.byte	0x5
 11586 0010 68       		.uleb128 0x68
 11587 0011 9E720000 		.4byte	.LASF698
 11588 0015 05       		.byte	0x5
 11589 0016 6D       		.uleb128 0x6d
 11590 0017 3A560000 		.4byte	.LASF699
 11591 001b 05       		.byte	0x5
 11592 001c 6E       		.uleb128 0x6e
 11593 001d F5690000 		.4byte	.LASF700
 11594 0021 05       		.byte	0x5
 11595 0022 73       		.uleb128 0x73
 11596 0023 63560000 		.4byte	.LASF701
 11597 0027 05       		.byte	0x5
 11598 0028 74       		.uleb128 0x74
 11599 0029 104B0000 		.4byte	.LASF702
 11600 002d 05       		.byte	0x5
 11601 002e 75       		.uleb128 0x75
 11602 002f F3460000 		.4byte	.LASF703
 11603 0033 05       		.byte	0x5
 11604 0034 76       		.uleb128 0x76
 11605 0035 742D0000 		.4byte	.LASF704
 11606 0039 05       		.byte	0x5
 11607 003a 77       		.uleb128 0x77
 11608 003b FC680000 		.4byte	.LASF705
 11609 003f 05       		.byte	0x5
 11610 0040 78       		.uleb128 0x78
 11611 0041 30190000 		.4byte	.LASF706
 11612 0045 05       		.byte	0x5
 11613 0046 79       		.uleb128 0x79
 11614 0047 DF3D0000 		.4byte	.LASF707
 11615 004b 05       		.byte	0x5
 11616 004c 7A       		.uleb128 0x7a
 11617 004d 025C0000 		.4byte	.LASF708
 11618 0051 05       		.byte	0x5
 11619 0052 7B       		.uleb128 0x7b
 11620 0053 0C1A0000 		.4byte	.LASF709
 11621 0057 05       		.byte	0x5
 11622 0058 7C       		.uleb128 0x7c
 11623 0059 0D0A0000 		.4byte	.LASF710
 11624 005d 05       		.byte	0x5
 11625 005e 8101     		.uleb128 0x81
 11626 0060 0F290000 		.4byte	.LASF711
 11627 0064 05       		.byte	0x5
 11628 0065 8201     		.uleb128 0x82
ARM GAS  /tmp/cc7TFFKb.s 			page 235


 11629 0067 9D310000 		.4byte	.LASF712
 11630 006b 05       		.byte	0x5
 11631 006c 8301     		.uleb128 0x83
 11632 006e B3090000 		.4byte	.LASF713
 11633 0072 05       		.byte	0x5
 11634 0073 8401     		.uleb128 0x84
 11635 0075 687C0000 		.4byte	.LASF714
 11636 0079 05       		.byte	0x5
 11637 007a 8501     		.uleb128 0x85
 11638 007c 57260000 		.4byte	.LASF715
 11639 0080 05       		.byte	0x5
 11640 0081 8801     		.uleb128 0x88
 11641 0083 CD790000 		.4byte	.LASF716
 11642 0087 05       		.byte	0x5
 11643 0088 8901     		.uleb128 0x89
 11644 008a 165E0000 		.4byte	.LASF717
 11645 008e 05       		.byte	0x5
 11646 008f 8A01     		.uleb128 0x8a
 11647 0091 44470000 		.4byte	.LASF718
 11648 0095 05       		.byte	0x5
 11649 0096 8B01     		.uleb128 0x8b
 11650 0098 5B3A0000 		.4byte	.LASF719
 11651 009c 05       		.byte	0x5
 11652 009d 8C01     		.uleb128 0x8c
 11653 009f 6D0A0000 		.4byte	.LASF720
 11654 00a3 05       		.byte	0x5
 11655 00a4 8D01     		.uleb128 0x8d
 11656 00a6 800B0000 		.4byte	.LASF721
 11657 00aa 05       		.byte	0x5
 11658 00ab 9201     		.uleb128 0x92
 11659 00ad D0180000 		.4byte	.LASF722
 11660 00b1 05       		.byte	0x5
 11661 00b2 9301     		.uleb128 0x93
 11662 00b4 D5680000 		.4byte	.LASF723
 11663 00b8 05       		.byte	0x5
 11664 00b9 9401     		.uleb128 0x94
 11665 00bb 88340000 		.4byte	.LASF724
 11666 00bf 05       		.byte	0x5
 11667 00c0 9501     		.uleb128 0x95
 11668 00c2 E5670000 		.4byte	.LASF725
 11669 00c6 05       		.byte	0x5
 11670 00c7 9601     		.uleb128 0x96
 11671 00c9 3E210000 		.4byte	.LASF726
 11672 00cd 05       		.byte	0x5
 11673 00ce 9801     		.uleb128 0x98
 11674 00d0 3F0E0000 		.4byte	.LASF727
 11675 00d4 05       		.byte	0x5
 11676 00d5 9B01     		.uleb128 0x9b
 11677 00d7 CC0B0000 		.4byte	.LASF728
 11678 00db 05       		.byte	0x5
 11679 00dc 9C01     		.uleb128 0x9c
 11680 00de 3A110000 		.4byte	.LASF729
 11681 00e2 05       		.byte	0x5
 11682 00e3 9D01     		.uleb128 0x9d
 11683 00e5 642A0000 		.4byte	.LASF730
 11684 00e9 05       		.byte	0x5
 11685 00ea 9E01     		.uleb128 0x9e
ARM GAS  /tmp/cc7TFFKb.s 			page 236


 11686 00ec 7A3D0000 		.4byte	.LASF731
 11687 00f0 05       		.byte	0x5
 11688 00f1 A401     		.uleb128 0xa4
 11689 00f3 50270000 		.4byte	.LASF732
 11690 00f7 05       		.byte	0x5
 11691 00f8 A501     		.uleb128 0xa5
 11692 00fa CC620000 		.4byte	.LASF733
 11693 00fe 05       		.byte	0x5
 11694 00ff A601     		.uleb128 0xa6
 11695 0101 43530000 		.4byte	.LASF734
 11696 0105 05       		.byte	0x5
 11697 0106 A701     		.uleb128 0xa7
 11698 0108 94290000 		.4byte	.LASF735
 11699 010c 05       		.byte	0x5
 11700 010d A801     		.uleb128 0xa8
 11701 010f 60320000 		.4byte	.LASF736
 11702 0113 05       		.byte	0x5
 11703 0114 AB01     		.uleb128 0xab
 11704 0116 46220000 		.4byte	.LASF737
 11705 011a 05       		.byte	0x5
 11706 011b AC01     		.uleb128 0xac
 11707 011d 157C0000 		.4byte	.LASF738
 11708 0121 05       		.byte	0x5
 11709 0122 AD01     		.uleb128 0xad
 11710 0124 D63B0000 		.4byte	.LASF739
 11711 0128 05       		.byte	0x5
 11712 0129 B001     		.uleb128 0xb0
 11713 012b 170E0000 		.4byte	.LASF740
 11714 012f 05       		.byte	0x5
 11715 0130 B101     		.uleb128 0xb1
 11716 0132 7F4D0000 		.4byte	.LASF741
 11717 0136 05       		.byte	0x5
 11718 0137 B201     		.uleb128 0xb2
 11719 0139 9D460000 		.4byte	.LASF742
 11720 013d 05       		.byte	0x5
 11721 013e B301     		.uleb128 0xb3
 11722 0140 A3690000 		.4byte	.LASF743
 11723 0144 05       		.byte	0x5
 11724 0145 B401     		.uleb128 0xb4
 11725 0147 AE420000 		.4byte	.LASF744
 11726 014b 05       		.byte	0x5
 11727 014c B501     		.uleb128 0xb5
 11728 014e 421F0000 		.4byte	.LASF745
 11729 0152 05       		.byte	0x5
 11730 0153 B601     		.uleb128 0xb6
 11731 0155 6D030000 		.4byte	.LASF746
 11732 0159 05       		.byte	0x5
 11733 015a B701     		.uleb128 0xb7
 11734 015c 131D0000 		.4byte	.LASF747
 11735 0160 05       		.byte	0x5
 11736 0161 B801     		.uleb128 0xb8
 11737 0163 EF3F0000 		.4byte	.LASF748
 11738 0167 05       		.byte	0x5
 11739 0168 BD01     		.uleb128 0xbd
 11740 016a 3D050000 		.4byte	.LASF749
 11741 016e 05       		.byte	0x5
 11742 016f BE01     		.uleb128 0xbe
ARM GAS  /tmp/cc7TFFKb.s 			page 237


 11743 0171 EC380000 		.4byte	.LASF750
 11744 0175 05       		.byte	0x5
 11745 0176 BF01     		.uleb128 0xbf
 11746 0178 29180000 		.4byte	.LASF751
 11747 017c 05       		.byte	0x5
 11748 017d C001     		.uleb128 0xc0
 11749 017f 68110000 		.4byte	.LASF752
 11750 0183 05       		.byte	0x5
 11751 0184 C101     		.uleb128 0xc1
 11752 0186 76040000 		.4byte	.LASF753
 11753 018a 05       		.byte	0x5
 11754 018b C201     		.uleb128 0xc2
 11755 018d FC0A0000 		.4byte	.LASF754
 11756 0191 05       		.byte	0x5
 11757 0192 C701     		.uleb128 0xc7
 11758 0194 F5490000 		.4byte	.LASF755
 11759 0198 05       		.byte	0x5
 11760 0199 C801     		.uleb128 0xc8
 11761 019b A5730000 		.4byte	.LASF756
 11762 019f 05       		.byte	0x5
 11763 01a0 C901     		.uleb128 0xc9
 11764 01a2 721C0000 		.4byte	.LASF757
 11765 01a6 05       		.byte	0x5
 11766 01a7 CA01     		.uleb128 0xca
 11767 01a9 BD650000 		.4byte	.LASF758
 11768 01ad 05       		.byte	0x5
 11769 01ae CB01     		.uleb128 0xcb
 11770 01b0 31220000 		.4byte	.LASF759
 11771 01b4 05       		.byte	0x5
 11772 01b5 CC01     		.uleb128 0xcc
 11773 01b7 7E180000 		.4byte	.LASF760
 11774 01bb 05       		.byte	0x5
 11775 01bc CD01     		.uleb128 0xcd
 11776 01be 16460000 		.4byte	.LASF761
 11777 01c2 05       		.byte	0x5
 11778 01c3 CE01     		.uleb128 0xce
 11779 01c5 A86C0000 		.4byte	.LASF762
 11780 01c9 05       		.byte	0x5
 11781 01ca CF01     		.uleb128 0xcf
 11782 01cc 71070000 		.4byte	.LASF763
 11783 01d0 05       		.byte	0x5
 11784 01d1 D001     		.uleb128 0xd0
 11785 01d3 350D0000 		.4byte	.LASF764
 11786 01d7 05       		.byte	0x5
 11787 01d8 D101     		.uleb128 0xd1
 11788 01da 603D0000 		.4byte	.LASF765
 11789 01de 05       		.byte	0x5
 11790 01df D601     		.uleb128 0xd6
 11791 01e1 7E450000 		.4byte	.LASF766
 11792 01e5 05       		.byte	0x5
 11793 01e6 D701     		.uleb128 0xd7
 11794 01e8 8C700000 		.4byte	.LASF767
 11795 01ec 05       		.byte	0x5
 11796 01ed D801     		.uleb128 0xd8
 11797 01ef 5B040000 		.4byte	.LASF768
 11798 01f3 05       		.byte	0x5
 11799 01f4 D901     		.uleb128 0xd9
ARM GAS  /tmp/cc7TFFKb.s 			page 238


 11800 01f6 0D420000 		.4byte	.LASF769
 11801 01fa 05       		.byte	0x5
 11802 01fb DA01     		.uleb128 0xda
 11803 01fd F37C0000 		.4byte	.LASF770
 11804 0201 05       		.byte	0x5
 11805 0202 DB01     		.uleb128 0xdb
 11806 0204 41550000 		.4byte	.LASF771
 11807 0208 05       		.byte	0x5
 11808 0209 DC01     		.uleb128 0xdc
 11809 020b 565F0000 		.4byte	.LASF772
 11810 020f 05       		.byte	0x5
 11811 0210 DD01     		.uleb128 0xdd
 11812 0212 377B0000 		.4byte	.LASF773
 11813 0216 05       		.byte	0x5
 11814 0217 DE01     		.uleb128 0xde
 11815 0219 AF360000 		.4byte	.LASF774
 11816 021d 05       		.byte	0x5
 11817 021e E301     		.uleb128 0xe3
 11818 0220 AD2F0000 		.4byte	.LASF775
 11819 0224 05       		.byte	0x5
 11820 0225 E401     		.uleb128 0xe4
 11821 0227 97430000 		.4byte	.LASF776
 11822 022b 05       		.byte	0x5
 11823 022c E501     		.uleb128 0xe5
 11824 022e 54600000 		.4byte	.LASF777
 11825 0232 05       		.byte	0x5
 11826 0233 E601     		.uleb128 0xe6
 11827 0235 0B4A0000 		.4byte	.LASF778
 11828 0239 05       		.byte	0x5
 11829 023a E701     		.uleb128 0xe7
 11830 023c C4250000 		.4byte	.LASF779
 11831 0240 05       		.byte	0x5
 11832 0241 E801     		.uleb128 0xe8
 11833 0243 24050000 		.4byte	.LASF780
 11834 0247 05       		.byte	0x5
 11835 0248 ED01     		.uleb128 0xed
 11836 024a BD080000 		.4byte	.LASF781
 11837 024e 05       		.byte	0x5
 11838 024f EE01     		.uleb128 0xee
 11839 0251 660E0000 		.4byte	.LASF782
 11840 0255 05       		.byte	0x5
 11841 0256 EF01     		.uleb128 0xef
 11842 0258 0E790000 		.4byte	.LASF783
 11843 025c 05       		.byte	0x5
 11844 025d F001     		.uleb128 0xf0
 11845 025f F5170000 		.4byte	.LASF784
 11846 0263 05       		.byte	0x5
 11847 0264 F201     		.uleb128 0xf2
 11848 0266 75490000 		.4byte	.LASF785
 11849 026a 05       		.byte	0x5
 11850 026b F301     		.uleb128 0xf3
 11851 026d BD4D0000 		.4byte	.LASF786
 11852 0271 05       		.byte	0x5
 11853 0272 F601     		.uleb128 0xf6
 11854 0274 78280000 		.4byte	.LASF787
 11855 0278 05       		.byte	0x5
 11856 0279 FB01     		.uleb128 0xfb
ARM GAS  /tmp/cc7TFFKb.s 			page 239


 11857 027b 7E1D0000 		.4byte	.LASF788
 11858 027f 05       		.byte	0x5
 11859 0280 FC01     		.uleb128 0xfc
 11860 0282 4D0D0000 		.4byte	.LASF789
 11861 0286 05       		.byte	0x5
 11862 0287 FD01     		.uleb128 0xfd
 11863 0289 C9760000 		.4byte	.LASF790
 11864 028d 05       		.byte	0x5
 11865 028e FE01     		.uleb128 0xfe
 11866 0290 4B1C0000 		.4byte	.LASF791
 11867 0294 05       		.byte	0x5
 11868 0295 FF01     		.uleb128 0xff
 11869 0297 C60E0000 		.4byte	.LASF792
 11870 029b 05       		.byte	0x5
 11871 029c 8402     		.uleb128 0x104
 11872 029e F93D0000 		.4byte	.LASF793
 11873 02a2 05       		.byte	0x5
 11874 02a3 8902     		.uleb128 0x109
 11875 02a5 29420000 		.4byte	.LASF794
 11876 02a9 05       		.byte	0x5
 11877 02aa 8A02     		.uleb128 0x10a
 11878 02ac D2710000 		.4byte	.LASF795
 11879 02b0 05       		.byte	0x5
 11880 02b1 8B02     		.uleb128 0x10b
 11881 02b3 E42F0000 		.4byte	.LASF796
 11882 02b7 05       		.byte	0x5
 11883 02b8 8C02     		.uleb128 0x10c
 11884 02ba 88570000 		.4byte	.LASF797
 11885 02be 05       		.byte	0x5
 11886 02bf 8D02     		.uleb128 0x10d
 11887 02c1 74300000 		.4byte	.LASF798
 11888 02c5 05       		.byte	0x5
 11889 02c6 9202     		.uleb128 0x112
 11890 02c8 13500000 		.4byte	.LASF799
 11891 02cc 05       		.byte	0x5
 11892 02cd 9302     		.uleb128 0x113
 11893 02cf F55F0000 		.4byte	.LASF800
 11894 02d3 05       		.byte	0x5
 11895 02d4 9402     		.uleb128 0x114
 11896 02d6 CE090000 		.4byte	.LASF801
 11897 02da 05       		.byte	0x5
 11898 02db 9902     		.uleb128 0x119
 11899 02dd 7F0F0000 		.4byte	.LASF802
 11900 02e1 05       		.byte	0x5
 11901 02e2 9A02     		.uleb128 0x11a
 11902 02e4 1F070000 		.4byte	.LASF803
 11903 02e8 05       		.byte	0x5
 11904 02e9 9F02     		.uleb128 0x11f
 11905 02eb CF5C0000 		.4byte	.LASF804
 11906 02ef 05       		.byte	0x5
 11907 02f0 A002     		.uleb128 0x120
 11908 02f2 7E370000 		.4byte	.LASF805
 11909 02f6 05       		.byte	0x5
 11910 02f7 A102     		.uleb128 0x121
 11911 02f9 A81E0000 		.4byte	.LASF806
 11912 02fd 05       		.byte	0x5
 11913 02fe A202     		.uleb128 0x122
ARM GAS  /tmp/cc7TFFKb.s 			page 240


 11914 0300 F85C0000 		.4byte	.LASF807
 11915 0304 05       		.byte	0x5
 11916 0305 A302     		.uleb128 0x123
 11917 0307 D8490000 		.4byte	.LASF808
 11918 030b 05       		.byte	0x5
 11919 030c A402     		.uleb128 0x124
 11920 030e 32780000 		.4byte	.LASF809
 11921 0312 05       		.byte	0x5
 11922 0313 A502     		.uleb128 0x125
 11923 0315 A3750000 		.4byte	.LASF810
 11924 0319 00       		.byte	0
 11925              		.section	.debug_macro,"G",%progbits,wm4.wwdt_11xx.h.33.5768344983cb842df69cc91ea86cabb0,comdat
 11926              	.Ldebug_macro20:
 11927 0000 0400     		.2byte	0x4
 11928 0002 00       		.byte	0
 11929 0003 05       		.byte	0x5
 11930 0004 21       		.uleb128 0x21
 11931 0005 9C100000 		.4byte	.LASF811
 11932 0009 05       		.byte	0x5
 11933 000a 4B       		.uleb128 0x4b
 11934 000b D2650000 		.4byte	.LASF812
 11935 000f 05       		.byte	0x5
 11936 0010 4D       		.uleb128 0x4d
 11937 0011 F9100000 		.4byte	.LASF813
 11938 0015 05       		.byte	0x5
 11939 0016 4F       		.uleb128 0x4f
 11940 0017 11580000 		.4byte	.LASF814
 11941 001b 05       		.byte	0x5
 11942 001c 51       		.uleb128 0x51
 11943 001d 5E3C0000 		.4byte	.LASF815
 11944 0021 05       		.byte	0x5
 11945 0022 53       		.uleb128 0x53
 11946 0023 E9320000 		.4byte	.LASF816
 11947 0027 05       		.byte	0x5
 11948 0028 55       		.uleb128 0x55
 11949 0029 83420000 		.4byte	.LASF817
 11950 002d 00       		.byte	0
 11951              		.section	.debug_macro,"G",%progbits,wm4.ssp_11xx.h.33.af054d3d65f4cb0c078be40bb872ec37,comdat
 11952              	.Ldebug_macro21:
 11953 0000 0400     		.2byte	0x4
 11954 0002 00       		.byte	0
 11955 0003 05       		.byte	0x5
 11956 0004 21       		.uleb128 0x21
 11957 0005 962B0000 		.4byte	.LASF818
 11958 0009 05       		.byte	0x5
 11959 000a 40       		.uleb128 0x40
 11960 000b 4F4C0000 		.4byte	.LASF819
 11961 000f 05       		.byte	0x5
 11962 0010 42       		.uleb128 0x42
 11963 0011 4B070000 		.4byte	.LASF820
 11964 0015 05       		.byte	0x5
 11965 0016 44       		.uleb128 0x44
 11966 0017 EA280000 		.4byte	.LASF821
 11967 001b 05       		.byte	0x5
 11968 001c 46       		.uleb128 0x46
 11969 001d E24E0000 		.4byte	.LASF822
 11970 0021 05       		.byte	0x5
ARM GAS  /tmp/cc7TFFKb.s 			page 241


 11971 0022 49       		.uleb128 0x49
 11972 0023 C4580000 		.4byte	.LASF823
 11973 0027 05       		.byte	0x5
 11974 0028 4A       		.uleb128 0x4a
 11975 0029 48090000 		.4byte	.LASF824
 11976 002d 05       		.byte	0x5
 11977 002e 4D       		.uleb128 0x4d
 11978 002f 1F6F0000 		.4byte	.LASF825
 11979 0033 05       		.byte	0x5
 11980 0034 4E       		.uleb128 0x4e
 11981 0035 F56F0000 		.4byte	.LASF826
 11982 0039 05       		.byte	0x5
 11983 003a 51       		.uleb128 0x51
 11984 003b 44340000 		.4byte	.LASF827
 11985 003f 05       		.byte	0x5
 11986 0040 53       		.uleb128 0x53
 11987 0041 DB110000 		.4byte	.LASF828
 11988 0045 05       		.byte	0x5
 11989 0046 55       		.uleb128 0x55
 11990 0047 DB110000 		.4byte	.LASF828
 11991 004b 05       		.byte	0x5
 11992 004c 58       		.uleb128 0x58
 11993 004d 44340000 		.4byte	.LASF827
 11994 0051 05       		.byte	0x5
 11995 0052 5F       		.uleb128 0x5f
 11996 0053 C5510000 		.4byte	.LASF829
 11997 0057 05       		.byte	0x5
 11998 0058 61       		.uleb128 0x61
 11999 0059 98000000 		.4byte	.LASF830
 12000 005d 05       		.byte	0x5
 12001 005e 63       		.uleb128 0x63
 12002 005f A2230000 		.4byte	.LASF831
 12003 0063 05       		.byte	0x5
 12004 0064 64       		.uleb128 0x64
 12005 0065 B5330000 		.4byte	.LASF832
 12006 0069 05       		.byte	0x5
 12007 006a 67       		.uleb128 0x67
 12008 006b F66E0000 		.4byte	.LASF833
 12009 006f 05       		.byte	0x5
 12010 0070 69       		.uleb128 0x69
 12011 0071 EA780000 		.4byte	.LASF834
 12012 0075 05       		.byte	0x5
 12013 0076 6C       		.uleb128 0x6c
 12014 0077 D4770000 		.4byte	.LASF835
 12015 007b 05       		.byte	0x5
 12016 007c 72       		.uleb128 0x72
 12017 007d 211F0000 		.4byte	.LASF836
 12018 0081 05       		.byte	0x5
 12019 0082 79       		.uleb128 0x79
 12020 0083 8C360000 		.4byte	.LASF837
 12021 0087 05       		.byte	0x5
 12022 0088 7C       		.uleb128 0x7c
 12023 0089 2E430000 		.4byte	.LASF838
 12024 008d 05       		.byte	0x5
 12025 008e C503     		.uleb128 0x1c5
 12026 0090 F53C0000 		.4byte	.LASF839
 12027 0094 05       		.byte	0x5
ARM GAS  /tmp/cc7TFFKb.s 			page 242


 12028 0095 C603     		.uleb128 0x1c6
 12029 0097 FD310000 		.4byte	.LASF840
 12030 009b 05       		.byte	0x5
 12031 009c CF03     		.uleb128 0x1cf
 12032 009e D7190000 		.4byte	.LASF841
 12033 00a2 05       		.byte	0x5
 12034 00a3 D003     		.uleb128 0x1d0
 12035 00a5 A31C0000 		.4byte	.LASF842
 12036 00a9 05       		.byte	0x5
 12037 00aa D303     		.uleb128 0x1d3
 12038 00ac 8B7A0000 		.4byte	.LASF843
 12039 00b0 05       		.byte	0x5
 12040 00b1 D403     		.uleb128 0x1d4
 12041 00b3 180C0000 		.4byte	.LASF844
 12042 00b7 00       		.byte	0
 12043              		.section	.debug_macro,"G",%progbits,wm4.error.h.38.ae74fe1dd9d19c80c505f1fda144fce8,comdat
 12044              	.Ldebug_macro22:
 12045 0000 0400     		.2byte	0x4
 12046 0002 00       		.byte	0
 12047 0003 05       		.byte	0x5
 12048 0004 26       		.uleb128 0x26
 12049 0005 42510000 		.4byte	.LASF846
 12050 0009 05       		.byte	0x5
 12051 000a 8401     		.uleb128 0x84
 12052 000c 3F080000 		.4byte	.LASF847
 12053 0010 00       		.byte	0
 12054              		.section	.debug_macro,"G",%progbits,wm4.adc_11xx.h.33.6ce7433ac6b30df70a6993d01dbd513f,comdat
 12055              	.Ldebug_macro23:
 12056 0000 0400     		.2byte	0x4
 12057 0002 00       		.byte	0
 12058 0003 05       		.byte	0x5
 12059 0004 21       		.uleb128 0x21
 12060 0005 E21A0000 		.4byte	.LASF848
 12061 0009 05       		.byte	0x5
 12062 000a 2F       		.uleb128 0x2f
 12063 000b 10330000 		.4byte	.LASF849
 12064 000f 05       		.byte	0x5
 12065 0010 40       		.uleb128 0x40
 12066 0011 30590000 		.4byte	.LASF850
 12067 0015 05       		.byte	0x5
 12068 0016 41       		.uleb128 0x41
 12069 0017 434A0000 		.4byte	.LASF851
 12070 001b 05       		.byte	0x5
 12071 001c 43       		.uleb128 0x43
 12072 001d 8F4C0000 		.4byte	.LASF852
 12073 0021 05       		.byte	0x5
 12074 0022 44       		.uleb128 0x44
 12075 0023 53410000 		.4byte	.LASF853
 12076 0027 05       		.byte	0x5
 12077 0028 45       		.uleb128 0x45
 12078 0029 A73B0000 		.4byte	.LASF854
 12079 002d 05       		.byte	0x5
 12080 002e 46       		.uleb128 0x46
 12081 002f CC7B0000 		.4byte	.LASF855
 12082 0033 05       		.byte	0x5
 12083 0034 47       		.uleb128 0x47
 12084 0035 1F110000 		.4byte	.LASF856
ARM GAS  /tmp/cc7TFFKb.s 			page 243


 12085 0039 05       		.byte	0x5
 12086 003a 48       		.uleb128 0x48
 12087 003b 48750000 		.4byte	.LASF857
 12088 003f 05       		.byte	0x5
 12089 0040 49       		.uleb128 0x49
 12090 0041 11610000 		.4byte	.LASF858
 12091 0045 05       		.byte	0x5
 12092 0046 4A       		.uleb128 0x4a
 12093 0047 261A0000 		.4byte	.LASF859
 12094 004b 05       		.byte	0x5
 12095 004c 4B       		.uleb128 0x4b
 12096 004d 44200000 		.4byte	.LASF860
 12097 0051 05       		.byte	0x5
 12098 0052 4C       		.uleb128 0x4c
 12099 0053 03440000 		.4byte	.LASF861
 12100 0057 05       		.byte	0x5
 12101 0058 4D       		.uleb128 0x4d
 12102 0059 80160000 		.4byte	.LASF862
 12103 005d 05       		.byte	0x5
 12104 005e 4E       		.uleb128 0x4e
 12105 005f F0520000 		.4byte	.LASF863
 12106 0063 05       		.byte	0x5
 12107 0064 4F       		.uleb128 0x4f
 12108 0065 853C0000 		.4byte	.LASF864
 12109 0069 05       		.byte	0x5
 12110 006a 50       		.uleb128 0x50
 12111 006b F0600000 		.4byte	.LASF865
 12112 006f 05       		.byte	0x5
 12113 0070 51       		.uleb128 0x51
 12114 0071 EE530000 		.4byte	.LASF866
 12115 0075 05       		.byte	0x5
 12116 0076 52       		.uleb128 0x52
 12117 0077 965A0000 		.4byte	.LASF867
 12118 007b 00       		.byte	0
 12119              		.section	.debug_macro,"G",%progbits,wm4.i2c_11xx.h.33.2b506d1350e00a8c26e8bf006a5f9390,comdat
 12120              	.Ldebug_macro24:
 12121 0000 0400     		.2byte	0x4
 12122 0002 00       		.byte	0
 12123 0003 05       		.byte	0x5
 12124 0004 21       		.uleb128 0x21
 12125 0005 996C0000 		.4byte	.LASF869
 12126 0009 05       		.byte	0x5
 12127 000a 46       		.uleb128 0x46
 12128 000b F80D0000 		.4byte	.LASF870
 12129 000f 05       		.byte	0x5
 12130 0010 47       		.uleb128 0x47
 12131 0011 39090000 		.4byte	.LASF871
 12132 0015 05       		.byte	0x5
 12133 0016 48       		.uleb128 0x48
 12134 0017 7E1B0000 		.4byte	.LASF872
 12135 001b 05       		.byte	0x5
 12136 001c 49       		.uleb128 0x49
 12137 001d 0D6A0000 		.4byte	.LASF873
 12138 0021 05       		.byte	0x5
 12139 0022 4E       		.uleb128 0x4e
 12140 0023 8D690000 		.4byte	.LASF874
 12141 0027 05       		.byte	0x5
ARM GAS  /tmp/cc7TFFKb.s 			page 244


 12142 0028 53       		.uleb128 0x53
 12143 0029 36300000 		.4byte	.LASF875
 12144 002d 05       		.byte	0x5
 12145 002e 54       		.uleb128 0x54
 12146 002f E30A0000 		.4byte	.LASF876
 12147 0033 05       		.byte	0x5
 12148 0034 55       		.uleb128 0x55
 12149 0035 00000000 		.4byte	.LASF877
 12150 0039 05       		.byte	0x5
 12151 003a 56       		.uleb128 0x56
 12152 003b FD2D0000 		.4byte	.LASF878
 12153 003f 05       		.byte	0x5
 12154 0040 57       		.uleb128 0x57
 12155 0041 920E0000 		.4byte	.LASF879
 12156 0045 05       		.byte	0x5
 12157 0046 5C       		.uleb128 0x5c
 12158 0047 4F770000 		.4byte	.LASF880
 12159 004b 05       		.byte	0x5
 12160 004c 5D       		.uleb128 0x5d
 12161 004d E20B0000 		.4byte	.LASF881
 12162 0051 05       		.byte	0x5
 12163 0052 5E       		.uleb128 0x5e
 12164 0053 99530000 		.4byte	.LASF882
 12165 0057 05       		.byte	0x5
 12166 0058 5F       		.uleb128 0x5f
 12167 0059 510C0000 		.4byte	.LASF883
 12168 005d 05       		.byte	0x5
 12169 005e 60       		.uleb128 0x60
 12170 005f 7C250000 		.4byte	.LASF884
 12171 0063 05       		.byte	0x5
 12172 0064 65       		.uleb128 0x65
 12173 0065 394C0000 		.4byte	.LASF885
 12174 0069 05       		.byte	0x5
 12175 006a 66       		.uleb128 0x66
 12176 006b 71530000 		.4byte	.LASF886
 12177 006f 05       		.byte	0x5
 12178 0070 67       		.uleb128 0x67
 12179 0071 3A0C0000 		.4byte	.LASF887
 12180 0075 05       		.byte	0x5
 12181 0076 68       		.uleb128 0x68
 12182 0077 06200000 		.4byte	.LASF888
 12183 007b 05       		.byte	0x5
 12184 007c 69       		.uleb128 0x69
 12185 007d 3B4D0000 		.4byte	.LASF889
 12186 0081 05       		.byte	0x5
 12187 0082 6E       		.uleb128 0x6e
 12188 0083 843E0000 		.4byte	.LASF890
 12189 0087 05       		.byte	0x5
 12190 0088 6F       		.uleb128 0x6f
 12191 0089 F64F0000 		.4byte	.LASF891
 12192 008d 05       		.byte	0x5
 12193 008e 74       		.uleb128 0x74
 12194 008f 8C3B0000 		.4byte	.LASF892
 12195 0093 05       		.byte	0x5
 12196 0094 75       		.uleb128 0x75
 12197 0095 FA180000 		.4byte	.LASF893
 12198 0099 05       		.byte	0x5
ARM GAS  /tmp/cc7TFFKb.s 			page 245


 12199 009a 7A       		.uleb128 0x7a
 12200 009b F14A0000 		.4byte	.LASF894
 12201 009f 05       		.byte	0x5
 12202 00a0 7B       		.uleb128 0x7b
 12203 00a1 B6190000 		.4byte	.LASF895
 12204 00a5 05       		.byte	0x5
 12205 00a6 7C       		.uleb128 0x7c
 12206 00a7 E8240000 		.4byte	.LASF896
 12207 00ab 05       		.byte	0x5
 12208 00ac 7D       		.uleb128 0x7d
 12209 00ad 1A000000 		.4byte	.LASF897
 12210 00b1 05       		.byte	0x5
 12211 00b2 7E       		.uleb128 0x7e
 12212 00b3 522F0000 		.4byte	.LASF898
 12213 00b7 05       		.byte	0x5
 12214 00b8 7F       		.uleb128 0x7f
 12215 00b9 F53A0000 		.4byte	.LASF899
 12216 00bd 05       		.byte	0x5
 12217 00be 8001     		.uleb128 0x80
 12218 00c0 5C1B0000 		.4byte	.LASF900
 12219 00c4 05       		.byte	0x5
 12220 00c5 8501     		.uleb128 0x85
 12221 00c7 8A020000 		.4byte	.LASF901
 12222 00cb 05       		.byte	0x5
 12223 00cc 8601     		.uleb128 0x86
 12224 00ce 5D010000 		.4byte	.LASF902
 12225 00d2 05       		.byte	0x5
 12226 00d3 8701     		.uleb128 0x87
 12227 00d5 FC2B0000 		.4byte	.LASF903
 12228 00d9 05       		.byte	0x5
 12229 00da 8801     		.uleb128 0x88
 12230 00dc 8D620000 		.4byte	.LASF904
 12231 00e0 05       		.byte	0x5
 12232 00e1 8901     		.uleb128 0x89
 12233 00e3 953D0000 		.4byte	.LASF905
 12234 00e7 05       		.byte	0x5
 12235 00e8 8A01     		.uleb128 0x8a
 12236 00ea AC0C0000 		.4byte	.LASF906
 12237 00ee 05       		.byte	0x5
 12238 00ef 8B01     		.uleb128 0x8b
 12239 00f1 AC100000 		.4byte	.LASF907
 12240 00f5 05       		.byte	0x5
 12241 00f6 9001     		.uleb128 0x90
 12242 00f8 8C2D0000 		.4byte	.LASF908
 12243 00fc 05       		.byte	0x5
 12244 00fd 9101     		.uleb128 0x91
 12245 00ff 0A760000 		.4byte	.LASF909
 12246 0103 05       		.byte	0x5
 12247 0104 9301     		.uleb128 0x93
 12248 0106 4F300000 		.4byte	.LASF910
 12249 010a 05       		.byte	0x5
 12250 010b 9401     		.uleb128 0x94
 12251 010d 674F0000 		.4byte	.LASF911
 12252 0111 05       		.byte	0x5
 12253 0112 9601     		.uleb128 0x96
 12254 0114 13100000 		.4byte	.LASF912
 12255 0118 05       		.byte	0x5
ARM GAS  /tmp/cc7TFFKb.s 			page 246


 12256 0119 9701     		.uleb128 0x97
 12257 011b 820C0000 		.4byte	.LASF913
 12258 011f 05       		.byte	0x5
 12259 0120 9801     		.uleb128 0x98
 12260 0122 6C130000 		.4byte	.LASF914
 12261 0126 05       		.byte	0x5
 12262 0127 9901     		.uleb128 0x99
 12263 0129 90120000 		.4byte	.LASF915
 12264 012d 05       		.byte	0x5
 12265 012e 9A01     		.uleb128 0x9a
 12266 0130 B8430000 		.4byte	.LASF916
 12267 0134 05       		.byte	0x5
 12268 0135 A001     		.uleb128 0xa0
 12269 0137 8E580000 		.4byte	.LASF917
 12270 013b 05       		.byte	0x5
 12271 013c A101     		.uleb128 0xa1
 12272 013e 3F4F0000 		.4byte	.LASF918
 12273 0142 05       		.byte	0x5
 12274 0143 A301     		.uleb128 0xa3
 12275 0145 44180000 		.4byte	.LASF919
 12276 0149 05       		.byte	0x5
 12277 014a A401     		.uleb128 0xa4
 12278 014c BE500000 		.4byte	.LASF920
 12279 0150 05       		.byte	0x5
 12280 0151 A501     		.uleb128 0xa5
 12281 0153 7F710000 		.4byte	.LASF921
 12282 0157 05       		.byte	0x5
 12283 0158 A601     		.uleb128 0xa6
 12284 015a 8D2F0000 		.4byte	.LASF922
 12285 015e 05       		.byte	0x5
 12286 015f AB01     		.uleb128 0xab
 12287 0161 EF750000 		.4byte	.LASF923
 12288 0165 05       		.byte	0x5
 12289 0166 AC01     		.uleb128 0xac
 12290 0168 386C0000 		.4byte	.LASF924
 12291 016c 05       		.byte	0x5
 12292 016d B201     		.uleb128 0xb2
 12293 016f 50000000 		.4byte	.LASF925
 12294 0173 05       		.byte	0x5
 12295 0174 B301     		.uleb128 0xb3
 12296 0176 BA730000 		.4byte	.LASF926
 12297 017a 05       		.byte	0x5
 12298 017b B401     		.uleb128 0xb4
 12299 017d 5F440000 		.4byte	.LASF927
 12300 0181 05       		.byte	0x5
 12301 0182 B501     		.uleb128 0xb5
 12302 0184 C62C0000 		.4byte	.LASF928
 12303 0188 05       		.byte	0x5
 12304 0189 BA01     		.uleb128 0xba
 12305 018b 50760000 		.4byte	.LASF929
 12306 018f 05       		.byte	0x5
 12307 0190 BF01     		.uleb128 0xbf
 12308 0192 C2660000 		.4byte	.LASF930
 12309 0196 05       		.byte	0x5
 12310 0197 C001     		.uleb128 0xc0
 12311 0199 693E0000 		.4byte	.LASF931
 12312 019d 05       		.byte	0x5
ARM GAS  /tmp/cc7TFFKb.s 			page 247


 12313 019e C501     		.uleb128 0xc5
 12314 01a0 57580000 		.4byte	.LASF932
 12315 01a4 05       		.byte	0x5
 12316 01a5 CA01     		.uleb128 0xca
 12317 01a7 32730000 		.4byte	.LASF933
 12318 01ab 05       		.byte	0x5
 12319 01ac CF01     		.uleb128 0xcf
 12320 01ae 45420000 		.4byte	.LASF934
 12321 01b2 05       		.byte	0x5
 12322 01b3 D401     		.uleb128 0xd4
 12323 01b5 AD5B0000 		.4byte	.LASF935
 12324 01b9 05       		.byte	0x5
 12325 01ba D501     		.uleb128 0xd5
 12326 01bc 097D0000 		.4byte	.LASF936
 12327 01c0 05       		.byte	0x5
 12328 01c1 D601     		.uleb128 0xd6
 12329 01c3 D0400000 		.4byte	.LASF937
 12330 01c7 05       		.byte	0x5
 12331 01c8 DB01     		.uleb128 0xdb
 12332 01ca E0540000 		.4byte	.LASF938
 12333 01ce 05       		.byte	0x5
 12334 01cf DC01     		.uleb128 0xdc
 12335 01d1 185D0000 		.4byte	.LASF939
 12336 01d5 05       		.byte	0x5
 12337 01d6 DD01     		.uleb128 0xdd
 12338 01d8 4A010000 		.4byte	.LASF940
 12339 01dc 05       		.byte	0x5
 12340 01dd DE01     		.uleb128 0xde
 12341 01df 07390000 		.4byte	.LASF941
 12342 01e3 05       		.byte	0x5
 12343 01e4 DF01     		.uleb128 0xdf
 12344 01e6 9B5B0000 		.4byte	.LASF942
 12345 01ea 05       		.byte	0x5
 12346 01eb E001     		.uleb128 0xe0
 12347 01ed B1270000 		.4byte	.LASF943
 12348 01f1 05       		.byte	0x5
 12349 01f2 E101     		.uleb128 0xe1
 12350 01f4 8D690000 		.4byte	.LASF874
 12351 01f8 05       		.byte	0x5
 12352 01f9 E301     		.uleb128 0xe3
 12353 01fb 236C0000 		.4byte	.LASF944
 12354 01ff 05       		.byte	0x5
 12355 0200 E401     		.uleb128 0xe4
 12356 0202 F2150000 		.4byte	.LASF945
 12357 0206 05       		.byte	0x5
 12358 0207 E601     		.uleb128 0xe6
 12359 0209 A33E0000 		.4byte	.LASF946
 12360 020d 05       		.byte	0x5
 12361 020e EB01     		.uleb128 0xeb
 12362 0210 95510000 		.4byte	.LASF947
 12363 0214 05       		.byte	0x5
 12364 0215 EC01     		.uleb128 0xec
 12365 0217 A21F0000 		.4byte	.LASF948
 12366 021b 00       		.byte	0
 12367              		.section	.debug_macro,"G",%progbits,wm4.ccand_11xx.h.33.638098819df345271d3dfae587baa456,comdat
 12368              	.Ldebug_macro25:
 12369 0000 0400     		.2byte	0x4
ARM GAS  /tmp/cc7TFFKb.s 			page 248


 12370 0002 00       		.byte	0
 12371 0003 05       		.byte	0x5
 12372 0004 21       		.uleb128 0x21
 12373 0005 76000000 		.4byte	.LASF949
 12374 0009 05       		.byte	0x5
 12375 000a 2F       		.uleb128 0x2f
 12376 000b 0F550000 		.4byte	.LASF950
 12377 000f 05       		.byte	0x5
 12378 0010 30       		.uleb128 0x30
 12379 0011 B0240000 		.4byte	.LASF951
 12380 0015 05       		.byte	0x5
 12381 0016 31       		.uleb128 0x31
 12382 0017 12410000 		.4byte	.LASF952
 12383 001b 05       		.byte	0x5
 12384 001c 32       		.uleb128 0x32
 12385 001d C9780000 		.4byte	.LASF953
 12386 0021 05       		.byte	0x5
 12387 0022 33       		.uleb128 0x33
 12388 0023 B4180000 		.4byte	.LASF954
 12389 0027 05       		.byte	0x5
 12390 0028 34       		.uleb128 0x34
 12391 0029 090F0000 		.4byte	.LASF955
 12392 002d 05       		.byte	0x5
 12393 002e 35       		.uleb128 0x35
 12394 002f 5A790000 		.4byte	.LASF956
 12395 0033 05       		.byte	0x5
 12396 0034 36       		.uleb128 0x36
 12397 0035 172E0000 		.4byte	.LASF957
 12398 0039 05       		.byte	0x5
 12399 003a 37       		.uleb128 0x37
 12400 003b 1D740000 		.4byte	.LASF958
 12401 003f 05       		.byte	0x5
 12402 0040 38       		.uleb128 0x38
 12403 0041 EC450000 		.4byte	.LASF959
 12404 0045 05       		.byte	0x5
 12405 0046 3D       		.uleb128 0x3d
 12406 0047 651A0000 		.4byte	.LASF960
 12407 004b 05       		.byte	0x5
 12408 004c 3E       		.uleb128 0x3e
 12409 004d 83260000 		.4byte	.LASF961
 12410 0051 05       		.byte	0x5
 12411 0052 3F       		.uleb128 0x3f
 12412 0053 C9670000 		.4byte	.LASF962
 12413 0057 05       		.byte	0x5
 12414 0058 40       		.uleb128 0x40
 12415 0059 A6390000 		.4byte	.LASF963
 12416 005d 05       		.byte	0x5
 12417 005e 4D       		.uleb128 0x4d
 12418 005f 11240000 		.4byte	.LASF964
 12419 0063 05       		.byte	0x5
 12420 0064 4E       		.uleb128 0x4e
 12421 0065 6A700000 		.4byte	.LASF965
 12422 0069 05       		.byte	0x5
 12423 006a 4F       		.uleb128 0x4f
 12424 006b A3040000 		.4byte	.LASF966
 12425 006f 05       		.byte	0x5
 12426 0070 50       		.uleb128 0x50
ARM GAS  /tmp/cc7TFFKb.s 			page 249


 12427 0071 EE0C0000 		.4byte	.LASF967
 12428 0075 05       		.byte	0x5
 12429 0076 51       		.uleb128 0x51
 12430 0077 F0570000 		.4byte	.LASF968
 12431 007b 05       		.byte	0x5
 12432 007c 52       		.uleb128 0x52
 12433 007d E2250000 		.4byte	.LASF969
 12434 0081 05       		.byte	0x5
 12435 0082 53       		.uleb128 0x53
 12436 0083 89760000 		.4byte	.LASF970
 12437 0087 05       		.byte	0x5
 12438 0088 54       		.uleb128 0x54
 12439 0089 7F2A0000 		.4byte	.LASF971
 12440 008d 05       		.byte	0x5
 12441 008e 55       		.uleb128 0x55
 12442 008f 67570000 		.4byte	.LASF972
 12443 0093 05       		.byte	0x5
 12444 0094 56       		.uleb128 0x56
 12445 0095 D5030000 		.4byte	.LASF973
 12446 0099 05       		.byte	0x5
 12447 009a 57       		.uleb128 0x57
 12448 009b 22340000 		.4byte	.LASF974
 12449 009f 05       		.byte	0x5
 12450 00a0 58       		.uleb128 0x58
 12451 00a1 851E0000 		.4byte	.LASF975
 12452 00a5 05       		.byte	0x5
 12453 00a6 59       		.uleb128 0x59
 12454 00a7 64780000 		.4byte	.LASF976
 12455 00ab 05       		.byte	0x5
 12456 00ac 5A       		.uleb128 0x5a
 12457 00ad 28520000 		.4byte	.LASF977
 12458 00b1 05       		.byte	0x5
 12459 00b2 5B       		.uleb128 0x5b
 12460 00b3 95180000 		.4byte	.LASF978
 12461 00b7 05       		.byte	0x5
 12462 00b8 65       		.uleb128 0x65
 12463 00b9 D5600000 		.4byte	.LASF979
 12464 00bd 05       		.byte	0x5
 12465 00be 66       		.uleb128 0x66
 12466 00bf FE130000 		.4byte	.LASF980
 12467 00c3 05       		.byte	0x5
 12468 00c4 67       		.uleb128 0x67
 12469 00c5 E7210000 		.4byte	.LASF981
 12470 00c9 05       		.byte	0x5
 12471 00ca 68       		.uleb128 0x68
 12472 00cb B24F0000 		.4byte	.LASF982
 12473 00cf 05       		.byte	0x5
 12474 00d0 69       		.uleb128 0x69
 12475 00d1 2B3C0000 		.4byte	.LASF983
 12476 00d5 05       		.byte	0x5
 12477 00d6 6A       		.uleb128 0x6a
 12478 00d7 A43A0000 		.4byte	.LASF984
 12479 00db 05       		.byte	0x5
 12480 00dc 6B       		.uleb128 0x6b
 12481 00dd D9480000 		.4byte	.LASF985
 12482 00e1 05       		.byte	0x5
 12483 00e2 8001     		.uleb128 0x80
ARM GAS  /tmp/cc7TFFKb.s 			page 250


 12484 00e4 18190000 		.4byte	.LASF986
 12485 00e8 05       		.byte	0x5
 12486 00e9 8101     		.uleb128 0x81
 12487 00eb 7D650000 		.4byte	.LASF987
 12488 00ef 05       		.byte	0x5
 12489 00f0 8201     		.uleb128 0x82
 12490 00f2 AE0A0000 		.4byte	.LASF988
 12491 00f6 05       		.byte	0x5
 12492 00f7 8501     		.uleb128 0x85
 12493 00f9 D0440000 		.4byte	.LASF989
 12494 00fd 05       		.byte	0x5
 12495 00fe 8601     		.uleb128 0x86
 12496 0100 7B470000 		.4byte	.LASF990
 12497 0104 05       		.byte	0x5
 12498 0105 8701     		.uleb128 0x87
 12499 0107 55110000 		.4byte	.LASF991
 12500 010b 05       		.byte	0x5
 12501 010c A101     		.uleb128 0xa1
 12502 010e 825E0000 		.4byte	.LASF992
 12503 0112 00       		.byte	0
 12504              		.section	.debug_line,"",%progbits
 12505              	.Ldebug_line0:
 12506 0000 E9090000 		.section	.debug_str,"MS",%progbits,1
 12506      0200BA02 
 12506      00000201 
 12506      FB0E0D00 
 12506      01010101 
 12507              	.LASF877:
 12508 0000 4932435F 		.ascii	"I2C_I2CONSET_STO ((0x10))\000"
 12508      4932434F 
 12508      4E534554 
 12508      5F53544F 
 12508      20282830 
 12509              	.LASF897:
 12510 001a 4932435F 		.ascii	"I2C_I2STAT_M_TX_SLAW_NACK ((0x20))\000"
 12510      49325354 
 12510      41545F4D 
 12510      5F54585F 
 12510      534C4157 
 12511              	.LASF158:
 12512 003d 5F5F4445 		.ascii	"__DECIMAL_DIG__ 17\000"
 12512      43494D41 
 12512      4C5F4449 
 12512      475F5F20 
 12512      313700
 12513              	.LASF925:
 12514 0050 4932435F 		.ascii	"I2C_I2MMCTRL_MM_ENA ((1 << 0))\000"
 12514      49324D4D 
 12514      4354524C 
 12514      5F4D4D5F 
 12514      454E4120 
 12515              	.LASF1219:
 12516 006f 77646174 		.ascii	"wdata8\000"
 12516      613800
 12517              	.LASF949:
 12518 0076 5F5F4343 		.ascii	"__CCAND_11XX_H_ \000"
 12518      414E445F 
ARM GAS  /tmp/cc7TFFKb.s 			page 251


 12518      31315858 
 12518      5F485F20 
 12518      00
 12519              	.LASF1094:
 12520 0087 53595343 		.ascii	"SYSCTL_CLOCK_SYS\000"
 12520      544C5F43 
 12520      4C4F434B 
 12520      5F535953 
 12520      00
 12521              	.LASF830:
 12522 0098 5353505F 		.ascii	"SSP_CR1_SSP_EN ((uint32_t) (1 << 1))\000"
 12522      4352315F 
 12522      5353505F 
 12522      454E2028 
 12522      2875696E 
 12523              	.LASF449:
 12524 00bd 5F424954 		.ascii	"_BIT\000"
 12524      00
 12525              	.LASF111:
 12526 00c2 5F5F494E 		.ascii	"__INT_FAST32_MAX__ 2147483647\000"
 12526      545F4641 
 12526      53543332 
 12526      5F4D4158 
 12526      5F5F2032 
 12527              	.LASF575:
 12528 00e0 4C50435F 		.ascii	"LPC_IOCON_BASE 0x40044000\000"
 12528      494F434F 
 12528      4E5F4241 
 12528      53452030 
 12528      78343030 
 12529              	.LASF554:
 12530 00fa 4E564943 		.ascii	"NVIC_BASE (SCS_BASE + 0x0100UL)\000"
 12530      5F424153 
 12530      45202853 
 12530      43535F42 
 12530      41534520 
 12531              	.LASF311:
 12532 011a 5F5F4743 		.ascii	"__GCC_ATOMIC_WCHAR_T_LOCK_FREE 1\000"
 12532      435F4154 
 12532      4F4D4943 
 12532      5F574348 
 12532      41525F54 
 12533              	.LASF294:
 12534 013b 5F5F5441 		.ascii	"__TA_IBIT__ 64\000"
 12534      5F494249 
 12534      545F5F20 
 12534      363400
 12535              	.LASF940:
 12536 014a 4932435F 		.ascii	"I2C_BYTE_RECV 0x02\000"
 12536      42595445 
 12536      5F524543 
 12536      56203078 
 12536      303200
 12537              	.LASF902:
 12538 015d 4932435F 		.ascii	"I2C_I2STAT_M_RX_RESTART ((0x10))\000"
 12538      49325354 
 12538      41545F4D 
ARM GAS  /tmp/cc7TFFKb.s 			page 252


 12538      5F52585F 
 12538      52455354 
 12539              	.LASF1096:
 12540 017e 53595343 		.ascii	"SYSCTL_CLOCK_RAM\000"
 12540      544C5F43 
 12540      4C4F434B 
 12540      5F52414D 
 12540      00
 12541              	.LASF187:
 12542 018f 5F5F5346 		.ascii	"__SFRACT_FBIT__ 7\000"
 12542      52414354 
 12542      5F464249 
 12542      545F5F20 
 12542      3700
 12543              	.LASF1016:
 12544 01a1 73697A65 		.ascii	"sizetype\000"
 12544      74797065 
 12544      00
 12545              	.LASF72:
 12546 01aa 5F5F4C4F 		.ascii	"__LONG_LONG_MAX__ 9223372036854775807LL\000"
 12546      4E475F4C 
 12546      4F4E475F 
 12546      4D41585F 
 12546      5F203932 
 12547              	.LASF563:
 12548 01d2 4C50435F 		.ascii	"LPC_WWDT_BASE 0x40004000\000"
 12548      57574454 
 12548      5F424153 
 12548      45203078 
 12548      34303030 
 12549              	.LASF1199:
 12550 01eb 636C6B5F 		.ascii	"clk_rate\000"
 12550      72617465 
 12550      00
 12551              	.LASF259:
 12552 01f4 5F5F4C4C 		.ascii	"__LLACCUM_MIN__ (-0X1P31LLK-0X1P31LLK)\000"
 12552      41434355 
 12552      4D5F4D49 
 12552      4E5F5F20 
 12552      282D3058 
 12553              	.LASF251:
 12554 021b 5F5F4C41 		.ascii	"__LACCUM_EPSILON__ 0x1P-31LK\000"
 12554      4343554D 
 12554      5F455053 
 12554      494C4F4E 
 12554      5F5F2030 
 12555              	.LASF402:
 12556 0238 494E5436 		.ascii	"INT64_MAX __INT64_MAX__\000"
 12556      345F4D41 
 12556      58205F5F 
 12556      494E5436 
 12556      345F4D41 
 12557              	.LASF184:
 12558 0250 5F5F4445 		.ascii	"__DEC128_MAX__ 9.999999999999999999999999999999999E"
 12558      43313238 
 12558      5F4D4158 
 12558      5F5F2039 
ARM GAS  /tmp/cc7TFFKb.s 			page 253


 12558      2E393939 
 12559 0283 36313434 		.ascii	"6144DL\000"
 12559      444C00
 12560              	.LASF901:
 12561 028a 4932435F 		.ascii	"I2C_I2STAT_M_RX_START ((0x08))\000"
 12561      49325354 
 12561      41545F4D 
 12561      5F52585F 
 12561      53544152 
 12562              	.LASF80:
 12563 02a9 5F5F494E 		.ascii	"__INTMAX_C(c) c ## LL\000"
 12563      544D4158 
 12563      5F432863 
 12563      29206320 
 12563      2323204C 
 12564              	.LASF503:
 12565 02bf 5343425F 		.ascii	"SCB_ICSR_PENDSTCLR_Msk (1UL << SCB_ICSR_PENDSTCLR_P"
 12565      49435352 
 12565      5F50454E 
 12565      44535443 
 12565      4C525F4D 
 12566 02f2 6F732900 		.ascii	"os)\000"
 12567              	.LASF245:
 12568 02f6 5F5F5541 		.ascii	"__UACCUM_MAX__ 0XFFFFFFFFP-16UK\000"
 12568      4343554D 
 12568      5F4D4158 
 12568      5F5F2030 
 12568      58464646 
 12569              	.LASF172:
 12570 0316 5F5F4445 		.ascii	"__DEC32_SUBNORMAL_MIN__ 0.000001E-95DF\000"
 12570      4333325F 
 12570      5355424E 
 12570      4F524D41 
 12570      4C5F4D49 
 12571              	.LASF276:
 12572 033d 5F5F5451 		.ascii	"__TQ_IBIT__ 0\000"
 12572      5F494249 
 12572      545F5F20 
 12572      3000
 12573              	.LASF1159:
 12574 034b 5353505F 		.ascii	"SSP_BITS_12\000"
 12574      42495453 
 12574      5F313200 
 12575              	.LASF430:
 12576 0357 57494E54 		.ascii	"WINT_MIN __WINT_MIN__\000"
 12576      5F4D494E 
 12576      205F5F57 
 12576      494E545F 
 12576      4D494E5F 
 12577              	.LASF746:
 12578 036d 55415254 		.ascii	"UART_LCR_BREAK_EN (1 << 6)\000"
 12578      5F4C4352 
 12578      5F425245 
 12578      414B5F45 
 12578      4E202831 
 12579              	.LASF1192:
 12580 0388 52617749 		.ascii	"RawInt\000"
ARM GAS  /tmp/cc7TFFKb.s 			page 254


 12580      6E7400
 12581              	.LASF11:
 12582 038f 5F5F4154 		.ascii	"__ATOMIC_CONSUME 1\000"
 12582      4F4D4943 
 12582      5F434F4E 
 12582      53554D45 
 12582      203100
 12583              	.LASF209:
 12584 03a2 5F5F4C46 		.ascii	"__LFRACT_MIN__ (-0.5LR-0.5LR)\000"
 12584      52414354 
 12584      5F4D494E 
 12584      5F5F2028 
 12584      2D302E35 
 12585              	.LASF664:
 12586 03c0 4D445F41 		.ascii	"MD_ADMODE (0x0 << 7)\000"
 12586      444D4F44 
 12586      45202830 
 12586      7830203C 
 12586      3C203729 
 12587              	.LASF973:
 12588 03d5 53444F5F 		.ascii	"SDO_ABORT_TYPEMISMATCH 0x06070010UL\000"
 12588      41424F52 
 12588      545F5459 
 12588      50454D49 
 12588      534D4154 
 12589              	.LASF489:
 12590 03f9 5343425F 		.ascii	"SCB_CPUID_ARCHITECTURE_Msk (0xFUL << SCB_CPUID_ARCH"
 12590      43505549 
 12590      445F4152 
 12590      43484954 
 12590      45435455 
 12591 042c 49544543 		.ascii	"ITECTURE_Pos)\000"
 12591      54555245 
 12591      5F506F73 
 12591      2900
 12592              	.LASF239:
 12593 043a 5F5F4143 		.ascii	"__ACCUM_MIN__ (-0X1P15K-0X1P15K)\000"
 12593      43554D5F 
 12593      4D494E5F 
 12593      5F20282D 
 12593      30583150 
 12594              	.LASF768:
 12595 045b 55415254 		.ascii	"UART_MSR_LO2HI_RI (1 << 2)\000"
 12595      5F4D5352 
 12595      5F4C4F32 
 12595      48495F52 
 12595      49202831 
 12596              	.LASF753:
 12597 0476 55415254 		.ascii	"UART_MCR_AUTO_CTS_EN (1 << 7)\000"
 12597      5F4D4352 
 12597      5F415554 
 12597      4F5F4354 
 12597      535F454E 
 12598              	.LASF139:
 12599 0494 5F5F4442 		.ascii	"__DBL_DIG__ 15\000"
 12599      4C5F4449 
 12599      475F5F20 
ARM GAS  /tmp/cc7TFFKb.s 			page 255


 12599      313500
 12600              	.LASF966:
 12601 04a3 53444F5F 		.ascii	"SDO_ABORT_UNKNOWN_COMMAND 0x05040001UL\000"
 12601      41424F52 
 12601      545F554E 
 12601      4B4E4F57 
 12601      4E5F434F 
 12602              	.LASF506:
 12603 04ca 5343425F 		.ascii	"SCB_ICSR_ISRPENDING_Pos 22\000"
 12603      49435352 
 12603      5F495352 
 12603      50454E44 
 12603      494E475F 
 12604              	.LASF1213:
 12605 04e5 43686970 		.ascii	"Chip_SSP_Disable\000"
 12605      5F535350 
 12605      5F446973 
 12605      61626C65 
 12605      00
 12606              	.LASF16:
 12607 04f6 5F5F5349 		.ascii	"__SIZEOF_LONG_LONG__ 8\000"
 12607      5A454F46 
 12607      5F4C4F4E 
 12607      475F4C4F 
 12607      4E475F5F 
 12608              	.LASF143:
 12609 050d 5F5F4442 		.ascii	"__DBL_MAX_10_EXP__ 308\000"
 12609      4C5F4D41 
 12609      585F3130 
 12609      5F455850 
 12609      5F5F2033 
 12610              	.LASF780:
 12611 0524 55415254 		.ascii	"UART_ACR_BITMASK (0x307)\000"
 12611      5F414352 
 12611      5F424954 
 12611      4D41534B 
 12611      20283078 
 12612              	.LASF749:
 12613 053d 55415254 		.ascii	"UART_MCR_DTR_CTRL (1 << 0)\000"
 12613      5F4D4352 
 12613      5F445452 
 12613      5F435452 
 12613      4C202831 
 12614              	.LASF199:
 12615 0558 5F5F4652 		.ascii	"__FRACT_MIN__ (-0.5R-0.5R)\000"
 12615      4143545F 
 12615      4D494E5F 
 12615      5F20282D 
 12615      302E3552 
 12616              	.LASF265:
 12617 0573 5F5F554C 		.ascii	"__ULLACCUM_MAX__ 0XFFFFFFFFFFFFFFFFP-32ULLK\000"
 12617      4C414343 
 12617      554D5F4D 
 12617      41585F5F 
 12617      20305846 
 12618              	.LASF537:
 12619 059f 53797354 		.ascii	"SysTick_CTRL_CLKSOURCE_Msk (1UL << SysTick_CTRL_CLK"
ARM GAS  /tmp/cc7TFFKb.s 			page 256


 12619      69636B5F 
 12619      4354524C 
 12619      5F434C4B 
 12619      534F5552 
 12620 05d2 534F5552 		.ascii	"SOURCE_Pos)\000"
 12620      43455F50 
 12620      6F732900 
 12621              	.LASF1144:
 12622 05de 5353505F 		.ascii	"SSP_CLOCK_MODE2\000"
 12622      434C4F43 
 12622      4B5F4D4F 
 12622      44453200 
 12623              	.LASF169:
 12624 05ee 5F5F4445 		.ascii	"__DEC32_MIN__ 1E-95DF\000"
 12624      4333325F 
 12624      4D494E5F 
 12624      5F203145 
 12624      2D393544 
 12625              	.LASF666:
 12626 0604 4D445F44 		.ascii	"MD_DISFIL (0x0 << 8)\000"
 12626      49534649 
 12626      4C202830 
 12626      7830203C 
 12626      3C203829 
 12627              	.LASF336:
 12628 0619 5F5F4152 		.ascii	"__ARM_NEON_FP 4\000"
 12628      4D5F4E45 
 12628      4F4E5F46 
 12628      50203400 
 12629              	.LASF568:
 12630 0629 4C50435F 		.ascii	"LPC_TIMER32_1_BASE 0x40018000\000"
 12630      54494D45 
 12630      5233325F 
 12630      315F4241 
 12630      53452030 
 12631              	.LASF272:
 12632 0647 5F5F5351 		.ascii	"__SQ_IBIT__ 0\000"
 12632      5F494249 
 12632      545F5F20 
 12632      3000
 12633              	.LASF26:
 12634 0655 5F5F4F52 		.ascii	"__ORDER_PDP_ENDIAN__ 3412\000"
 12634      4445525F 
 12634      5044505F 
 12634      454E4449 
 12634      414E5F5F 
 12635              	.LASF1113:
 12636 066f 43484950 		.ascii	"CHIP_SYSCTL_CLOCK_T\000"
 12636      5F535953 
 12636      43544C5F 
 12636      434C4F43 
 12636      4B5F5400 
 12637              	.LASF175:
 12638 0683 5F5F4445 		.ascii	"__DEC64_MAX_EXP__ 385\000"
 12638      4336345F 
 12638      4D41585F 
 12638      4558505F 
ARM GAS  /tmp/cc7TFFKb.s 			page 257


 12638      5F203338 
 12639              	.LASF1059:
 12640 0699 424F4443 		.ascii	"BODCTRL\000"
 12640      54524C00 
 12641              	.LASF531:
 12642 06a1 5343425F 		.ascii	"SCB_CCR_UNALIGN_TRP_Msk (1UL << SCB_CCR_UNALIGN_TRP"
 12642      4343525F 
 12642      554E414C 
 12642      49474E5F 
 12642      5452505F 
 12643 06d4 5F506F73 		.ascii	"_Pos)\000"
 12643      2900
 12644              	.LASF135:
 12645 06da 5F5F464C 		.ascii	"__FLT_HAS_DENORM__ 1\000"
 12645      545F4841 
 12645      535F4445 
 12645      4E4F524D 
 12645      5F5F2031 
 12646              	.LASF39:
 12647 06ef 5F5F494E 		.ascii	"__INT8_TYPE__ signed char\000"
 12647      54385F54 
 12647      5950455F 
 12647      5F207369 
 12647      676E6564 
 12648              	.LASF325:
 12649 0709 5F5F4152 		.ascii	"__ARM_ARCH_PROFILE 77\000"
 12649      4D5F4152 
 12649      43485F50 
 12649      524F4649 
 12649      4C452037 
 12650              	.LASF803:
 12651 071f 55415254 		.ascii	"UART_TER2_TXEN (1 << 0)\000"
 12651      5F544552 
 12651      325F5458 
 12651      454E2028 
 12651      31203C3C 
 12652              	.LASF1102:
 12653 0737 53595343 		.ascii	"SYSCTL_CLOCK_CT16B1\000"
 12653      544C5F43 
 12653      4C4F434B 
 12653      5F435431 
 12653      36423100 
 12654              	.LASF820:
 12655 074b 5353505F 		.ascii	"SSP_CR0_FRF_SPI ((uint32_t) (0 << 4))\000"
 12655      4352305F 
 12655      4652465F 
 12655      53504920 
 12655      28287569 
 12656              	.LASF763:
 12657 0771 55415254 		.ascii	"UART_LSR_TXFE (1 << 8)\000"
 12657      5F4C5352 
 12657      5F545846 
 12657      45202831 
 12657      203C3C20 
 12658              	.LASF154:
 12659 0788 5F5F4C44 		.ascii	"__LDBL_MIN_EXP__ (-1021)\000"
 12659      424C5F4D 
ARM GAS  /tmp/cc7TFFKb.s 			page 258


 12659      494E5F45 
 12659      58505F5F 
 12659      20282D31 
 12660              	.LASF152:
 12661 07a1 5F5F4C44 		.ascii	"__LDBL_MANT_DIG__ 53\000"
 12661      424C5F4D 
 12661      414E545F 
 12661      4449475F 
 12661      5F203533 
 12662              	.LASF410:
 12663 07b6 494E545F 		.ascii	"INT_FAST16_MIN (-__INT_FAST16_MAX__ - 1)\000"
 12663      46415354 
 12663      31365F4D 
 12663      494E2028 
 12663      2D5F5F49 
 12664              	.LASF323:
 12665 07df 5F5F4152 		.ascii	"__ARM_SIZEOF_MINIMAL_ENUM 1\000"
 12665      4D5F5349 
 12665      5A454F46 
 12665      5F4D494E 
 12665      494D414C 
 12666              	.LASF102:
 12667 07fb 5F5F5549 		.ascii	"__UINT8_C(c) c\000"
 12667      4E54385F 
 12667      43286329 
 12667      206300
 12668              	.LASF40:
 12669 080a 5F5F494E 		.ascii	"__INT16_TYPE__ short int\000"
 12669      5431365F 
 12669      54595045 
 12669      5F5F2073 
 12669      686F7274 
 12670              	.LASF652:
 12671 0823 494F434F 		.ascii	"IOCON_DIGMODE_EN (0x1 << 7)\000"
 12671      4E5F4449 
 12671      474D4F44 
 12671      455F454E 
 12671      20283078 
 12672              	.LASF847:
 12673 083f 434F4D50 		.ascii	"COMPILE_TIME_ASSERT(pred) switch(0){case 0:case pre"
 12673      494C455F 
 12673      54494D45 
 12673      5F415353 
 12673      45525428 
 12674 0872 643A3B7D 		.ascii	"d:;}\000"
 12674      00
 12675              	.LASF250:
 12676 0877 5F5F4C41 		.ascii	"__LACCUM_MAX__ 0X7FFFFFFFFFFFFFFFP-31LK\000"
 12676      4343554D 
 12676      5F4D4158 
 12676      5F5F2030 
 12676      58374646 
 12677              	.LASF567:
 12678 089f 4C50435F 		.ascii	"LPC_TIMER32_0_BASE 0x40014000\000"
 12678      54494D45 
 12678      5233325F 
 12678      305F4241 
ARM GAS  /tmp/cc7TFFKb.s 			page 259


 12678      53452030 
 12679              	.LASF781:
 12680 08bd 55415254 		.ascii	"UART_RS485CTRL_NMM_EN (1 << 0)\000"
 12680      5F525334 
 12680      38354354 
 12680      524C5F4E 
 12680      4D4D5F45 
 12681              	.LASF448:
 12682 08dc 50415241 		.ascii	"PARAM_FUNCTIONALSTATE(State) ((State == DISABLE) ||"
 12682      4D5F4655 
 12682      4E435449 
 12682      4F4E414C 
 12682      53544154 
 12683 090f 20285374 		.ascii	" (State == ENABLE))\000"
 12683      61746520 
 12683      3D3D2045 
 12683      4E41424C 
 12683      45292900 
 12684              	.LASF1146:
 12685 0923 43484950 		.ascii	"CHIP_SSP_FRAME_FORMAT\000"
 12685      5F535350 
 12685      5F465241 
 12685      4D455F46 
 12685      4F524D41 
 12686              	.LASF871:
 12687 0939 5245545F 		.ascii	"RET_SLAVE_RX 5\000"
 12687      534C4156 
 12687      455F5258 
 12687      203500
 12688              	.LASF824:
 12689 0948 5353505F 		.ascii	"SSP_CR0_CPOL_HI ((uint32_t) (1 << 6))\000"
 12689      4352305F 
 12689      43504F4C 
 12689      5F484920 
 12689      28287569 
 12690              	.LASF1084:
 12691 096e 52455345 		.ascii	"RESET_CAN0\000"
 12691      545F4341 
 12691      4E3000
 12692              	.LASF417:
 12693 0979 494E545F 		.ascii	"INT_FAST64_MAX __INT_FAST64_MAX__\000"
 12693      46415354 
 12693      36345F4D 
 12693      4158205F 
 12693      5F494E54 
 12694              	.LASF638:
 12695 099b 494F434F 		.ascii	"IOCON_FUNC1 0x1\000"
 12695      4E5F4655 
 12695      4E433120 
 12695      30783100 
 12696              	.LASF1223:
 12697 09ab 72646174 		.ascii	"rdata16\000"
 12697      61313600 
 12698              	.LASF713:
 12699 09b3 55415254 		.ascii	"UART_IIR_ABEO_INT (1 << 8)\000"
 12699      5F494952 
 12699      5F414245 
ARM GAS  /tmp/cc7TFFKb.s 			page 260


 12699      4F5F494E 
 12699      54202831 
 12700              	.LASF801:
 12701 09ce 55415254 		.ascii	"UART_FDR_BITMASK (0xFF)\000"
 12701      5F464452 
 12701      5F424954 
 12701      4D41534B 
 12701      20283078 
 12702              	.LASF1:
 12703 09e6 5F5F5354 		.ascii	"__STDC_HOSTED__ 1\000"
 12703      44435F48 
 12703      4F535445 
 12703      445F5F20 
 12703      3100
 12704              	.LASF222:
 12705 09f8 5F5F554C 		.ascii	"__ULLFRACT_FBIT__ 64\000"
 12705      4C465241 
 12705      43545F46 
 12705      4249545F 
 12705      5F203634 
 12706              	.LASF710:
 12707 0a0d 55415254 		.ascii	"UART2_IER_BITMASK (0x38F)\000"
 12707      325F4945 
 12707      525F4249 
 12707      544D4153 
 12707      4B202830 
 12708              	.LASF1047:
 12709 0a27 55534243 		.ascii	"USBCLKDIV\000"
 12709      4C4B4449 
 12709      5600
 12710              	.LASF58:
 12711 0a31 5F5F494E 		.ascii	"__INT_FAST64_TYPE__ long long int\000"
 12711      545F4641 
 12711      53543634 
 12711      5F545950 
 12711      455F5F20 
 12712              	.LASF500:
 12713 0a53 5343425F 		.ascii	"SCB_ICSR_PENDSTSET_Pos 26\000"
 12713      49435352 
 12713      5F50454E 
 12713      44535453 
 12713      45545F50 
 12714              	.LASF720:
 12715 0a6d 55415254 		.ascii	"UART_IIR_INTID_THRE (1 << 1)\000"
 12715      5F494952 
 12715      5F494E54 
 12715      49445F54 
 12715      48524520 
 12716              	.LASF631:
 12717 0a8a 53595343 		.ascii	"SYSCTL_POWERDOWN_SYSOSC_PD (1 << 5)\000"
 12717      544C5F50 
 12717      4F574552 
 12717      444F574E 
 12717      5F535953 
 12718              	.LASF988:
 12719 0aae 43414E5F 		.ascii	"CAN_SDOREQ_HANDLED_NOSEND 2\000"
 12719      53444F52 
ARM GAS  /tmp/cc7TFFKb.s 			page 261


 12719      45515F48 
 12719      414E444C 
 12719      45445F4E 
 12720              	.LASF579:
 12721 0aca 4C50435F 		.ascii	"LPC_SSP1_BASE 0x40058000\000"
 12721      53535031 
 12721      5F424153 
 12721      45203078 
 12721      34303035 
 12722              	.LASF876:
 12723 0ae3 4932435F 		.ascii	"I2C_I2CONSET_SI ((0x08))\000"
 12723      4932434F 
 12723      4E534554 
 12723      5F534920 
 12723      28283078 
 12724              	.LASF754:
 12725 0afc 55415254 		.ascii	"UART_MCR_BITMASK (0xD3)\000"
 12725      5F4D4352 
 12725      5F424954 
 12725      4D41534B 
 12725      20283078 
 12726              	.LASF82:
 12727 0b14 5F5F5549 		.ascii	"__UINTMAX_C(c) c ## ULL\000"
 12727      4E544D41 
 12727      585F4328 
 12727      63292063 
 12727      20232320 
 12728              	.LASF195:
 12729 0b2c 5F5F5553 		.ascii	"__USFRACT_MAX__ 0XFFP-8UHR\000"
 12729      46524143 
 12729      545F4D41 
 12729      585F5F20 
 12729      30584646 
 12730              	.LASF536:
 12731 0b47 53797354 		.ascii	"SysTick_CTRL_CLKSOURCE_Pos 2\000"
 12731      69636B5F 
 12731      4354524C 
 12731      5F434C4B 
 12731      534F5552 
 12732              	.LASF1116:
 12733 0b64 4C50435F 		.ascii	"LPC_SSP_T\000"
 12733      5353505F 
 12733      5400
 12734              	.LASF658:
 12735 0b6e 4D445F50 		.ascii	"MD_PLN (0x0 << 3)\000"
 12735      4C4E2028 
 12735      30783020 
 12735      3C3C2033 
 12735      2900
 12736              	.LASF721:
 12737 0b80 55415254 		.ascii	"UART_IIR_INTID_MODEM (0 << 1)\000"
 12737      5F494952 
 12737      5F494E54 
 12737      49445F4D 
 12737      4F44454D 
 12738              	.LASF479:
 12739 0b9e 5F5F434F 		.ascii	"__CORE_CMFUNC_H \000"
ARM GAS  /tmp/cc7TFFKb.s 			page 262


 12739      52455F43 
 12739      4D46554E 
 12739      435F4820 
 12739      00
 12740              	.LASF514:
 12741 0baf 5343425F 		.ascii	"SCB_AIRCR_VECTKEYSTAT_Pos 16\000"
 12741      41495243 
 12741      525F5645 
 12741      43544B45 
 12741      59535441 
 12742              	.LASF728:
 12743 0bcc 55415254 		.ascii	"UART_FCR_TRG_LEV0 (0)\000"
 12743      5F464352 
 12743      5F545247 
 12743      5F4C4556 
 12743      30202830 
 12744              	.LASF881:
 12745 0be2 4932435F 		.ascii	"I2C_I2CONCLR_SIC ((1 << 3))\000"
 12745      4932434F 
 12745      4E434C52 
 12745      5F534943 
 12745      20282831 
 12746              	.LASF397:
 12747 0bfe 55494E54 		.ascii	"UINT32_MAX __UINT32_MAX__\000"
 12747      33325F4D 
 12747      4158205F 
 12747      5F55494E 
 12747      5433325F 
 12748              	.LASF844:
 12749 0c18 5353505F 		.ascii	"SSP_MASTER_MODE SSP_CR1_MASTER_EN\000"
 12749      4D415354 
 12749      45525F4D 
 12749      4F444520 
 12749      5353505F 
 12750              	.LASF887:
 12751 0c3a 4932435F 		.ascii	"I2C_CON_STO (1UL << 4)\000"
 12751      434F4E5F 
 12751      53544F20 
 12751      2831554C 
 12751      203C3C20 
 12752              	.LASF883:
 12753 0c51 4932435F 		.ascii	"I2C_I2CONCLR_STAC ((1 << 5))\000"
 12753      4932434F 
 12753      4E434C52 
 12753      5F535441 
 12753      43202828 
 12754              	.LASF212:
 12755 0c6e 5F5F554C 		.ascii	"__ULFRACT_FBIT__ 32\000"
 12755      46524143 
 12755      545F4642 
 12755      49545F5F 
 12755      20333200 
 12756              	.LASF913:
 12757 0c82 4932435F 		.ascii	"I2C_I2STAT_S_RX_PRE_SLA_DAT_NACK ((0x88))\000"
 12757      49325354 
 12757      41545F53 
 12757      5F52585F 
ARM GAS  /tmp/cc7TFFKb.s 			page 263


 12757      5052455F 
 12758              	.LASF906:
 12759 0cac 4932435F 		.ascii	"I2C_I2STAT_M_RX_DAT_ACK ((0x50))\000"
 12759      49325354 
 12759      41545F4D 
 12759      5F52585F 
 12759      4441545F 
 12760              	.LASF1169:
 12761 0ccd 72785F64 		.ascii	"rx_data\000"
 12761      61746100 
 12762              	.LASF378:
 12763 0cd5 5F5F696E 		.ascii	"__int_fast32_t_defined 1\000"
 12763      745F6661 
 12763      73743332 
 12763      5F745F64 
 12763      6566696E 
 12764              	.LASF967:
 12765 0cee 53444F5F 		.ascii	"SDO_ABORT_UNSUPPORTED 0x06010000UL\000"
 12765      41424F52 
 12765      545F554E 
 12765      53555050 
 12765      4F525445 
 12766              	.LASF405:
 12767 0d11 494E545F 		.ascii	"INT_LEAST64_MAX __INT_LEAST64_MAX__\000"
 12767      4C454153 
 12767      5436345F 
 12767      4D415820 
 12767      5F5F494E 
 12768              	.LASF764:
 12769 0d35 55415254 		.ascii	"UART_LSR_BITMASK (0xFF)\000"
 12769      5F4C5352 
 12769      5F424954 
 12769      4D41534B 
 12769      20283078 
 12770              	.LASF789:
 12771 0d4d 55415254 		.ascii	"UART_ICR_IRDAINV (1 << 1)\000"
 12771      5F494352 
 12771      5F495244 
 12771      41494E56 
 12771      20283120 
 12772              	.LASF191:
 12773 0d67 5F5F5346 		.ascii	"__SFRACT_EPSILON__ 0x1P-7HR\000"
 12773      52414354 
 12773      5F455053 
 12773      494C4F4E 
 12773      5F5F2030 
 12774              	.LASF98:
 12775 0d83 5F5F494E 		.ascii	"__INT32_C(c) c ## L\000"
 12775      5433325F 
 12775      43286329 
 12775      20632023 
 12775      23204C00 
 12776              	.LASF281:
 12777 0d97 5F5F5553 		.ascii	"__USQ_FBIT__ 32\000"
 12777      515F4642 
 12777      49545F5F 
 12777      20333200 
ARM GAS  /tmp/cc7TFFKb.s 			page 264


 12778              	.LASF25:
 12779 0da7 5F5F4F52 		.ascii	"__ORDER_BIG_ENDIAN__ 4321\000"
 12779      4445525F 
 12779      4249475F 
 12779      454E4449 
 12779      414E5F5F 
 12780              	.LASF1103:
 12781 0dc1 53595343 		.ascii	"SYSCTL_CLOCK_CT32B0\000"
 12781      544C5F43 
 12781      4C4F434B 
 12781      5F435433 
 12781      32423000 
 12782              	.LASF1104:
 12783 0dd5 53595343 		.ascii	"SYSCTL_CLOCK_CT32B1\000"
 12783      544C5F43 
 12783      4C4F434B 
 12783      5F435433 
 12783      32423100 
 12784              	.LASF271:
 12785 0de9 5F5F5351 		.ascii	"__SQ_FBIT__ 31\000"
 12785      5F464249 
 12785      545F5F20 
 12785      333100
 12786              	.LASF870:
 12787 0df8 5245545F 		.ascii	"RET_SLAVE_TX 6\000"
 12787      534C4156 
 12787      455F5458 
 12787      203600
 12788              	.LASF301:
 12789 0e07 5F5F5554 		.ascii	"__UTA_FBIT__ 64\000"
 12789      415F4642 
 12789      49545F5F 
 12789      20363400 
 12790              	.LASF740:
 12791 0e17 55415254 		.ascii	"UART_LCR_PARITY_EN (1 << 3)\000"
 12791      5F4C4352 
 12791      5F504152 
 12791      4954595F 
 12791      454E2028 
 12792              	.LASF1085:
 12793 0e33 52455345 		.ascii	"RESET_UART0\000"
 12793      545F5541 
 12793      52543000 
 12794              	.LASF727:
 12795 0e3f 55415254 		.ascii	"UART_TX_FIFO_SIZE (16)\000"
 12795      5F54585F 
 12795      4649464F 
 12795      5F53495A 
 12795      45202831 
 12796              	.LASF279:
 12797 0e56 5F5F5548 		.ascii	"__UHQ_FBIT__ 16\000"
 12797      515F4642 
 12797      49545F5F 
 12797      20313600 
 12798              	.LASF782:
 12799 0e66 55415254 		.ascii	"UART_RS485CTRL_RX_DIS (1 << 1)\000"
 12799      5F525334 
ARM GAS  /tmp/cc7TFFKb.s 			page 265


 12799      38354354 
 12799      524C5F52 
 12799      585F4449 
 12800              	.LASF1120:
 12801 0e85 5353505F 		.ascii	"SSP_STAT_TNF\000"
 12801      53544154 
 12801      5F544E46 
 12801      00
 12802              	.LASF879:
 12803 0e92 4932435F 		.ascii	"I2C_I2CONSET_I2EN ((0x40))\000"
 12803      4932434F 
 12803      4E534554 
 12803      5F493245 
 12803      4E202828 
 12804              	.LASF264:
 12805 0ead 5F5F554C 		.ascii	"__ULLACCUM_MIN__ 0.0ULLK\000"
 12805      4C414343 
 12805      554D5F4D 
 12805      494E5F5F 
 12805      20302E30 
 12806              	.LASF792:
 12807 0ec6 55415254 		.ascii	"UART_ICR_BITMASK (0x3F)\000"
 12807      5F494352 
 12807      5F424954 
 12807      4D41534B 
 12807      20283078 
 12808              	.LASF68:
 12809 0ede 5F5F5343 		.ascii	"__SCHAR_MAX__ 127\000"
 12809      4841525F 
 12809      4D41585F 
 12809      5F203132 
 12809      3700
 12810              	.LASF171:
 12811 0ef0 5F5F4445 		.ascii	"__DEC32_EPSILON__ 1E-6DF\000"
 12811      4333325F 
 12811      45505349 
 12811      4C4F4E5F 
 12811      5F203145 
 12812              	.LASF955:
 12813 0f09 43414E5F 		.ascii	"CAN_ERROR_FORM 0x00000010UL\000"
 12813      4552524F 
 12813      525F464F 
 12813      524D2030 
 12813      78303030 
 12814              	.LASF1109:
 12815 0f25 53595343 		.ascii	"SYSCTL_CLOCK_WDT\000"
 12815      544C5F43 
 12815      4C4F434B 
 12815      5F574454 
 12815      00
 12816              	.LASF529:
 12817 0f36 5343425F 		.ascii	"SCB_CCR_STKALIGN_Msk (1UL << SCB_CCR_STKALIGN_Pos)\000"
 12817      4343525F 
 12817      53544B41 
 12817      4C49474E 
 12817      5F4D736B 
 12818              	.LASF474:
ARM GAS  /tmp/cc7TFFKb.s 			page 266


 12819 0f69 5F5F4153 		.ascii	"__ASM __asm\000"
 12819      4D205F5F 
 12819      61736D00 
 12820              	.LASF997:
 12821 0f75 5F5F7569 		.ascii	"__uint8_t\000"
 12821      6E74385F 
 12821      7400
 12822              	.LASF802:
 12823 0f7f 55415254 		.ascii	"UART_TER1_TXEN (1 << 7)\000"
 12823      5F544552 
 12823      315F5458 
 12823      454E2028 
 12823      31203C3C 
 12824              	.LASF621:
 12825 0f97 53595343 		.ascii	"SYSCTL_SLPWAKE_BOD_PD (1 << 3)\000"
 12825      544C5F53 
 12825      4C505741 
 12825      4B455F42 
 12825      4F445F50 
 12826              	.LASF1177:
 12827 0fb6 70535350 		.ascii	"pSSP\000"
 12827      00
 12828              	.LASF86:
 12829 0fbb 5F5F494E 		.ascii	"__INT16_MAX__ 32767\000"
 12829      5431365F 
 12829      4D41585F 
 12829      5F203332 
 12829      37363700 
 12830              	.LASF1080:
 12831 0fcf 4C50435F 		.ascii	"LPC_SYSCTL_T\000"
 12831      53595343 
 12831      544C5F54 
 12831      00
 12832              	.LASF684:
 12833 0fdc 54494D45 		.ascii	"TIMER_ENABLE ((uint32_t) (1 << 0))\000"
 12833      525F454E 
 12833      41424C45 
 12833      20282875 
 12833      696E7433 
 12834              	.LASF1229:
 12835 0fff 43686970 		.ascii	"Chip_SSP_SetBitRate\000"
 12835      5F535350 
 12835      5F536574 
 12835      42697452 
 12835      61746500 
 12836              	.LASF912:
 12837 1013 4932435F 		.ascii	"I2C_I2STAT_S_RX_PRE_SLA_DAT_ACK ((0x80))\000"
 12837      49325354 
 12837      41545F53 
 12837      5F52585F 
 12837      5052455F 
 12838              	.LASF630:
 12839 103c 53595343 		.ascii	"SYSCTL_POWERDOWN_ADC_PD (1 << 4)\000"
 12839      544C5F50 
 12839      4F574552 
 12839      444F574E 
 12839      5F414443 
ARM GAS  /tmp/cc7TFFKb.s 			page 267


 12840              	.LASF653:
 12841 105d 494F434F 		.ascii	"IOCON_SFI2C_EN (0x0 << 8)\000"
 12841      4E5F5346 
 12841      4932435F 
 12841      454E2028 
 12841      30783020 
 12842              	.LASF79:
 12843 1077 5F5F494E 		.ascii	"__INTMAX_MAX__ 9223372036854775807LL\000"
 12843      544D4158 
 12843      5F4D4158 
 12843      5F5F2039 
 12843      32323333 
 12844              	.LASF811:
 12845 109c 5F5F5757 		.ascii	"__WWDT_11XX_H_ \000"
 12845      44545F31 
 12845      3158585F 
 12845      485F2000 
 12846              	.LASF907:
 12847 10ac 4932435F 		.ascii	"I2C_I2STAT_M_RX_DAT_NACK ((0x58))\000"
 12847      49325354 
 12847      41545F4D 
 12847      5F52585F 
 12847      4441545F 
 12848              	.LASF404:
 12849 10ce 494E545F 		.ascii	"INT_LEAST64_MIN (-__INT_LEAST64_MAX__ - 1)\000"
 12849      4C454153 
 12849      5436345F 
 12849      4D494E20 
 12849      282D5F5F 
 12850              	.LASF813:
 12851 10f9 57574454 		.ascii	"WWDT_WDMOD_WDEN ((uint32_t) (1 << 0))\000"
 12851      5F57444D 
 12851      4F445F57 
 12851      44454E20 
 12851      28287569 
 12852              	.LASF856:
 12853 111f 4144435F 		.ascii	"ADC_CR_BURST ((1UL << 16))\000"
 12853      43525F42 
 12853      55525354 
 12853      20282831 
 12853      554C203C 
 12854              	.LASF729:
 12855 113a 55415254 		.ascii	"UART_FCR_TRG_LEV1 (1 << 6)\000"
 12855      5F464352 
 12855      5F545247 
 12855      5F4C4556 
 12855      31202831 
 12856              	.LASF991:
 12857 1155 43414E5F 		.ascii	"CAN_SDOSEG_CLOSE 2\000"
 12857      53444F53 
 12857      45475F43 
 12857      4C4F5345 
 12857      203200
 12858              	.LASF752:
 12859 1168 55415254 		.ascii	"UART_MCR_AUTO_RTS_EN (1 << 6)\000"
 12859      5F4D4352 
 12859      5F415554 
ARM GAS  /tmp/cc7TFFKb.s 			page 268


 12859      4F5F5254 
 12859      535F454E 
 12860              	.LASF1064:
 12861 1186 50494E54 		.ascii	"PINTSEL\000"
 12861      53454C00 
 12862              	.LASF120:
 12863 118e 5F5F4743 		.ascii	"__GCC_IEC_559_COMPLEX 0\000"
 12863      435F4945 
 12863      435F3535 
 12863      395F434F 
 12863      4D504C45 
 12864              	.LASF170:
 12865 11a6 5F5F4445 		.ascii	"__DEC32_MAX__ 9.999999E96DF\000"
 12865      4333325F 
 12865      4D41585F 
 12865      5F20392E 
 12865      39393939 
 12866              	.LASF165:
 12867 11c2 5F5F4C44 		.ascii	"__LDBL_HAS_QUIET_NAN__ 1\000"
 12867      424C5F48 
 12867      41535F51 
 12867      55494554 
 12867      5F4E414E 
 12868              	.LASF828:
 12869 11db 5353505F 		.ascii	"SSP_CR0_BITMASK ((uint32_t) (0xFFFF))\000"
 12869      4352305F 
 12869      4249544D 
 12869      41534B20 
 12869      28287569 
 12870              	.LASF428:
 12871 1201 57434841 		.ascii	"WCHAR_MAX __WCHAR_MAX__\000"
 12871      525F4D41 
 12871      58205F5F 
 12871      57434841 
 12871      525F4D41 
 12872              	.LASF644:
 12873 1219 494F434F 		.ascii	"IOCON_FUNC7 0x7\000"
 12873      4E5F4655 
 12873      4E433720 
 12873      30783700 
 12874              	.LASF413:
 12875 1229 494E545F 		.ascii	"INT_FAST32_MIN (-__INT_FAST32_MAX__ - 1)\000"
 12875      46415354 
 12875      33325F4D 
 12875      494E2028 
 12875      2D5F5F49 
 12876              	.LASF538:
 12877 1252 53797354 		.ascii	"SysTick_CTRL_TICKINT_Pos 1\000"
 12877      69636B5F 
 12877      4354524C 
 12877      5F544943 
 12877      4B494E54 
 12878              	.LASF51:
 12879 126d 5F5F5549 		.ascii	"__UINT_LEAST8_TYPE__ unsigned char\000"
 12879      4E545F4C 
 12879      45415354 
 12879      385F5459 
ARM GAS  /tmp/cc7TFFKb.s 			page 269


 12879      50455F5F 
 12880              	.LASF915:
 12881 1290 4932435F 		.ascii	"I2C_I2STAT_S_RX_PRE_GENCALL_DAT_NACK ((0x98))\000"
 12881      49325354 
 12881      41545F53 
 12881      5F52585F 
 12881      5052455F 
 12882              	.LASF237:
 12883 12be 5F5F4143 		.ascii	"__ACCUM_FBIT__ 15\000"
 12883      43554D5F 
 12883      46424954 
 12883      5F5F2031 
 12883      3500
 12884              	.LASF352:
 12885 12d0 5F5F474E 		.ascii	"__GNUC_PREREQ(maj,min) ((__GNUC__ << 16) + __GNUC_M"
 12885      55435F50 
 12885      52455245 
 12885      51286D61 
 12885      6A2C6D69 
 12886 1303 494E4F52 		.ascii	"INOR__ >= ((maj) << 16) + (min))\000"
 12886      5F5F203E 
 12886      3D202828 
 12886      6D616A29 
 12886      203C3C20 
 12887              	.LASF243:
 12888 1324 5F5F5541 		.ascii	"__UACCUM_IBIT__ 16\000"
 12888      4343554D 
 12888      5F494249 
 12888      545F5F20 
 12888      313600
 12889              	.LASF1000:
 12890 1337 6C6F6E67 		.ascii	"long int\000"
 12890      20696E74 
 12890      00
 12891              	.LASF116:
 12892 1340 5F5F5549 		.ascii	"__UINT_FAST64_MAX__ 18446744073709551615ULL\000"
 12892      4E545F46 
 12892      41535436 
 12892      345F4D41 
 12892      585F5F20 
 12893              	.LASF914:
 12894 136c 4932435F 		.ascii	"I2C_I2STAT_S_RX_PRE_GENCALL_DAT_ACK ((0x90))\000"
 12894      49325354 
 12894      41545F53 
 12894      5F52585F 
 12894      5052455F 
 12895              	.LASF422:
 12896 1399 53495A45 		.ascii	"SIZE_MAX __SIZE_MAX__\000"
 12896      5F4D4158 
 12896      205F5F53 
 12896      495A455F 
 12896      4D41585F 
 12897              	.LASF1165:
 12898 13af 5353505F 		.ascii	"SSP_MODE_MASTER\000"
 12898      4D4F4445 
 12898      5F4D4153 
 12898      54455200 
ARM GAS  /tmp/cc7TFFKb.s 			page 270


 12899              	.LASF146:
 12900 13bf 5F5F4442 		.ascii	"__DBL_MIN__ ((double)2.2250738585072014e-308L)\000"
 12900      4C5F4D49 
 12900      4E5F5F20 
 12900      2828646F 
 12900      75626C65 
 12901              	.LASF642:
 12902 13ee 494F434F 		.ascii	"IOCON_FUNC5 0x5\000"
 12902      4E5F4655 
 12902      4E433520 
 12902      30783500 
 12903              	.LASF980:
 12904 13fe 4F445F45 		.ascii	"OD_EXP_RO 0x10\000"
 12904      58505F52 
 12904      4F203078 
 12904      313000
 12905              	.LASF1057:
 12906 140d 50494F50 		.ascii	"PIOPORCAP\000"
 12906      4F524341 
 12906      5000
 12907              	.LASF360:
 12908 1417 5F5F5F69 		.ascii	"___int_least16_t_defined 1\000"
 12908      6E745F6C 
 12908      65617374 
 12908      31365F74 
 12908      5F646566 
 12909              	.LASF73:
 12910 1432 5F5F5743 		.ascii	"__WCHAR_MAX__ 4294967295U\000"
 12910      4841525F 
 12910      4D41585F 
 12910      5F203432 
 12910      39343936 
 12911              	.LASF181:
 12912 144c 5F5F4445 		.ascii	"__DEC128_MIN_EXP__ (-6142)\000"
 12912      43313238 
 12912      5F4D494E 
 12912      5F455850 
 12912      5F5F2028 
 12913              	.LASF657:
 12914 1467 494F434F 		.ascii	"IOCON_OPENDRAIN_EN (0x1 << 10)\000"
 12914      4E5F4F50 
 12914      454E4452 
 12914      41494E5F 
 12914      454E2028 
 12915              	.LASF55:
 12916 1486 5F5F494E 		.ascii	"__INT_FAST8_TYPE__ int\000"
 12916      545F4641 
 12916      5354385F 
 12916      54595045 
 12916      5F5F2069 
 12917              	.LASF1030:
 12918 149d 53595350 		.ascii	"SYSPLLCLKSEL\000"
 12918      4C4C434C 
 12918      4B53454C 
 12918      00
 12919              	.LASF299:
 12920 14aa 5F5F5544 		.ascii	"__UDA_FBIT__ 32\000"
ARM GAS  /tmp/cc7TFFKb.s 			page 271


 12920      415F4642 
 12920      49545F5F 
 12920      20333200 
 12921              	.LASF1050:
 12922 14ba 57445443 		.ascii	"WDTCLKUEN\000"
 12922      4C4B5545 
 12922      4E00
 12923              	.LASF236:
 12924 14c4 5F5F5553 		.ascii	"__USACCUM_EPSILON__ 0x1P-8UHK\000"
 12924      41434355 
 12924      4D5F4550 
 12924      53494C4F 
 12924      4E5F5F20 
 12925              	.LASF1188:
 12926 14e2 43686970 		.ascii	"Chip_SSP_ClearIntPending\000"
 12926      5F535350 
 12926      5F436C65 
 12926      6172496E 
 12926      7450656E 
 12927              	.LASF29:
 12928 14fb 5F5F5349 		.ascii	"__SIZEOF_POINTER__ 4\000"
 12928      5A454F46 
 12928      5F504F49 
 12928      4E544552 
 12928      5F5F2034 
 12929              	.LASF47:
 12930 1510 5F5F494E 		.ascii	"__INT_LEAST8_TYPE__ signed char\000"
 12930      545F4C45 
 12930      41535438 
 12930      5F545950 
 12930      455F5F20 
 12931              	.LASF307:
 12932 1530 5F5F4743 		.ascii	"__GCC_ATOMIC_BOOL_LOCK_FREE 1\000"
 12932      435F4154 
 12932      4F4D4943 
 12932      5F424F4F 
 12932      4C5F4C4F 
 12933              	.LASF571:
 12934 154e 4C50435F 		.ascii	"LPC_ACMP_BASE 0x40028000\000"
 12934      41434D50 
 12934      5F424153 
 12934      45203078 
 12934      34303032 
 12935              	.LASF512:
 12936 1567 5343425F 		.ascii	"SCB_AIRCR_VECTKEY_Pos 16\000"
 12936      41495243 
 12936      525F5645 
 12936      43544B45 
 12936      595F506F 
 12937              	.LASF110:
 12938 1580 5F5F494E 		.ascii	"__INT_FAST16_MAX__ 2147483647\000"
 12938      545F4641 
 12938      53543136 
 12938      5F4D4158 
 12938      5F5F2032 
 12939              	.LASF228:
 12940 159e 5F5F5341 		.ascii	"__SACCUM_IBIT__ 8\000"
ARM GAS  /tmp/cc7TFFKb.s 			page 272


 12940      4343554D 
 12940      5F494249 
 12940      545F5F20 
 12940      3800
 12941              	.LASF337:
 12942 15b0 5F5F5448 		.ascii	"__THUMB_INTERWORK__ 1\000"
 12942      554D425F 
 12942      494E5445 
 12942      52574F52 
 12942      4B5F5F20 
 12943              	.LASF225:
 12944 15c6 5F5F554C 		.ascii	"__ULLFRACT_MAX__ 0XFFFFFFFFFFFFFFFFP-64ULLR\000"
 12944      4C465241 
 12944      43545F4D 
 12944      41585F5F 
 12944      20305846 
 12945              	.LASF945:
 12946 15f2 4932435F 		.ascii	"I2C_NAK_RECV (0x10000000 | 0x01)\000"
 12946      4E414B5F 
 12946      52454356 
 12946      20283078 
 12946      31303030 
 12947              	.LASF1208:
 12948 1613 43686970 		.ascii	"Chip_SYSCTL_PeriphReset\000"
 12948      5F535953 
 12948      43544C5F 
 12948      50657269 
 12948      70685265 
 12949              	.LASF591:
 12950 162b 4C50435F 		.ascii	"LPC_TIMER32_0 ((LPC_TIMER_T *) LPC_TIMER32_0_BASE)\000"
 12950      54494D45 
 12950      5233325F 
 12950      30202828 
 12950      4C50435F 
 12951              	.LASF409:
 12952 165e 55494E54 		.ascii	"UINT_FAST8_MAX __UINT_FAST8_MAX__\000"
 12952      5F464153 
 12952      54385F4D 
 12952      4158205F 
 12952      5F55494E 
 12953              	.LASF862:
 12954 1680 4144435F 		.ascii	"ADC_CR_START_CTOUT8 ((3UL << 24))\000"
 12954      43525F53 
 12954      54415254 
 12954      5F43544F 
 12954      55543820 
 12955              	.LASF385:
 12956 16a2 55494E54 		.ascii	"UINT8_MAX __UINT8_MAX__\000"
 12956      385F4D41 
 12956      58205F5F 
 12956      55494E54 
 12956      385F4D41 
 12957              	.LASF37:
 12958 16ba 5F5F4348 		.ascii	"__CHAR32_TYPE__ long unsigned int\000"
 12958      41523332 
 12958      5F545950 
 12958      455F5F20 
ARM GAS  /tmp/cc7TFFKb.s 			page 273


 12958      6C6F6E67 
 12959              	.LASF447:
 12960 16dc 50415241 		.ascii	"PARAM_SETSTATE(State) ((State == RESET) || (State ="
 12960      4D5F5345 
 12960      54535441 
 12960      54452853 
 12960      74617465 
 12961 170f 3D205345 		.ascii	"= SET))\000"
 12961      54292900 
 12962              	.LASF615:
 12963 1717 53595343 		.ascii	"SYSCTL_NMISRC_ENABLE ((uint32_t) 1 << 31)\000"
 12963      544C5F4E 
 12963      4D495352 
 12963      435F454E 
 12963      41424C45 
 12964              	.LASF663:
 12965 1741 4D445F49 		.ascii	"MD_INV (0x1 << 6)\000"
 12965      4E562028 
 12965      30783120 
 12965      3C3C2036 
 12965      2900
 12966              	.LASF128:
 12967 1753 5F5F464C 		.ascii	"__FLT_MAX_EXP__ 128\000"
 12967      545F4D41 
 12967      585F4558 
 12967      505F5F20 
 12967      31323800 
 12968              	.LASF15:
 12969 1767 5F5F5349 		.ascii	"__SIZEOF_LONG__ 4\000"
 12969      5A454F46 
 12969      5F4C4F4E 
 12969      475F5F20 
 12969      3400
 12970              	.LASF361:
 12971 1779 5F5F5F69 		.ascii	"___int_least32_t_defined 1\000"
 12971      6E745F6C 
 12971      65617374 
 12971      33325F74 
 12971      5F646566 
 12972              	.LASF1135:
 12973 1794 5353505F 		.ascii	"SSP_INT_CLEAR_BITMASK\000"
 12973      494E545F 
 12973      434C4541 
 12973      525F4249 
 12973      544D4153 
 12974              	.LASF1164:
 12975 17aa 43484950 		.ascii	"CHIP_SSP_MODE\000"
 12975      5F535350 
 12975      5F4D4F44 
 12975      4500
 12976              	.LASF351:
 12977 17b8 5F5F4E45 		.ascii	"__NEWLIB_MINOR__ 2\000"
 12977      574C4942 
 12977      5F4D494E 
 12977      4F525F5F 
 12977      203200
 12978              	.LASF561:
ARM GAS  /tmp/cc7TFFKb.s 			page 274


 12979 17cb 5F49505F 		.ascii	"_IP_IDX(IRQn) ( ((uint32_t)(IRQn) >> 2) )\000"
 12979      49445828 
 12979      4952516E 
 12979      29202820 
 12979      28287569 
 12980              	.LASF784:
 12981 17f5 55415254 		.ascii	"UART_RS485CTRL_SEL_DTR (1 << 3)\000"
 12981      5F525334 
 12981      38354354 
 12981      524C5F53 
 12981      454C5F44 
 12982              	.LASF19:
 12983 1815 5F5F5349 		.ascii	"__SIZEOF_DOUBLE__ 8\000"
 12983      5A454F46 
 12983      5F444F55 
 12983      424C455F 
 12983      5F203800 
 12984              	.LASF751:
 12985 1829 55415254 		.ascii	"UART_MCR_LOOPB_EN (1 << 4)\000"
 12985      5F4D4352 
 12985      5F4C4F4F 
 12985      50425F45 
 12985      4E202831 
 12986              	.LASF919:
 12987 1844 4932435F 		.ascii	"I2C_I2STAT_S_TX_DAT_ACK ((0xB8))\000"
 12987      49325354 
 12987      41545F53 
 12987      5F54585F 
 12987      4441545F 
 12988              	.LASF1130:
 12989 1865 5353505F 		.ascii	"SSP_RAW_INT_STAT_BITMASK\000"
 12989      5241575F 
 12989      494E545F 
 12989      53544154 
 12989      5F424954 
 12990              	.LASF760:
 12991 187e 55415254 		.ascii	"UART_LSR_THRE (1 << 5)\000"
 12991      5F4C5352 
 12991      5F544852 
 12991      45202831 
 12991      203C3C20 
 12992              	.LASF978:
 12993 1895 53444F5F 		.ascii	"SDO_ABORT_DEVSTAT 0x08000022UL\000"
 12993      41424F52 
 12993      545F4445 
 12993      56535441 
 12993      54203078 
 12994              	.LASF954:
 12995 18b4 43414E5F 		.ascii	"CAN_ERROR_STUF 0x00000008UL\000"
 12995      4552524F 
 12995      525F5354 
 12995      55462030 
 12995      78303030 
 12996              	.LASF722:
 12997 18d0 55415254 		.ascii	"UART_FCR_FIFO_EN (1 << 0)\000"
 12997      5F464352 
 12997      5F464946 
ARM GAS  /tmp/cc7TFFKb.s 			page 275


 12997      4F5F454E 
 12997      20283120 
 12998              	.LASF639:
 12999 18ea 494F434F 		.ascii	"IOCON_FUNC2 0x2\000"
 12999      4E5F4655 
 12999      4E433220 
 12999      30783200 
 13000              	.LASF893:
 13001 18fa 4932435F 		.ascii	"I2C_I2STAT_BUS_ERROR ((0x00))\000"
 13001      49325354 
 13001      41545F42 
 13001      55535F45 
 13001      52524F52 
 13002              	.LASF986:
 13003 1918 43414E5F 		.ascii	"CAN_SDOREQ_NOTHANDLED 0\000"
 13003      53444F52 
 13003      45515F4E 
 13003      4F544841 
 13003      4E444C45 
 13004              	.LASF706:
 13005 1930 55415254 		.ascii	"UART_IER_ABEOINT (1 << 8)\000"
 13005      5F494552 
 13005      5F414245 
 13005      4F494E54 
 13005      20283120 
 13006              	.LASF177:
 13007 194a 5F5F4445 		.ascii	"__DEC64_MAX__ 9.999999999999999E384DD\000"
 13007      4336345F 
 13007      4D41585F 
 13007      5F20392E 
 13007      39393939 
 13008              	.LASF1167:
 13009 1970 74785F64 		.ascii	"tx_data\000"
 13009      61746100 
 13010              	.LASF1077:
 13011 1978 50445255 		.ascii	"PDRUNCFG\000"
 13011      4E434647 
 13011      00
 13012              	.LASF525:
 13013 1981 5343425F 		.ascii	"SCB_SCR_SLEEPDEEP_Msk (1UL << SCB_SCR_SLEEPDEEP_Pos"
 13013      5343525F 
 13013      534C4545 
 13013      50444545 
 13013      505F4D73 
 13014 19b4 2900     		.ascii	")\000"
 13015              	.LASF895:
 13016 19b6 4932435F 		.ascii	"I2C_I2STAT_M_TX_RESTART ((0x10))\000"
 13016      49325354 
 13016      41545F4D 
 13016      5F54585F 
 13016      52455354 
 13017              	.LASF841:
 13018 19d7 5353505F 		.ascii	"SSP_CPOL_HI SSP_CR0_CPOL_LO\000"
 13018      43504F4C 
 13018      5F484920 
 13018      5353505F 
 13018      4352305F 
ARM GAS  /tmp/cc7TFFKb.s 			page 276


 13019              	.LASF127:
 13020 19f3 5F5F464C 		.ascii	"__FLT_MIN_10_EXP__ (-37)\000"
 13020      545F4D49 
 13020      4E5F3130 
 13020      5F455850 
 13020      5F5F2028 
 13021              	.LASF709:
 13022 1a0c 55415254 		.ascii	"UART1_IER_BITMASK (0x30F)\000"
 13022      315F4945 
 13022      525F4249 
 13022      544D4153 
 13022      4B202830 
 13023              	.LASF859:
 13024 1a26 4144435F 		.ascii	"ADC_CR_START_MODE_SEL(SEL) ((SEL << 24))\000"
 13024      43525F53 
 13024      54415254 
 13024      5F4D4F44 
 13024      455F5345 
 13025              	.LASF130:
 13026 1a4f 5F5F464C 		.ascii	"__FLT_DECIMAL_DIG__ 9\000"
 13026      545F4445 
 13026      43494D41 
 13026      4C5F4449 
 13026      475F5F20 
 13027              	.LASF960:
 13028 1a65 43414E5F 		.ascii	"CAN_MSGOBJ_STD 0x00000000UL\000"
 13028      4D53474F 
 13028      424A5F53 
 13028      54442030 
 13028      78303030 
 13029              	.LASF491:
 13030 1a81 5343425F 		.ascii	"SCB_CPUID_PARTNO_Msk (0xFFFUL << SCB_CPUID_PARTNO_P"
 13030      43505549 
 13030      445F5041 
 13030      52544E4F 
 13030      5F4D736B 
 13031 1ab4 6F732900 		.ascii	"os)\000"
 13032              	.LASF994:
 13033 1ab8 7369676E 		.ascii	"signed char\000"
 13033      65642063 
 13033      68617200 
 13034              	.LASF1173:
 13035 1ac4 43686970 		.ascii	"Chip_SYSCTL_AssertPeriphReset\000"
 13035      5F535953 
 13035      43544C5F 
 13035      41737365 
 13035      72745065 
 13036              	.LASF848:
 13037 1ae2 5F5F4144 		.ascii	"__ADC_11XX_H_ \000"
 13037      435F3131 
 13037      58585F48 
 13037      5F2000
 13038              	.LASF1005:
 13039 1af1 75696E74 		.ascii	"uint8_t\000"
 13039      385F7400 
 13040              	.LASF628:
 13041 1af9 53595343 		.ascii	"SYSCTL_POWERDOWN_FLASH_PD (1 << 2)\000"
ARM GAS  /tmp/cc7TFFKb.s 			page 277


 13041      544C5F50 
 13041      4F574552 
 13041      444F574E 
 13041      5F464C41 
 13042              	.LASF1032:
 13043 1b1c 55534250 		.ascii	"USBPLLCLKSEL\000"
 13043      4C4C434C 
 13043      4B53454C 
 13043      00
 13044              	.LASF463:
 13045 1b29 43484950 		.ascii	"CHIP_LPC11CXX \000"
 13045      5F4C5043 
 13045      31314358 
 13045      582000
 13046              	.LASF1115:
 13047 1b38 494D5343 		.ascii	"IMSC\000"
 13047      00
 13048              	.LASF648:
 13049 1b3d 494F434F 		.ascii	"IOCON_MODE_REPEATER (0x3 << 3)\000"
 13049      4E5F4D4F 
 13049      44455F52 
 13049      45504541 
 13049      54455220 
 13050              	.LASF900:
 13051 1b5c 4932435F 		.ascii	"I2C_I2STAT_M_TX_ARB_LOST ((0x38))\000"
 13051      49325354 
 13051      41545F4D 
 13051      5F54585F 
 13051      4152425F 
 13052              	.LASF872:
 13053 1b7e 5245545F 		.ascii	"RET_SLAVE_IDLE 2\000"
 13053      534C4156 
 13053      455F4944 
 13053      4C452032 
 13053      00
 13054              	.LASF197:
 13055 1b8f 5F5F4652 		.ascii	"__FRACT_FBIT__ 15\000"
 13055      4143545F 
 13055      46424954 
 13055      5F5F2031 
 13055      3500
 13056              	.LASF1054:
 13057 1ba1 434C4B4F 		.ascii	"CLKOUTUEN\000"
 13057      55545545 
 13057      4E00
 13058              	.LASF137:
 13059 1bab 5F5F464C 		.ascii	"__FLT_HAS_QUIET_NAN__ 1\000"
 13059      545F4841 
 13059      535F5155 
 13059      4945545F 
 13059      4E414E5F 
 13060              	.LASF452:
 13061 1bc3 5F534246 		.ascii	"_SBF(f,v) ((v) << (f))\000"
 13061      28662C76 
 13061      29202828 
 13061      7629203C 
 13061      3C202866 
ARM GAS  /tmp/cc7TFFKb.s 			page 278


 13062              	.LASF310:
 13063 1bda 5F5F4743 		.ascii	"__GCC_ATOMIC_CHAR32_T_LOCK_FREE 1\000"
 13063      435F4154 
 13063      4F4D4943 
 13063      5F434841 
 13063      5233325F 
 13064              	.LASF517:
 13065 1bfc 5343425F 		.ascii	"SCB_AIRCR_ENDIANESS_Msk (1UL << SCB_AIRCR_ENDIANESS"
 13065      41495243 
 13065      525F454E 
 13065      4449414E 
 13065      4553535F 
 13066 1c2f 5F506F73 		.ascii	"_Pos)\000"
 13066      2900
 13067              	.LASF4:
 13068 1c35 5F5F474E 		.ascii	"__GNUC_PATCHLEVEL__ 3\000"
 13068      55435F50 
 13068      41544348 
 13068      4C455645 
 13068      4C5F5F20 
 13069              	.LASF791:
 13070 1c4b 55415254 		.ascii	"UART_ICR_PULSEDIV(n) ((n & 0x07) << 3)\000"
 13070      5F494352 
 13070      5F50554C 
 13070      53454449 
 13070      56286E29 
 13071              	.LASF757:
 13072 1c72 55415254 		.ascii	"UART_LSR_PE (1 << 2)\000"
 13072      5F4C5352 
 13072      5F504520 
 13072      2831203C 
 13072      3C203229 
 13073              	.LASF382:
 13074 1c87 55494E54 		.ascii	"UINTPTR_MAX __UINTPTR_MAX__\000"
 13074      5054525F 
 13074      4D415820 
 13074      5F5F5549 
 13074      4E545054 
 13075              	.LASF842:
 13076 1ca3 5353505F 		.ascii	"SSP_CPOL_LO SSP_CR0_CPOL_HI\000"
 13076      43504F4C 
 13076      5F4C4F20 
 13076      5353505F 
 13076      4352305F 
 13077              	.LASF347:
 13078 1cbf 5F535444 		.ascii	"_STDINT_H \000"
 13078      494E545F 
 13078      482000
 13079              	.LASF511:
 13080 1cca 5343425F 		.ascii	"SCB_ICSR_VECTACTIVE_Msk (0x1FFUL << SCB_ICSR_VECTAC"
 13080      49435352 
 13080      5F564543 
 13080      54414354 
 13080      4956455F 
 13081 1cfd 54495645 		.ascii	"TIVE_Pos)\000"
 13081      5F506F73 
 13081      2900
ARM GAS  /tmp/cc7TFFKb.s 			page 279


 13082              	.LASF442:
 13083 1d07 5F535444 		.ascii	"_STDBOOL_H \000"
 13083      424F4F4C 
 13083      5F482000 
 13084              	.LASF747:
 13085 1d13 55415254 		.ascii	"UART_LCR_DLAB_EN (1 << 7)\000"
 13085      5F4C4352 
 13085      5F444C41 
 13085      425F454E 
 13085      20283120 
 13086              	.LASF478:
 13087 1d2d 5F5F434F 		.ascii	"__CORE_CMINSTR_H \000"
 13087      52455F43 
 13087      4D494E53 
 13087      54525F48 
 13087      2000
 13088              	.LASF1211:
 13089 1d3f 6672616D 		.ascii	"frameFormat\000"
 13089      65466F72 
 13089      6D617400 
 13090              	.LASF592:
 13091 1d4b 4C50435F 		.ascii	"LPC_TIMER32_1 ((LPC_TIMER_T *) LPC_TIMER32_1_BASE)\000"
 13091      54494D45 
 13091      5233325F 
 13091      31202828 
 13091      4C50435F 
 13092              	.LASF788:
 13093 1d7e 55415254 		.ascii	"UART_ICR_IRDAEN (1 << 0)\000"
 13093      5F494352 
 13093      5F495244 
 13093      41454E20 
 13093      2831203C 
 13094              	.LASF1023:
 13095 1d97 52455345 		.ascii	"RESERVED1\000"
 13095      52564544 
 13095      3100
 13096              	.LASF995:
 13097 1da1 756E7369 		.ascii	"unsigned char\000"
 13097      676E6564 
 13097      20636861 
 13097      7200
 13098              	.LASF1034:
 13099 1daf 52455345 		.ascii	"RESERVED3\000"
 13099      52564544 
 13099      3300
 13100              	.LASF1038:
 13101 1db9 52455345 		.ascii	"RESERVED4\000"
 13101      52564544 
 13101      3400
 13102              	.LASF1040:
 13103 1dc3 52455345 		.ascii	"RESERVED5\000"
 13103      52564544 
 13103      3500
 13104              	.LASF1044:
 13105 1dcd 52455345 		.ascii	"RESERVED6\000"
 13105      52564544 
 13105      3600
ARM GAS  /tmp/cc7TFFKb.s 			page 280


 13106              	.LASF1048:
 13107 1dd7 52455345 		.ascii	"RESERVED7\000"
 13107      52564544 
 13107      3700
 13108              	.LASF1052:
 13109 1de1 52455345 		.ascii	"RESERVED8\000"
 13109      52564544 
 13109      3800
 13110              	.LASF1056:
 13111 1deb 52455345 		.ascii	"RESERVED9\000"
 13111      52564544 
 13111      3900
 13112              	.LASF182:
 13113 1df5 5F5F4445 		.ascii	"__DEC128_MAX_EXP__ 6145\000"
 13113      43313238 
 13113      5F4D4158 
 13113      5F455850 
 13113      5F5F2036 
 13114              	.LASF119:
 13115 1e0d 5F5F4743 		.ascii	"__GCC_IEC_559 0\000"
 13115      435F4945 
 13115      435F3535 
 13115      39203000 
 13116              	.LASF1035:
 13117 1e1d 4D41494E 		.ascii	"MAINCLKSEL\000"
 13117      434C4B53 
 13117      454C00
 13118              	.LASF1152:
 13119 1e28 5353505F 		.ascii	"SSP_BITS_5\000"
 13119      42495453 
 13119      5F3500
 13120              	.LASF472:
 13121 1e33 5F5F434D 		.ascii	"__CM0_CMSIS_VERSION ((__CM0_CMSIS_VERSION_MAIN << 1"
 13121      305F434D 
 13121      5349535F 
 13121      56455253 
 13121      494F4E20 
 13122 1e66 3629207C 		.ascii	"6) | __CM0_CMSIS_VERSION_SUB )\000"
 13122      205F5F43 
 13122      4D305F43 
 13122      4D534953 
 13122      5F564552 
 13123              	.LASF975:
 13124 1e85 53444F5F 		.ascii	"SDO_ABORT_VALUE_RANGE 0x06090030UL\000"
 13124      41424F52 
 13124      545F5641 
 13124      4C55455F 
 13124      52414E47 
 13125              	.LASF806:
 13126 1ea8 55415254 		.ascii	"UART_SYNCCTRL_FES (1 << 2)\000"
 13126      5F53594E 
 13126      43435452 
 13126      4C5F4645 
 13126      53202831 
 13127              	.LASF7:
 13128 1ec3 5F5F4154 		.ascii	"__ATOMIC_SEQ_CST 5\000"
 13128      4F4D4943 
ARM GAS  /tmp/cc7TFFKb.s 			page 281


 13128      5F534551 
 13128      5F435354 
 13128      203500
 13129              	.LASF527:
 13130 1ed6 5343425F 		.ascii	"SCB_SCR_SLEEPONEXIT_Msk (1UL << SCB_SCR_SLEEPONEXIT"
 13130      5343525F 
 13130      534C4545 
 13130      504F4E45 
 13130      5849545F 
 13131 1f09 5F506F73 		.ascii	"_Pos)\000"
 13131      2900
 13132              	.LASF662:
 13133 1f0f 4D445F48 		.ascii	"MD_HYS (0x1 << 5)\000"
 13133      59532028 
 13133      30783120 
 13133      3C3C2035 
 13133      2900
 13134              	.LASF836:
 13135 1f21 5353505F 		.ascii	"SSP_DR_BITMASK(n) ((n) & 0xFFFF)\000"
 13135      44525F42 
 13135      49544D41 
 13135      534B286E 
 13135      29202828 
 13136              	.LASF745:
 13137 1f42 55415254 		.ascii	"UART_LCR_PARITY_F_0 (3 << 4)\000"
 13137      5F4C4352 
 13137      5F504152 
 13137      4954595F 
 13137      465F3020 
 13138              	.LASF547:
 13139 1f5f 53797354 		.ascii	"SysTick_CALIB_NOREF_Msk (1UL << SysTick_CALIB_NOREF"
 13139      69636B5F 
 13139      43414C49 
 13139      425F4E4F 
 13139      5245465F 
 13140 1f92 5F506F73 		.ascii	"_Pos)\000"
 13140      2900
 13141              	.LASF1127:
 13142 1f98 5353505F 		.ascii	"SSP_RTRIS\000"
 13142      52545249 
 13142      5300
 13143              	.LASF948:
 13144 1fa2 4932435F 		.ascii	"I2C_MONITOR_CFG_MATCHALL I2C_I2MMCTRL_MATCH_ALL\000"
 13144      4D4F4E49 
 13144      544F525F 
 13144      4346475F 
 13144      4D415443 
 13145              	.LASF142:
 13146 1fd2 5F5F4442 		.ascii	"__DBL_MAX_EXP__ 1024\000"
 13146      4C5F4D41 
 13146      585F4558 
 13146      505F5F20 
 13146      31303234 
 13147              	.LASF113:
 13148 1fe7 5F5F5549 		.ascii	"__UINT_FAST8_MAX__ 4294967295U\000"
 13148      4E545F46 
 13148      41535438 
ARM GAS  /tmp/cc7TFFKb.s 			page 282


 13148      5F4D4158 
 13148      5F5F2034 
 13149              	.LASF888:
 13150 2006 4932435F 		.ascii	"I2C_CON_STA (1UL << 5)\000"
 13150      434F4E5F 
 13150      53544120 
 13150      2831554C 
 13150      203C3C20 
 13151              	.LASF275:
 13152 201d 5F5F5451 		.ascii	"__TQ_FBIT__ 127\000"
 13152      5F464249 
 13152      545F5F20 
 13152      31323700 
 13153              	.LASF1179:
 13154 202d 78665F73 		.ascii	"xf_setup\000"
 13154      65747570 
 13154      00
 13155              	.LASF332:
 13156 2036 5F5F5448 		.ascii	"__THUMBEL__ 1\000"
 13156      554D4245 
 13156      4C5F5F20 
 13156      3100
 13157              	.LASF860:
 13158 2044 4144435F 		.ascii	"ADC_CR_START_NOW ((1UL << 24))\000"
 13158      43525F53 
 13158      54415254 
 13158      5F4E4F57 
 13158      20282831 
 13159              	.LASF686:
 13160 2063 54494D45 		.ascii	"TIMER_INT_ON_MATCH(n) (_BIT(((n) * 3)))\000"
 13160      525F494E 
 13160      545F4F4E 
 13160      5F4D4154 
 13160      4348286E 
 13161              	.LASF1118:
 13162 208b 5F535350 		.ascii	"_SSP_STATUS\000"
 13162      5F535441 
 13162      54555300 
 13163              	.LASF379:
 13164 2097 5F5F696E 		.ascii	"__int_fast64_t_defined 1\000"
 13164      745F6661 
 13164      73743634 
 13164      5F745F64 
 13164      6566696E 
 13165              	.LASF585:
 13166 20b0 4C50435F 		.ascii	"LPC_ROM_API_BASE_LOC 0x1FFF1FF8\000"
 13166      524F4D5F 
 13166      4150495F 
 13166      42415345 
 13166      5F4C4F43 
 13167              	.LASF343:
 13168 20d0 5F5F5553 		.ascii	"__USES_INITFINI__ 1\000"
 13168      45535F49 
 13168      4E495446 
 13168      494E495F 
 13168      5F203100 
 13169              	.LASF488:
ARM GAS  /tmp/cc7TFFKb.s 			page 283


 13170 20e4 5343425F 		.ascii	"SCB_CPUID_ARCHITECTURE_Pos 16\000"
 13170      43505549 
 13170      445F4152 
 13170      43484954 
 13170      45435455 
 13171              	.LASF1132:
 13172 2102 5F535350 		.ascii	"_SSP_INTCLEAR\000"
 13172      5F494E54 
 13172      434C4541 
 13172      5200
 13173              	.LASF17:
 13174 2110 5F5F5349 		.ascii	"__SIZEOF_SHORT__ 2\000"
 13174      5A454F46 
 13174      5F53484F 
 13174      52545F5F 
 13174      203200
 13175              	.LASF262:
 13176 2123 5F5F554C 		.ascii	"__ULLACCUM_FBIT__ 32\000"
 13176      4C414343 
 13176      554D5F46 
 13176      4249545F 
 13176      5F203332 
 13177              	.LASF1015:
 13178 2138 5F426F6F 		.ascii	"_Bool\000"
 13178      6C00
 13179              	.LASF726:
 13180 213e 55415254 		.ascii	"UART_FCR_BITMASK (0xCF)\000"
 13180      5F464352 
 13180      5F424954 
 13180      4D41534B 
 13180      20283078 
 13181              	.LASF555:
 13182 2156 5343425F 		.ascii	"SCB_BASE (SCS_BASE + 0x0D00UL)\000"
 13182      42415345 
 13182      20285343 
 13182      535F4241 
 13182      5345202B 
 13183              	.LASF601:
 13184 2175 4C50435F 		.ascii	"LPC_GPIO ((LPC_GPIO_T *) LPC_GPIO_PORT0_BASE)\000"
 13184      4750494F 
 13184      2028284C 
 13184      50435F47 
 13184      50494F5F 
 13185              	.LASF346:
 13186 21a3 5F5F4C50 		.ascii	"__LPC_TYPES_H_ \000"
 13186      435F5459 
 13186      5045535F 
 13186      485F2000 
 13187              	.LASF460:
 13188 21b3 4D494E28 		.ascii	"MIN(a,b) (((a) < (b)) ? (a) : (b))\000"
 13188      612C6229 
 13188      20282828 
 13188      6129203C 
 13188      20286229 
 13189              	.LASF349:
 13190 21d6 5F535953 		.ascii	"_SYS_FEATURES_H \000"
 13190      5F464541 
ARM GAS  /tmp/cc7TFFKb.s 			page 284


 13190      54555245 
 13190      535F4820 
 13190      00
 13191              	.LASF981:
 13192 21e7 4F445F45 		.ascii	"OD_EXP_WO 0x20\000"
 13192      58505F57 
 13192      4F203078 
 13192      323000
 13193              	.LASF457:
 13194 21f6 53544154 		.ascii	"STATIC static\000"
 13194      49432073 
 13194      74617469 
 13194      6300
 13195              	.LASF1029:
 13196 2204 52455345 		.ascii	"RESERVED2\000"
 13196      52564544 
 13196      3200
 13197              	.LASF1128:
 13198 220e 5353505F 		.ascii	"SSP_RXRIS\000"
 13198      52585249 
 13198      5300
 13199              	.LASF20:
 13200 2218 5F5F5349 		.ascii	"__SIZEOF_LONG_DOUBLE__ 8\000"
 13200      5A454F46 
 13200      5F4C4F4E 
 13200      475F444F 
 13200      55424C45 
 13201              	.LASF759:
 13202 2231 55415254 		.ascii	"UART_LSR_BI (1 << 4)\000"
 13202      5F4C5352 
 13202      5F424920 
 13202      2831203C 
 13202      3C203429 
 13203              	.LASF737:
 13204 2246 55415254 		.ascii	"UART_LCR_SBS_MASK (1 << 2)\000"
 13204      5F4C4352 
 13204      5F534253 
 13204      5F4D4153 
 13204      4B202831 
 13205              	.LASF319:
 13206 2261 5F5F5052 		.ascii	"__PRAGMA_REDEFINE_EXTNAME 1\000"
 13206      41474D41 
 13206      5F524544 
 13206      4546494E 
 13206      455F4558 
 13207              	.LASF32:
 13208 227d 5F5F5743 		.ascii	"__WCHAR_TYPE__ unsigned int\000"
 13208      4841525F 
 13208      54595045 
 13208      5F5F2075 
 13208      6E736967 
 13209              	.LASF429:
 13210 2299 57494E54 		.ascii	"WINT_MAX __WINT_MAX__\000"
 13210      5F4D4158 
 13210      205F5F57 
 13210      494E545F 
 13210      4D41585F 
ARM GAS  /tmp/cc7TFFKb.s 			page 285


 13211              	.LASF556:
 13212 22af 53434220 		.ascii	"SCB ((SCB_Type *) SCB_BASE )\000"
 13212      28285343 
 13212      425F5479 
 13212      7065202A 
 13212      29205343 
 13213              	.LASF1014:
 13214 22cc 63686172 		.ascii	"char\000"
 13214      00
 13215              	.LASF298:
 13216 22d1 5F5F5553 		.ascii	"__USA_IBIT__ 16\000"
 13216      415F4942 
 13216      49545F5F 
 13216      20313600 
 13217              	.LASF439:
 13218 22e1 494E544D 		.ascii	"INTMAX_C(x) __INTMAX_C(x)\000"
 13218      41585F43 
 13218      28782920 
 13218      5F5F494E 
 13218      544D4158 
 13219              	.LASF426:
 13220 22fb 50545244 		.ascii	"PTRDIFF_MIN (-PTRDIFF_MAX - 1)\000"
 13220      4946465F 
 13220      4D494E20 
 13220      282D5054 
 13220      52444946 
 13221              	.LASF669:
 13222 231a 4D445F53 		.ascii	"MD_STDI2C (0x1 << 8)\000"
 13222      54444932 
 13222      43202830 
 13222      7831203C 
 13222      3C203829 
 13223              	.LASF1042:
 13224 232f 55534152 		.ascii	"USARTCLKDIV\000"
 13224      54434C4B 
 13224      44495600 
 13225              	.LASF67:
 13226 233b 5F5F4758 		.ascii	"__GXX_ABI_VERSION 1002\000"
 13226      585F4142 
 13226      495F5645 
 13226      5253494F 
 13226      4E203130 
 13227              	.LASF62:
 13228 2352 5F5F5549 		.ascii	"__UINT_FAST64_TYPE__ long long unsigned int\000"
 13228      4E545F46 
 13228      41535436 
 13228      345F5459 
 13228      50455F5F 
 13229              	.LASF1105:
 13230 237e 53595343 		.ascii	"SYSCTL_CLOCK_SSP0\000"
 13230      544C5F43 
 13230      4C4F434B 
 13230      5F535350 
 13230      3000
 13231              	.LASF1112:
 13232 2390 53595343 		.ascii	"SYSCTL_CLOCK_SSP1\000"
 13232      544C5F43 
ARM GAS  /tmp/cc7TFFKb.s 			page 286


 13232      4C4F434B 
 13232      5F535350 
 13232      3100
 13233              	.LASF831:
 13234 23a2 5353505F 		.ascii	"SSP_CR1_SLAVE_EN ((uint32_t) (1 << 2))\000"
 13234      4352315F 
 13234      534C4156 
 13234      455F454E 
 13234      20282875 
 13235              	.LASF132:
 13236 23c9 5F5F464C 		.ascii	"__FLT_MIN__ 1.1754943508222875e-38F\000"
 13236      545F4D49 
 13236      4E5F5F20 
 13236      312E3137 
 13236      35343934 
 13237              	.LASF1196:
 13238 23ed 43686970 		.ascii	"Chip_SSP_GetPCLKkRate\000"
 13238      5F535350 
 13238      5F476574 
 13238      50434C4B 
 13238      6B526174 
 13239              	.LASF287:
 13240 2403 5F5F4841 		.ascii	"__HA_FBIT__ 7\000"
 13240      5F464249 
 13240      545F5F20 
 13240      3700
 13241              	.LASF964:
 13242 2411 53444F5F 		.ascii	"SDO_ABORT_TOGGLE 0x05030000UL\000"
 13242      41424F52 
 13242      545F544F 
 13242      47474C45 
 13242      20307830 
 13243              	.LASF598:
 13244 242f 4C50435F 		.ascii	"LPC_SYSCTL ((LPC_SYSCTL_T *) LPC_SYSCTL_BASE)\000"
 13244      53595343 
 13244      544C2028 
 13244      284C5043 
 13244      5F535953 
 13245              	.LASF131:
 13246 245d 5F5F464C 		.ascii	"__FLT_MAX__ 3.4028234663852886e+38F\000"
 13246      545F4D41 
 13246      585F5F20 
 13246      332E3430 
 13246      32383233 
 13247              	.LASF315:
 13248 2481 5F5F4743 		.ascii	"__GCC_ATOMIC_LLONG_LOCK_FREE 1\000"
 13248      435F4154 
 13248      4F4D4943 
 13248      5F4C4C4F 
 13248      4E475F4C 
 13249              	.LASF692:
 13250 24a0 5F5F5541 		.ascii	"__UART_11XX_H_ \000"
 13250      52545F31 
 13250      3158585F 
 13250      485F2000 
 13251              	.LASF951:
 13252 24b0 43414E5F 		.ascii	"CAN_ERROR_PASS 0x00000001UL\000"
ARM GAS  /tmp/cc7TFFKb.s 			page 287


 13252      4552524F 
 13252      525F5041 
 13252      53532030 
 13252      78303030 
 13253              	.LASF645:
 13254 24cc 494F434F 		.ascii	"IOCON_MODE_INACT (0x0 << 3)\000"
 13254      4E5F4D4F 
 13254      44455F49 
 13254      4E414354 
 13254      20283078 
 13255              	.LASF896:
 13256 24e8 4932435F 		.ascii	"I2C_I2STAT_M_TX_SLAW_ACK ((0x18))\000"
 13256      49325354 
 13256      41545F4D 
 13256      5F54585F 
 13256      534C4157 
 13257              	.LASF167:
 13258 250a 5F5F4445 		.ascii	"__DEC32_MIN_EXP__ (-94)\000"
 13258      4333325F 
 13258      4D494E5F 
 13258      4558505F 
 13258      5F20282D 
 13259              	.LASF193:
 13260 2522 5F5F5553 		.ascii	"__USFRACT_IBIT__ 0\000"
 13260      46524143 
 13260      545F4942 
 13260      49545F5F 
 13260      203000
 13261              	.LASF450:
 13262 2535 5F424954 		.ascii	"_BIT(n) (1 << (n))\000"
 13262      286E2920 
 13262      2831203C 
 13262      3C20286E 
 13262      292900
 13263              	.LASF998:
 13264 2548 5F5F7569 		.ascii	"__uint16_t\000"
 13264      6E743136 
 13264      5F7400
 13265              	.LASF161:
 13266 2553 5F5F4C44 		.ascii	"__LDBL_EPSILON__ 2.2204460492503131e-16L\000"
 13266      424C5F45 
 13266      5053494C 
 13266      4F4E5F5F 
 13266      20322E32 
 13267              	.LASF884:
 13268 257c 4932435F 		.ascii	"I2C_I2CONCLR_I2ENC ((1 << 6))\000"
 13268      4932434F 
 13268      4E434C52 
 13268      5F493245 
 13268      4E432028 
 13269              	.LASF1189:
 13270 259a 496E7443 		.ascii	"IntClear\000"
 13270      6C656172 
 13270      00
 13271              	.LASF194:
 13272 25a3 5F5F5553 		.ascii	"__USFRACT_MIN__ 0.0UHR\000"
 13272      46524143 
ARM GAS  /tmp/cc7TFFKb.s 			page 288


 13272      545F4D49 
 13272      4E5F5F20 
 13272      302E3055 
 13273              	.LASF677:
 13274 25ba 46554E43 		.ascii	"FUNC5 0x5\000"
 13274      35203078 
 13274      3500
 13275              	.LASF779:
 13276 25c4 55415254 		.ascii	"UART_ACR_ABTOINT_CLR (1 << 9)\000"
 13276      5F414352 
 13276      5F414254 
 13276      4F494E54 
 13276      5F434C52 
 13277              	.LASF969:
 13278 25e2 53444F5F 		.ascii	"SDO_ABORT_READONLY 0x06010002UL\000"
 13278      41424F52 
 13278      545F5245 
 13278      41444F4E 
 13278      4C592030 
 13279              	.LASF356:
 13280 2602 5F5F5F69 		.ascii	"___int16_t_defined 1\000"
 13280      6E743136 
 13280      5F745F64 
 13280      6566696E 
 13280      65642031 
 13281              	.LASF156:
 13282 2617 5F5F4C44 		.ascii	"__LDBL_MAX_EXP__ 1024\000"
 13282      424C5F4D 
 13282      41585F45 
 13282      58505F5F 
 13282      20313032 
 13283              	.LASF643:
 13284 262d 494F434F 		.ascii	"IOCON_FUNC6 0x6\000"
 13284      4E5F4655 
 13284      4E433620 
 13284      30783600 
 13285              	.LASF526:
 13286 263d 5343425F 		.ascii	"SCB_SCR_SLEEPONEXIT_Pos 1\000"
 13286      5343525F 
 13286      534C4545 
 13286      504F4E45 
 13286      5849545F 
 13287              	.LASF715:
 13288 2657 55415254 		.ascii	"UART_IIR_BITMASK (0x3CF)\000"
 13288      5F494952 
 13288      5F424954 
 13288      4D41534B 
 13288      20283078 
 13289              	.LASF368:
 13290 2670 5F5F696E 		.ascii	"__int8_t_defined 1\000"
 13290      74385F74 
 13290      5F646566 
 13290      696E6564 
 13290      203100
 13291              	.LASF961:
 13292 2683 43414E5F 		.ascii	"CAN_MSGOBJ_EXT 0x20000000UL\000"
 13292      4D53474F 
ARM GAS  /tmp/cc7TFFKb.s 			page 289


 13292      424A5F45 
 13292      58542030 
 13292      78323030 
 13293              	.LASF149:
 13294 269f 5F5F4442 		.ascii	"__DBL_HAS_DENORM__ 1\000"
 13294      4C5F4841 
 13294      535F4445 
 13294      4E4F524D 
 13294      5F5F2031 
 13295              	.LASF510:
 13296 26b4 5343425F 		.ascii	"SCB_ICSR_VECTACTIVE_Pos 0\000"
 13296      49435352 
 13296      5F564543 
 13296      54414354 
 13296      4956455F 
 13297              	.LASF1235:
 13298 26ce 43686970 		.ascii	"Chip_SSP_DeInit\000"
 13298      5F535350 
 13298      5F446549 
 13298      6E697400 
 13299              	.LASF616:
 13300 26de 53595343 		.ascii	"SYSCTL_DEEPSLP_BOD_PD (1 << 3)\000"
 13300      544C5F44 
 13300      45455053 
 13300      4C505F42 
 13300      4F445F50 
 13301              	.LASF540:
 13302 26fd 53797354 		.ascii	"SysTick_CTRL_ENABLE_Pos 0\000"
 13302      69636B5F 
 13302      4354524C 
 13302      5F454E41 
 13302      424C455F 
 13303              	.LASF1184:
 13304 2717 43686970 		.ascii	"Chip_Clock_SetSSP0ClockDiv\000"
 13304      5F436C6F 
 13304      636B5F53 
 13304      65745353 
 13304      5030436C 
 13305              	.LASF566:
 13306 2732 4C50435F 		.ascii	"LPC_TIMER16_1_BASE 0x40010000\000"
 13306      54494D45 
 13306      5231365F 
 13306      315F4241 
 13306      53452030 
 13307              	.LASF732:
 13308 2750 55415254 		.ascii	"UART_LCR_WLEN_MASK (3 << 0)\000"
 13308      5F4C4352 
 13308      5F574C45 
 13308      4E5F4D41 
 13308      534B2028 
 13309              	.LASF632:
 13310 276c 53595343 		.ascii	"SYSCTL_POWERDOWN_WDTOSC_PD (1 << 6)\000"
 13310      544C5F50 
 13310      4F574552 
 13310      444F574E 
 13310      5F574454 
 13311              	.LASF291:
ARM GAS  /tmp/cc7TFFKb.s 			page 290


 13312 2790 5F5F4441 		.ascii	"__DA_FBIT__ 31\000"
 13312      5F464249 
 13312      545F5F20 
 13312      333100
 13313              	.LASF660:
 13314 279f 4D445F50 		.ascii	"MD_PUP (0x2 << 3)\000"
 13314      55502028 
 13314      30783220 
 13314      3C3C2033 
 13314      2900
 13315              	.LASF943:
 13316 27b1 4932435F 		.ascii	"I2C_RECV_END 0x10\000"
 13316      52454356 
 13316      5F454E44 
 13316      20307831 
 13316      3000
 13317              	.LASF524:
 13318 27c3 5343425F 		.ascii	"SCB_SCR_SLEEPDEEP_Pos 2\000"
 13318      5343525F 
 13318      534C4545 
 13318      50444545 
 13318      505F506F 
 13319              	.LASF499:
 13320 27db 5343425F 		.ascii	"SCB_ICSR_PENDSVCLR_Msk (1UL << SCB_ICSR_PENDSVCLR_P"
 13320      49435352 
 13320      5F50454E 
 13320      44535643 
 13320      4C525F4D 
 13321 280e 6F732900 		.ascii	"os)\000"
 13322              	.LASF134:
 13323 2812 5F5F464C 		.ascii	"__FLT_DENORM_MIN__ 1.4012984643248171e-45F\000"
 13323      545F4445 
 13323      4E4F524D 
 13323      5F4D494E 
 13323      5F5F2031 
 13324              	.LASF95:
 13325 283d 5F5F494E 		.ascii	"__INT_LEAST16_MAX__ 32767\000"
 13325      545F4C45 
 13325      41535431 
 13325      365F4D41 
 13325      585F5F20 
 13326              	.LASF266:
 13327 2857 5F5F554C 		.ascii	"__ULLACCUM_EPSILON__ 0x1P-32ULLK\000"
 13327      4C414343 
 13327      554D5F45 
 13327      5053494C 
 13327      4F4E5F5F 
 13328              	.LASF787:
 13329 2878 55415254 		.ascii	"UART_RS485CTRL_BITMASK (0x3F)\000"
 13329      5F525334 
 13329      38354354 
 13329      524C5F42 
 13329      49544D41 
 13330              	.LASF387:
 13331 2896 494E545F 		.ascii	"INT_LEAST8_MAX __INT_LEAST8_MAX__\000"
 13331      4C454153 
 13331      54385F4D 
ARM GAS  /tmp/cc7TFFKb.s 			page 291


 13331      4158205F 
 13331      5F494E54 
 13332              	.LASF66:
 13333 28b8 5F5F6861 		.ascii	"__has_include_next(STR) __has_include_next__(STR)\000"
 13333      735F696E 
 13333      636C7564 
 13333      655F6E65 
 13333      78742853 
 13334              	.LASF821:
 13335 28ea 5353505F 		.ascii	"SSP_CR0_FRF_TI ((uint32_t) (1 << 4))\000"
 13335      4352305F 
 13335      4652465F 
 13335      54492028 
 13335      2875696E 
 13336              	.LASF711:
 13337 290f 55415254 		.ascii	"UART_IIR_INTSTAT_PEND (1 << 0)\000"
 13337      5F494952 
 13337      5F494E54 
 13337      53544154 
 13337      5F50454E 
 13338              	.LASF106:
 13339 292e 5F5F5549 		.ascii	"__UINT32_C(c) c ## UL\000"
 13339      4E543332 
 13339      5F432863 
 13339      29206320 
 13339      23232055 
 13340              	.LASF490:
 13341 2944 5343425F 		.ascii	"SCB_CPUID_PARTNO_Pos 4\000"
 13341      43505549 
 13341      445F5041 
 13341      52544E4F 
 13341      5F506F73 
 13342              	.LASF495:
 13343 295b 5343425F 		.ascii	"SCB_ICSR_NMIPENDSET_Msk (1UL << SCB_ICSR_NMIPENDSET"
 13343      49435352 
 13343      5F4E4D49 
 13343      50454E44 
 13343      5345545F 
 13344 298e 5F506F73 		.ascii	"_Pos)\000"
 13344      2900
 13345              	.LASF735:
 13346 2994 55415254 		.ascii	"UART_LCR_WLEN7 (2 << 0)\000"
 13346      5F4C4352 
 13346      5F574C45 
 13346      4E372028 
 13346      32203C3C 
 13347              	.LASF451:
 13348 29ac 5F534246 		.ascii	"_SBF\000"
 13348      00
 13349              	.LASF88:
 13350 29b1 5F5F494E 		.ascii	"__INT64_MAX__ 9223372036854775807LL\000"
 13350      5436345F 
 13350      4D41585F 
 13350      5F203932 
 13350      32333337 
 13351              	.LASF133:
 13352 29d5 5F5F464C 		.ascii	"__FLT_EPSILON__ 1.1920928955078125e-7F\000"
ARM GAS  /tmp/cc7TFFKb.s 			page 292


 13352      545F4550 
 13352      53494C4F 
 13352      4E5F5F20 
 13352      312E3139 
 13353              	.LASF562:
 13354 29fc 4C50435F 		.ascii	"LPC_I2C_BASE 0x40000000\000"
 13354      4932435F 
 13354      42415345 
 13354      20307834 
 13354      30303030 
 13355              	.LASF586:
 13356 2a14 4C50435F 		.ascii	"LPC_I2C ((LPC_I2C_T *) LPC_I2C_BASE)\000"
 13356      49324320 
 13356      28284C50 
 13356      435F4932 
 13356      435F5420 
 13357              	.LASF1137:
 13358 2a39 43484950 		.ascii	"CHIP_SSP_CLOCK_FORMAT\000"
 13358      5F535350 
 13358      5F434C4F 
 13358      434B5F46 
 13358      4F524D41 
 13359              	.LASF31:
 13360 2a4f 5F5F5054 		.ascii	"__PTRDIFF_TYPE__ int\000"
 13360      52444946 
 13360      465F5459 
 13360      50455F5F 
 13360      20696E74 
 13361              	.LASF730:
 13362 2a64 55415254 		.ascii	"UART_FCR_TRG_LEV2 (2 << 6)\000"
 13362      5F464352 
 13362      5F545247 
 13362      5F4C4556 
 13362      32202832 
 13363              	.LASF971:
 13364 2a7f 53444F5F 		.ascii	"SDO_ABORT_PARAINCOMP 0x06040043UL\000"
 13364      41424F52 
 13364      545F5041 
 13364      5241494E 
 13364      434F4D50 
 13365              	.LASF534:
 13366 2aa1 53797354 		.ascii	"SysTick_CTRL_COUNTFLAG_Pos 16\000"
 13366      69636B5F 
 13366      4354524C 
 13366      5F434F55 
 13366      4E54464C 
 13367              	.LASF371:
 13368 2abf 5F5F696E 		.ascii	"__int_least16_t_defined 1\000"
 13368      745F6C65 
 13368      61737431 
 13368      365F745F 
 13368      64656669 
 13369              	.LASF246:
 13370 2ad9 5F5F5541 		.ascii	"__UACCUM_EPSILON__ 0x1P-16UK\000"
 13370      4343554D 
 13370      5F455053 
 13370      494C4F4E 
ARM GAS  /tmp/cc7TFFKb.s 			page 293


 13370      5F5F2030 
 13371              	.LASF334:
 13372 2af6 5F5F5646 		.ascii	"__VFP_FP__ 1\000"
 13372      505F4650 
 13372      5F5F2031 
 13372      00
 13373              	.LASF593:
 13374 2b03 4C50435F 		.ascii	"LPC_ADC ((LPC_ADC_T *) LPC_ADC_BASE)\000"
 13374      41444320 
 13374      28284C50 
 13374      435F4144 
 13374      435F5420 
 13375              	.LASF1202:
 13376 2b28 43686970 		.ascii	"Chip_SSP_GetClockIndex\000"
 13376      5F535350 
 13376      5F476574 
 13376      436C6F63 
 13376      6B496E64 
 13377              	.LASF312:
 13378 2b3f 5F5F4743 		.ascii	"__GCC_ATOMIC_SHORT_LOCK_FREE 1\000"
 13378      435F4154 
 13378      4F4D4943 
 13378      5F53484F 
 13378      52545F4C 
 13379              	.LASF445:
 13380 2b5e 66616C73 		.ascii	"false 0\000"
 13380      65203000 
 13381              	.LASF687:
 13382 2b66 54494D45 		.ascii	"TIMER_RESET_ON_MATCH(n) (_BIT((((n) * 3) + 1)))\000"
 13382      525F5245 
 13382      5345545F 
 13382      4F4E5F4D 
 13382      41544348 
 13383              	.LASF818:
 13384 2b96 5F5F5353 		.ascii	"__SSP_11XX_H_ \000"
 13384      505F3131 
 13384      58585F48 
 13384      5F2000
 13385              	.LASF270:
 13386 2ba5 5F5F4851 		.ascii	"__HQ_IBIT__ 0\000"
 13386      5F494249 
 13386      545F5F20 
 13386      3000
 13387              	.LASF473:
 13388 2bb3 5F5F434F 		.ascii	"__CORTEX_M (0x00)\000"
 13388      52544558 
 13388      5F4D2028 
 13388      30783030 
 13388      2900
 13389              	.LASF232:
 13390 2bc5 5F5F5553 		.ascii	"__USACCUM_FBIT__ 8\000"
 13390      41434355 
 13390      4D5F4642 
 13390      49545F5F 
 13390      203800
 13391              	.LASF316:
 13392 2bd8 5F5F4743 		.ascii	"__GCC_ATOMIC_TEST_AND_SET_TRUEVAL 1\000"
ARM GAS  /tmp/cc7TFFKb.s 			page 294


 13392      435F4154 
 13392      4F4D4943 
 13392      5F544553 
 13392      545F414E 
 13393              	.LASF903:
 13394 2bfc 4932435F 		.ascii	"I2C_I2STAT_M_RX_ARB_LOST ((0x38))\000"
 13394      49325354 
 13394      41545F4D 
 13394      5F52585F 
 13394      4152425F 
 13395              	.LASF509:
 13396 2c1e 5343425F 		.ascii	"SCB_ICSR_VECTPENDING_Msk (0x1FFUL << SCB_ICSR_VECTP"
 13396      49435352 
 13396      5F564543 
 13396      5450454E 
 13396      44494E47 
 13397 2c51 454E4449 		.ascii	"ENDING_Pos)\000"
 13397      4E475F50 
 13397      6F732900 
 13398              	.LASF1138:
 13399 2c5d 5353505F 		.ascii	"SSP_CLOCK_CPHA0_CPOL0\000"
 13399      434C4F43 
 13399      4B5F4350 
 13399      4841305F 
 13399      43504F4C 
 13400              	.LASF1139:
 13401 2c73 5353505F 		.ascii	"SSP_CLOCK_CPHA0_CPOL1\000"
 13401      434C4F43 
 13401      4B5F4350 
 13401      4841305F 
 13401      43504F4C 
 13402              	.LASF247:
 13403 2c89 5F5F4C41 		.ascii	"__LACCUM_FBIT__ 31\000"
 13403      4343554D 
 13403      5F464249 
 13403      545F5F20 
 13403      333100
 13404              	.LASF636:
 13405 2c9c 5F5F494F 		.ascii	"__IOCON_11XX_H_ \000"
 13405      434F4E5F 
 13405      31315858 
 13405      5F485F20 
 13405      00
 13406              	.LASF1148:
 13407 2cad 43484950 		.ascii	"CHIP_SSP_FRAME_FORMAT_TI\000"
 13407      5F535350 
 13407      5F465241 
 13407      4D455F46 
 13407      4F524D41 
 13408              	.LASF928:
 13409 2cc6 4932435F 		.ascii	"I2C_I2MMCTRL_BITMASK ((0x07))\000"
 13409      49324D4D 
 13409      4354524C 
 13409      5F424954 
 13409      4D41534B 
 13410              	.LASF683:
 13411 2ce4 54494D45 		.ascii	"TIMER_CAP_INT(n) (_BIT((((n) & 0x0F) + 4)))\000"
ARM GAS  /tmp/cc7TFFKb.s 			page 295


 13411      525F4341 
 13411      505F494E 
 13411      54286E29 
 13411      20285F42 
 13412              	.LASF1142:
 13413 2d10 5353505F 		.ascii	"SSP_CLOCK_MODE0\000"
 13413      434C4F43 
 13413      4B5F4D4F 
 13413      44453000 
 13414              	.LASF1143:
 13415 2d20 5353505F 		.ascii	"SSP_CLOCK_MODE1\000"
 13415      434C4F43 
 13415      4B5F4D4F 
 13415      44453100 
 13416              	.LASF1019:
 13417 2d30 53595350 		.ascii	"SYSPLLCTRL\000"
 13417      4C4C4354 
 13417      524C00
 13418              	.LASF1145:
 13419 2d3b 5353505F 		.ascii	"SSP_CLOCK_MODE3\000"
 13419      434C4F43 
 13419      4B5F4D4F 
 13419      44453300 
 13420              	.LASF293:
 13421 2d4b 5F5F5441 		.ascii	"__TA_FBIT__ 63\000"
 13421      5F464249 
 13421      545F5F20 
 13421      363300
 13422              	.LASF391:
 13423 2d5a 55494E54 		.ascii	"UINT16_MAX __UINT16_MAX__\000"
 13423      31365F4D 
 13423      4158205F 
 13423      5F55494E 
 13423      5431365F 
 13424              	.LASF704:
 13425 2d74 55415254 		.ascii	"UART_IER_MSINT (1 << 3)\000"
 13425      5F494552 
 13425      5F4D5349 
 13425      4E542028 
 13425      31203C3C 
 13426              	.LASF908:
 13427 2d8c 4932435F 		.ascii	"I2C_I2STAT_S_RX_SLAW_ACK ((0x60))\000"
 13427      49325354 
 13427      41545F53 
 13427      5F52585F 
 13427      534C4157 
 13428              	.LASF380:
 13429 2dae 494E5450 		.ascii	"INTPTR_MIN (-__INTPTR_MAX__ - 1)\000"
 13429      54525F4D 
 13429      494E2028 
 13429      2D5F5F49 
 13429      4E545054 
 13430              	.LASF1017:
 13431 2dcf 5359534D 		.ascii	"SYSMEMREMAP\000"
 13431      454D5245 
 13431      4D415000 
 13432              	.LASF1091:
ARM GAS  /tmp/cc7TFFKb.s 			page 296


 13433 2ddb 52455345 		.ascii	"RESET_DAC0\000"
 13433      545F4441 
 13433      433000
 13434              	.LASF339:
 13435 2de6 5F5F4152 		.ascii	"__ARM_PCS 1\000"
 13435      4D5F5043 
 13435      53203100 
 13436              	.LASF443:
 13437 2df2 626F6F6C 		.ascii	"bool _Bool\000"
 13437      205F426F 
 13437      6F6C00
 13438              	.LASF878:
 13439 2dfd 4932435F 		.ascii	"I2C_I2CONSET_STA ((0x20))\000"
 13439      4932434F 
 13439      4E534554 
 13439      5F535441 
 13439      20282830 
 13440              	.LASF957:
 13441 2e17 43414E5F 		.ascii	"CAN_ERROR_BIT1 0x00000040UL\000"
 13441      4552524F 
 13441      525F4249 
 13441      54312030 
 13441      78303030 
 13442              	.LASF612:
 13443 2e33 53595343 		.ascii	"SYSCTL_RST_WDT (1 << 2)\000"
 13443      544C5F52 
 13443      53545F57 
 13443      44542028 
 13443      31203C3C 
 13444              	.LASF421:
 13445 2e4b 55494E54 		.ascii	"UINTMAX_MAX __UINTMAX_MAX__\000"
 13445      4D41585F 
 13445      4D415820 
 13445      5F5F5549 
 13445      4E544D41 
 13446              	.LASF576:
 13447 2e67 4C50435F 		.ascii	"LPC_SYSCTL_BASE 0x40048000\000"
 13447      53595343 
 13447      544C5F42 
 13447      41534520 
 13447      30783430 
 13448              	.LASF84:
 13449 2e82 5F5F5349 		.ascii	"__SIG_ATOMIC_MIN__ (-__SIG_ATOMIC_MAX__ - 1)\000"
 13449      475F4154 
 13449      4F4D4943 
 13449      5F4D494E 
 13449      5F5F2028 
 13450              	.LASF244:
 13451 2eaf 5F5F5541 		.ascii	"__UACCUM_MIN__ 0.0UK\000"
 13451      4343554D 
 13451      5F4D494E 
 13451      5F5F2030 
 13451      2E30554B 
 13452              	.LASF496:
 13453 2ec4 5343425F 		.ascii	"SCB_ICSR_PENDSVSET_Pos 28\000"
 13453      49435352 
 13453      5F50454E 
ARM GAS  /tmp/cc7TFFKb.s 			page 297


 13453      44535653 
 13453      45545F50 
 13454              	.LASF1217:
 13455 2ede 62756666 		.ascii	"buffer\000"
 13455      657200
 13456              	.LASF518:
 13457 2ee5 5343425F 		.ascii	"SCB_AIRCR_SYSRESETREQ_Pos 2\000"
 13457      41495243 
 13457      525F5359 
 13457      53524553 
 13457      45545245 
 13458              	.LASF482:
 13459 2f01 5F5F4F20 		.ascii	"__O volatile\000"
 13459      766F6C61 
 13459      74696C65 
 13459      00
 13460              	.LASF390:
 13461 2f0e 494E5431 		.ascii	"INT16_MAX __INT16_MAX__\000"
 13461      365F4D41 
 13461      58205F5F 
 13461      494E5431 
 13461      365F4D41 
 13462              	.LASF423:
 13463 2f26 5349475F 		.ascii	"SIG_ATOMIC_MIN (-__STDINT_EXP(INT_MAX) - 1)\000"
 13463      41544F4D 
 13463      49435F4D 
 13463      494E2028 
 13463      2D5F5F53 
 13464              	.LASF898:
 13465 2f52 4932435F 		.ascii	"I2C_I2STAT_M_TX_DAT_ACK ((0x28))\000"
 13465      49325354 
 13465      41545F4D 
 13465      5F54585F 
 13465      4441545F 
 13466              	.LASF1178:
 13467 2f73 5353505F 		.ascii	"SSP_Write2BFifo\000"
 13467      57726974 
 13467      65324246 
 13467      69666F00 
 13468              	.LASF1046:
 13469 2f83 55534243 		.ascii	"USBCLKUEN\000"
 13469      4C4B5545 
 13469      4E00
 13470              	.LASF922:
 13471 2f8d 4932435F 		.ascii	"I2C_SLAVE_TIME_OUT 0x10000000UL\000"
 13471      534C4156 
 13471      455F5449 
 13471      4D455F4F 
 13471      55542030 
 13472              	.LASF775:
 13473 2fad 55415254 		.ascii	"UART_ACR_START (1 << 0)\000"
 13473      5F414352 
 13473      5F535441 
 13473      52542028 
 13473      31203C3C 
 13474              	.LASF581:
 13475 2fc5 4C50435F 		.ascii	"LPC_GPIO_PORT1_BASE 0x50010000\000"
ARM GAS  /tmp/cc7TFFKb.s 			page 298


 13475      4750494F 
 13475      5F504F52 
 13475      54315F42 
 13475      41534520 
 13476              	.LASF796:
 13477 2fe4 55415254 		.ascii	"UART_SCICTRL_PROTSEL_T1 (1 << 2)\000"
 13477      5F534349 
 13477      4354524C 
 13477      5F50524F 
 13477      5453454C 
 13478              	.LASF375:
 13479 3005 5F5F696E 		.ascii	"__int_least64_t_defined 1\000"
 13479      745F6C65 
 13479      61737436 
 13479      345F745F 
 13479      64656669 
 13480              	.LASF1226:
 13481 301f 43686970 		.ascii	"Chip_SSP_Int_FlushData\000"
 13481      5F535350 
 13481      5F496E74 
 13481      5F466C75 
 13481      73684461 
 13482              	.LASF875:
 13483 3036 4932435F 		.ascii	"I2C_I2CONSET_AA ((0x04))\000"
 13483      4932434F 
 13483      4E534554 
 13483      5F414120 
 13483      28283078 
 13484              	.LASF910:
 13485 304f 4932435F 		.ascii	"I2C_I2STAT_S_RX_GENCALL_ACK ((0x70))\000"
 13485      49325354 
 13485      41545F53 
 13485      5F52585F 
 13485      47454E43 
 13486              	.LASF798:
 13487 3074 55415254 		.ascii	"UART_SCICTRL_GUARDTIME(n) ((n & 0xFF) << 8)\000"
 13487      5F534349 
 13487      4354524C 
 13487      5F475541 
 13487      52445449 
 13488              	.LASF1065:
 13489 30a0 55534243 		.ascii	"USBCLKCTRL\000"
 13489      4C4B4354 
 13489      524C00
 13490              	.LASF179:
 13491 30ab 5F5F4445 		.ascii	"__DEC64_SUBNORMAL_MIN__ 0.000000000000001E-383DD\000"
 13491      4336345F 
 13491      5355424E 
 13491      4F524D41 
 13491      4C5F4D49 
 13492              	.LASF196:
 13493 30dc 5F5F5553 		.ascii	"__USFRACT_EPSILON__ 0x1P-8UHR\000"
 13493      46524143 
 13493      545F4550 
 13493      53494C4F 
 13493      4E5F5F20 
 13494              	.LASF661:
ARM GAS  /tmp/cc7TFFKb.s 			page 299


 13495 30fa 4D445F42 		.ascii	"MD_BUK (0x3 << 3)\000"
 13495      554B2028 
 13495      30783320 
 13495      3C3C2033 
 13495      2900
 13496              	.LASF453:
 13497 310c 5F424954 		.ascii	"_BITMASK\000"
 13497      4D41534B 
 13497      00
 13498              	.LASF112:
 13499 3115 5F5F494E 		.ascii	"__INT_FAST64_MAX__ 9223372036854775807LL\000"
 13499      545F4641 
 13499      53543634 
 13499      5F4D4158 
 13499      5F5F2039 
 13500              	.LASF596:
 13501 313e 4C50435F 		.ascii	"LPC_SSP0 ((LPC_SSP_T *) LPC_SSP0_BASE)\000"
 13501      53535030 
 13501      2028284C 
 13501      50435F53 
 13501      53505F54 
 13502              	.LASF1234:
 13503 3165 43686970 		.ascii	"Chip_SSP_Init\000"
 13503      5F535350 
 13503      5F496E69 
 13503      7400
 13504              	.LASF260:
 13505 3173 5F5F4C4C 		.ascii	"__LLACCUM_MAX__ 0X7FFFFFFFFFFFFFFFP-31LLK\000"
 13505      41434355 
 13505      4D5F4D41 
 13505      585F5F20 
 13505      30583746 
 13506              	.LASF712:
 13507 319d 55415254 		.ascii	"UART_IIR_FIFO_EN (3 << 6)\000"
 13507      5F494952 
 13507      5F464946 
 13507      4F5F454E 
 13507      20283320 
 13508              	.LASF678:
 13509 31b7 46554E43 		.ascii	"FUNC6 0x6\000"
 13509      36203078 
 13509      3600
 13510              	.LASF1218:
 13511 31c1 62756666 		.ascii	"buffer_len\000"
 13511      65725F6C 
 13511      656E00
 13512              	.LASF373:
 13513 31cc 5F5F696E 		.ascii	"__int_least32_t_defined 1\000"
 13513      745F6C65 
 13513      61737433 
 13513      325F745F 
 13513      64656669 
 13514              	.LASF304:
 13515 31e6 5F5F5553 		.ascii	"__USER_LABEL_PREFIX__ \000"
 13515      45525F4C 
 13515      4142454C 
 13515      5F505245 
ARM GAS  /tmp/cc7TFFKb.s 			page 300


 13515      4649585F 
 13516              	.LASF840:
 13517 31fd 5353505F 		.ascii	"SSP_CPHA_SECOND SSP_CR0_CPHA_SECOND\000"
 13517      43504841 
 13517      5F534543 
 13517      4F4E4420 
 13517      5353505F 
 13518              	.LASF583:
 13519 3221 4C50435F 		.ascii	"LPC_GPIO_PORT3_BASE 0x50030000\000"
 13519      4750494F 
 13519      5F504F52 
 13519      54335F42 
 13519      41534520 
 13520              	.LASF408:
 13521 3240 494E545F 		.ascii	"INT_FAST8_MAX __INT_FAST8_MAX__\000"
 13521      46415354 
 13521      385F4D41 
 13521      58205F5F 
 13521      494E545F 
 13522              	.LASF736:
 13523 3260 55415254 		.ascii	"UART_LCR_WLEN8 (3 << 0)\000"
 13523      5F4C4352 
 13523      5F574C45 
 13523      4E382028 
 13523      33203C3C 
 13524              	.LASF1098:
 13525 3278 53595343 		.ascii	"SYSCTL_CLOCK_FLASHARRAY\000"
 13525      544C5F43 
 13525      4C4F434B 
 13525      5F464C41 
 13525      53484152 
 13526              	.LASF437:
 13527 3290 494E5436 		.ascii	"INT64_C(x) __INT64_C(x)\000"
 13527      345F4328 
 13527      7829205F 
 13527      5F494E54 
 13527      36345F43 
 13528              	.LASF399:
 13529 32a8 494E545F 		.ascii	"INT_LEAST32_MAX __INT_LEAST32_MAX__\000"
 13529      4C454153 
 13529      5433325F 
 13529      4D415820 
 13529      5F5F494E 
 13530              	.LASF383:
 13531 32cc 494E5438 		.ascii	"INT8_MIN (-__INT8_MAX__ - 1)\000"
 13531      5F4D494E 
 13531      20282D5F 
 13531      5F494E54 
 13531      385F4D41 
 13532              	.LASF816:
 13533 32e9 57574454 		.ascii	"WWDT_WDMOD_WDINT ((uint32_t) (1 << 3))\000"
 13533      5F57444D 
 13533      4F445F57 
 13533      44494E54 
 13533      20282875 
 13534              	.LASF849:
 13535 3310 4144435F 		.ascii	"ADC_MAX_SAMPLE_RATE 400000\000"
ARM GAS  /tmp/cc7TFFKb.s 			page 301


 13535      4D41585F 
 13535      53414D50 
 13535      4C455F52 
 13535      41544520 
 13536              	.LASF1100:
 13537 332b 53595343 		.ascii	"SYSCTL_CLOCK_GPIO\000"
 13537      544C5F43 
 13537      4C4F434B 
 13537      5F475049 
 13537      4F00
 13538              	.LASF1062:
 13539 333d 4952514C 		.ascii	"IRQLATENCY\000"
 13539      4154454E 
 13539      435900
 13540              	.LASF8:
 13541 3348 5F5F4154 		.ascii	"__ATOMIC_ACQUIRE 2\000"
 13541      4F4D4943 
 13541      5F414351 
 13541      55495245 
 13541      203200
 13542              	.LASF1225:
 13543 335b 43686970 		.ascii	"Chip_SSP_Int_RWFrames16Bits\000"
 13543      5F535350 
 13543      5F496E74 
 13543      5F525746 
 13543      72616D65 
 13544              	.LASF1214:
 13545 3377 43686970 		.ascii	"Chip_Clock_DisablePeriphClock\000"
 13545      5F436C6F 
 13545      636B5F44 
 13545      69736162 
 13545      6C655065 
 13546              	.LASF605:
 13547 3395 504D555F 		.ascii	"PMU_PCON_PM_DEEPPOWERDOWN (0x2)\000"
 13547      50434F4E 
 13547      5F504D5F 
 13547      44454550 
 13547      504F5745 
 13548              	.LASF832:
 13549 33b5 5353505F 		.ascii	"SSP_CR1_MASTER_EN ((uint32_t) (0))\000"
 13549      4352315F 
 13549      4D415354 
 13549      45525F45 
 13549      4E202828 
 13550              	.LASF1022:
 13551 33d8 55534250 		.ascii	"USBPLLSTAT\000"
 13551      4C4C5354 
 13551      415400
 13552              	.LASF324:
 13553 33e3 5F5F4152 		.ascii	"__ARM_SIZEOF_WCHAR_T 4\000"
 13553      4D5F5349 
 13553      5A454F46 
 13553      5F574348 
 13553      41525F54 
 13554              	.LASF65:
 13555 33fa 5F5F6861 		.ascii	"__has_include(STR) __has_include__(STR)\000"
 13555      735F696E 
ARM GAS  /tmp/cc7TFFKb.s 			page 302


 13555      636C7564 
 13555      65285354 
 13555      5229205F 
 13556              	.LASF974:
 13557 3422 53444F5F 		.ascii	"SDO_ABORT_UNKNOWNSUB 0x06090011UL\000"
 13557      41424F52 
 13557      545F554E 
 13557      4B4E4F57 
 13557      4E535542 
 13558              	.LASF827:
 13559 3444 5353505F 		.ascii	"SSP_CR0_SCR(n) ((uint32_t) ((n & 0xFF) << 8))\000"
 13559      4352305F 
 13559      53435228 
 13559      6E292028 
 13559      2875696E 
 13560              	.LASF1239:
 13561 3472 43686970 		.ascii	"Chip_SSP_SetClockRate\000"
 13561      5F535350 
 13561      5F536574 
 13561      436C6F63 
 13561      6B526174 
 13562              	.LASF724:
 13563 3488 55415254 		.ascii	"UART_FCR_TX_RS (1 << 2)\000"
 13563      5F464352 
 13563      5F54585F 
 13563      52532028 
 13563      31203C3C 
 13564              	.LASF1190:
 13565 34a0 43686970 		.ascii	"Chip_SSP_GetDataSize\000"
 13565      5F535350 
 13565      5F476574 
 13565      44617461 
 13565      53697A65 
 13566              	.LASF147:
 13567 34b5 5F5F4442 		.ascii	"__DBL_EPSILON__ ((double)2.2204460492503131e-16L)\000"
 13567      4C5F4550 
 13567      53494C4F 
 13567      4E5F5F20 
 13567      2828646F 
 13568              	.LASF1231:
 13569 34e7 7373705F 		.ascii	"ssp_clk\000"
 13569      636C6B00 
 13570              	.LASF136:
 13571 34ef 5F5F464C 		.ascii	"__FLT_HAS_INFINITY__ 1\000"
 13571      545F4841 
 13571      535F494E 
 13571      46494E49 
 13571      54595F5F 
 13572              	.LASF1087:
 13573 3506 52455345 		.ascii	"RESET_TIMER1_16\000"
 13573      545F5449 
 13573      4D455231 
 13573      5F313600 
 13574              	.LASF240:
 13575 3516 5F5F4143 		.ascii	"__ACCUM_MAX__ 0X7FFFFFFFP-15K\000"
 13575      43554D5F 
 13575      4D41585F 
ARM GAS  /tmp/cc7TFFKb.s 			page 303


 13575      5F203058 
 13575      37464646 
 13576              	.LASF507:
 13577 3534 5343425F 		.ascii	"SCB_ICSR_ISRPENDING_Msk (1UL << SCB_ICSR_ISRPENDING"
 13577      49435352 
 13577      5F495352 
 13577      50454E44 
 13577      494E475F 
 13578 3567 5F506F73 		.ascii	"_Pos)\000"
 13578      2900
 13579              	.LASF155:
 13580 356d 5F5F4C44 		.ascii	"__LDBL_MIN_10_EXP__ (-307)\000"
 13580      424C5F4D 
 13580      494E5F31 
 13580      305F4558 
 13580      505F5F20 
 13581              	.LASF1186:
 13582 3588 43686970 		.ascii	"Chip_Clock_GetSSP0ClockDiv\000"
 13582      5F436C6F 
 13582      636B5F47 
 13582      65745353 
 13582      5030436C 
 13583              	.LASF589:
 13584 35a3 4C50435F 		.ascii	"LPC_TIMER16_0 ((LPC_TIMER_T *) LPC_TIMER16_0_BASE)\000"
 13584      54494D45 
 13584      5231365F 
 13584      30202828 
 13584      4C50435F 
 13585              	.LASF318:
 13586 35d6 5F5F4743 		.ascii	"__GCC_HAVE_DWARF2_CFI_ASM 1\000"
 13586      435F4841 
 13586      56455F44 
 13586      57415246 
 13586      325F4346 
 13587              	.LASF355:
 13588 35f2 5F5F5F69 		.ascii	"___int8_t_defined 1\000"
 13588      6E74385F 
 13588      745F6465 
 13588      66696E65 
 13588      64203100 
 13589              	.LASF189:
 13590 3606 5F5F5346 		.ascii	"__SFRACT_MIN__ (-0.5HR-0.5HR)\000"
 13590      52414354 
 13590      5F4D494E 
 13590      5F5F2028 
 13590      2D302E35 
 13591              	.LASF1002:
 13592 3624 6C6F6E67 		.ascii	"long unsigned int\000"
 13592      20756E73 
 13592      69676E65 
 13592      6420696E 
 13592      7400
 13593              	.LASF290:
 13594 3636 5F5F5341 		.ascii	"__SA_IBIT__ 16\000"
 13594      5F494249 
 13594      545F5F20 
 13594      313600
ARM GAS  /tmp/cc7TFFKb.s 			page 304


 13595              	.LASF60:
 13596 3645 5F5F5549 		.ascii	"__UINT_FAST16_TYPE__ unsigned int\000"
 13596      4E545F46 
 13596      41535431 
 13596      365F5459 
 13596      50455F5F 
 13597              	.LASF548:
 13598 3667 53797354 		.ascii	"SysTick_CALIB_SKEW_Pos 30\000"
 13598      69636B5F 
 13598      43414C49 
 13598      425F534B 
 13598      45575F50 
 13599              	.LASF2:
 13600 3681 5F5F474E 		.ascii	"__GNUC__ 4\000"
 13600      55435F5F 
 13600      203400
 13601              	.LASF837:
 13602 368c 5353505F 		.ascii	"SSP_SR_BITMASK ((uint32_t) (0x1F))\000"
 13602      53525F42 
 13602      49544D41 
 13602      534B2028 
 13602      2875696E 
 13603              	.LASF774:
 13604 36af 55415254 		.ascii	"UART_MSR_BITMASK (0xFF)\000"
 13604      5F4D5352 
 13604      5F424954 
 13604      4D41534B 
 13604      20283078 
 13605              	.LASF682:
 13606 36c7 54494D45 		.ascii	"TIMER_MATCH_INT(n) (_BIT((n) & 0x0F))\000"
 13606      525F4D41 
 13606      5443485F 
 13606      494E5428 
 13606      6E292028 
 13607              	.LASF44:
 13608 36ed 5F5F5549 		.ascii	"__UINT16_TYPE__ short unsigned int\000"
 13608      4E543136 
 13608      5F545950 
 13608      455F5F20 
 13608      73686F72 
 13609              	.LASF64:
 13610 3710 5F5F5549 		.ascii	"__UINTPTR_TYPE__ unsigned int\000"
 13610      4E545054 
 13610      525F5459 
 13610      50455F5F 
 13610      20756E73 
 13611              	.LASF333:
 13612 372e 5F5F534F 		.ascii	"__SOFTFP__ 1\000"
 13612      46544650 
 13612      5F5F2031 
 13612      00
 13613              	.LASF372:
 13614 373b 5F5F696E 		.ascii	"__int32_t_defined 1\000"
 13614      7433325F 
 13614      745F6465 
 13614      66696E65 
 13614      64203100 
ARM GAS  /tmp/cc7TFFKb.s 			page 305


 13615              	.LASF168:
 13616 374f 5F5F4445 		.ascii	"__DEC32_MAX_EXP__ 97\000"
 13616      4333325F 
 13616      4D41585F 
 13616      4558505F 
 13616      5F203937 
 13617              	.LASF550:
 13618 3764 53797354 		.ascii	"SysTick_CALIB_TENMS_Pos 0\000"
 13618      69636B5F 
 13618      43414C49 
 13618      425F5445 
 13618      4E4D535F 
 13619              	.LASF805:
 13620 377e 55415254 		.ascii	"UART_SYNCCTRL_CSRC_MASTER (1 << 1)\000"
 13620      5F53594E 
 13620      43435452 
 13620      4C5F4353 
 13620      52435F4D 
 13621              	.LASF1180:
 13622 37a1 5353505F 		.ascii	"SSP_Write1BFifo\000"
 13622      57726974 
 13622      65314246 
 13622      69666F00 
 13623              	.LASF620:
 13624 37b1 53595343 		.ascii	"SYSCTL_SLPWAKE_FLASH_PD (1 << 2)\000"
 13624      544C5F53 
 13624      4C505741 
 13624      4B455F46 
 13624      4C415348 
 13625              	.LASF553:
 13626 37d2 53797354 		.ascii	"SysTick_BASE (SCS_BASE + 0x0010UL)\000"
 13626      69636B5F 
 13626      42415345 
 13626      20285343 
 13626      535F4241 
 13627              	.LASF1124:
 13628 37f5 5353505F 		.ascii	"SSP_STATUS_T\000"
 13628      53544154 
 13628      55535F54 
 13628      00
 13629              	.LASF431:
 13630 3802 494E5438 		.ascii	"INT8_C(x) __INT8_C(x)\000"
 13630      5F432878 
 13630      29205F5F 
 13630      494E5438 
 13630      5F432878 
 13631              	.LASF59:
 13632 3818 5F5F5549 		.ascii	"__UINT_FAST8_TYPE__ unsigned int\000"
 13632      4E545F46 
 13632      41535438 
 13632      5F545950 
 13632      455F5F20 
 13633              	.LASF258:
 13634 3839 5F5F4C4C 		.ascii	"__LLACCUM_IBIT__ 32\000"
 13634      41434355 
 13634      4D5F4942 
 13634      49545F5F 
ARM GAS  /tmp/cc7TFFKb.s 			page 306


 13634      20333200 
 13635              	.LASF519:
 13636 384d 5343425F 		.ascii	"SCB_AIRCR_SYSRESETREQ_Msk (1UL << SCB_AIRCR_SYSRESE"
 13636      41495243 
 13636      525F5359 
 13636      53524553 
 13636      45545245 
 13637 3880 54524551 		.ascii	"TREQ_Pos)\000"
 13637      5F506F73 
 13637      2900
 13638              	.LASF201:
 13639 388a 5F5F4652 		.ascii	"__FRACT_EPSILON__ 0x1P-15R\000"
 13639      4143545F 
 13639      45505349 
 13639      4C4F4E5F 
 13639      5F203078 
 13640              	.LASF458:
 13641 38a5 45585445 		.ascii	"EXTERN extern\000"
 13641      524E2065 
 13641      78746572 
 13641      6E00
 13642              	.LASF505:
 13643 38b3 5343425F 		.ascii	"SCB_ICSR_ISRPREEMPT_Msk (1UL << SCB_ICSR_ISRPREEMPT"
 13643      49435352 
 13643      5F495352 
 13643      50524545 
 13643      4D50545F 
 13644 38e6 5F506F73 		.ascii	"_Pos)\000"
 13644      2900
 13645              	.LASF750:
 13646 38ec 55415254 		.ascii	"UART_MCR_RTS_CTRL (1 << 1)\000"
 13646      5F4D4352 
 13646      5F525453 
 13646      5F435452 
 13646      4C202831 
 13647              	.LASF941:
 13648 3907 4932435F 		.ascii	"I2C_LAST_BYTE_RECV 0x04\000"
 13648      4C415354 
 13648      5F425954 
 13648      455F5245 
 13648      43562030 
 13649              	.LASF341:
 13650 391f 5F5F4758 		.ascii	"__GXX_TYPEINFO_EQUALITY_INLINE 0\000"
 13650      585F5459 
 13650      5045494E 
 13650      464F5F45 
 13650      5155414C 
 13651              	.LASF466:
 13652 3940 5F5F4D50 		.ascii	"__MPU_PRESENT 0\000"
 13652      555F5052 
 13652      4553454E 
 13652      54203000 
 13653              	.LASF38:
 13654 3950 5F5F5349 		.ascii	"__SIG_ATOMIC_TYPE__ int\000"
 13654      475F4154 
 13654      4F4D4943 
 13654      5F545950 
ARM GAS  /tmp/cc7TFFKb.s 			page 307


 13654      455F5F20 
 13655              	.LASF1092:
 13656 3968 52455345 		.ascii	"RESET_ADC0\000"
 13656      545F4144 
 13656      433000
 13657              	.LASF590:
 13658 3973 4C50435F 		.ascii	"LPC_TIMER16_1 ((LPC_TIMER_T *) LPC_TIMER16_1_BASE)\000"
 13658      54494D45 
 13658      5231365F 
 13658      31202828 
 13658      4C50435F 
 13659              	.LASF963:
 13660 39a6 43414E5F 		.ascii	"CAN_MSGOBJ_RTR 0x40000000UL\000"
 13660      4D53474F 
 13660      424A5F52 
 13660      54522030 
 13660      78343030 
 13661              	.LASF513:
 13662 39c2 5343425F 		.ascii	"SCB_AIRCR_VECTKEY_Msk (0xFFFFUL << SCB_AIRCR_VECTKE"
 13662      41495243 
 13662      525F5645 
 13662      43544B45 
 13662      595F4D73 
 13663 39f5 595F506F 		.ascii	"Y_Pos)\000"
 13663      732900
 13664              	.LASF70:
 13665 39fc 5F5F494E 		.ascii	"__INT_MAX__ 2147483647\000"
 13665      545F4D41 
 13665      585F5F20 
 13665      32313437 
 13665      34383336 
 13666              	.LASF54:
 13667 3a13 5F5F5549 		.ascii	"__UINT_LEAST64_TYPE__ long long unsigned int\000"
 13667      4E545F4C 
 13667      45415354 
 13667      36345F54 
 13667      5950455F 
 13668              	.LASF185:
 13669 3a40 5F5F4445 		.ascii	"__DEC128_EPSILON__ 1E-33DL\000"
 13669      43313238 
 13669      5F455053 
 13669      494C4F4E 
 13669      5F5F2031 
 13670              	.LASF719:
 13671 3a5b 55415254 		.ascii	"UART_IIR_INTID_CTI (6 << 1)\000"
 13671      5F494952 
 13671      5F494E54 
 13671      49445F43 
 13671      54492028 
 13672              	.LASF192:
 13673 3a77 5F5F5553 		.ascii	"__USFRACT_FBIT__ 8\000"
 13673      46524143 
 13673      545F4642 
 13673      49545F5F 
 13673      203800
 13674              	.LASF87:
 13675 3a8a 5F5F494E 		.ascii	"__INT32_MAX__ 2147483647L\000"
ARM GAS  /tmp/cc7TFFKb.s 			page 308


 13675      5433325F 
 13675      4D41585F 
 13675      5F203231 
 13675      34373438 
 13676              	.LASF984:
 13677 3aa4 4F445F53 		.ascii	"OD_SEG_WO 0x50\000"
 13677      45475F57 
 13677      4F203078 
 13677      353000
 13678              	.LASF1122:
 13679 3ab3 5353505F 		.ascii	"SSP_STAT_RFF\000"
 13679      53544154 
 13679      5F524646 
 13679      00
 13680              	.LASF309:
 13681 3ac0 5F5F4743 		.ascii	"__GCC_ATOMIC_CHAR16_T_LOCK_FREE 1\000"
 13681      435F4154 
 13681      4F4D4943 
 13681      5F434841 
 13681      5231365F 
 13682              	.LASF9:
 13683 3ae2 5F5F4154 		.ascii	"__ATOMIC_RELEASE 3\000"
 13683      4F4D4943 
 13683      5F52454C 
 13683      45415345 
 13683      203300
 13684              	.LASF899:
 13685 3af5 4932435F 		.ascii	"I2C_I2STAT_M_TX_DAT_NACK ((0x30))\000"
 13685      49325354 
 13685      41545F4D 
 13685      5F54585F 
 13685      4441545F 
 13686              	.LASF124:
 13687 3b17 5F5F464C 		.ascii	"__FLT_MANT_DIG__ 24\000"
 13687      545F4D41 
 13687      4E545F44 
 13687      49475F5F 
 13687      20323400 
 13688              	.LASF1117:
 13689 3b2b 43484950 		.ascii	"CHIP_SYSCTL_CLOCK\000"
 13689      5F535953 
 13689      43544C5F 
 13689      434C4F43 
 13689      4B00
 13690              	.LASF1011:
 13691 3b3d 4552524F 		.ascii	"ERROR\000"
 13691      5200
 13692              	.LASF57:
 13693 3b43 5F5F494E 		.ascii	"__INT_FAST32_TYPE__ int\000"
 13693      545F4641 
 13693      53543332 
 13693      5F545950 
 13693      455F5F20 
 13694              	.LASF1110:
 13695 3b5b 53595343 		.ascii	"SYSCTL_CLOCK_IOCON\000"
 13695      544C5F43 
 13695      4C4F434B 
ARM GAS  /tmp/cc7TFFKb.s 			page 309


 13695      5F494F43 
 13695      4F4E00
 13696              	.LASF49:
 13697 3b6e 5F5F494E 		.ascii	"__INT_LEAST32_TYPE__ long int\000"
 13697      545F4C45 
 13697      41535433 
 13697      325F5459 
 13697      50455F5F 
 13698              	.LASF892:
 13699 3b8c 4932435F 		.ascii	"I2C_I2STAT_NO_INF ((0xF8))\000"
 13699      49325354 
 13699      41545F4E 
 13699      4F5F494E 
 13699      46202828 
 13700              	.LASF854:
 13701 3ba7 4144435F 		.ascii	"ADC_CR_CH_SEL(n) ((1UL << (n)))\000"
 13701      43525F43 
 13701      485F5345 
 13701      4C286E29 
 13701      20282831 
 13702              	.LASF12:
 13703 3bc7 5F5F4F50 		.ascii	"__OPTIMIZE__ 1\000"
 13703      54494D49 
 13703      5A455F5F 
 13703      203100
 13704              	.LASF739:
 13705 3bd6 55415254 		.ascii	"UART_LCR_SBS_2BIT (1 << 2)\000"
 13705      5F4C4352 
 13705      5F534253 
 13705      5F324249 
 13705      54202831 
 13706              	.LASF602:
 13707 3bf1 4C50435F 		.ascii	"LPC_ROM_API (*((LPC_ROM_API_T * *) LPC_ROM_API_BASE"
 13707      524F4D5F 
 13707      41504920 
 13707      282A2828 
 13707      4C50435F 
 13708 3c24 5F4C4F43 		.ascii	"_LOC))\000"
 13708      292900
 13709              	.LASF983:
 13710 3c2b 4F445F53 		.ascii	"OD_SEG_RO 0x40\000"
 13710      45475F52 
 13710      4F203078 
 13710      343000
 13711              	.LASF462:
 13712 3c3a 5F5F5359 		.ascii	"__SYS_CONFIG_H_ \000"
 13712      535F434F 
 13712      4E464947 
 13712      5F485F20 
 13712      00
 13713              	.LASF481:
 13714 3c4b 5F5F4920 		.ascii	"__I volatile const\000"
 13714      766F6C61 
 13714      74696C65 
 13714      20636F6E 
 13714      737400
 13715              	.LASF815:
ARM GAS  /tmp/cc7TFFKb.s 			page 310


 13716 3c5e 57574454 		.ascii	"WWDT_WDMOD_WDTOF ((uint32_t) (1 << 2))\000"
 13716      5F57444D 
 13716      4F445F57 
 13716      44544F46 
 13716      20282875 
 13717              	.LASF864:
 13718 3c85 4144435F 		.ascii	"ADC_CR_START_ADCTRIG1 ((5UL << 24))\000"
 13718      43525F53 
 13718      54415254 
 13718      5F414443 
 13718      54524947 
 13719              	.LASF162:
 13720 3ca9 5F5F4C44 		.ascii	"__LDBL_DENORM_MIN__ 4.9406564584124654e-324L\000"
 13720      424C5F44 
 13720      454E4F52 
 13720      4D5F4D49 
 13720      4E5F5F20 
 13721              	.LASF582:
 13722 3cd6 4C50435F 		.ascii	"LPC_GPIO_PORT2_BASE 0x50020000\000"
 13722      4750494F 
 13722      5F504F52 
 13722      54325F42 
 13722      41534520 
 13723              	.LASF839:
 13724 3cf5 5353505F 		.ascii	"SSP_CPHA_FIRST SSP_CR0_CPHA_FIRST\000"
 13724      43504841 
 13724      5F464952 
 13724      53542053 
 13724      53505F43 
 13725              	.LASF370:
 13726 3d17 5F5F696E 		.ascii	"__int16_t_defined 1\000"
 13726      7431365F 
 13726      745F6465 
 13726      66696E65 
 13726      64203100 
 13727              	.LASF223:
 13728 3d2b 5F5F554C 		.ascii	"__ULLFRACT_IBIT__ 0\000"
 13728      4C465241 
 13728      43545F49 
 13728      4249545F 
 13728      5F203000 
 13729              	.LASF1095:
 13730 3d3f 53595343 		.ascii	"SYSCTL_CLOCK_ROM\000"
 13730      544C5F43 
 13730      4C4F434B 
 13730      5F524F4D 
 13730      00
 13731              	.LASF1089:
 13732 3d50 52455345 		.ascii	"RESET_TIMER1_32\000"
 13732      545F5449 
 13732      4D455231 
 13732      5F333200 
 13733              	.LASF765:
 13734 3d60 55415254 		.ascii	"UART1_LSR_BITMASK (0x1FF)\000"
 13734      315F4C53 
 13734      525F4249 
 13734      544D4153 
ARM GAS  /tmp/cc7TFFKb.s 			page 311


 13734      4B202830 
 13735              	.LASF731:
 13736 3d7a 55415254 		.ascii	"UART_FCR_TRG_LEV3 (3 << 6)\000"
 13736      5F464352 
 13736      5F545247 
 13736      5F4C4556 
 13736      33202833 
 13737              	.LASF905:
 13738 3d95 4932435F 		.ascii	"I2C_I2STAT_M_RX_SLAR_NACK ((0x48))\000"
 13738      49325354 
 13738      41545F4D 
 13738      5F52585F 
 13738      534C4152 
 13739              	.LASF599:
 13740 3db8 4C50435F 		.ascii	"LPC_SSP1 ((LPC_SSP_T *) LPC_SSP1_BASE)\000"
 13740      53535031 
 13740      2028284C 
 13740      50435F53 
 13740      53505F54 
 13741              	.LASF707:
 13742 3ddf 55415254 		.ascii	"UART_IER_ABTOINT (1 << 9)\000"
 13742      5F494552 
 13742      5F414254 
 13742      4F494E54 
 13742      20283120 
 13743              	.LASF793:
 13744 3df9 55415254 		.ascii	"UART_HDEN_HDEN ((1 << 0))\000"
 13744      5F484445 
 13744      4E5F4844 
 13744      454E2028 
 13744      2831203C 
 13745              	.LASF492:
 13746 3e13 5343425F 		.ascii	"SCB_CPUID_REVISION_Pos 0\000"
 13746      43505549 
 13746      445F5245 
 13746      56495349 
 13746      4F4E5F50 
 13747              	.LASF476:
 13748 3e2c 5F5F5354 		.ascii	"__STATIC_INLINE static inline\000"
 13748      41544943 
 13748      5F494E4C 
 13748      494E4520 
 13748      73746174 
 13749              	.LASF1203:
 13750 3e4a 636C6B53 		.ascii	"clkSSP\000"
 13750      535000
 13751              	.LASF572:
 13752 3e51 4C50435F 		.ascii	"LPC_PMU_BASE 0x40038000\000"
 13752      504D555F 
 13752      42415345 
 13752      20307834 
 13752      30303338 
 13753              	.LASF931:
 13754 3e69 4932435F 		.ascii	"I2C_I2ADR_BITMASK ((0xFF))\000"
 13754      49324144 
 13754      525F4249 
 13754      544D4153 
ARM GAS  /tmp/cc7TFFKb.s 			page 312


 13754      4B202828 
 13755              	.LASF890:
 13756 3e84 4932435F 		.ascii	"I2C_STAT_CODE_BITMASK ((0xF8))\000"
 13756      53544154 
 13756      5F434F44 
 13756      455F4249 
 13756      544D4153 
 13757              	.LASF946:
 13758 3ea3 4932435F 		.ascii	"I2C_CheckError(ErrorCode) (ErrorCode & 0x10000000)\000"
 13758      43686563 
 13758      6B457272 
 13758      6F722845 
 13758      72726F72 
 13759              	.LASF1013:
 13760 3ed6 53746174 		.ascii	"Status\000"
 13760      757300
 13761              	.LASF396:
 13762 3edd 494E5433 		.ascii	"INT32_MAX __INT32_MAX__\000"
 13762      325F4D41 
 13762      58205F5F 
 13762      494E5433 
 13762      325F4D41 
 13763              	.LASF242:
 13764 3ef5 5F5F5541 		.ascii	"__UACCUM_FBIT__ 16\000"
 13764      4343554D 
 13764      5F464249 
 13764      545F5F20 
 13764      313600
 13765              	.LASF206:
 13766 3f08 5F5F5546 		.ascii	"__UFRACT_EPSILON__ 0x1P-16UR\000"
 13766      52414354 
 13766      5F455053 
 13766      494C4F4E 
 13766      5F5F2030 
 13767              	.LASF74:
 13768 3f25 5F5F5743 		.ascii	"__WCHAR_MIN__ 0U\000"
 13768      4841525F 
 13768      4D494E5F 
 13768      5F203055 
 13768      00
 13769              	.LASF91:
 13770 3f36 5F5F5549 		.ascii	"__UINT32_MAX__ 4294967295UL\000"
 13770      4E543332 
 13770      5F4D4158 
 13770      5F5F2034 
 13770      32393439 
 13771              	.LASF278:
 13772 3f52 5F5F5551 		.ascii	"__UQQ_IBIT__ 0\000"
 13772      515F4942 
 13772      49545F5F 
 13772      203000
 13773              	.LASF314:
 13774 3f61 5F5F4743 		.ascii	"__GCC_ATOMIC_LONG_LOCK_FREE 1\000"
 13774      435F4154 
 13774      4F4D4943 
 13774      5F4C4F4E 
 13774      475F4C4F 
ARM GAS  /tmp/cc7TFFKb.s 			page 313


 13775              	.LASF254:
 13776 3f7f 5F5F554C 		.ascii	"__ULACCUM_MIN__ 0.0ULK\000"
 13776      41434355 
 13776      4D5F4D49 
 13776      4E5F5F20 
 13776      302E3055 
 13777              	.LASF1001:
 13778 3f96 5F5F7569 		.ascii	"__uint32_t\000"
 13778      6E743332 
 13778      5F7400
 13779              	.LASF159:
 13780 3fa1 5F5F4C44 		.ascii	"__LDBL_MAX__ 1.7976931348623157e+308L\000"
 13780      424C5F4D 
 13780      41585F5F 
 13780      20312E37 
 13780      39373639 
 13781              	.LASF123:
 13782 3fc7 5F5F464C 		.ascii	"__FLT_RADIX__ 2\000"
 13782      545F5241 
 13782      4449585F 
 13782      5F203200 
 13783              	.LASF1003:
 13784 3fd7 6C6F6E67 		.ascii	"long long int\000"
 13784      206C6F6E 
 13784      6720696E 
 13784      7400
 13785              	.LASF676:
 13786 3fe5 46554E43 		.ascii	"FUNC4 0x4\000"
 13786      34203078 
 13786      3400
 13787              	.LASF748:
 13788 3fef 55415254 		.ascii	"UART_LCR_BITMASK (0xFF)\000"
 13788      5F4C4352 
 13788      5F424954 
 13788      4D41534B 
 13788      20283078 
 13789              	.LASF1236:
 13790 4007 474E5520 		.ascii	"GNU C 4.9.3 20150303 (release) [ARM/embedded-4_9-br"
 13790      4320342E 
 13790      392E3320 
 13790      32303135 
 13790      30333033 
 13791 403a 616E6368 		.ascii	"anch revision 221220] -mcpu=cortex-m0 -mthumb -g -g"
 13791      20726576 
 13791      6973696F 
 13791      6E203232 
 13791      31323230 
 13792 406d 67646233 		.ascii	"gdb3 -O2 -std=gnu90 -ffunction-sections -fdata-sect"
 13792      202D4F32 
 13792      202D7374 
 13792      643D676E 
 13792      75393020 
 13793 40a0 696F6E73 		.ascii	"ions\000"
 13793      00
 13794              	.LASF75:
 13795 40a5 5F5F5749 		.ascii	"__WINT_MAX__ 4294967295U\000"
 13795      4E545F4D 
ARM GAS  /tmp/cc7TFFKb.s 			page 314


 13795      41585F5F 
 13795      20343239 
 13795      34393637 
 13796              	.LASF845:
 13797 40be 5F5F524F 		.ascii	"__ROMAPI_11XX_H_ \000"
 13797      4D415049 
 13797      5F313158 
 13797      585F485F 
 13797      2000
 13798              	.LASF937:
 13799 40d0 4932435F 		.ascii	"I2C_SETUP_STATUS_DONE (1 << 10)\000"
 13799      53455455 
 13799      505F5354 
 13799      41545553 
 13799      5F444F4E 
 13800              	.LASF623:
 13801 40f0 53595343 		.ascii	"SYSCTL_SLPWAKE_SYSOSC_PD (1 << 5)\000"
 13801      544C5F53 
 13801      4C505741 
 13801      4B455F53 
 13801      59534F53 
 13802              	.LASF952:
 13803 4112 43414E5F 		.ascii	"CAN_ERROR_WARN 0x00000002UL\000"
 13803      4552524F 
 13803      525F5741 
 13803      524E2030 
 13803      78303030 
 13804              	.LASF594:
 13805 412e 4C50435F 		.ascii	"LPC_PMU ((LPC_PMU_T *) LPC_PMU_BASE)\000"
 13805      504D5520 
 13805      28284C50 
 13805      435F504D 
 13805      555F5420 
 13806              	.LASF853:
 13807 4153 4144435F 		.ascii	"ADC_DR_OVERRUN(n) ((((n) >> 30) & (1UL)))\000"
 13807      44525F4F 
 13807      56455252 
 13807      554E286E 
 13807      29202828 
 13808              	.LASF288:
 13809 417d 5F5F4841 		.ascii	"__HA_IBIT__ 8\000"
 13809      5F494249 
 13809      545F5F20 
 13809      3800
 13810              	.LASF305:
 13811 418b 5F5F474E 		.ascii	"__GNUC_GNU_INLINE__ 1\000"
 13811      55435F47 
 13811      4E555F49 
 13811      4E4C494E 
 13811      455F5F20 
 13812              	.LASF559:
 13813 41a1 5F424954 		.ascii	"_BIT_SHIFT(IRQn) ( (((uint32_t)(IRQn) ) & 0x03) * 8"
 13813      5F534849 
 13813      46542849 
 13813      52516E29 
 13813      20282028 
 13814 41d4 202900   		.ascii	" )\000"
ARM GAS  /tmp/cc7TFFKb.s 			page 315


 13815              	.LASF419:
 13816 41d7 494E544D 		.ascii	"INTMAX_MAX __INTMAX_MAX__\000"
 13816      41585F4D 
 13816      4158205F 
 13816      5F494E54 
 13816      4D41585F 
 13817              	.LASF1242:
 13818 41f1 43686970 		.ascii	"Chip_Clock_GetMainClockRate\000"
 13818      5F436C6F 
 13818      636B5F47 
 13818      65744D61 
 13818      696E436C 
 13819              	.LASF769:
 13820 420d 55415254 		.ascii	"UART_MSR_DELTA_DCD (1 << 3)\000"
 13820      5F4D5352 
 13820      5F44454C 
 13820      54415F44 
 13820      43442028 
 13821              	.LASF794:
 13822 4229 55415254 		.ascii	"UART_SCICTRL_SCIEN (1 << 0)\000"
 13822      5F534349 
 13822      4354524C 
 13822      5F534349 
 13822      454E2028 
 13823              	.LASF934:
 13824 4245 4932435F 		.ascii	"I2C_I2SCLL_BITMASK ((0xFFFF))\000"
 13824      49325343 
 13824      4C4C5F42 
 13824      49544D41 
 13824      534B2028 
 13825              	.LASF1028:
 13826 4263 53595352 		.ascii	"SYSRSTSTAT\000"
 13826      53545354 
 13826      415400
 13827              	.LASF357:
 13828 426e 5F5F5F69 		.ascii	"___int32_t_defined 1\000"
 13828      6E743332 
 13828      5F745F64 
 13828      6566696E 
 13828      65642031 
 13829              	.LASF817:
 13830 4283 57574454 		.ascii	"WWDT_WDMOD_WDPROTECT ((uint32_t) (1 << 4))\000"
 13830      5F57444D 
 13830      4F445F57 
 13830      4450524F 
 13830      54454354 
 13831              	.LASF744:
 13832 42ae 55415254 		.ascii	"UART_LCR_PARITY_F_1 (2 << 4)\000"
 13832      5F4C4352 
 13832      5F504152 
 13832      4954595F 
 13832      465F3120 
 13833              	.LASF1170:
 13834 42cb 72785F63 		.ascii	"rx_cnt\000"
 13834      6E7400
 13835              	.LASF42:
 13836 42d2 5F5F494E 		.ascii	"__INT64_TYPE__ long long int\000"
ARM GAS  /tmp/cc7TFFKb.s 			page 316


 13836      5436345F 
 13836      54595045 
 13836      5F5F206C 
 13836      6F6E6720 
 13837              	.LASF1185:
 13838 42ef 43686970 		.ascii	"Chip_Clock_SetSSP1ClockDiv\000"
 13838      5F436C6F 
 13838      636B5F53 
 13838      65745353 
 13838      5031436C 
 13839              	.LASF22:
 13840 430a 5F5F4348 		.ascii	"__CHAR_BIT__ 8\000"
 13840      41525F42 
 13840      49545F5F 
 13840      203800
 13841              	.LASF320:
 13842 4319 5F5F5349 		.ascii	"__SIZEOF_WCHAR_T__ 4\000"
 13842      5A454F46 
 13842      5F574348 
 13842      41525F54 
 13842      5F5F2034 
 13843              	.LASF838:
 13844 432e 5353505F 		.ascii	"SSP_ICR_BITMASK ((uint32_t) (0x03))\000"
 13844      4943525F 
 13844      4249544D 
 13844      41534B20 
 13844      28287569 
 13845              	.LASF573:
 13846 4352 4C50435F 		.ascii	"LPC_FLASH_BASE 0x4003C000\000"
 13846      464C4153 
 13846      485F4241 
 13846      53452030 
 13846      78343030 
 13847              	.LASF392:
 13848 436c 494E545F 		.ascii	"INT_LEAST16_MIN (-__INT_LEAST16_MAX__ - 1)\000"
 13848      4C454153 
 13848      5431365F 
 13848      4D494E20 
 13848      282D5F5F 
 13849              	.LASF776:
 13850 4397 55415254 		.ascii	"UART_ACR_MODE (1 << 1)\000"
 13850      5F414352 
 13850      5F4D4F44 
 13850      45202831 
 13850      203C3C20 
 13851              	.LASF1133:
 13852 43ae 5353505F 		.ascii	"SSP_RORIC\000"
 13852      524F5249 
 13852      4300
 13853              	.LASF916:
 13854 43b8 4932435F 		.ascii	"I2C_I2STAT_S_RX_STA_STO_SLVREC_SLVTRX ((0xA0))\000"
 13854      49325354 
 13854      41545F53 
 13854      5F52585F 
 13854      5354415F 
 13855              	.LASF508:
 13856 43e7 5343425F 		.ascii	"SCB_ICSR_VECTPENDING_Pos 12\000"
ARM GAS  /tmp/cc7TFFKb.s 			page 317


 13856      49435352 
 13856      5F564543 
 13856      5450454E 
 13856      44494E47 
 13857              	.LASF861:
 13858 4403 4144435F 		.ascii	"ADC_CR_START_CTOUT15 ((2UL << 24))\000"
 13858      43525F53 
 13858      54415254 
 13858      5F43544F 
 13858      55543135 
 13859              	.LASF205:
 13860 4426 5F5F5546 		.ascii	"__UFRACT_MAX__ 0XFFFFP-16UR\000"
 13860      52414354 
 13860      5F4D4158 
 13860      5F5F2030 
 13860      58464646 
 13861              	.LASF1221:
 13862 4442 43686970 		.ascii	"Chip_SSP_ReadFrames_Blocking\000"
 13862      5F535350 
 13862      5F526561 
 13862      64467261 
 13862      6D65735F 
 13863              	.LASF927:
 13864 445f 4932435F 		.ascii	"I2C_I2MMCTRL_MATCH_ALL ((1 << 2))\000"
 13864      49324D4D 
 13864      4354524C 
 13864      5F4D4154 
 13864      43485F41 
 13865              	.LASF690:
 13866 4481 54494D45 		.ascii	"TIMER_CAP_FALLING(n) (_BIT((((n) * 3) + 1)))\000"
 13866      525F4341 
 13866      505F4641 
 13866      4C4C494E 
 13866      47286E29 
 13867              	.LASF295:
 13868 44ae 5F5F5548 		.ascii	"__UHA_FBIT__ 8\000"
 13868      415F4642 
 13868      49545F5F 
 13868      203800
 13869              	.LASF1209:
 13870 44bd 43686970 		.ascii	"Chip_SSP_SetFormat\000"
 13870      5F535350 
 13870      5F536574 
 13870      466F726D 
 13870      617400
 13871              	.LASF989:
 13872 44d0 43414E5F 		.ascii	"CAN_SDOSEG_SEGMENT 0\000"
 13872      53444F53 
 13872      45475F53 
 13872      45474D45 
 13872      4E542030 
 13873              	.LASF365:
 13874 44e5 5F5F5354 		.ascii	"__STDINT_EXP(x) __ ##x ##__\000"
 13874      44494E54 
 13874      5F455850 
 13874      28782920 
 13874      5F5F2023 
ARM GAS  /tmp/cc7TFFKb.s 			page 318


 13875              	.LASF354:
 13876 4501 5F5F4558 		.ascii	"__EXP(x) __ ##x ##__\000"
 13876      50287829 
 13876      205F5F20 
 13876      23237820 
 13876      23235F5F 
 13877              	.LASF27:
 13878 4516 5F5F4259 		.ascii	"__BYTE_ORDER__ __ORDER_LITTLE_ENDIAN__\000"
 13878      54455F4F 
 13878      52444552 
 13878      5F5F205F 
 13878      5F4F5244 
 13879              	.LASF418:
 13880 453d 55494E54 		.ascii	"UINT_FAST64_MAX __UINT_FAST64_MAX__\000"
 13880      5F464153 
 13880      5436345F 
 13880      4D415820 
 13880      5F5F5549 
 13881              	.LASF235:
 13882 4561 5F5F5553 		.ascii	"__USACCUM_MAX__ 0XFFFFP-8UHK\000"
 13882      41434355 
 13882      4D5F4D41 
 13882      585F5F20 
 13882      30584646 
 13883              	.LASF766:
 13884 457e 55415254 		.ascii	"UART_MSR_DELTA_CTS (1 << 0)\000"
 13884      5F4D5352 
 13884      5F44454C 
 13884      54415F43 
 13884      54532028 
 13885              	.LASF670:
 13886 459a 4D445F46 		.ascii	"MD_FASTI2C (0x2 << 8)\000"
 13886      41535449 
 13886      32432028 
 13886      30783220 
 13886      3C3C2038 
 13887              	.LASF689:
 13888 45b0 54494D45 		.ascii	"TIMER_CAP_RISING(n) (_BIT(((n) * 3)))\000"
 13888      525F4341 
 13888      505F5249 
 13888      53494E47 
 13888      286E2920 
 13889              	.LASF1181:
 13890 45d6 43686970 		.ascii	"Chip_SSP_ReceiveFrame\000"
 13890      5F535350 
 13890      5F526563 
 13890      65697665 
 13890      4672616D 
 13891              	.LASF959:
 13892 45ec 43414E5F 		.ascii	"CAN_ERROR_CRC 0x00000100UL\000"
 13892      4552524F 
 13892      525F4352 
 13892      43203078 
 13892      30303030 
 13893              	.LASF1193:
 13894 4607 5353505F 		.ascii	"SSP_Read2BFifo\000"
 13894      52656164 
ARM GAS  /tmp/cc7TFFKb.s 			page 319


 13894      32424669 
 13894      666F00
 13895              	.LASF761:
 13896 4616 55415254 		.ascii	"UART_LSR_TEMT (1 << 6)\000"
 13896      5F4C5352 
 13896      5F54454D 
 13896      54202831 
 13896      203C3C20 
 13897              	.LASF629:
 13898 462d 53595343 		.ascii	"SYSCTL_POWERDOWN_BOD_PD (1 << 3)\000"
 13898      544C5F50 
 13898      4F574552 
 13898      444F574E 
 13898      5F424F44 
 13899              	.LASF456:
 13900 464e 4E454C45 		.ascii	"NELEMENTS(array) (sizeof(array) / sizeof(array[0]))"
 13900      4D454E54 
 13900      53286172 
 13900      72617929 
 13900      20287369 
 13901 4681 00       		.ascii	"\000"
 13902              	.LASF33:
 13903 4682 5F5F5749 		.ascii	"__WINT_TYPE__ unsigned int\000"
 13903      4E545F54 
 13903      5950455F 
 13903      5F20756E 
 13903      7369676E 
 13904              	.LASF742:
 13905 469d 55415254 		.ascii	"UART_LCR_PARITY_ODD (0 << 4)\000"
 13905      5F4C4352 
 13905      5F504152 
 13905      4954595F 
 13905      4F444420 
 13906              	.LASF283:
 13907 46ba 5F5F5544 		.ascii	"__UDQ_FBIT__ 64\000"
 13907      515F4642 
 13907      49545F5F 
 13907      20363400 
 13908              	.LASF475:
 13909 46ca 5F5F494E 		.ascii	"__INLINE inline\000"
 13909      4C494E45 
 13909      20696E6C 
 13909      696E6500 
 13910              	.LASF377:
 13911 46da 5F5F696E 		.ascii	"__int_fast16_t_defined 1\000"
 13911      745F6661 
 13911      73743136 
 13911      5F745F64 
 13911      6566696E 
 13912              	.LASF703:
 13913 46f3 55415254 		.ascii	"UART_IER_RLSINT (1 << 2)\000"
 13913      5F494552 
 13913      5F524C53 
 13913      494E5420 
 13913      2831203C 
 13914              	.LASF157:
 13915 470c 5F5F4C44 		.ascii	"__LDBL_MAX_10_EXP__ 308\000"
ARM GAS  /tmp/cc7TFFKb.s 			page 320


 13915      424C5F4D 
 13915      41585F31 
 13915      305F4558 
 13915      505F5F20 
 13916              	.LASF558:
 13917 4724 4E564943 		.ascii	"NVIC ((NVIC_Type *) NVIC_BASE )\000"
 13917      2028284E 
 13917      5649435F 
 13917      54797065 
 13917      202A2920 
 13918              	.LASF718:
 13919 4744 55415254 		.ascii	"UART_IIR_INTID_RDA (2 << 1)\000"
 13919      5F494952 
 13919      5F494E54 
 13919      49445F52 
 13919      44412028 
 13920              	.LASF1093:
 13921 4760 43484950 		.ascii	"CHIP_SYSCTL_PERIPH_RESET_T\000"
 13921      5F535953 
 13921      43544C5F 
 13921      50455249 
 13921      50485F52 
 13922              	.LASF990:
 13923 477b 43414E5F 		.ascii	"CAN_SDOSEG_OPEN 1\000"
 13923      53444F53 
 13923      45475F4F 
 13923      50454E20 
 13923      3100
 13924              	.LASF164:
 13925 478d 5F5F4C44 		.ascii	"__LDBL_HAS_INFINITY__ 1\000"
 13925      424C5F48 
 13925      41535F49 
 13925      4E46494E 
 13925      4954595F 
 13926              	.LASF502:
 13927 47a5 5343425F 		.ascii	"SCB_ICSR_PENDSTCLR_Pos 25\000"
 13927      49435352 
 13927      5F50454E 
 13927      44535443 
 13927      4C525F50 
 13928              	.LASF993:
 13929 47bf 756E7369 		.ascii	"unsigned int\000"
 13929      676E6564 
 13929      20696E74 
 13929      00
 13930              	.LASF1224:
 13931 47cc 43686970 		.ascii	"Chip_SSP_Int_RWFrames8Bits\000"
 13931      5F535350 
 13931      5F496E74 
 13931      5F525746 
 13931      72616D65 
 13932              	.LASF200:
 13933 47e7 5F5F4652 		.ascii	"__FRACT_MAX__ 0X7FFFP-15R\000"
 13933      4143545F 
 13933      4D41585F 
 13933      5F203058 
 13933      37464646 
ARM GAS  /tmp/cc7TFFKb.s 			page 321


 13934              	.LASF1031:
 13935 4801 53595350 		.ascii	"SYSPLLCLKUEN\000"
 13935      4C4C434C 
 13935      4B55454E 
 13935      00
 13936              	.LASF126:
 13937 480e 5F5F464C 		.ascii	"__FLT_MIN_EXP__ (-125)\000"
 13937      545F4D49 
 13937      4E5F4558 
 13937      505F5F20 
 13937      282D3132 
 13938              	.LASF122:
 13939 4825 5F5F4445 		.ascii	"__DEC_EVAL_METHOD__ 2\000"
 13939      435F4556 
 13939      414C5F4D 
 13939      4554484F 
 13939      445F5F20 
 13940              	.LASF436:
 13941 483b 55494E54 		.ascii	"UINT32_C(x) __UINT32_C(x)\000"
 13941      33325F43 
 13941      28782920 
 13941      5F5F5549 
 13941      4E543332 
 13942              	.LASF487:
 13943 4855 5343425F 		.ascii	"SCB_CPUID_VARIANT_Msk (0xFUL << SCB_CPUID_VARIANT_P"
 13943      43505549 
 13943      445F5641 
 13943      5249414E 
 13943      545F4D73 
 13944 4888 6F732900 		.ascii	"os)\000"
 13945              	.LASF626:
 13946 488c 53595343 		.ascii	"SYSCTL_POWERDOWN_IRCOUT_PD (1 << 0)\000"
 13946      544C5F50 
 13946      4F574552 
 13946      444F574E 
 13946      5F495243 
 13947              	.LASF665:
 13948 48b0 4D445F44 		.ascii	"MD_DIGMODE (0x1 << 7)\000"
 13948      49474D4F 
 13948      44452028 
 13948      30783120 
 13948      3C3C2037 
 13949              	.LASF233:
 13950 48c6 5F5F5553 		.ascii	"__USACCUM_IBIT__ 8\000"
 13950      41434355 
 13950      4D5F4942 
 13950      49545F5F 
 13950      203800
 13951              	.LASF985:
 13952 48d9 4F445F53 		.ascii	"OD_SEG_RW 0x60\000"
 13952      45475F52 
 13952      57203078 
 13952      363000
 13953              	.LASF407:
 13954 48e8 494E545F 		.ascii	"INT_FAST8_MIN (-__INT_FAST8_MAX__ - 1)\000"
 13954      46415354 
 13954      385F4D49 
ARM GAS  /tmp/cc7TFFKb.s 			page 322


 13954      4E20282D 
 13954      5F5F494E 
 13955              	.LASF118:
 13956 490f 5F5F5549 		.ascii	"__UINTPTR_MAX__ 4294967295U\000"
 13956      4E545054 
 13956      525F4D41 
 13956      585F5F20 
 13956      34323934 
 13957              	.LASF668:
 13958 492b 4D445F53 		.ascii	"MD_SFI2C (0x0 << 8)\000"
 13958      46493243 
 13958      20283078 
 13958      30203C3C 
 13958      20382900 
 13959              	.LASF125:
 13960 493f 5F5F464C 		.ascii	"__FLT_DIG__ 6\000"
 13960      545F4449 
 13960      475F5F20 
 13960      3600
 13961              	.LASF35:
 13962 494d 5F5F5549 		.ascii	"__UINTMAX_TYPE__ long long unsigned int\000"
 13962      4E544D41 
 13962      585F5459 
 13962      50455F5F 
 13962      206C6F6E 
 13963              	.LASF785:
 13964 4975 55415254 		.ascii	"UART_RS485CTRL_DCTRL_EN (1 << 4)\000"
 13964      5F525334 
 13964      38354354 
 13964      524C5F44 
 13964      4354524C 
 13965              	.LASF1140:
 13966 4996 5353505F 		.ascii	"SSP_CLOCK_CPHA1_CPOL0\000"
 13966      434C4F43 
 13966      4B5F4350 
 13966      4841315F 
 13966      43504F4C 
 13967              	.LASF1141:
 13968 49ac 5353505F 		.ascii	"SSP_CLOCK_CPHA1_CPOL1\000"
 13968      434C4F43 
 13968      4B5F4350 
 13968      4841315F 
 13968      43504F4C 
 13969              	.LASF121:
 13970 49c2 5F5F464C 		.ascii	"__FLT_EVAL_METHOD__ 0\000"
 13970      545F4556 
 13970      414C5F4D 
 13970      4554484F 
 13970      445F5F20 
 13971              	.LASF808:
 13972 49d8 55415254 		.ascii	"UART_SYNCCTRL_CSCEN (1 << 4)\000"
 13972      5F53594E 
 13972      43435452 
 13972      4C5F4353 
 13972      43454E20 
 13973              	.LASF755:
 13974 49f5 55415254 		.ascii	"UART_LSR_RDR (1 << 0)\000"
ARM GAS  /tmp/cc7TFFKb.s 			page 323


 13974      5F4C5352 
 13974      5F524452 
 13974      20283120 
 13974      3C3C2030 
 13975              	.LASF778:
 13976 4a0b 55415254 		.ascii	"UART_ACR_ABEOINT_CLR (1 << 8)\000"
 13976      5F414352 
 13976      5F414245 
 13976      4F494E54 
 13976      5F434C52 
 13977              	.LASF117:
 13978 4a29 5F5F494E 		.ascii	"__INTPTR_MAX__ 2147483647\000"
 13978      54505452 
 13978      5F4D4158 
 13978      5F5F2032 
 13978      31343734 
 13979              	.LASF851:
 13980 4a43 4144435F 		.ascii	"ADC_CR_BITACC(n) ((((n) & 0x7) << 17))\000"
 13980      43525F42 
 13980      49544143 
 13980      43286E29 
 13980      20282828 
 13981              	.LASF1090:
 13982 4a6a 52455345 		.ascii	"RESET_ACMP\000"
 13982      545F4143 
 13982      4D5000
 13983              	.LASF277:
 13984 4a75 5F5F5551 		.ascii	"__UQQ_FBIT__ 8\000"
 13984      515F4642 
 13984      49545F5F 
 13984      203800
 13985              	.LASF545:
 13986 4a84 53797354 		.ascii	"SysTick_VAL_CURRENT_Msk (0xFFFFFFUL << SysTick_VAL_"
 13986      69636B5F 
 13986      56414C5F 
 13986      43555252 
 13986      454E545F 
 13987 4ab7 43555252 		.ascii	"CURRENT_Pos)\000"
 13987      454E545F 
 13987      506F7329 
 13987      00
 13988              	.LASF1174:
 13989 4ac4 43686970 		.ascii	"Chip_SYSCTL_DeassertPeriphReset\000"
 13989      5F535953 
 13989      43544C5F 
 13989      44656173 
 13989      73657274 
 13990              	.LASF1037:
 13991 4ae4 53595341 		.ascii	"SYSAHBCLKDIV\000"
 13991      4842434C 
 13991      4B444956 
 13991      00
 13992              	.LASF894:
 13993 4af1 4932435F 		.ascii	"I2C_I2STAT_M_TX_START ((0x08))\000"
 13993      49325354 
 13993      41545F4D 
 13993      5F54585F 
ARM GAS  /tmp/cc7TFFKb.s 			page 324


 13993      53544152 
 13994              	.LASF702:
 13995 4b10 55415254 		.ascii	"UART_IER_THREINT (1 << 1)\000"
 13995      5F494552 
 13995      5F544852 
 13995      45494E54 
 13995      20283120 
 13996              	.LASF393:
 13997 4b2a 494E545F 		.ascii	"INT_LEAST16_MAX __INT_LEAST16_MAX__\000"
 13997      4C454153 
 13997      5431365F 
 13997      4D415820 
 13997      5F5F494E 
 13998              	.LASF634:
 13999 4b4e 5F5F434C 		.ascii	"__CLOCK_11XX_H_ \000"
 13999      4F434B5F 
 13999      31315858 
 13999      5F485F20 
 13999      00
 14000              	.LASF210:
 14001 4b5f 5F5F4C46 		.ascii	"__LFRACT_MAX__ 0X7FFFFFFFP-31LR\000"
 14001      52414354 
 14001      5F4D4158 
 14001      5F5F2030 
 14001      58374646 
 14002              	.LASF322:
 14003 4b7f 5F5F5349 		.ascii	"__SIZEOF_PTRDIFF_T__ 4\000"
 14003      5A454F46 
 14003      5F505452 
 14003      44494646 
 14003      5F545F5F 
 14004              	.LASF1210:
 14005 4b96 62697473 		.ascii	"bits\000"
 14005      00
 14006              	.LASF0:
 14007 4b9b 5F5F5354 		.ascii	"__STDC__ 1\000"
 14007      44435F5F 
 14007      203100
 14008              	.LASF1075:
 14009 4ba6 5044534C 		.ascii	"PDSLEEPCFG\000"
 14009      45455043 
 14009      464700
 14010              	.LASF359:
 14011 4bb1 5F5F5F69 		.ascii	"___int_least8_t_defined 1\000"
 14011      6E745F6C 
 14011      65617374 
 14011      385F745F 
 14011      64656669 
 14012              	.LASF28:
 14013 4bcb 5F5F464C 		.ascii	"__FLOAT_WORD_ORDER__ __ORDER_LITTLE_ENDIAN__\000"
 14013      4F41545F 
 14013      574F5244 
 14013      5F4F5244 
 14013      45525F5F 
 14014              	.LASF1228:
 14015 4bf8 6D617374 		.ascii	"master\000"
 14015      657200
ARM GAS  /tmp/cc7TFFKb.s 			page 325


 14016              	.LASF420:
 14017 4bff 494E544D 		.ascii	"INTMAX_MIN (-INTMAX_MAX - 1)\000"
 14017      41585F4D 
 14017      494E2028 
 14017      2D494E54 
 14017      4D41585F 
 14018              	.LASF43:
 14019 4c1c 5F5F5549 		.ascii	"__UINT8_TYPE__ unsigned char\000"
 14019      4E54385F 
 14019      54595045 
 14019      5F5F2075 
 14019      6E736967 
 14020              	.LASF885:
 14021 4c39 4932435F 		.ascii	"I2C_CON_AA (1UL << 2)\000"
 14021      434F4E5F 
 14021      41412028 
 14021      31554C20 
 14021      3C3C2032 
 14022              	.LASF819:
 14023 4c4f 5353505F 		.ascii	"SSP_CR0_DSS(n) ((uint32_t) ((n) & 0xF))\000"
 14023      4352305F 
 14023      44535328 
 14023      6E292028 
 14023      2875696E 
 14024              	.LASF376:
 14025 4c77 5F5F696E 		.ascii	"__int_fast8_t_defined 1\000"
 14025      745F6661 
 14025      7374385F 
 14025      745F6465 
 14025      66696E65 
 14026              	.LASF852:
 14027 4c8f 4144435F 		.ascii	"ADC_DR_DONE(n) (((n) >> 31))\000"
 14027      44525F44 
 14027      4F4E4528 
 14027      6E292028 
 14027      28286E29 
 14028              	.LASF403:
 14029 4cac 55494E54 		.ascii	"UINT64_MAX __UINT64_MAX__\000"
 14029      36345F4D 
 14029      4158205F 
 14029      5F55494E 
 14029      5436345F 
 14030              	.LASF675:
 14031 4cc6 46554E43 		.ascii	"FUNC3 0x3\000"
 14031      33203078 
 14031      3300
 14032              	.LASF1222:
 14033 4cd0 72646174 		.ascii	"rdata8\000"
 14033      613800
 14034              	.LASF633:
 14035 4cd7 53595343 		.ascii	"SYSCTL_POWERDOWN_SYSPLL_PD (1 << 7)\000"
 14035      544C5F50 
 14035      4F574552 
 14035      444F574E 
 14035      5F535953 
 14036              	.LASF1068:
 14037 4cfb 53544152 		.ascii	"STARTAPRP0\000"
ARM GAS  /tmp/cc7TFFKb.s 			page 326


 14037      54415052 
 14037      503000
 14038              	.LASF180:
 14039 4d06 5F5F4445 		.ascii	"__DEC128_MANT_DIG__ 34\000"
 14039      43313238 
 14039      5F4D414E 
 14039      545F4449 
 14039      475F5F20 
 14040              	.LASF83:
 14041 4d1d 5F5F5349 		.ascii	"__SIG_ATOMIC_MAX__ 2147483647\000"
 14041      475F4154 
 14041      4F4D4943 
 14041      5F4D4158 
 14041      5F5F2032 
 14042              	.LASF889:
 14043 4d3b 4932435F 		.ascii	"I2C_CON_I2EN (1UL << 6)\000"
 14043      434F4E5F 
 14043      4932454E 
 14043      20283155 
 14043      4C203C3C 
 14044              	.LASF444:
 14045 4d53 74727565 		.ascii	"true 1\000"
 14045      203100
 14046              	.LASF641:
 14047 4d5a 494F434F 		.ascii	"IOCON_FUNC4 0x4\000"
 14047      4E5F4655 
 14047      4E433420 
 14047      30783400 
 14048              	.LASF297:
 14049 4d6a 5F5F5553 		.ascii	"__USA_FBIT__ 16\000"
 14049      415F4642 
 14049      49545F5F 
 14049      20313600 
 14050              	.LASF1183:
 14051 4d7a 53746174 		.ascii	"Stat\000"
 14051      00
 14052              	.LASF741:
 14053 4d7f 55415254 		.ascii	"UART_LCR_PARITY_DIS (0 << 3)\000"
 14053      5F4C4352 
 14053      5F504152 
 14053      4954595F 
 14053      44495320 
 14054              	.LASF627:
 14055 4d9c 53595343 		.ascii	"SYSCTL_POWERDOWN_IRC_PD (1 << 1)\000"
 14055      544C5F50 
 14055      4F574552 
 14055      444F574E 
 14055      5F495243 
 14056              	.LASF786:
 14057 4dbd 55415254 		.ascii	"UART_RS485CTRL_OINV_1 (1 << 5)\000"
 14057      5F525334 
 14057      38354354 
 14057      524C5F4F 
 14057      494E565F 
 14058              	.LASF308:
 14059 4ddc 5F5F4743 		.ascii	"__GCC_ATOMIC_CHAR_LOCK_FREE 1\000"
 14059      435F4154 
ARM GAS  /tmp/cc7TFFKb.s 			page 327


 14059      4F4D4943 
 14059      5F434841 
 14059      525F4C4F 
 14060              	.LASF1033:
 14061 4dfa 55534250 		.ascii	"USBPLLCLKUEN\000"
 14061      4C4C434C 
 14061      4B55454E 
 14061      00
 14062              	.LASF603:
 14063 4e07 5F5F504D 		.ascii	"__PMU_11XX_H_ \000"
 14063      555F3131 
 14063      58585F48 
 14063      5F2000
 14064              	.LASF211:
 14065 4e16 5F5F4C46 		.ascii	"__LFRACT_EPSILON__ 0x1P-31LR\000"
 14065      52414354 
 14065      5F455053 
 14065      494C4F4E 
 14065      5F5F2030 
 14066              	.LASF424:
 14067 4e33 5349475F 		.ascii	"SIG_ATOMIC_MAX __STDINT_EXP(INT_MAX)\000"
 14067      41544F4D 
 14067      49435F4D 
 14067      4158205F 
 14067      5F535444 
 14068              	.LASF1126:
 14069 4e58 5353505F 		.ascii	"SSP_RORRIS\000"
 14069      524F5252 
 14069      495300
 14070              	.LASF93:
 14071 4e63 5F5F494E 		.ascii	"__INT_LEAST8_MAX__ 127\000"
 14071      545F4C45 
 14071      41535438 
 14071      5F4D4158 
 14071      5F5F2031 
 14072              	.LASF533:
 14073 4e7a 5343425F 		.ascii	"SCB_SHCSR_SVCALLPENDED_Msk (1UL << SCB_SHCSR_SVCALL"
 14073      53484353 
 14073      525F5356 
 14073      43414C4C 
 14073      50454E44 
 14074 4ead 50454E44 		.ascii	"PENDED_Pos)\000"
 14074      45445F50 
 14074      6F732900 
 14075              	.LASF326:
 14076 4eb9 5F5F6172 		.ascii	"__arm__ 1\000"
 14076      6D5F5F20 
 14076      3100
 14077              	.LASF646:
 14078 4ec3 494F434F 		.ascii	"IOCON_MODE_PULLDOWN (0x1 << 3)\000"
 14078      4E5F4D4F 
 14078      44455F50 
 14078      554C4C44 
 14078      4F574E20 
 14079              	.LASF822:
 14080 4ee2 5353505F 		.ascii	"SSP_CR0_FRF_MICROWIRE ((uint32_t) (2 << 4))\000"
 14080      4352305F 
ARM GAS  /tmp/cc7TFFKb.s 			page 328


 14080      4652465F 
 14080      4D494352 
 14080      4F574952 
 14081              	.LASF574:
 14082 4f0e 4C50435F 		.ascii	"LPC_SSP0_BASE 0x40040000\000"
 14082      53535030 
 14082      5F424153 
 14082      45203078 
 14082      34303034 
 14083              	.LASF696:
 14084 4f27 55415254 		.ascii	"UART_RBR_MASKBIT (0xFF)\000"
 14084      5F524252 
 14084      5F4D4153 
 14084      4B424954 
 14084      20283078 
 14085              	.LASF918:
 14086 4f3f 4932435F 		.ascii	"I2C_I2STAT_S_TX_ARB_LOST_M_SLA ((0xB0))\000"
 14086      49325354 
 14086      41545F53 
 14086      5F54585F 
 14086      4152425F 
 14087              	.LASF911:
 14088 4f67 4932435F 		.ascii	"I2C_I2STAT_S_RX_ARB_LOST_M_GENCALL ((0x78))\000"
 14088      49325354 
 14088      41545F53 
 14088      5F52585F 
 14088      4152425F 
 14089              	.LASF464:
 14090 4f93 5F5F434D 		.ascii	"__CMSIS_H_ \000"
 14090      5349535F 
 14090      485F2000 
 14091              	.LASF1176:
 14092 4f9f 43686970 		.ascii	"Chip_SSP_SendFrame\000"
 14092      5F535350 
 14092      5F53656E 
 14092      64467261 
 14092      6D6500
 14093              	.LASF982:
 14094 4fb2 4F445F45 		.ascii	"OD_EXP_RW 0x30\000"
 14094      58505F52 
 14094      57203078 
 14094      333000
 14095              	.LASF389:
 14096 4fc1 494E5431 		.ascii	"INT16_MIN (-__INT16_MAX__ - 1)\000"
 14096      365F4D49 
 14096      4E20282D 
 14096      5F5F494E 
 14096      5431365F 
 14097              	.LASF384:
 14098 4fe0 494E5438 		.ascii	"INT8_MAX __INT8_MAX__\000"
 14098      5F4D4158 
 14098      205F5F49 
 14098      4E54385F 
 14098      4D41585F 
 14099              	.LASF891:
 14100 4ff6 4932435F 		.ascii	"I2C_STAT_CODE_ERROR ((0xFF))\000"
 14100      53544154 
ARM GAS  /tmp/cc7TFFKb.s 			page 329


 14100      5F434F44 
 14100      455F4552 
 14100      524F5220 
 14101              	.LASF799:
 14102 5013 55415254 		.ascii	"UART_FDR_DIVADDVAL(n) (n & 0x0F)\000"
 14102      5F464452 
 14102      5F444956 
 14102      41444456 
 14102      414C286E 
 14103              	.LASF1191:
 14104 5034 43686970 		.ascii	"Chip_SSP_GetRawIntStatus\000"
 14104      5F535350 
 14104      5F476574 
 14104      52617749 
 14104      6E745374 
 14105              	.LASF166:
 14106 504d 5F5F4445 		.ascii	"__DEC32_MANT_DIG__ 7\000"
 14106      4333325F 
 14106      4D414E54 
 14106      5F444947 
 14106      5F5F2037 
 14107              	.LASF416:
 14108 5062 494E545F 		.ascii	"INT_FAST64_MIN (-__INT_FAST64_MAX__ - 1)\000"
 14108      46415354 
 14108      36345F4D 
 14108      494E2028 
 14108      2D5F5F49 
 14109              	.LASF348:
 14110 508b 5F4D4143 		.ascii	"_MACHINE__DEFAULT_TYPES_H \000"
 14110      48494E45 
 14110      5F5F4445 
 14110      4641554C 
 14110      545F5459 
 14111              	.LASF23:
 14112 50a6 5F5F4249 		.ascii	"__BIGGEST_ALIGNMENT__ 8\000"
 14112      47474553 
 14112      545F414C 
 14112      49474E4D 
 14112      454E545F 
 14113              	.LASF920:
 14114 50be 4932435F 		.ascii	"I2C_I2STAT_S_TX_DAT_NACK ((0xC0))\000"
 14114      49325354 
 14114      41545F53 
 14114      5F54585F 
 14114      4441545F 
 14115              	.LASF234:
 14116 50e0 5F5F5553 		.ascii	"__USACCUM_MIN__ 0.0UHK\000"
 14116      41434355 
 14116      4D5F4D49 
 14116      4E5F5F20 
 14116      302E3055 
 14117              	.LASF522:
 14118 50f7 5343425F 		.ascii	"SCB_SCR_SEVONPEND_Pos 4\000"
 14118      5343525F 
 14118      5345564F 
 14118      4E50454E 
 14118      445F506F 
ARM GAS  /tmp/cc7TFFKb.s 			page 330


 14119              	.LASF649:
 14120 510f 494F434F 		.ascii	"IOCON_HYS_EN (0x1 << 5)\000"
 14120      4E5F4859 
 14120      535F454E 
 14120      20283078 
 14120      31203C3C 
 14121              	.LASF1187:
 14122 5127 43686970 		.ascii	"Chip_Clock_GetSSP1ClockDiv\000"
 14122      5F436C6F 
 14122      636B5F47 
 14122      65745353 
 14122      5031436C 
 14123              	.LASF846:
 14124 5142 5F5F4C50 		.ascii	"__LPC_ERROR_H__ \000"
 14124      435F4552 
 14124      524F525F 
 14124      485F5F20 
 14124      00
 14125              	.LASF501:
 14126 5153 5343425F 		.ascii	"SCB_ICSR_PENDSTSET_Msk (1UL << SCB_ICSR_PENDSTSET_P"
 14126      49435352 
 14126      5F50454E 
 14126      44535453 
 14126      45545F4D 
 14127 5186 6F732900 		.ascii	"os)\000"
 14128              	.LASF1036:
 14129 518a 4D41494E 		.ascii	"MAINCLKUEN\000"
 14129      434C4B55 
 14129      454E00
 14130              	.LASF947:
 14131 5195 4932435F 		.ascii	"I2C_MONITOR_CFG_SCL_OUTPUT I2C_I2MMCTRL_ENA_SCL\000"
 14131      4D4F4E49 
 14131      544F525F 
 14131      4346475F 
 14131      53434C5F 
 14132              	.LASF829:
 14133 51c5 5353505F 		.ascii	"SSP_CR1_LBM_EN ((uint32_t) (1 << 0))\000"
 14133      4352315F 
 14133      4C424D5F 
 14133      454E2028 
 14133      2875696E 
 14134              	.LASF504:
 14135 51ea 5343425F 		.ascii	"SCB_ICSR_ISRPREEMPT_Pos 23\000"
 14135      49435352 
 14135      5F495352 
 14135      50524545 
 14135      4D50545F 
 14136              	.LASF1220:
 14137 5205 77646174 		.ascii	"wdata16\000"
 14137      61313600 
 14138              	.LASF494:
 14139 520d 5343425F 		.ascii	"SCB_ICSR_NMIPENDSET_Pos 31\000"
 14139      49435352 
 14139      5F4E4D49 
 14139      50454E44 
 14139      5345545F 
 14140              	.LASF977:
ARM GAS  /tmp/cc7TFFKb.s 			page 331


 14141 5228 53444F5F 		.ascii	"SDO_ABORT_LOCAL 0x08000021UL\000"
 14141      41424F52 
 14141      545F4C4F 
 14141      43414C20 
 14141      30783038 
 14142              	.LASF693:
 14143 5245 5F5F5249 		.ascii	"__RING_BUFFER_H_ \000"
 14143      4E475F42 
 14143      55464645 
 14143      525F485F 
 14143      2000
 14144              	.LASF330:
 14145 5257 5F5F4152 		.ascii	"__ARM_ARCH_ISA_THUMB 1\000"
 14145      4D5F4152 
 14145      43485F49 
 14145      53415F54 
 14145      48554D42 
 14146              	.LASF107:
 14147 526e 5F5F5549 		.ascii	"__UINT_LEAST64_MAX__ 18446744073709551615ULL\000"
 14147      4E545F4C 
 14147      45415354 
 14147      36345F4D 
 14147      41585F5F 
 14148              	.LASF470:
 14149 529b 5F5F434D 		.ascii	"__CM0_CMSIS_VERSION_MAIN (0x03)\000"
 14149      305F434D 
 14149      5349535F 
 14149      56455253 
 14149      494F4E5F 
 14150              	.LASF427:
 14151 52bb 57434841 		.ascii	"WCHAR_MIN __WCHAR_MIN__\000"
 14151      525F4D49 
 14151      4E205F5F 
 14151      57434841 
 14151      525F4D49 
 14152              	.LASF109:
 14153 52d3 5F5F494E 		.ascii	"__INT_FAST8_MAX__ 2147483647\000"
 14153      545F4641 
 14153      5354385F 
 14153      4D41585F 
 14153      5F203231 
 14154              	.LASF863:
 14155 52f0 4144435F 		.ascii	"ADC_CR_START_ADCTRIG0 ((4UL << 24))\000"
 14155      43525F53 
 14155      54415254 
 14155      5F414443 
 14155      54524947 
 14156              	.LASF1024:
 14157 5314 5359534F 		.ascii	"SYSOSCCTRL\000"
 14157      53434354 
 14157      524C00
 14158              	.LASF388:
 14159 531f 55494E54 		.ascii	"UINT_LEAST8_MAX __UINT_LEAST8_MAX__\000"
 14159      5F4C4541 
 14159      5354385F 
 14159      4D415820 
 14159      5F5F5549 
ARM GAS  /tmp/cc7TFFKb.s 			page 332


 14160              	.LASF734:
 14161 5343 55415254 		.ascii	"UART_LCR_WLEN6 (1 << 0)\000"
 14161      5F4C4352 
 14161      5F574C45 
 14161      4E362028 
 14161      31203C3C 
 14162              	.LASF1172:
 14163 535b 43686970 		.ascii	"Chip_SSP_DATA_SETUP_T\000"
 14163      5F535350 
 14163      5F444154 
 14163      415F5345 
 14163      5455505F 
 14164              	.LASF886:
 14165 5371 4932435F 		.ascii	"I2C_CON_SI (1UL << 3)\000"
 14165      434F4E5F 
 14165      53492028 
 14165      31554C20 
 14165      3C3C2033 
 14166              	.LASF203:
 14167 5387 5F5F5546 		.ascii	"__UFRACT_IBIT__ 0\000"
 14167      52414354 
 14167      5F494249 
 14167      545F5F20 
 14167      3000
 14168              	.LASF882:
 14169 5399 4932435F 		.ascii	"I2C_I2CONCLR_STOC ((1 << 4))\000"
 14169      4932434F 
 14169      4E434C52 
 14169      5F53544F 
 14169      43202828 
 14170              	.LASF552:
 14171 53b6 5343535F 		.ascii	"SCS_BASE (0xE000E000UL)\000"
 14171      42415345 
 14171      20283078 
 14171      45303030 
 14171      45303030 
 14172              	.LASF94:
 14173 53ce 5F5F494E 		.ascii	"__INT8_C(c) c\000"
 14173      54385F43 
 14173      28632920 
 14173      6300
 14174              	.LASF208:
 14175 53dc 5F5F4C46 		.ascii	"__LFRACT_IBIT__ 0\000"
 14175      52414354 
 14175      5F494249 
 14175      545F5F20 
 14175      3000
 14176              	.LASF866:
 14177 53ee 4144435F 		.ascii	"ADC_CR_EDGE ((1UL << 27))\000"
 14177      43525F45 
 14177      44474520 
 14177      28283155 
 14177      4C203C3C 
 14178              	.LASF468:
 14179 5408 5F5F5665 		.ascii	"__Vendor_SysTickConfig 0\000"
 14179      6E646F72 
 14179      5F537973 
ARM GAS  /tmp/cc7TFFKb.s 			page 333


 14179      5469636B 
 14179      436F6E66 
 14180              	.LASF697:
 14181 5421 55415254 		.ascii	"UART_LOAD_DLL(div) ((div) & 0xFF)\000"
 14181      5F4C4F41 
 14181      445F444C 
 14181      4C286469 
 14181      76292028 
 14182              	.LASF493:
 14183 5443 5343425F 		.ascii	"SCB_CPUID_REVISION_Msk (0xFUL << SCB_CPUID_REVISION"
 14183      43505549 
 14183      445F5245 
 14183      56495349 
 14183      4F4E5F4D 
 14184 5476 5F506F73 		.ascii	"_Pos)\000"
 14184      2900
 14185              	.LASF317:
 14186 547c 5F5F4743 		.ascii	"__GCC_ATOMIC_POINTER_LOCK_FREE 1\000"
 14186      435F4154 
 14186      4F4D4943 
 14186      5F504F49 
 14186      4E544552 
 14187              	.LASF140:
 14188 549d 5F5F4442 		.ascii	"__DBL_MIN_EXP__ (-1021)\000"
 14188      4C5F4D49 
 14188      4E5F4558 
 14188      505F5F20 
 14188      282D3130 
 14189              	.LASF671:
 14190 54b5 4D445F4F 		.ascii	"MD_OPENDRAIN (0x1 << 10)\000"
 14190      50454E44 
 14190      5241494E 
 14190      20283078 
 14190      31203C3C 
 14191              	.LASF455:
 14192 54ce 4E554C4C 		.ascii	"NULL ((void *) 0)\000"
 14192      20282876 
 14192      6F696420 
 14192      2A292030 
 14192      2900
 14193              	.LASF938:
 14194 54e0 4932435F 		.ascii	"I2C_OK 0x00\000"
 14194      4F4B2030 
 14194      78303000 
 14195              	.LASF173:
 14196 54ec 5F5F4445 		.ascii	"__DEC64_MANT_DIG__ 16\000"
 14196      4336345F 
 14196      4D414E54 
 14196      5F444947 
 14196      5F5F2031 
 14197              	.LASF1123:
 14198 5502 5353505F 		.ascii	"SSP_STAT_BSY\000"
 14198      53544154 
 14198      5F425359 
 14198      00
 14199              	.LASF950:
 14200 550f 43414E5F 		.ascii	"CAN_ERROR_NONE 0x00000000UL\000"
ARM GAS  /tmp/cc7TFFKb.s 			page 334


 14200      4552524F 
 14200      525F4E4F 
 14200      4E452030 
 14200      78303030 
 14201              	.LASF1097:
 14202 552b 53595343 		.ascii	"SYSCTL_CLOCK_FLASHREG\000"
 14202      544C5F43 
 14202      4C4F434B 
 14202      5F464C41 
 14202      53485245 
 14203              	.LASF771:
 14204 5541 55415254 		.ascii	"UART_MSR_DSR (1 << 5)\000"
 14204      5F4D5352 
 14204      5F445352 
 14204      20283120 
 14204      3C3C2035 
 14205              	.LASF176:
 14206 5557 5F5F4445 		.ascii	"__DEC64_MIN__ 1E-383DD\000"
 14206      4336345F 
 14206      4D494E5F 
 14206      5F203145 
 14206      2D333833 
 14207              	.LASF597:
 14208 556e 4C50435F 		.ascii	"LPC_IOCON ((LPC_IOCON_T *) LPC_IOCON_BASE)\000"
 14208      494F434F 
 14208      4E202828 
 14208      4C50435F 
 14208      494F434F 
 14209              	.LASF673:
 14210 5599 46554E43 		.ascii	"FUNC1 0x1\000"
 14210      31203078 
 14210      3100
 14211              	.LASF440:
 14212 55a3 55494E54 		.ascii	"UINTMAX_C(x) __UINTMAX_C(x)\000"
 14212      4D41585F 
 14212      43287829 
 14212      205F5F55 
 14212      494E544D 
 14213              	.LASF1241:
 14214 55bf 4F736352 		.ascii	"OscRateIn\000"
 14214      61746549 
 14214      6E00
 14215              	.LASF363:
 14216 55c9 5F5F4558 		.ascii	"__EXP\000"
 14216      5000
 14217              	.LASF651:
 14218 55cf 494F434F 		.ascii	"IOCON_ADMODE_EN (0x0 << 7)\000"
 14218      4E5F4144 
 14218      4D4F4445 
 14218      5F454E20 
 14218      28307830 
 14219              	.LASF358:
 14220 55ea 5F5F5F69 		.ascii	"___int64_t_defined 1\000"
 14220      6E743634 
 14220      5F745F64 
 14220      6566696E 
 14220      65642031 
ARM GAS  /tmp/cc7TFFKb.s 			page 335


 14221              	.LASF163:
 14222 55ff 5F5F4C44 		.ascii	"__LDBL_HAS_DENORM__ 1\000"
 14222      424C5F48 
 14222      41535F44 
 14222      454E4F52 
 14222      4D5F5F20 
 14223              	.LASF227:
 14224 5615 5F5F5341 		.ascii	"__SACCUM_FBIT__ 7\000"
 14224      4343554D 
 14224      5F464249 
 14224      545F5F20 
 14224      3700
 14225              	.LASF1131:
 14226 5627 5353505F 		.ascii	"SSP_RAWINTSTATUS_T\000"
 14226      52415749 
 14226      4E545354 
 14226      41545553 
 14226      5F5400
 14227              	.LASF699:
 14228 563a 55415254 		.ascii	"UART_LOAD_DLM(div) (((div) >> 8) & 0xFF)\000"
 14228      5F4C4F41 
 14228      445F444C 
 14228      4D286469 
 14228      76292028 
 14229              	.LASF701:
 14230 5663 55415254 		.ascii	"UART_IER_RBRINT (1 << 0)\000"
 14230      5F494552 
 14230      5F524252 
 14230      494E5420 
 14230      2831203C 
 14231              	.LASF108:
 14232 567c 5F5F5549 		.ascii	"__UINT64_C(c) c ## ULL\000"
 14232      4E543634 
 14232      5F432863 
 14232      29206320 
 14232      23232055 
 14233              	.LASF551:
 14234 5693 53797354 		.ascii	"SysTick_CALIB_TENMS_Msk (0xFFFFFFUL << SysTick_VAL_"
 14234      69636B5F 
 14234      43414C49 
 14234      425F5445 
 14234      4E4D535F 
 14235 56c6 43555252 		.ascii	"CURRENT_Pos)\000"
 14235      454E545F 
 14235      506F7329 
 14235      00
 14236              	.LASF694:
 14237 56d3 52425F56 		.ascii	"RB_VHEAD(rb) (*(volatile uint32_t *) &(rb)->head)\000"
 14237      48454144 
 14237      28726229 
 14237      20282A28 
 14237      766F6C61 
 14238              	.LASF415:
 14239 5705 55494E54 		.ascii	"UINT_FAST32_MAX __UINT_FAST32_MAX__\000"
 14239      5F464153 
 14239      5433325F 
 14239      4D415820 
ARM GAS  /tmp/cc7TFFKb.s 			page 336


 14239      5F5F5549 
 14240              	.LASF578:
 14241 5729 4C50435F 		.ascii	"LPC_CAN0_BASE 0x40050000\000"
 14241      43414E30 
 14241      5F424153 
 14241      45203078 
 14241      34303035 
 14242              	.LASF1107:
 14243 5742 53595343 		.ascii	"SYSCTL_CLOCK_ADC\000"
 14243      544C5F43 
 14243      4C4F434B 
 14243      5F414443 
 14243      00
 14244              	.LASF667:
 14245 5753 4D445F45 		.ascii	"MD_ENFIL (0x1 << 8)\000"
 14245      4E46494C 
 14245      20283078 
 14245      31203C3C 
 14245      20382900 
 14246              	.LASF972:
 14247 5767 53444F5F 		.ascii	"SDO_ABORT_ACCINCOMP 0x06040047UL\000"
 14247      41424F52 
 14247      545F4143 
 14247      43494E43 
 14247      4F4D5020 
 14248              	.LASF797:
 14249 5788 55415254 		.ascii	"UART_SCICTRL_TXRETRY(n) ((n & 0x07) << 5)\000"
 14249      5F534349 
 14249      4354524C 
 14249      5F545852 
 14249      45545259 
 14250              	.LASF198:
 14251 57b2 5F5F4652 		.ascii	"__FRACT_IBIT__ 0\000"
 14251      4143545F 
 14251      49424954 
 14251      5F5F2030 
 14251      00
 14252              	.LASF90:
 14253 57c3 5F5F5549 		.ascii	"__UINT16_MAX__ 65535\000"
 14253      4E543136 
 14253      5F4D4158 
 14253      5F5F2036 
 14253      35353335 
 14254              	.LASF681:
 14255 57d8 54494D45 		.ascii	"TIMER_IR_CLR(n) _BIT(n)\000"
 14255      525F4952 
 14255      5F434C52 
 14255      286E2920 
 14255      5F424954 
 14256              	.LASF968:
 14257 57f0 53444F5F 		.ascii	"SDO_ABORT_WRITEONLY 0x06010001UL\000"
 14257      41424F52 
 14257      545F5752 
 14257      4954454F 
 14257      4E4C5920 
 14258              	.LASF814:
 14259 5811 57574454 		.ascii	"WWDT_WDMOD_WDRESET ((uint32_t) (1 << 1))\000"
ARM GAS  /tmp/cc7TFFKb.s 			page 337


 14259      5F57444D 
 14259      4F445F57 
 14259      44524553 
 14259      45542028 
 14260              	.LASF24:
 14261 583a 5F5F4F52 		.ascii	"__ORDER_LITTLE_ENDIAN__ 1234\000"
 14261      4445525F 
 14261      4C495454 
 14261      4C455F45 
 14261      4E444941 
 14262              	.LASF932:
 14263 5857 4932435F 		.ascii	"I2C_I2MASK_MASK(n) ((n & 0xFE))\000"
 14263      49324D41 
 14263      534B5F4D 
 14263      41534B28 
 14263      6E292028 
 14264              	.LASF1004:
 14265 5877 6C6F6E67 		.ascii	"long long unsigned int\000"
 14265      206C6F6E 
 14265      6720756E 
 14265      7369676E 
 14265      65642069 
 14266              	.LASF917:
 14267 588e 4932435F 		.ascii	"I2C_I2STAT_S_TX_SLAR_ACK ((0xA8))\000"
 14267      49325354 
 14267      41545F53 
 14267      5F54585F 
 14267      534C4152 
 14268              	.LASF253:
 14269 58b0 5F5F554C 		.ascii	"__ULACCUM_IBIT__ 32\000"
 14269      41434355 
 14269      4D5F4942 
 14269      49545F5F 
 14269      20333200 
 14270              	.LASF823:
 14271 58c4 5353505F 		.ascii	"SSP_CR0_CPOL_LO ((uint32_t) (0))\000"
 14271      4352305F 
 14271      43504F4C 
 14271      5F4C4F20 
 14271      28287569 
 14272              	.LASF1108:
 14273 58e5 53595343 		.ascii	"SYSCTL_CLOCK_RESERVED14\000"
 14273      544C5F43 
 14273      4C4F434B 
 14273      5F524553 
 14273      45525645 
 14274              	.LASF1232:
 14275 58fd 6372305F 		.ascii	"cr0_div\000"
 14275      64697600 
 14276              	.LASF328:
 14277 5905 5F5F4150 		.ascii	"__APCS_32__ 1\000"
 14277      43535F33 
 14277      325F5F20 
 14277      3100
 14278              	.LASF1204:
 14279 5913 43686970 		.ascii	"Chip_Clock_EnablePeriphClock\000"
 14279      5F436C6F 
ARM GAS  /tmp/cc7TFFKb.s 			page 338


 14279      636B5F45 
 14279      6E61626C 
 14279      65506572 
 14280              	.LASF850:
 14281 5930 4144435F 		.ascii	"ADC_DR_RESULT(n) ((((n) >> 6) & 0x3FF))\000"
 14281      44525F52 
 14281      4553554C 
 14281      54286E29 
 14281      20282828 
 14282              	.LASF1171:
 14283 5958 6C656E67 		.ascii	"length\000"
 14283      746800
 14284              	.LASF1006:
 14285 595f 75696E74 		.ascii	"uint16_t\000"
 14285      31365F74 
 14285      00
 14286              	.LASF273:
 14287 5968 5F5F4451 		.ascii	"__DQ_FBIT__ 63\000"
 14287      5F464249 
 14287      545F5F20 
 14287      363300
 14288              	.LASF1106:
 14289 5977 53595343 		.ascii	"SYSCTL_CLOCK_UART0\000"
 14289      544C5F43 
 14289      4C4F434B 
 14289      5F554152 
 14289      543000
 14290              	.LASF1099:
 14291 598a 53595343 		.ascii	"SYSCTL_CLOCK_I2C\000"
 14291      544C5F43 
 14291      4C4F434B 
 14291      5F493243 
 14291      00
 14292              	.LASF61:
 14293 599b 5F5F5549 		.ascii	"__UINT_FAST32_TYPE__ unsigned int\000"
 14293      4E545F46 
 14293      41535433 
 14293      325F5459 
 14293      50455F5F 
 14294              	.LASF56:
 14295 59bd 5F5F494E 		.ascii	"__INT_FAST16_TYPE__ int\000"
 14295      545F4641 
 14295      53543136 
 14295      5F545950 
 14295      455F5F20 
 14296              	.LASF622:
 14297 59d5 53595343 		.ascii	"SYSCTL_SLPWAKE_ADC_PD (1 << 4)\000"
 14297      544C5F53 
 14297      4C505741 
 14297      4B455F41 
 14297      44435F50 
 14298              	.LASF611:
 14299 59f4 53595343 		.ascii	"SYSCTL_RST_EXTRST (1 << 1)\000"
 14299      544C5F52 
 14299      53545F45 
 14299      58545253 
 14299      54202831 
ARM GAS  /tmp/cc7TFFKb.s 			page 339


 14300              	.LASF229:
 14301 5a0f 5F5F5341 		.ascii	"__SACCUM_MIN__ (-0X1P7HK-0X1P7HK)\000"
 14301      4343554D 
 14301      5F4D494E 
 14301      5F5F2028 
 14301      2D305831 
 14302              	.LASF215:
 14303 5a31 5F5F554C 		.ascii	"__ULFRACT_MAX__ 0XFFFFFFFFP-32ULR\000"
 14303      46524143 
 14303      545F4D41 
 14303      585F5F20 
 14303      30584646 
 14304              	.LASF544:
 14305 5a53 53797354 		.ascii	"SysTick_VAL_CURRENT_Pos 0\000"
 14305      69636B5F 
 14305      56414C5F 
 14305      43555252 
 14305      454E545F 
 14306              	.LASF52:
 14307 5a6d 5F5F5549 		.ascii	"__UINT_LEAST16_TYPE__ short unsigned int\000"
 14307      4E545F4C 
 14307      45415354 
 14307      31365F54 
 14307      5950455F 
 14308              	.LASF867:
 14309 5a96 4144435F 		.ascii	"ADC_SAMPLE_RATE_CONFIG_MASK (ADC_CR_CLKDIV(0xFF) | "
 14309      53414D50 
 14309      4C455F52 
 14309      4154455F 
 14309      434F4E46 
 14310 5ac9 4144435F 		.ascii	"ADC_CR_BITACC(0x07))\000"
 14310      43525F42 
 14310      49544143 
 14310      43283078 
 14310      30372929 
 14311              	.LASF1058:
 14312 5ade 52455345 		.ascii	"RESERVED10\000"
 14312      52564544 
 14312      313000
 14313              	.LASF1061:
 14314 5ae9 52455345 		.ascii	"RESERVED11\000"
 14314      52564544 
 14314      313100
 14315              	.LASF1067:
 14316 5af4 52455345 		.ascii	"RESERVED12\000"
 14316      52564544 
 14316      313200
 14317              	.LASF1072:
 14318 5aff 52455345 		.ascii	"RESERVED13\000"
 14318      52564544 
 14318      313300
 14319              	.LASF1074:
 14320 5b0a 52455345 		.ascii	"RESERVED14\000"
 14320      52564544 
 14320      313400
 14321              	.LASF1078:
 14322 5b15 52455345 		.ascii	"RESERVED15\000"
ARM GAS  /tmp/cc7TFFKb.s 			page 340


 14322      52564544 
 14322      313500
 14323              	.LASF1227:
 14324 5b20 43686970 		.ascii	"Chip_SSP_SetMaster\000"
 14324      5F535350 
 14324      5F536574 
 14324      4D617374 
 14324      657200
 14325              	.LASF1121:
 14326 5b33 5353505F 		.ascii	"SSP_STAT_RNE\000"
 14326      53544154 
 14326      5F524E45 
 14326      00
 14327              	.LASF103:
 14328 5b40 5F5F5549 		.ascii	"__UINT_LEAST16_MAX__ 65535\000"
 14328      4E545F4C 
 14328      45415354 
 14328      31365F4D 
 14328      41585F5F 
 14329              	.LASF285:
 14330 5b5b 5F5F5554 		.ascii	"__UTQ_FBIT__ 128\000"
 14330      515F4642 
 14330      49545F5F 
 14330      20313238 
 14330      00
 14331              	.LASF688:
 14332 5b6c 54494D45 		.ascii	"TIMER_STOP_ON_MATCH(n) (_BIT((((n) * 3) + 2)))\000"
 14332      525F5354 
 14332      4F505F4F 
 14332      4E5F4D41 
 14332      54434828 
 14333              	.LASF942:
 14334 5b9b 4932435F 		.ascii	"I2C_SEND_END 0x08\000"
 14334      53454E44 
 14334      5F454E44 
 14334      20307830 
 14334      3800
 14335              	.LASF935:
 14336 5bad 4932435F 		.ascii	"I2C_SETUP_STATUS_ARBF (1 << 8)\000"
 14336      53455455 
 14336      505F5354 
 14336      41545553 
 14336      5F415242 
 14337              	.LASF261:
 14338 5bcc 5F5F4C4C 		.ascii	"__LLACCUM_EPSILON__ 0x1P-31LLK\000"
 14338      41434355 
 14338      4D5F4550 
 14338      53494C4F 
 14338      4E5F5F20 
 14339              	.LASF13:
 14340 5beb 5F5F4649 		.ascii	"__FINITE_MATH_ONLY__ 0\000"
 14340      4E495445 
 14340      5F4D4154 
 14340      485F4F4E 
 14340      4C595F5F 
 14341              	.LASF708:
 14342 5c02 55415254 		.ascii	"UART_IER_BITMASK (0x307)\000"
ARM GAS  /tmp/cc7TFFKb.s 			page 341


 14342      5F494552 
 14342      5F424954 
 14342      4D41534B 
 14342      20283078 
 14343              	.LASF366:
 14344 5c1b 5F5F6861 		.ascii	"__have_longlong64 1\000"
 14344      76655F6C 
 14344      6F6E676C 
 14344      6F6E6736 
 14344      34203100 
 14345              	.LASF484:
 14346 5c2f 5343425F 		.ascii	"SCB_CPUID_IMPLEMENTER_Pos 24\000"
 14346      43505549 
 14346      445F494D 
 14346      504C454D 
 14346      454E5445 
 14347              	.LASF1147:
 14348 5c4c 5353505F 		.ascii	"SSP_FRAMEFORMAT_SPI\000"
 14348      4652414D 
 14348      45464F52 
 14348      4D41545F 
 14348      53504900 
 14349              	.LASF1039:
 14350 5c60 53595341 		.ascii	"SYSAHBCLKCTRL\000"
 14350      4842434C 
 14350      4B435452 
 14350      4C00
 14351              	.LASF469:
 14352 5c6e 5F5F434F 		.ascii	"__CORE_CM0_H_GENERIC \000"
 14352      52455F43 
 14352      4D305F48 
 14352      5F47454E 
 14352      45524943 
 14353              	.LASF425:
 14354 5c84 50545244 		.ascii	"PTRDIFF_MAX __PTRDIFF_MAX__\000"
 14354      4946465F 
 14354      4D415820 
 14354      5F5F5054 
 14354      52444946 
 14355              	.LASF595:
 14356 5ca0 4C50435F 		.ascii	"LPC_FMC ((LPC_FMC_T *) LPC_FLASH_BASE)\000"
 14356      464D4320 
 14356      28284C50 
 14356      435F464D 
 14356      435F5420 
 14357              	.LASF1026:
 14358 5cc7 49524343 		.ascii	"IRCCTRL\000"
 14358      54524C00 
 14359              	.LASF804:
 14360 5ccf 55415254 		.ascii	"UART_SYNCCTRL_SYNC (1 << 0)\000"
 14360      5F53594E 
 14360      43435452 
 14360      4C5F5359 
 14360      4E432028 
 14361              	.LASF327:
 14362 5ceb 5F5F4152 		.ascii	"__ARM_ARCH 6\000"
 14362      4D5F4152 
ARM GAS  /tmp/cc7TFFKb.s 			page 342


 14362      43482036 
 14362      00
 14363              	.LASF807:
 14364 5cf8 55415254 		.ascii	"UART_SYNCCTRL_TSBYPASS (1 << 3)\000"
 14364      5F53594E 
 14364      43435452 
 14364      4C5F5453 
 14364      42595041 
 14365              	.LASF939:
 14366 5d18 4932435F 		.ascii	"I2C_BYTE_SENT 0x01\000"
 14366      42595445 
 14366      5F53454E 
 14366      54203078 
 14366      303100
 14367              	.LASF255:
 14368 5d2b 5F5F554C 		.ascii	"__ULACCUM_MAX__ 0XFFFFFFFFFFFFFFFFP-32ULK\000"
 14368      41434355 
 14368      4D5F4D41 
 14368      585F5F20 
 14368      30584646 
 14369              	.LASF1012:
 14370 5d55 53554343 		.ascii	"SUCCESS\000"
 14370      45535300 
 14371              	.LASF577:
 14372 5d5d 4C50435F 		.ascii	"LPC_USB0_BASE 0x40080000\000"
 14372      55534230 
 14372      5F424153 
 14372      45203078 
 14372      34303038 
 14373              	.LASF214:
 14374 5d76 5F5F554C 		.ascii	"__ULFRACT_MIN__ 0.0ULR\000"
 14374      46524143 
 14374      545F4D49 
 14374      4E5F5F20 
 14374      302E3055 
 14375              	.LASF1076:
 14376 5d8d 50445741 		.ascii	"PDWAKECFG\000"
 14376      4B454346 
 14376      4700
 14377              	.LASF274:
 14378 5d97 5F5F4451 		.ascii	"__DQ_IBIT__ 0\000"
 14378      5F494249 
 14378      545F5F20 
 14378      3000
 14379              	.LASF1066:
 14380 5da5 55534243 		.ascii	"USBCLKST\000"
 14380      4C4B5354 
 14380      00
 14381              	.LASF1018:
 14382 5dae 50524553 		.ascii	"PRESETCTRL\000"
 14382      45544354 
 14382      524C00
 14383              	.LASF625:
 14384 5db9 53595343 		.ascii	"SYSCTL_SLPWAKE_SYSPLL_PD (1 << 7)\000"
 14384      544C5F53 
 14384      4C505741 
 14384      4B455F53 
ARM GAS  /tmp/cc7TFFKb.s 			page 343


 14384      5953504C 
 14385              	.LASF486:
 14386 5ddb 5343425F 		.ascii	"SCB_CPUID_VARIANT_Pos 20\000"
 14386      43505549 
 14386      445F5641 
 14386      5249414E 
 14386      545F506F 
 14387              	.LASF617:
 14388 5df4 53595343 		.ascii	"SYSCTL_DEEPSLP_WDTOSC_PD (1 << 6)\000"
 14388      544C5F44 
 14388      45455053 
 14388      4C505F57 
 14388      44544F53 
 14389              	.LASF717:
 14390 5e16 55415254 		.ascii	"UART_IIR_INTID_RLS (3 << 1)\000"
 14390      5F494952 
 14390      5F494E54 
 14390      49445F52 
 14390      4C532028 
 14391              	.LASF99:
 14392 5e32 5F5F494E 		.ascii	"__INT_LEAST64_MAX__ 9223372036854775807LL\000"
 14392      545F4C45 
 14392      41535436 
 14392      345F4D41 
 14392      585F5F20 
 14393              	.LASF394:
 14394 5e5c 55494E54 		.ascii	"UINT_LEAST16_MAX __UINT_LEAST16_MAX__\000"
 14394      5F4C4541 
 14394      53543136 
 14394      5F4D4158 
 14394      205F5F55 
 14395              	.LASF992:
 14396 5e82 4C50435F 		.ascii	"LPC_CCAN_API ((CCAN_API_T *) (LPC_ROM_API->candApiB"
 14396      4343414E 
 14396      5F415049 
 14396      20282843 
 14396      43414E5F 
 14397 5eb5 61736529 		.ascii	"ase))\000"
 14397      2900
 14398              	.LASF560:
 14399 5ebb 5F534850 		.ascii	"_SHP_IDX(IRQn) ( ((((uint32_t)(IRQn) & 0x0F)-8) >> "
 14399      5F494458 
 14399      28495251 
 14399      6E292028 
 14399      20282828 
 14400 5eee 32292029 		.ascii	"2) )\000"
 14400      00
 14401              	.LASF587:
 14402 5ef3 4C50435F 		.ascii	"LPC_WWDT ((LPC_WWDT_T *) LPC_WWDT_BASE)\000"
 14402      57574454 
 14402      2028284C 
 14402      50435F57 
 14402      5744545F 
 14403              	.LASF539:
 14404 5f1b 53797354 		.ascii	"SysTick_CTRL_TICKINT_Msk (1UL << SysTick_CTRL_TICKI"
 14404      69636B5F 
 14404      4354524C 
ARM GAS  /tmp/cc7TFFKb.s 			page 344


 14404      5F544943 
 14404      4B494E54 
 14405 5f4e 4E545F50 		.ascii	"NT_Pos)\000"
 14405      6F732900 
 14406              	.LASF772:
 14407 5f56 55415254 		.ascii	"UART_MSR_RI (1 << 6)\000"
 14407      5F4D5352 
 14407      5F524920 
 14407      2831203C 
 14407      3C203629 
 14408              	.LASF335:
 14409 5f6b 5F5F4152 		.ascii	"__ARM_FP 12\000"
 14409      4D5F4650 
 14409      20313200 
 14410              	.LASF78:
 14411 5f77 5F5F5349 		.ascii	"__SIZE_MAX__ 4294967295U\000"
 14411      5A455F4D 
 14411      41585F5F 
 14411      20343239 
 14411      34393637 
 14412              	.LASF1008:
 14413 5f90 52455345 		.ascii	"RESET\000"
 14413      5400
 14414              	.LASF286:
 14415 5f96 5F5F5554 		.ascii	"__UTQ_IBIT__ 0\000"
 14415      515F4942 
 14415      49545F5F 
 14415      203000
 14416              	.LASF414:
 14417 5fa5 494E545F 		.ascii	"INT_FAST32_MAX __INT_FAST32_MAX__\000"
 14417      46415354 
 14417      33325F4D 
 14417      4158205F 
 14417      5F494E54 
 14418              	.LASF289:
 14419 5fc7 5F5F5341 		.ascii	"__SA_FBIT__ 15\000"
 14419      5F464249 
 14419      545F5F20 
 14419      313500
 14420              	.LASF221:
 14421 5fd6 5F5F4C4C 		.ascii	"__LLFRACT_EPSILON__ 0x1P-63LLR\000"
 14421      46524143 
 14421      545F4550 
 14421      53494C4F 
 14421      4E5F5F20 
 14422              	.LASF800:
 14423 5ff5 55415254 		.ascii	"UART_FDR_MULVAL(n) ((n << 4) & 0xF0)\000"
 14423      5F464452 
 14423      5F4D554C 
 14423      56414C28 
 14423      6E292028 
 14424              	.LASF1168:
 14425 601a 74785F63 		.ascii	"tx_cnt\000"
 14425      6E7400
 14426              	.LASF674:
 14427 6021 46554E43 		.ascii	"FUNC2 0x2\000"
 14427      32203078 
ARM GAS  /tmp/cc7TFFKb.s 			page 345


 14427      3200
 14428              	.LASF1049:
 14429 602b 57445443 		.ascii	"WDTCLKSEL\000"
 14429      4C4B5345 
 14429      4C00
 14430              	.LASF580:
 14431 6035 4C50435F 		.ascii	"LPC_GPIO_PORT0_BASE 0x50000000\000"
 14431      4750494F 
 14431      5F504F52 
 14431      54305F42 
 14431      41534520 
 14432              	.LASF777:
 14433 6054 55415254 		.ascii	"UART_ACR_AUTO_RESTART (1 << 2)\000"
 14433      5F414352 
 14433      5F415554 
 14433      4F5F5245 
 14433      53544152 
 14434              	.LASF342:
 14435 6073 5F5F454C 		.ascii	"__ELF__ 1\000"
 14435      465F5F20 
 14435      3100
 14436              	.LASF395:
 14437 607d 494E5433 		.ascii	"INT32_MIN (-__INT32_MAX__ - 1)\000"
 14437      325F4D49 
 14437      4E20282D 
 14437      5F5F494E 
 14437      5433325F 
 14438              	.LASF85:
 14439 609c 5F5F494E 		.ascii	"__INT8_MAX__ 127\000"
 14439      54385F4D 
 14439      41585F5F 
 14439      20313237 
 14439      00
 14440              	.LASF640:
 14441 60ad 494F434F 		.ascii	"IOCON_FUNC3 0x3\000"
 14441      4E5F4655 
 14441      4E433320 
 14441      30783300 
 14442              	.LASF604:
 14443 60bd 504D555F 		.ascii	"PMU_PCON_PM_SLEEP (0x0)\000"
 14443      50434F4E 
 14443      5F504D5F 
 14443      534C4545 
 14443      50202830 
 14444              	.LASF979:
 14445 60d5 4F445F4E 		.ascii	"OD_NONE 0x00\000"
 14445      4F4E4520 
 14445      30783030 
 14445      00
 14446              	.LASF268:
 14447 60e2 5F5F5151 		.ascii	"__QQ_IBIT__ 0\000"
 14447      5F494249 
 14447      545F5F20 
 14447      3000
 14448              	.LASF865:
 14449 60f0 4144435F 		.ascii	"ADC_CR_START_MCOA2 ((6UL << 24))\000"
 14449      43525F53 
ARM GAS  /tmp/cc7TFFKb.s 			page 346


 14449      54415254 
 14449      5F4D434F 
 14449      41322028 
 14450              	.LASF858:
 14451 6111 4144435F 		.ascii	"ADC_CR_START_MASK ((7UL << 24))\000"
 14451      43525F53 
 14451      54415254 
 14451      5F4D4153 
 14451      4B202828 
 14452              	.LASF565:
 14453 6131 4C50435F 		.ascii	"LPC_TIMER16_0_BASE 0x4000C000\000"
 14453      54494D45 
 14453      5231365F 
 14453      305F4241 
 14453      53452030 
 14454              	.LASF438:
 14455 614f 55494E54 		.ascii	"UINT64_C(x) __UINT64_C(x)\000"
 14455      36345F43 
 14455      28782920 
 14455      5F5F5549 
 14455      4E543634 
 14456              	.LASF257:
 14457 6169 5F5F4C4C 		.ascii	"__LLACCUM_FBIT__ 31\000"
 14457      41434355 
 14457      4D5F4642 
 14457      49545F5F 
 14457      20333100 
 14458              	.LASF81:
 14459 617d 5F5F5549 		.ascii	"__UINTMAX_MAX__ 18446744073709551615ULL\000"
 14459      4E544D41 
 14459      585F4D41 
 14459      585F5F20 
 14459      31383434 
 14460              	.LASF129:
 14461 61a5 5F5F464C 		.ascii	"__FLT_MAX_10_EXP__ 38\000"
 14461      545F4D41 
 14461      585F3130 
 14461      5F455850 
 14461      5F5F2033 
 14462              	.LASF637:
 14463 61bb 494F434F 		.ascii	"IOCON_FUNC0 0x0\000"
 14463      4E5F4655 
 14463      4E433020 
 14463      30783000 
 14464              	.LASF282:
 14465 61cb 5F5F5553 		.ascii	"__USQ_IBIT__ 0\000"
 14465      515F4942 
 14465      49545F5F 
 14465      203000
 14466              	.LASF53:
 14467 61da 5F5F5549 		.ascii	"__UINT_LEAST32_TYPE__ long unsigned int\000"
 14467      4E545F4C 
 14467      45415354 
 14467      33325F54 
 14467      5950455F 
 14468              	.LASF280:
 14469 6202 5F5F5548 		.ascii	"__UHQ_IBIT__ 0\000"
ARM GAS  /tmp/cc7TFFKb.s 			page 347


 14469      515F4942 
 14469      49545F5F 
 14469      203000
 14470              	.LASF3:
 14471 6211 5F5F474E 		.ascii	"__GNUC_MINOR__ 9\000"
 14471      55435F4D 
 14471      494E4F52 
 14471      5F5F2039 
 14471      00
 14472              	.LASF1009:
 14473 6222 466C6167 		.ascii	"FlagStatus\000"
 14473      53746174 
 14473      757300
 14474              	.LASF313:
 14475 622d 5F5F4743 		.ascii	"__GCC_ATOMIC_INT_LOCK_FREE 1\000"
 14475      435F4154 
 14475      4F4D4943 
 14475      5F494E54 
 14475      5F4C4F43 
 14476              	.LASF97:
 14477 624a 5F5F494E 		.ascii	"__INT_LEAST32_MAX__ 2147483647L\000"
 14477      545F4C45 
 14477      41535433 
 14477      325F4D41 
 14477      585F5F20 
 14478              	.LASF306:
 14479 626a 5F5F4348 		.ascii	"__CHAR_UNSIGNED__ 1\000"
 14479      41525F55 
 14479      4E534947 
 14479      4E45445F 
 14479      5F203100 
 14480              	.LASF1230:
 14481 627e 62697452 		.ascii	"bitRate\000"
 14481      61746500 
 14482              	.LASF1175:
 14483 6286 70657269 		.ascii	"periph\000"
 14483      706800
 14484              	.LASF904:
 14485 628d 4932435F 		.ascii	"I2C_I2STAT_M_RX_SLAR_ACK ((0x40))\000"
 14485      49325354 
 14485      41545F4D 
 14485      5F52585F 
 14485      534C4152 
 14486              	.LASF647:
 14487 62af 494F434F 		.ascii	"IOCON_MODE_PULLUP (0x2 << 3)\000"
 14487      4E5F4D4F 
 14487      44455F50 
 14487      554C4C55 
 14487      50202830 
 14488              	.LASF733:
 14489 62cc 55415254 		.ascii	"UART_LCR_WLEN5 (0 << 0)\000"
 14489      5F4C4352 
 14489      5F574C45 
 14489      4E352028 
 14489      30203C3C 
 14490              	.LASF1157:
 14491 62e4 5353505F 		.ascii	"SSP_BITS_10\000"
ARM GAS  /tmp/cc7TFFKb.s 			page 348


 14491      42495453 
 14491      5F313000 
 14492              	.LASF1158:
 14493 62f0 5353505F 		.ascii	"SSP_BITS_11\000"
 14493      42495453 
 14493      5F313100 
 14494              	.LASF1149:
 14495 62fc 5353505F 		.ascii	"SSP_FRAMEFORMAT_MICROWIRE\000"
 14495      4652414D 
 14495      45464F52 
 14495      4D41545F 
 14495      4D494352 
 14496              	.LASF1160:
 14497 6316 5353505F 		.ascii	"SSP_BITS_13\000"
 14497      42495453 
 14497      5F313300 
 14498              	.LASF1161:
 14499 6322 5353505F 		.ascii	"SSP_BITS_14\000"
 14499      42495453 
 14499      5F313400 
 14500              	.LASF1162:
 14501 632e 5353505F 		.ascii	"SSP_BITS_15\000"
 14501      42495453 
 14501      5F313500 
 14502              	.LASF1163:
 14503 633a 5353505F 		.ascii	"SSP_BITS_16\000"
 14503      42495453 
 14503      5F313600 
 14504              	.LASF435:
 14505 6346 494E5433 		.ascii	"INT32_C(x) __INT32_C(x)\000"
 14505      325F4328 
 14505      7829205F 
 14505      5F494E54 
 14505      33325F43 
 14506              	.LASF220:
 14507 635e 5F5F4C4C 		.ascii	"__LLFRACT_MAX__ 0X7FFFFFFFFFFFFFFFP-63LLR\000"
 14507      46524143 
 14507      545F4D41 
 14507      585F5F20 
 14507      30583746 
 14508              	.LASF543:
 14509 6388 53797354 		.ascii	"SysTick_LOAD_RELOAD_Msk (0xFFFFFFUL << SysTick_LOAD"
 14509      69636B5F 
 14509      4C4F4144 
 14509      5F52454C 
 14509      4F41445F 
 14510 63bb 5F52454C 		.ascii	"_RELOAD_Pos)\000"
 14510      4F41445F 
 14510      506F7329 
 14510      00
 14511              	.LASF1114:
 14512 63c8 43505352 		.ascii	"CPSR\000"
 14512      00
 14513              	.LASF635:
 14514 63cd 53595343 		.ascii	"SYSCTL_IRC_FREQ (12000000)\000"
 14514      544C5F49 
 14514      52435F46 
ARM GAS  /tmp/cc7TFFKb.s 			page 349


 14514      52455120 
 14514      28313230 
 14515              	.LASF77:
 14516 63e8 5F5F5054 		.ascii	"__PTRDIFF_MAX__ 2147483647\000"
 14516      52444946 
 14516      465F4D41 
 14516      585F5F20 
 14516      32313437 
 14517              	.LASF497:
 14518 6403 5343425F 		.ascii	"SCB_ICSR_PENDSVSET_Msk (1UL << SCB_ICSR_PENDSVSET_P"
 14518      49435352 
 14518      5F50454E 
 14518      44535653 
 14518      45545F4D 
 14519 6436 6F732900 		.ascii	"os)\000"
 14520              	.LASF546:
 14521 643a 53797354 		.ascii	"SysTick_CALIB_NOREF_Pos 31\000"
 14521      69636B5F 
 14521      43414C49 
 14521      425F4E4F 
 14521      5245465F 
 14522              	.LASF230:
 14523 6455 5F5F5341 		.ascii	"__SACCUM_MAX__ 0X7FFFP-7HK\000"
 14523      4343554D 
 14523      5F4D4158 
 14523      5F5F2030 
 14523      58374646 
 14524              	.LASF63:
 14525 6470 5F5F494E 		.ascii	"__INTPTR_TYPE__ int\000"
 14525      54505452 
 14525      5F545950 
 14525      455F5F20 
 14525      696E7400 
 14526              	.LASF36:
 14527 6484 5F5F4348 		.ascii	"__CHAR16_TYPE__ short unsigned int\000"
 14527      41523136 
 14527      5F545950 
 14527      455F5F20 
 14527      73686F72 
 14528              	.LASF1205:
 14529 64a7 43686970 		.ascii	"Chip_SSP_SetSSPClkDivider\000"
 14529      5F535350 
 14529      5F536574 
 14529      53535043 
 14529      6C6B4469 
 14530              	.LASF541:
 14531 64c1 53797354 		.ascii	"SysTick_CTRL_ENABLE_Msk (1UL << SysTick_CTRL_ENABLE"
 14531      69636B5F 
 14531      4354524C 
 14531      5F454E41 
 14531      424C455F 
 14532 64f4 5F506F73 		.ascii	"_Pos)\000"
 14532      2900
 14533              	.LASF303:
 14534 64fa 5F5F5245 		.ascii	"__REGISTER_PREFIX__ \000"
 14534      47495354 
 14534      45525F50 
ARM GAS  /tmp/cc7TFFKb.s 			page 350


 14534      52454649 
 14534      585F5F20 
 14535              	.LASF186:
 14536 650f 5F5F4445 		.ascii	"__DEC128_SUBNORMAL_MIN__ 0.000000000000000000000000"
 14536      43313238 
 14536      5F535542 
 14536      4E4F524D 
 14536      414C5F4D 
 14537 6542 30303030 		.ascii	"000000001E-6143DL\000"
 14537      30303030 
 14537      31452D36 
 14537      31343344 
 14537      4C00
 14538              	.LASF1027:
 14539 6554 4C464F53 		.ascii	"LFOSCCTRL\000"
 14539      43435452 
 14539      4C00
 14540              	.LASF216:
 14541 655e 5F5F554C 		.ascii	"__ULFRACT_EPSILON__ 0x1P-32ULR\000"
 14541      46524143 
 14541      545F4550 
 14541      53494C4F 
 14541      4E5F5F20 
 14542              	.LASF987:
 14543 657d 43414E5F 		.ascii	"CAN_SDOREQ_HANDLED_SEND 1\000"
 14543      53444F52 
 14543      45515F48 
 14543      414E444C 
 14543      45445F53 
 14544              	.LASF338:
 14545 6597 5F5F4152 		.ascii	"__ARM_ARCH_6M__ 1\000"
 14545      4D5F4152 
 14545      43485F36 
 14545      4D5F5F20 
 14545      3100
 14546              	.LASF21:
 14547 65a9 5F5F5349 		.ascii	"__SIZEOF_SIZE_T__ 4\000"
 14547      5A454F46 
 14547      5F53495A 
 14547      455F545F 
 14547      5F203400 
 14548              	.LASF758:
 14549 65bd 55415254 		.ascii	"UART_LSR_FE (1 << 3)\000"
 14549      5F4C5352 
 14549      5F464520 
 14549      2831203C 
 14549      3C203329 
 14550              	.LASF812:
 14551 65d2 57574454 		.ascii	"WWDT_WDMOD_BITMASK ((uint32_t) 0x1F)\000"
 14551      5F57444D 
 14551      4F445F42 
 14551      49544D41 
 14551      534B2028 
 14552              	.LASF46:
 14553 65f7 5F5F5549 		.ascii	"__UINT64_TYPE__ long long unsigned int\000"
 14553      4E543634 
 14553      5F545950 
ARM GAS  /tmp/cc7TFFKb.s 			page 351


 14553      455F5F20 
 14553      6C6F6E67 
 14554              	.LASF183:
 14555 661e 5F5F4445 		.ascii	"__DEC128_MIN__ 1E-6143DL\000"
 14555      43313238 
 14555      5F4D494E 
 14555      5F5F2031 
 14555      452D3631 
 14556              	.LASF100:
 14557 6637 5F5F494E 		.ascii	"__INT64_C(c) c ## LL\000"
 14557      5436345F 
 14557      43286329 
 14557      20632023 
 14557      23204C4C 
 14558              	.LASF248:
 14559 664c 5F5F4C41 		.ascii	"__LACCUM_IBIT__ 32\000"
 14559      4343554D 
 14559      5F494249 
 14559      545F5F20 
 14559      333200
 14560              	.LASF1079:
 14561 665f 44455649 		.ascii	"DEVICEID\000"
 14561      43454944 
 14561      00
 14562              	.LASF398:
 14563 6668 494E545F 		.ascii	"INT_LEAST32_MIN (-__INT_LEAST32_MAX__ - 1)\000"
 14563      4C454153 
 14563      5433325F 
 14563      4D494E20 
 14563      282D5F5F 
 14564              	.LASF654:
 14565 6693 494F434F 		.ascii	"IOCON_STDI2C_EN (0x1 << 8)\000"
 14565      4E5F5354 
 14565      44493243 
 14565      5F454E20 
 14565      28307831 
 14566              	.LASF441:
 14567 66ae 5F474343 		.ascii	"_GCC_WRAP_STDINT_H \000"
 14567      5F575241 
 14567      505F5354 
 14567      44494E54 
 14567      5F482000 
 14568              	.LASF930:
 14569 66c2 4932435F 		.ascii	"I2C_I2ADR_GC ((1 << 0))\000"
 14569      49324144 
 14569      525F4743 
 14569      20282831 
 14569      203C3C20 
 14570              	.LASF1053:
 14571 66da 434C4B4F 		.ascii	"CLKOUTSEL\000"
 14571      55545345 
 14571      4C00
 14572              	.LASF160:
 14573 66e4 5F5F4C44 		.ascii	"__LDBL_MIN__ 2.2250738585072014e-308L\000"
 14573      424C5F4D 
 14573      494E5F5F 
 14573      20322E32 
ARM GAS  /tmp/cc7TFFKb.s 			page 352


 14573      32353037 
 14574              	.LASF238:
 14575 670a 5F5F4143 		.ascii	"__ACCUM_IBIT__ 16\000"
 14575      43554D5F 
 14575      49424954 
 14575      5F5F2031 
 14575      3600
 14576              	.LASF868:
 14577 671c 5F5F4750 		.ascii	"__GPIO_11XX_2_H_ \000"
 14577      494F5F31 
 14577      3158585F 
 14577      325F485F 
 14577      2000
 14578              	.LASF1240:
 14579 672e 5353505F 		.ascii	"SSP_Read1BFifo\000"
 14579      52656164 
 14579      31424669 
 14579      666F00
 14580              	.LASF1237:
 14581 673d 2E2E2F6C 		.ascii	"../lpc11cx4-library/lpc_chip_11cxx_lib/src/ssp_11xx"
 14581      70633131 
 14581      6378342D 
 14581      6C696272 
 14581      6172792F 
 14582 6770 2E6300   		.ascii	".c\000"
 14583              	.LASF650:
 14584 6773 494F434F 		.ascii	"IOCON_INV_EN (0x1 << 6)\000"
 14584      4E5F494E 
 14584      565F454E 
 14584      20283078 
 14584      31203C3C 
 14585              	.LASF996:
 14586 678b 73686F72 		.ascii	"short int\000"
 14586      7420696E 
 14586      7400
 14587              	.LASF655:
 14588 6795 494F434F 		.ascii	"IOCON_FASTI2C_EN (0x2 << 8)\000"
 14588      4E5F4641 
 14588      53544932 
 14588      435F454E 
 14588      20283078 
 14589              	.LASF433:
 14590 67b1 494E5431 		.ascii	"INT16_C(x) __INT16_C(x)\000"
 14590      365F4328 
 14590      7829205F 
 14590      5F494E54 
 14590      31365F43 
 14591              	.LASF962:
 14592 67c9 43414E5F 		.ascii	"CAN_MSGOBJ_DAT 0x00000000UL\000"
 14592      4D53474F 
 14592      424A5F44 
 14592      41542030 
 14592      78303030 
 14593              	.LASF725:
 14594 67e5 55415254 		.ascii	"UART_FCR_DMAMODE_SEL (1 << 3)\000"
 14594      5F464352 
 14594      5F444D41 
ARM GAS  /tmp/cc7TFFKb.s 			page 353


 14594      4D4F4445 
 14594      5F53454C 
 14595              	.LASF202:
 14596 6803 5F5F5546 		.ascii	"__UFRACT_FBIT__ 16\000"
 14596      52414354 
 14596      5F464249 
 14596      545F5F20 
 14596      313600
 14597              	.LASF104:
 14598 6816 5F5F5549 		.ascii	"__UINT16_C(c) c\000"
 14598      4E543136 
 14598      5F432863 
 14598      29206300 
 14599              	.LASF459:
 14600 6826 4D415828 		.ascii	"MAX(a,b) (((a) > (b)) ? (a) : (b))\000"
 14600      612C6229 
 14600      20282828 
 14600      6129203E 
 14600      20286229 
 14601              	.LASF656:
 14602 6849 494F434F 		.ascii	"IOCON_FILT_DIS (0x1 << 8)\000"
 14602      4E5F4649 
 14602      4C545F44 
 14602      49532028 
 14602      30783120 
 14603              	.LASF300:
 14604 6863 5F5F5544 		.ascii	"__UDA_IBIT__ 32\000"
 14604      415F4942 
 14604      49545F5F 
 14604      20333200 
 14605              	.LASF1195:
 14606 6873 6D6F6465 		.ascii	"mode\000"
 14606      00
 14607              	.LASF532:
 14608 6878 5343425F 		.ascii	"SCB_SHCSR_SVCALLPENDED_Pos 15\000"
 14608      53484353 
 14608      525F5356 
 14608      43414C4C 
 14608      50454E44 
 14609              	.LASF350:
 14610 6896 5F5F4E45 		.ascii	"__NEWLIB__ 2\000"
 14610      574C4942 
 14610      5F5F2032 
 14610      00
 14611              	.LASF401:
 14612 68a3 494E5436 		.ascii	"INT64_MIN (-__INT64_MAX__ - 1)\000"
 14612      345F4D49 
 14612      4E20282D 
 14612      5F5F494E 
 14612      5436345F 
 14613              	.LASF6:
 14614 68c2 5F5F4154 		.ascii	"__ATOMIC_RELAXED 0\000"
 14614      4F4D4943 
 14614      5F52454C 
 14614      41584544 
 14614      203000
 14615              	.LASF723:
ARM GAS  /tmp/cc7TFFKb.s 			page 354


 14616 68d5 55415254 		.ascii	"UART_FCR_RX_RS (1 << 1)\000"
 14616      5F464352 
 14616      5F52585F 
 14616      52532028 
 14616      31203C3C 
 14617              	.LASF608:
 14618 68ed 5F5F464D 		.ascii	"__FMC_11XX_H_ \000"
 14618      435F3131 
 14618      58585F48 
 14618      5F2000
 14619              	.LASF705:
 14620 68fc 55415254 		.ascii	"UART_IER_CTSINT (1 << 7)\000"
 14620      5F494552 
 14620      5F435453 
 14620      494E5420 
 14620      2831203C 
 14621              	.LASF1238:
 14622 6915 2F686F6D 		.ascii	"/home/skoppula/evt/a123-battery-integration\000"
 14622      652F736B 
 14622      6F707075 
 14622      6C612F65 
 14622      76742F61 
 14623              	.LASF406:
 14624 6941 55494E54 		.ascii	"UINT_LEAST64_MAX __UINT_LEAST64_MAX__\000"
 14624      5F4C4541 
 14624      53543634 
 14624      5F4D4158 
 14624      205F5F55 
 14625              	.LASF400:
 14626 6967 55494E54 		.ascii	"UINT_LEAST32_MAX __UINT_LEAST32_MAX__\000"
 14626      5F4C4541 
 14626      53543332 
 14626      5F4D4158 
 14626      205F5F55 
 14627              	.LASF874:
 14628 698d 4932435F 		.ascii	"I2C_STA_STO_RECV 0x20\000"
 14628      5354415F 
 14628      53544F5F 
 14628      52454356 
 14628      20307832 
 14629              	.LASF743:
 14630 69a3 55415254 		.ascii	"UART_LCR_PARITY_EVEN (1 << 4)\000"
 14630      5F4C4352 
 14630      5F504152 
 14630      4954595F 
 14630      4556454E 
 14631              	.LASF1069:
 14632 69c1 53544152 		.ascii	"STARTERP0\000"
 14632      54455250 
 14632      3000
 14633              	.LASF1073:
 14634 69cb 53544152 		.ascii	"STARTERP1\000"
 14634      54455250 
 14634      3100
 14635              	.LASF483:
 14636 69d5 5F5F494F 		.ascii	"__IO volatile\000"
 14636      20766F6C 
ARM GAS  /tmp/cc7TFFKb.s 			page 355


 14636      6174696C 
 14636      6500
 14637              	.LASF659:
 14638 69e3 4D445F50 		.ascii	"MD_PDN (0x1 << 3)\000"
 14638      444E2028 
 14638      30783120 
 14638      3C3C2033 
 14638      2900
 14639              	.LASF700:
 14640 69f5 55415254 		.ascii	"UART_DLM_MASKBIT (0xFF)\000"
 14640      5F444C4D 
 14640      5F4D4153 
 14640      4B424954 
 14640      20283078 
 14641              	.LASF873:
 14642 6a0d 5245545F 		.ascii	"RET_SLAVE_BUSY 0\000"
 14642      534C4156 
 14642      455F4255 
 14642      53592030 
 14642      00
 14643              	.LASF18:
 14644 6a1e 5F5F5349 		.ascii	"__SIZEOF_FLOAT__ 4\000"
 14644      5A454F46 
 14644      5F464C4F 
 14644      41545F5F 
 14644      203400
 14645              	.LASF432:
 14646 6a31 55494E54 		.ascii	"UINT8_C(x) __UINT8_C(x)\000"
 14646      385F4328 
 14646      7829205F 
 14646      5F55494E 
 14646      54385F43 
 14647              	.LASF69:
 14648 6a49 5F5F5348 		.ascii	"__SHRT_MAX__ 32767\000"
 14648      52545F4D 
 14648      41585F5F 
 14648      20333237 
 14648      363700
 14649              	.LASF557:
 14650 6a5c 53797354 		.ascii	"SysTick ((SysTick_Type *) SysTick_BASE )\000"
 14650      69636B20 
 14650      28285379 
 14650      73546963 
 14650      6B5F5479 
 14651              	.LASF144:
 14652 6a85 5F5F4442 		.ascii	"__DBL_DECIMAL_DIG__ 17\000"
 14652      4C5F4445 
 14652      43494D41 
 14652      4C5F4449 
 14652      475F5F20 
 14653              	.LASF498:
 14654 6a9c 5343425F 		.ascii	"SCB_ICSR_PENDSVCLR_Pos 27\000"
 14654      49435352 
 14654      5F50454E 
 14654      44535643 
 14654      4C525F50 
 14655              	.LASF367:
ARM GAS  /tmp/cc7TFFKb.s 			page 356


 14656 6ab6 5F5F6861 		.ascii	"__have_long32 1\000"
 14656      76655F6C 
 14656      6F6E6733 
 14656      32203100 
 14657              	.LASF386:
 14658 6ac6 494E545F 		.ascii	"INT_LEAST8_MIN (-__INT_LEAST8_MAX__ - 1)\000"
 14658      4C454153 
 14658      54385F4D 
 14658      494E2028 
 14658      2D5F5F49 
 14659              	.LASF105:
 14660 6aef 5F5F5549 		.ascii	"__UINT_LEAST32_MAX__ 4294967295UL\000"
 14660      4E545F4C 
 14660      45415354 
 14660      33325F4D 
 14660      41585F5F 
 14661              	.LASF252:
 14662 6b11 5F5F554C 		.ascii	"__ULACCUM_FBIT__ 32\000"
 14662      41434355 
 14662      4D5F4642 
 14662      49545F5F 
 14662      20333200 
 14663              	.LASF516:
 14664 6b25 5343425F 		.ascii	"SCB_AIRCR_ENDIANESS_Pos 15\000"
 14664      41495243 
 14664      525F454E 
 14664      4449414E 
 14664      4553535F 
 14665              	.LASF624:
 14666 6b40 53595343 		.ascii	"SYSCTL_SLPWAKE_WDTOSC_PD (1 << 6)\000"
 14666      544C5F53 
 14666      4C505741 
 14666      4B455F57 
 14666      44544F53 
 14667              	.LASF521:
 14668 6b62 5343425F 		.ascii	"SCB_AIRCR_VECTCLRACTIVE_Msk (1UL << SCB_AIRCR_VECTC"
 14668      41495243 
 14668      525F5645 
 14668      4354434C 
 14668      52414354 
 14669 6b95 4C524143 		.ascii	"LRACTIVE_Pos)\000"
 14669      54495645 
 14669      5F506F73 
 14669      2900
 14670              	.LASF374:
 14671 6ba3 5F5F696E 		.ascii	"__int64_t_defined 1\000"
 14671      7436345F 
 14671      745F6465 
 14671      66696E65 
 14671      64203100 
 14672              	.LASF542:
 14673 6bb7 53797354 		.ascii	"SysTick_LOAD_RELOAD_Pos 0\000"
 14673      69636B5F 
 14673      4C4F4144 
 14673      5F52454C 
 14673      4F41445F 
 14674              	.LASF331:
ARM GAS  /tmp/cc7TFFKb.s 			page 357


 14675 6bd1 5F5F4152 		.ascii	"__ARMEL__ 1\000"
 14675      4D454C5F 
 14675      5F203100 
 14676              	.LASF1082:
 14677 6bdd 52455345 		.ascii	"RESET_I2C0\000"
 14677      545F4932 
 14677      433000
 14678              	.LASF1119:
 14679 6be8 5353505F 		.ascii	"SSP_STAT_TFE\000"
 14679      53544154 
 14679      5F544645 
 14679      00
 14680              	.LASF1063:
 14681 6bf5 4E4D4953 		.ascii	"NMISRC\000"
 14681      524300
 14682              	.LASF71:
 14683 6bfc 5F5F4C4F 		.ascii	"__LONG_MAX__ 2147483647L\000"
 14683      4E475F4D 
 14683      41585F5F 
 14683      20323134 
 14683      37343833 
 14684              	.LASF267:
 14685 6c15 5F5F5151 		.ascii	"__QQ_FBIT__ 7\000"
 14685      5F464249 
 14685      545F5F20 
 14685      3700
 14686              	.LASF944:
 14687 6c23 4932435F 		.ascii	"I2C_ERR (0x10000000)\000"
 14687      45525220 
 14687      28307831 
 14687      30303030 
 14687      30303029 
 14688              	.LASF924:
 14689 6c38 4932435F 		.ascii	"I2C_I2DAT_IDLE_CHAR (0xFF)\000"
 14689      49324441 
 14689      545F4944 
 14689      4C455F43 
 14689      48415220 
 14690              	.LASF226:
 14691 6c53 5F5F554C 		.ascii	"__ULLFRACT_EPSILON__ 0x1P-64ULLR\000"
 14691      4C465241 
 14691      43545F45 
 14691      5053494C 
 14691      4F4E5F5F 
 14692              	.LASF461:
 14693 6c74 494E4C49 		.ascii	"INLINE inline\000"
 14693      4E452069 
 14693      6E6C696E 
 14693      6500
 14694              	.LASF528:
 14695 6c82 5343425F 		.ascii	"SCB_CCR_STKALIGN_Pos 9\000"
 14695      4343525F 
 14695      53544B41 
 14695      4C49474E 
 14695      5F506F73 
 14696              	.LASF869:
 14697 6c99 5F5F4932 		.ascii	"__I2C_11XX_H_ \000"
ARM GAS  /tmp/cc7TFFKb.s 			page 358


 14697      435F3131 
 14697      58585F48 
 14697      5F2000
 14698              	.LASF762:
 14699 6ca8 55415254 		.ascii	"UART_LSR_RXFE (1 << 7)\000"
 14699      5F4C5352 
 14699      5F525846 
 14699      45202831 
 14699      203C3C20 
 14700              	.LASF353:
 14701 6cbf 5F5F474E 		.ascii	"__GNUC_PREREQ__(ma,mi) __GNUC_PREREQ(ma, mi)\000"
 14701      55435F50 
 14701      52455245 
 14701      515F5F28 
 14701      6D612C6D 
 14702              	.LASF564:
 14703 6cec 4C50435F 		.ascii	"LPC_USART_BASE 0x40008000\000"
 14703      55534152 
 14703      545F4241 
 14703      53452030 
 14703      78343030 
 14704              	.LASF302:
 14705 6d06 5F5F5554 		.ascii	"__UTA_IBIT__ 64\000"
 14705      415F4942 
 14705      49545F5F 
 14705      20363400 
 14706              	.LASF263:
 14707 6d16 5F5F554C 		.ascii	"__ULLACCUM_IBIT__ 32\000"
 14707      4C414343 
 14707      554D5F49 
 14707      4249545F 
 14707      5F203332 
 14708              	.LASF477:
 14709 6d2b 5F5F4650 		.ascii	"__FPU_USED 0\000"
 14709      555F5553 
 14709      45442030 
 14709      00
 14710              	.LASF207:
 14711 6d38 5F5F4C46 		.ascii	"__LFRACT_FBIT__ 31\000"
 14711      52414354 
 14711      5F464249 
 14711      545F5F20 
 14711      333100
 14712              	.LASF1134:
 14713 6d4b 5353505F 		.ascii	"SSP_RTIC\000"
 14713      52544943 
 14713      00
 14714              	.LASF1051:
 14715 6d54 57445443 		.ascii	"WDTCLKDIV\000"
 14715      4C4B4449 
 14715      5600
 14716              	.LASF471:
 14717 6d5e 5F5F434D 		.ascii	"__CM0_CMSIS_VERSION_SUB (0x01)\000"
 14717      305F434D 
 14717      5349535F 
 14717      56455253 
 14717      494F4E5F 
ARM GAS  /tmp/cc7TFFKb.s 			page 359


 14718              	.LASF321:
 14719 6d7d 5F5F5349 		.ascii	"__SIZEOF_WINT_T__ 4\000"
 14719      5A454F46 
 14719      5F57494E 
 14719      545F545F 
 14719      5F203400 
 14720              	.LASF607:
 14721 6d91 504D555F 		.ascii	"PMU_PCON_DPDFLAG (1 << 11)\000"
 14721      50434F4E 
 14721      5F445044 
 14721      464C4147 
 14721      20283120 
 14722              	.LASF535:
 14723 6dac 53797354 		.ascii	"SysTick_CTRL_COUNTFLAG_Msk (1UL << SysTick_CTRL_COU"
 14723      69636B5F 
 14723      4354524C 
 14723      5F434F55 
 14723      4E54464C 
 14724 6ddf 4E54464C 		.ascii	"NTFLAG_Pos)\000"
 14724      41475F50 
 14724      6F732900 
 14725              	.LASF219:
 14726 6deb 5F5F4C4C 		.ascii	"__LLFRACT_MIN__ (-0.5LLR-0.5LLR)\000"
 14726      46524143 
 14726      545F4D49 
 14726      4E5F5F20 
 14726      282D302E 
 14727              	.LASF1021:
 14728 6e0c 55534250 		.ascii	"USBPLLCTRL\000"
 14728      4C4C4354 
 14728      524C00
 14729              	.LASF1070:
 14730 6e17 53544152 		.ascii	"STARTRSRP0CLR\000"
 14730      54525352 
 14730      5030434C 
 14730      5200
 14731              	.LASF1020:
 14732 6e25 53595350 		.ascii	"SYSPLLSTAT\000"
 14732      4C4C5354 
 14732      415400
 14733              	.LASF249:
 14734 6e30 5F5F4C41 		.ascii	"__LACCUM_MIN__ (-0X1P31LK-0X1P31LK)\000"
 14734      4343554D 
 14734      5F4D494E 
 14734      5F5F2028 
 14734      2D305831 
 14735              	.LASF584:
 14736 6e54 4941505F 		.ascii	"IAP_ENTRY_LOCATION 0X1FFF1FF1\000"
 14736      454E5452 
 14736      595F4C4F 
 14736      43415449 
 14736      4F4E2030 
 14737              	.LASF340:
 14738 6e72 5F5F4152 		.ascii	"__ARM_EABI__ 1\000"
 14738      4D5F4541 
 14738      42495F5F 
 14738      203100
ARM GAS  /tmp/cc7TFFKb.s 			page 360


 14739              	.LASF1010:
 14740 6e81 496E7453 		.ascii	"IntStatus\000"
 14740      74617475 
 14740      7300
 14741              	.LASF148:
 14742 6e8b 5F5F4442 		.ascii	"__DBL_DENORM_MIN__ ((double)4.9406564584124654e-324"
 14742      4C5F4445 
 14742      4E4F524D 
 14742      5F4D494E 
 14742      5F5F2028 
 14743 6ebe 4C2900   		.ascii	"L)\000"
 14744              	.LASF1041:
 14745 6ec1 53535030 		.ascii	"SSP0CLKDIV\000"
 14745      434C4B44 
 14745      495600
 14746              	.LASF1194:
 14747 6ecc 43686970 		.ascii	"Chip_SSP_Set_Mode\000"
 14747      5F535350 
 14747      5F536574 
 14747      5F4D6F64 
 14747      6500
 14748              	.LASF570:
 14749 6ede 4C50435F 		.ascii	"LPC_DAC_BASE 0x40024000\000"
 14749      4441435F 
 14749      42415345 
 14749      20307834 
 14749      30303234 
 14750              	.LASF833:
 14751 6ef6 5353505F 		.ascii	"SSP_CR1_SO_DISABLE ((uint32_t) (1 << 3))\000"
 14751      4352315F 
 14751      534F5F44 
 14751      49534142 
 14751      4C452028 
 14752              	.LASF825:
 14753 6f1f 5353505F 		.ascii	"SSP_CR0_CPHA_FIRST ((uint32_t) (0))\000"
 14753      4352305F 
 14753      43504841 
 14753      5F464952 
 14753      53542028 
 14754              	.LASF454:
 14755 6f43 5F424954 		.ascii	"_BITMASK(field_width) ( _BIT(field_width) - 1)\000"
 14755      4D41534B 
 14755      28666965 
 14755      6C645F77 
 14755      69647468 
 14756              	.LASF613:
 14757 6f72 53595343 		.ascii	"SYSCTL_RST_BOD (1 << 3)\000"
 14757      544C5F52 
 14757      53545F42 
 14757      4F442028 
 14757      31203C3C 
 14758              	.LASF1182:
 14759 6f8a 43686970 		.ascii	"Chip_SSP_GetStatus\000"
 14759      5F535350 
 14759      5F476574 
 14759      53746174 
 14759      757300
ARM GAS  /tmp/cc7TFFKb.s 			page 361


 14760              	.LASF45:
 14761 6f9d 5F5F5549 		.ascii	"__UINT32_TYPE__ long unsigned int\000"
 14761      4E543332 
 14761      5F545950 
 14761      455F5F20 
 14761      6C6F6E67 
 14762              	.LASF381:
 14763 6fbf 494E5450 		.ascii	"INTPTR_MAX __INTPTR_MAX__\000"
 14763      54525F4D 
 14763      4158205F 
 14763      5F494E54 
 14763      5054525F 
 14764              	.LASF609:
 14765 6fd9 5F5F5359 		.ascii	"__SYSCTL_11XX_H_ \000"
 14765      5343544C 
 14765      5F313158 
 14765      585F485F 
 14765      2000
 14766              	.LASF344:
 14767 6feb 434F5245 		.ascii	"CORE_M0 1\000"
 14767      5F4D3020 
 14767      3100
 14768              	.LASF826:
 14769 6ff5 5353505F 		.ascii	"SSP_CR0_CPHA_SECOND ((uint32_t) (1 << 7))\000"
 14769      4352305F 
 14769      43504841 
 14769      5F534543 
 14769      4F4E4420 
 14770              	.LASF680:
 14771 701f 5F5F5449 		.ascii	"__TIMER_11XX_H_ \000"
 14771      4D45525F 
 14771      31315858 
 14771      5F485F20 
 14771      00
 14772              	.LASF569:
 14773 7030 4C50435F 		.ascii	"LPC_ADC_BASE 0x4001C000\000"
 14773      4144435F 
 14773      42415345 
 14773      20307834 
 14773      30303143 
 14774              	.LASF151:
 14775 7048 5F5F4442 		.ascii	"__DBL_HAS_QUIET_NAN__ 1\000"
 14775      4C5F4841 
 14775      535F5155 
 14775      4945545F 
 14775      4E414E5F 
 14776              	.LASF672:
 14777 7060 46554E43 		.ascii	"FUNC0 0x0\000"
 14777      30203078 
 14777      3000
 14778              	.LASF965:
 14779 706a 53444F5F 		.ascii	"SDO_ABORT_SDOTIMEOUT 0x05040000UL\000"
 14779      41424F52 
 14779      545F5344 
 14779      4F54494D 
 14779      454F5554 
 14780              	.LASF767:
ARM GAS  /tmp/cc7TFFKb.s 			page 362


 14781 708c 55415254 		.ascii	"UART_MSR_DELTA_DSR (1 << 1)\000"
 14781      5F4D5352 
 14781      5F44454C 
 14781      54415F44 
 14781      53522028 
 14782              	.LASF224:
 14783 70a8 5F5F554C 		.ascii	"__ULLFRACT_MIN__ 0.0ULLR\000"
 14783      4C465241 
 14783      43545F4D 
 14783      494E5F5F 
 14783      20302E30 
 14784              	.LASF1207:
 14785 70c1 72657365 		.ascii	"resetSSP\000"
 14785      74535350 
 14785      00
 14786              	.LASF614:
 14787 70ca 53595343 		.ascii	"SYSCTL_RST_SYSRST (1 << 4)\000"
 14787      544C5F52 
 14787      53545F53 
 14787      59535253 
 14787      54202831 
 14788              	.LASF618:
 14789 70e5 53595343 		.ascii	"SYSCTL_SLPWAKE_IRCOUT_PD (1 << 0)\000"
 14789      544C5F53 
 14789      4C505741 
 14789      4B455F49 
 14789      52434F55 
 14790              	.LASF588:
 14791 7107 4C50435F 		.ascii	"LPC_USART ((LPC_USART_T *) LPC_USART_BASE)\000"
 14791      55534152 
 14791      54202828 
 14791      4C50435F 
 14791      55534152 
 14792              	.LASF284:
 14793 7132 5F5F5544 		.ascii	"__UDQ_IBIT__ 0\000"
 14793      515F4942 
 14793      49545F5F 
 14793      203000
 14794              	.LASF14:
 14795 7141 5F5F5349 		.ascii	"__SIZEOF_INT__ 4\000"
 14795      5A454F46 
 14795      5F494E54 
 14795      5F5F2034 
 14795      00
 14796              	.LASF218:
 14797 7152 5F5F4C4C 		.ascii	"__LLFRACT_IBIT__ 0\000"
 14797      46524143 
 14797      545F4942 
 14797      49545F5F 
 14797      203000
 14798              	.LASF434:
 14799 7165 55494E54 		.ascii	"UINT16_C(x) __UINT16_C(x)\000"
 14799      31365F43 
 14799      28782920 
 14799      5F5F5549 
 14799      4E543136 
 14800              	.LASF921:
ARM GAS  /tmp/cc7TFFKb.s 			page 363


 14801 717f 4932435F 		.ascii	"I2C_I2STAT_S_TX_LAST_DAT_ACK ((0xC8))\000"
 14801      49325354 
 14801      41545F53 
 14801      5F54585F 
 14801      4C415354 
 14802              	.LASF1101:
 14803 71a5 53595343 		.ascii	"SYSCTL_CLOCK_CT16B0\000"
 14803      544C5F43 
 14803      4C4F434B 
 14803      5F435431 
 14803      36423000 
 14804              	.LASF1007:
 14805 71b9 75696E74 		.ascii	"uint32_t\000"
 14805      33325F74 
 14805      00
 14806              	.LASF1086:
 14807 71c2 52455345 		.ascii	"RESET_TIMER0_16\000"
 14807      545F5449 
 14807      4D455230 
 14807      5F313600 
 14808              	.LASF795:
 14809 71d2 55415254 		.ascii	"UART_SCICTRL_NACKDIS (1 << 1)\000"
 14809      5F534349 
 14809      4354524C 
 14809      5F4E4143 
 14809      4B444953 
 14810              	.LASF364:
 14811 71f0 5F535953 		.ascii	"_SYS__INTSUP_H \000"
 14811      5F5F494E 
 14811      54535550 
 14811      5F482000 
 14812              	.LASF1071:
 14813 7200 53544152 		.ascii	"STARTSRP0\000"
 14813      54535250 
 14813      3000
 14814              	.LASF231:
 14815 720a 5F5F5341 		.ascii	"__SACCUM_EPSILON__ 0x1P-7HK\000"
 14815      4343554D 
 14815      5F455053 
 14815      494C4F4E 
 14815      5F5F2030 
 14816              	.LASF606:
 14817 7226 504D555F 		.ascii	"PMU_PCON_SLEEPFLAG (1 << 8)\000"
 14817      50434F4E 
 14817      5F534C45 
 14817      4550464C 
 14817      41472028 
 14818              	.LASF362:
 14819 7242 5F5F5F69 		.ascii	"___int_least64_t_defined 1\000"
 14819      6E745F6C 
 14819      65617374 
 14819      36345F74 
 14819      5F646566 
 14820              	.LASF600:
 14821 725d 4C50435F 		.ascii	"LPC_USB ((LPC_USB_T *) LPC_USB0_BASE)\000"
 14821      55534220 
 14821      28284C50 
ARM GAS  /tmp/cc7TFFKb.s 			page 364


 14821      435F5553 
 14821      425F5420 
 14822              	.LASF1215:
 14823 7283 43686970 		.ascii	"Chip_SSP_RWFrames_Blocking\000"
 14823      5F535350 
 14823      5F525746 
 14823      72616D65 
 14823      735F426C 
 14824              	.LASF698:
 14825 729e 55415254 		.ascii	"UART_DLL_MASKBIT (0xFF)\000"
 14825      5F444C4C 
 14825      5F4D4153 
 14825      4B424954 
 14825      20283078 
 14826              	.LASF1197:
 14827 72b6 72446174 		.ascii	"rDat\000"
 14827      00
 14828              	.LASF467:
 14829 72bb 5F5F4E56 		.ascii	"__NVIC_PRIO_BITS 2\000"
 14829      49435F50 
 14829      52494F5F 
 14829      42495453 
 14829      203200
 14830              	.LASF1198:
 14831 72ce 73737043 		.ascii	"sspCLK\000"
 14831      4C4B00
 14832              	.LASF1206:
 14833 72d5 43686970 		.ascii	"Chip_SSP_GetResetIndex\000"
 14833      5F535350 
 14833      5F476574 
 14833      52657365 
 14833      74496E64 
 14834              	.LASF549:
 14835 72ec 53797354 		.ascii	"SysTick_CALIB_SKEW_Msk (1UL << SysTick_CALIB_SKEW_P"
 14835      69636B5F 
 14835      43414C49 
 14835      425F534B 
 14835      45575F4D 
 14836 731f 6F732900 		.ascii	"os)\000"
 14837              	.LASF296:
 14838 7323 5F5F5548 		.ascii	"__UHA_IBIT__ 8\000"
 14838      415F4942 
 14838      49545F5F 
 14838      203800
 14839              	.LASF933:
 14840 7332 4932435F 		.ascii	"I2C_I2SCLH_BITMASK ((0xFFFF))\000"
 14840      49325343 
 14840      4C485F42 
 14840      49544D41 
 14840      534B2028 
 14841              	.LASF241:
 14842 7350 5F5F4143 		.ascii	"__ACCUM_EPSILON__ 0x1P-15K\000"
 14842      43554D5F 
 14842      45505349 
 14842      4C4F4E5F 
 14842      5F203078 
 14843              	.LASF256:
ARM GAS  /tmp/cc7TFFKb.s 			page 365


 14844 736b 5F5F554C 		.ascii	"__ULACCUM_EPSILON__ 0x1P-32ULK\000"
 14844      41434355 
 14844      4D5F4550 
 14844      53494C4F 
 14844      4E5F5F20 
 14845              	.LASF153:
 14846 738a 5F5F4C44 		.ascii	"__LDBL_DIG__ 15\000"
 14846      424C5F44 
 14846      49475F5F 
 14846      20313500 
 14847              	.LASF1025:
 14848 739a 5744544F 		.ascii	"WDTOSCCTRL\000"
 14848      53434354 
 14848      524C00
 14849              	.LASF756:
 14850 73a5 55415254 		.ascii	"UART_LSR_OE (1 << 1)\000"
 14850      5F4C5352 
 14850      5F4F4520 
 14850      2831203C 
 14850      3C203129 
 14851              	.LASF926:
 14852 73ba 4932435F 		.ascii	"I2C_I2MMCTRL_ENA_SCL ((1 << 1))\000"
 14852      49324D4D 
 14852      4354524C 
 14852      5F454E41 
 14852      5F53434C 
 14853              	.LASF1055:
 14854 73da 434C4B4F 		.ascii	"CLKOUTDIV\000"
 14854      55544449 
 14854      5600
 14855              	.LASF76:
 14856 73e4 5F5F5749 		.ascii	"__WINT_MIN__ 0U\000"
 14856      4E545F4D 
 14856      494E5F5F 
 14856      20305500 
 14857              	.LASF1136:
 14858 73f4 5353505F 		.ascii	"SSP_INTCLEAR_T\000"
 14858      494E5443 
 14858      4C454152 
 14858      5F5400
 14859              	.LASF178:
 14860 7403 5F5F4445 		.ascii	"__DEC64_EPSILON__ 1E-15DD\000"
 14860      4336345F 
 14860      45505349 
 14860      4C4F4E5F 
 14860      5F203145 
 14861              	.LASF958:
 14862 741d 43414E5F 		.ascii	"CAN_ERROR_BIT0 0x00000080UL\000"
 14862      4552524F 
 14862      525F4249 
 14862      54302030 
 14862      78303030 
 14863              	.LASF412:
 14864 7439 55494E54 		.ascii	"UINT_FAST16_MAX __UINT_FAST16_MAX__\000"
 14864      5F464153 
 14864      5431365F 
 14864      4D415820 
ARM GAS  /tmp/cc7TFFKb.s 			page 366


 14864      5F5F5549 
 14865              	.LASF48:
 14866 745d 5F5F494E 		.ascii	"__INT_LEAST16_TYPE__ short int\000"
 14866      545F4C45 
 14866      41535431 
 14866      365F5459 
 14866      50455F5F 
 14867              	.LASF1043:
 14868 747c 53535031 		.ascii	"SSP1CLKDIV\000"
 14868      434C4B44 
 14868      495600
 14869              	.LASF619:
 14870 7487 53595343 		.ascii	"SYSCTL_SLPWAKE_IRC_PD (1 << 1)\000"
 14870      544C5F53 
 14870      4C505741 
 14870      4B455F49 
 14870      52435F50 
 14871              	.LASF145:
 14872 74a6 5F5F4442 		.ascii	"__DBL_MAX__ ((double)1.7976931348623157e+308L)\000"
 14872      4C5F4D41 
 14872      585F5F20 
 14872      2828646F 
 14872      75626C65 
 14873              	.LASF999:
 14874 74d5 73686F72 		.ascii	"short unsigned int\000"
 14874      7420756E 
 14874      7369676E 
 14874      65642069 
 14874      6E7400
 14875              	.LASF217:
 14876 74e8 5F5F4C4C 		.ascii	"__LLFRACT_FBIT__ 63\000"
 14876      46524143 
 14876      545F4642 
 14876      49545F5F 
 14876      20363300 
 14877              	.LASF485:
 14878 74fc 5343425F 		.ascii	"SCB_CPUID_IMPLEMENTER_Msk (0xFFUL << SCB_CPUID_IMPL"
 14878      43505549 
 14878      445F494D 
 14878      504C454D 
 14878      454E5445 
 14879 752f 454D454E 		.ascii	"EMENTER_Pos)\000"
 14879      5445525F 
 14879      506F7329 
 14879      00
 14880              	.LASF329:
 14881 753c 5F5F7468 		.ascii	"__thumb__ 1\000"
 14881      756D625F 
 14881      5F203100 
 14882              	.LASF857:
 14883 7548 4144435F 		.ascii	"ADC_CR_PDN ((1UL << 21))\000"
 14883      43525F50 
 14883      444E2028 
 14883      2831554C 
 14883      203C3C20 
 14884              	.LASF411:
 14885 7561 494E545F 		.ascii	"INT_FAST16_MAX __INT_FAST16_MAX__\000"
ARM GAS  /tmp/cc7TFFKb.s 			page 367


 14885      46415354 
 14885      31365F4D 
 14885      4158205F 
 14885      5F494E54 
 14886              	.LASF114:
 14887 7583 5F5F5549 		.ascii	"__UINT_FAST16_MAX__ 4294967295U\000"
 14887      4E545F46 
 14887      41535431 
 14887      365F4D41 
 14887      585F5F20 
 14888              	.LASF810:
 14889 75a3 55415254 		.ascii	"UART_SYNCCTRL_CCCLR (1 << 6)\000"
 14889      5F53594E 
 14889      43435452 
 14889      4C5F4343 
 14889      434C5220 
 14890              	.LASF269:
 14891 75c0 5F5F4851 		.ascii	"__HQ_FBIT__ 15\000"
 14891      5F464249 
 14891      545F5F20 
 14891      313500
 14892              	.LASF446:
 14893 75cf 5F5F626F 		.ascii	"__bool_true_false_are_defined 1\000"
 14893      6F6C5F74 
 14893      7275655F 
 14893      66616C73 
 14893      655F6172 
 14894              	.LASF923:
 14895 75ef 4932435F 		.ascii	"I2C_I2DAT_BITMASK ((0xFF))\000"
 14895      49324441 
 14895      545F4249 
 14895      544D4153 
 14895      4B202828 
 14896              	.LASF909:
 14897 760a 4932435F 		.ascii	"I2C_I2STAT_S_RX_ARB_LOST_M_SLA ((0x68))\000"
 14897      49325354 
 14897      41545F53 
 14897      5F52585F 
 14897      4152425F 
 14898              	.LASF520:
 14899 7632 5343425F 		.ascii	"SCB_AIRCR_VECTCLRACTIVE_Pos 1\000"
 14899      41495243 
 14899      525F5645 
 14899      4354434C 
 14899      52414354 
 14900              	.LASF929:
 14901 7650 49324441 		.ascii	"I2DATA_BUFFER_BITMASK ((0xFF))\000"
 14901      54415F42 
 14901      55464645 
 14901      525F4249 
 14901      544D4153 
 14902              	.LASF1233:
 14903 766f 636D705F 		.ascii	"cmp_clk\000"
 14903      636C6B00 
 14904              	.LASF465:
 14905 7677 5F5F434D 		.ascii	"__CMSIS_11CXX_H_ \000"
 14905      5349535F 
ARM GAS  /tmp/cc7TFFKb.s 			page 368


 14905      31314358 
 14905      585F485F 
 14905      2000
 14906              	.LASF970:
 14907 7689 53444F5F 		.ascii	"SDO_ABORT_NOT_EXISTS 0x06020000UL\000"
 14907      41424F52 
 14907      545F4E4F 
 14907      545F4558 
 14907      49535453 
 14908              	.LASF1216:
 14909 76ab 43686970 		.ascii	"Chip_SSP_WriteFrames_Blocking\000"
 14909      5F535350 
 14909      5F577269 
 14909      74654672 
 14909      616D6573 
 14910              	.LASF790:
 14911 76c9 55415254 		.ascii	"UART_ICR_FIXPULSE_EN (1 << 2)\000"
 14911      5F494352 
 14911      5F464958 
 14911      50554C53 
 14911      455F454E 
 14912              	.LASF188:
 14913 76e7 5F5F5346 		.ascii	"__SFRACT_IBIT__ 0\000"
 14913      52414354 
 14913      5F494249 
 14913      545F5F20 
 14913      3000
 14914              	.LASF150:
 14915 76f9 5F5F4442 		.ascii	"__DBL_HAS_INFINITY__ 1\000"
 14915      4C5F4841 
 14915      535F494E 
 14915      46494E49 
 14915      54595F5F 
 14916              	.LASF480:
 14917 7710 5F5F434F 		.ascii	"__CORE_CM0_H_DEPENDANT \000"
 14917      52455F43 
 14917      4D305F48 
 14917      5F444550 
 14917      454E4441 
 14918              	.LASF369:
 14919 7728 5F5F696E 		.ascii	"__int_least8_t_defined 1\000"
 14919      745F6C65 
 14919      61737438 
 14919      5F745F64 
 14919      6566696E 
 14920              	.LASF1150:
 14921 7741 43484950 		.ascii	"CHIP_SSP_BITS\000"
 14921      5F535350 
 14921      5F424954 
 14921      5300
 14922              	.LASF880:
 14923 774f 4932435F 		.ascii	"I2C_I2CONCLR_AAC ((1 << 2))\000"
 14923      4932434F 
 14923      4E434C52 
 14923      5F414143 
 14923      20282831 
 14924              	.LASF1129:
ARM GAS  /tmp/cc7TFFKb.s 			page 369


 14925 776b 5353505F 		.ascii	"SSP_TXRIS\000"
 14925      54585249 
 14925      5300
 14926              	.LASF530:
 14927 7775 5343425F 		.ascii	"SCB_CCR_UNALIGN_TRP_Pos 3\000"
 14927      4343525F 
 14927      554E414C 
 14927      49474E5F 
 14927      5452505F 
 14928              	.LASF1200:
 14929 778f 70726573 		.ascii	"prescale\000"
 14929      63616C65 
 14929      00
 14930              	.LASF695:
 14931 7798 52425F56 		.ascii	"RB_VTAIL(rb) (*(volatile uint32_t *) &(rb)->tail)\000"
 14931      5441494C 
 14931      28726229 
 14931      20282A28 
 14931      766F6C61 
 14932              	.LASF1060:
 14933 77ca 53595354 		.ascii	"SYSTCKCAL\000"
 14933      434B4341 
 14933      4C00
 14934              	.LASF835:
 14935 77d4 5353505F 		.ascii	"SSP_CPSR_BITMASK ((uint32_t) (0xFF))\000"
 14935      43505352 
 14935      5F424954 
 14935      4D41534B 
 14935      20282875 
 14936              	.LASF30:
 14937 77f9 5F5F5349 		.ascii	"__SIZE_TYPE__ unsigned int\000"
 14937      5A455F54 
 14937      5950455F 
 14937      5F20756E 
 14937      7369676E 
 14938              	.LASF34:
 14939 7814 5F5F494E 		.ascii	"__INTMAX_TYPE__ long long int\000"
 14939      544D4158 
 14939      5F545950 
 14939      455F5F20 
 14939      6C6F6E67 
 14940              	.LASF809:
 14941 7832 55415254 		.ascii	"UART_SYNCCTRL_STARTSTOPDISABLE (1 << 5)\000"
 14941      5F53594E 
 14941      43435452 
 14941      4C5F5354 
 14941      41525453 
 14942              	.LASF1045:
 14943 785a 55534243 		.ascii	"USBCLKSEL\000"
 14943      4C4B5345 
 14943      4C00
 14944              	.LASF976:
 14945 7864 53444F5F 		.ascii	"SDO_ABORT_TRANSFER 0x08000020UL\000"
 14945      41424F52 
 14945      545F5452 
 14945      414E5346 
 14945      45522030 
ARM GAS  /tmp/cc7TFFKb.s 			page 370


 14946              	.LASF190:
 14947 7884 5F5F5346 		.ascii	"__SFRACT_MAX__ 0X7FP-7HR\000"
 14947      52414354 
 14947      5F4D4158 
 14947      5F5F2030 
 14947      58374650 
 14948              	.LASF691:
 14949 789d 54494D45 		.ascii	"TIMER_INT_ON_CAP(n) (_BIT((((n) * 3) + 2)))\000"
 14949      525F494E 
 14949      545F4F4E 
 14949      5F434150 
 14949      286E2920 
 14950              	.LASF953:
 14951 78c9 43414E5F 		.ascii	"CAN_ERROR_BOFF 0x00000004UL\000"
 14951      4552524F 
 14951      525F424F 
 14951      46462030 
 14951      78303030 
 14952              	.LASF1201:
 14953 78e5 74656D70 		.ascii	"temp\000"
 14953      00
 14954              	.LASF834:
 14955 78ea 5353505F 		.ascii	"SSP_CR1_BITMASK ((uint32_t) (0x0F))\000"
 14955      4352315F 
 14955      4249544D 
 14955      41534B20 
 14955      28287569 
 14956              	.LASF783:
 14957 790e 55415254 		.ascii	"UART_RS485CTRL_AADEN (1 << 2)\000"
 14957      5F525334 
 14957      38354354 
 14957      524C5F41 
 14957      4144454E 
 14958              	.LASF96:
 14959 792c 5F5F494E 		.ascii	"__INT16_C(c) c\000"
 14959      5431365F 
 14959      43286329 
 14959      206300
 14960              	.LASF1088:
 14961 793b 52455345 		.ascii	"RESET_TIMER0_32\000"
 14961      545F5449 
 14961      4D455230 
 14961      5F333200 
 14962              	.LASF292:
 14963 794b 5F5F4441 		.ascii	"__DA_IBIT__ 32\000"
 14963      5F494249 
 14963      545F5F20 
 14963      333200
 14964              	.LASF956:
 14965 795a 43414E5F 		.ascii	"CAN_ERROR_ACK 0x00000020UL\000"
 14965      4552524F 
 14965      525F4143 
 14965      4B203078 
 14965      30303030 
 14966              	.LASF1212:
 14967 7975 636C6F63 		.ascii	"clockMode\000"
 14967      6B4D6F64 
ARM GAS  /tmp/cc7TFFKb.s 			page 371


 14967      6500
 14968              	.LASF174:
 14969 797f 5F5F4445 		.ascii	"__DEC64_MIN_EXP__ (-382)\000"
 14969      4336345F 
 14969      4D494E5F 
 14969      4558505F 
 14969      5F20282D 
 14970              	.LASF523:
 14971 7998 5343425F 		.ascii	"SCB_SCR_SEVONPEND_Msk (1UL << SCB_SCR_SEVONPEND_Pos"
 14971      5343525F 
 14971      5345564F 
 14971      4E50454E 
 14971      445F4D73 
 14972 79cb 2900     		.ascii	")\000"
 14973              	.LASF716:
 14974 79cd 55415254 		.ascii	"UART_IIR_INTID_MASK (7 << 1)\000"
 14974      5F494952 
 14974      5F494E54 
 14974      49445F4D 
 14974      41534B20 
 14975              	.LASF10:
 14976 79ea 5F5F4154 		.ascii	"__ATOMIC_ACQ_REL 4\000"
 14976      4F4D4943 
 14976      5F414351 
 14976      5F52454C 
 14976      203400
 14977              	.LASF5:
 14978 79fd 5F5F5645 		.ascii	"__VERSION__ \"4.9.3 20150303 (release) [ARM/embedde"
 14978      5253494F 
 14978      4E5F5F20 
 14978      22342E39 
 14978      2E332032 
 14979 7a2f 642D345F 		.ascii	"d-4_9-branch revision 221220]\"\000"
 14979      392D6272 
 14979      616E6368 
 14979      20726576 
 14979      6973696F 
 14980              	.LASF41:
 14981 7a4e 5F5F494E 		.ascii	"__INT32_TYPE__ long int\000"
 14981      5433325F 
 14981      54595045 
 14981      5F5F206C 
 14981      6F6E6720 
 14982              	.LASF345:
 14983 7a66 5F5F4348 		.ascii	"__CHIP_H_ \000"
 14983      49505F48 
 14983      5F2000
 14984              	.LASF141:
 14985 7a71 5F5F4442 		.ascii	"__DBL_MIN_10_EXP__ (-307)\000"
 14985      4C5F4D49 
 14985      4E5F3130 
 14985      5F455850 
 14985      5F5F2028 
 14986              	.LASF843:
 14987 7a8b 5353505F 		.ascii	"SSP_SLAVE_MODE SSP_CR1_SLAVE_EN\000"
 14987      534C4156 
 14987      455F4D4F 
ARM GAS  /tmp/cc7TFFKb.s 			page 372


 14987      44452053 
 14987      53505F43 
 14988              	.LASF515:
 14989 7aab 5343425F 		.ascii	"SCB_AIRCR_VECTKEYSTAT_Msk (0xFFFFUL << SCB_AIRCR_VE"
 14989      41495243 
 14989      525F5645 
 14989      43544B45 
 14989      59535441 
 14990 7ade 43544B45 		.ascii	"CTKEYSTAT_Pos)\000"
 14990      59535441 
 14990      545F506F 
 14990      732900
 14991              	.LASF610:
 14992 7aed 53595343 		.ascii	"SYSCTL_RST_POR (1 << 0)\000"
 14992      544C5F52 
 14992      53545F50 
 14992      4F522028 
 14992      31203C3C 
 14993              	.LASF679:
 14994 7b05 46554E43 		.ascii	"FUNC7 0x7\000"
 14994      37203078 
 14994      3700
 14995              	.LASF1081:
 14996 7b0f 52455345 		.ascii	"RESET_SSP0\000"
 14996      545F5353 
 14996      503000
 14997              	.LASF1083:
 14998 7b1a 52455345 		.ascii	"RESET_SSP1\000"
 14998      545F5353 
 14998      503100
 14999              	.LASF89:
 15000 7b25 5F5F5549 		.ascii	"__UINT8_MAX__ 255\000"
 15000      4E54385F 
 15000      4D41585F 
 15000      5F203235 
 15000      3500
 15001              	.LASF773:
 15002 7b37 55415254 		.ascii	"UART_MSR_DCD (1 << 7)\000"
 15002      5F4D5352 
 15002      5F444344 
 15002      20283120 
 15002      3C3C2037 
 15003              	.LASF115:
 15004 7b4d 5F5F5549 		.ascii	"__UINT_FAST32_MAX__ 4294967295U\000"
 15004      4E545F46 
 15004      41535433 
 15004      325F4D41 
 15004      585F5F20 
 15005              	.LASF101:
 15006 7b6d 5F5F5549 		.ascii	"__UINT_LEAST8_MAX__ 255\000"
 15006      4E545F4C 
 15006      45415354 
 15006      385F4D41 
 15006      585F5F20 
 15007              	.LASF1111:
 15008 7b85 53595343 		.ascii	"SYSCTL_CLOCK_CAN\000"
 15008      544C5F43 
ARM GAS  /tmp/cc7TFFKb.s 			page 373


 15008      4C4F434B 
 15008      5F43414E 
 15008      00
 15009              	.LASF138:
 15010 7b96 5F5F4442 		.ascii	"__DBL_MANT_DIG__ 53\000"
 15010      4C5F4D41 
 15010      4E545F44 
 15010      49475F5F 
 15010      20353300 
 15011              	.LASF213:
 15012 7baa 5F5F554C 		.ascii	"__ULFRACT_IBIT__ 0\000"
 15012      46524143 
 15012      545F4942 
 15012      49545F5F 
 15012      203000
 15013              	.LASF1166:
 15014 7bbd 5353505F 		.ascii	"SSP_MODE_SLAVE\000"
 15014      4D4F4445 
 15014      5F534C41 
 15014      564500
 15015              	.LASF855:
 15016 7bcc 4144435F 		.ascii	"ADC_CR_CLKDIV(n) ((((n) & 0xFF) << 8))\000"
 15016      43525F43 
 15016      4C4B4449 
 15016      56286E29 
 15016      20282828 
 15017              	.LASF685:
 15018 7bf3 54494D45 		.ascii	"TIMER_RESET ((uint32_t) (1 << 1))\000"
 15018      525F5245 
 15018      53455420 
 15018      28287569 
 15018      6E743332 
 15019              	.LASF738:
 15020 7c15 55415254 		.ascii	"UART_LCR_SBS_1BIT (0 << 2)\000"
 15020      5F4C4352 
 15020      5F534253 
 15020      5F314249 
 15020      54202830 
 15021              	.LASF204:
 15022 7c30 5F5F5546 		.ascii	"__UFRACT_MIN__ 0.0UR\000"
 15022      52414354 
 15022      5F4D494E 
 15022      5F5F2030 
 15022      2E305552 
 15023              	.LASF50:
 15024 7c45 5F5F494E 		.ascii	"__INT_LEAST64_TYPE__ long long int\000"
 15024      545F4C45 
 15024      41535436 
 15024      345F5459 
 15024      50455F5F 
 15025              	.LASF714:
 15026 7c68 55415254 		.ascii	"UART_IIR_ABTO_INT (1 << 9)\000"
 15026      5F494952 
 15026      5F414254 
 15026      4F5F494E 
 15026      54202831 
 15027              	.LASF1151:
ARM GAS  /tmp/cc7TFFKb.s 			page 374


 15028 7c83 5353505F 		.ascii	"SSP_BITS_4\000"
 15028      42495453 
 15028      5F3400
 15029              	.LASF1125:
 15030 7c8e 5F535350 		.ascii	"_SSP_RAWINTSTATUS\000"
 15030      5F524157 
 15030      494E5453 
 15030      54415455 
 15030      5300
 15031              	.LASF1153:
 15032 7ca0 5353505F 		.ascii	"SSP_BITS_6\000"
 15032      42495453 
 15032      5F3600
 15033              	.LASF1154:
 15034 7cab 5353505F 		.ascii	"SSP_BITS_7\000"
 15034      42495453 
 15034      5F3700
 15035              	.LASF1155:
 15036 7cb6 5353505F 		.ascii	"SSP_BITS_8\000"
 15036      42495453 
 15036      5F3800
 15037              	.LASF1156:
 15038 7cc1 5353505F 		.ascii	"SSP_BITS_9\000"
 15038      42495453 
 15038      5F3900
 15039              	.LASF92:
 15040 7ccc 5F5F5549 		.ascii	"__UINT64_MAX__ 18446744073709551615ULL\000"
 15040      4E543634 
 15040      5F4D4158 
 15040      5F5F2031 
 15040      38343436 
 15041              	.LASF770:
 15042 7cf3 55415254 		.ascii	"UART_MSR_CTS (1 << 4)\000"
 15042      5F4D5352 
 15042      5F435453 
 15042      20283120 
 15042      3C3C2034 
 15043              	.LASF936:
 15044 7d09 4932435F 		.ascii	"I2C_SETUP_STATUS_NOACKF (1 << 9)\000"
 15044      53455455 
 15044      505F5354 
 15044      41545553 
 15044      5F4E4F41 
 15045              		.ident	"GCC: (GNU Tools for ARM Embedded Processors) 4.9.3 20150303 (release) [ARM/embedded-4_9-br
ARM GAS  /tmp/cc7TFFKb.s 			page 375


DEFINED SYMBOLS
                            *ABS*:0000000000000000 ssp_11xx.c
     /tmp/cc7TFFKb.s:68     .text.SSP_Read1BFifo:0000000000000000 $t
     /tmp/cc7TFFKb.s:72     .text.SSP_Read1BFifo:0000000000000000 SSP_Read1BFifo
     /tmp/cc7TFFKb.s:151    .text.Chip_SSP_SetClockRate:0000000000000000 $t
     /tmp/cc7TFFKb.s:156    .text.Chip_SSP_SetClockRate:0000000000000000 Chip_SSP_SetClockRate
     /tmp/cc7TFFKb.s:188    .text.Chip_SSP_SetClockRate:0000000000000014 $d
     /tmp/cc7TFFKb.s:193    .text.Chip_SSP_RWFrames_Blocking:0000000000000000 $t
     /tmp/cc7TFFKb.s:198    .text.Chip_SSP_RWFrames_Blocking:0000000000000000 Chip_SSP_RWFrames_Blocking
     /tmp/cc7TFFKb.s:640    .text.Chip_SSP_RWFrames_Blocking:0000000000000114 $d
     /tmp/cc7TFFKb.s:649    .text.Chip_SSP_WriteFrames_Blocking:0000000000000000 $t
     /tmp/cc7TFFKb.s:654    .text.Chip_SSP_WriteFrames_Blocking:0000000000000000 Chip_SSP_WriteFrames_Blocking
     /tmp/cc7TFFKb.s:1022   .text.Chip_SSP_ReadFrames_Blocking:0000000000000000 $t
     /tmp/cc7TFFKb.s:1027   .text.Chip_SSP_ReadFrames_Blocking:0000000000000000 Chip_SSP_ReadFrames_Blocking
     /tmp/cc7TFFKb.s:1426   .text.Chip_SSP_ReadFrames_Blocking:00000000000000d8 $d
     /tmp/cc7TFFKb.s:1432   .text.Chip_SSP_Int_FlushData:0000000000000000 $t
     /tmp/cc7TFFKb.s:1437   .text.Chip_SSP_Int_FlushData:0000000000000000 Chip_SSP_Int_FlushData
     /tmp/cc7TFFKb.s:1514   .text.Chip_SSP_Int_RWFrames8Bits:0000000000000000 $t
     /tmp/cc7TFFKb.s:1519   .text.Chip_SSP_Int_RWFrames8Bits:0000000000000000 Chip_SSP_Int_RWFrames8Bits
     /tmp/cc7TFFKb.s:1711   .text.Chip_SSP_Int_RWFrames16Bits:0000000000000000 $t
     /tmp/cc7TFFKb.s:1716   .text.Chip_SSP_Int_RWFrames16Bits:0000000000000000 Chip_SSP_Int_RWFrames16Bits
     /tmp/cc7TFFKb.s:2051   .text.Chip_SSP_Int_RWFrames16Bits:00000000000000c4 $d
     /tmp/cc7TFFKb.s:2056   .text.Chip_SSP_SetMaster:0000000000000000 $t
     /tmp/cc7TFFKb.s:2061   .text.Chip_SSP_SetMaster:0000000000000000 Chip_SSP_SetMaster
     /tmp/cc7TFFKb.s:2101   .text.Chip_SSP_SetBitRate:0000000000000000 $t
     /tmp/cc7TFFKb.s:2106   .text.Chip_SSP_SetBitRate:0000000000000000 Chip_SSP_SetBitRate
     /tmp/cc7TFFKb.s:2267   .text.Chip_SSP_SetBitRate:0000000000000084 $d
     /tmp/cc7TFFKb.s:2274   .text.Chip_SSP_Init:0000000000000000 $t
     /tmp/cc7TFFKb.s:2279   .text.Chip_SSP_Init:0000000000000000 Chip_SSP_Init
     /tmp/cc7TFFKb.s:2422   .text.Chip_SSP_Init:0000000000000064 $d
     /tmp/cc7TFFKb.s:2432   .text.Chip_SSP_DeInit:0000000000000000 $t
     /tmp/cc7TFFKb.s:2437   .text.Chip_SSP_DeInit:0000000000000000 Chip_SSP_DeInit
     /tmp/cc7TFFKb.s:2515   .text.Chip_SSP_DeInit:0000000000000038 $d
                     .debug_frame:0000000000000010 $d
                           .group:0000000000000000 wm4.0.577787f3295b446bf0a2b287b3e6b6b4
                           .group:0000000000000000 wm4.features.h.22.2e382148a0560adabf236cddd4e880f4
                           .group:0000000000000000 wm4._default_types.h.15.933e8edd27a65e0b69af4a865eb623d2
                           .group:0000000000000000 wm4._intsup.h.10.ca9f32a61b410c270a48d1161ca2c217
                           .group:0000000000000000 wm4.stdint.h.22.f4a337c398d8b6d821a97202448bc0d0
                           .group:0000000000000000 wm4.stdbool.h.29.1c9ee6859ce8145f7838a4f2549ccec2
                           .group:0000000000000000 wm4.lpc_types.h.63.5779355f7bf16476226d33c241ffb98a
                           .group:0000000000000000 wm4.sys_config.h.31.9f234e9c90333d233c7e647ebe63e928
                           .group:0000000000000000 wm4.cmsis_11cxx.h.33.407e9bbb5d170cd1552d3f7dc3fd5c42
                           .group:0000000000000000 wm4.core_cm0.h.32.192d13cfa8b31e63c86621de62eb153f
                           .group:0000000000000000 wm4.core_cm0.h.120.f4257ea7d0bce0cbabffe223e23b2fd4
                           .group:0000000000000000 wm4.chip.h.116.cf332ff1fd7689c827f4f040aaad9bfe
                           .group:0000000000000000 wm4.pmu_11xx.h.33.1d6b708881441cb98d19b8bab3caa180
                           .group:0000000000000000 wm4.sysctl_11xx.h.33.ae61a1181e608f8409883008e291930c
                           .group:0000000000000000 wm4.clock_11xx.h.33.23290a9e2ed919e3a6958d25130bc848
                           .group:0000000000000000 wm4.iocon_11xx.h.33.25e2b3cde122df23fb07b984cb4f3a93
                           .group:0000000000000000 wm4.timer_11xx.h.33.c92f50a9325789ee6a8ffd6248980d70
                           .group:0000000000000000 wm4.ring_buffer.h.33.ffd8153954783612f9c626df1ed9e770
                           .group:0000000000000000 wm4.uart_11xx.h.98.fe68b709973730a4fba3f3ce60c5c312
                           .group:0000000000000000 wm4.wwdt_11xx.h.33.5768344983cb842df69cc91ea86cabb0
                           .group:0000000000000000 wm4.ssp_11xx.h.33.af054d3d65f4cb0c078be40bb872ec37
                           .group:0000000000000000 wm4.error.h.38.ae74fe1dd9d19c80c505f1fda144fce8
                           .group:0000000000000000 wm4.adc_11xx.h.33.6ce7433ac6b30df70a6993d01dbd513f
ARM GAS  /tmp/cc7TFFKb.s 			page 376


                           .group:0000000000000000 wm4.i2c_11xx.h.33.2b506d1350e00a8c26e8bf006a5f9390
                           .group:0000000000000000 wm4.ccand_11xx.h.33.638098819df345271d3dfae587baa456

UNDEFINED SYMBOLS
__aeabi_uidiv
Chip_Clock_GetMainClockRate
