ARM GAS  /tmp/cctBd1Mx.s 			page 1


   1              		.cpu cortex-m0
   2              		.fpu softvfp
   3              		.eabi_attribute 20, 1	@ Tag_ABI_FP_denormal
   4              		.eabi_attribute 21, 1	@ Tag_ABI_FP_exceptions
   5              		.eabi_attribute 23, 3	@ Tag_ABI_FP_number_model
   6              		.eabi_attribute 24, 1	@ Tag_ABI_align8_needed
   7              		.eabi_attribute 25, 1	@ Tag_ABI_align8_preserved
   8              		.eabi_attribute 26, 1	@ Tag_ABI_enum_size
   9              		.eabi_attribute 30, 2	@ Tag_ABI_optimization_goals
  10              		.eabi_attribute 34, 0	@ Tag_CPU_unaligned_access
  11              		.eabi_attribute 18, 4	@ Tag_ABI_PCS_wchar_t
  12              		.file	"timer_11xx.c"
  13              	@ GNU C (GNU Tools for ARM Embedded Processors) version 4.9.3 20150303 (release) [ARM/embedded-4_9-
  14              	@	compiled by GNU C version 4.8.2, GMP version 5.1.3, MPFR version 3.1.2-p3, MPC version 1.0.1
  15              	@ GGC heuristics: --param ggc-min-expand=100 --param ggc-min-heapsize=131072
  16              	@ options passed:  -I . -I ../lpc11cx4-library/lpc_chip_11cxx_lib/inc
  17              	@ -I ../lpc11cx4-library/evt_lib/inc -I inc -imultilib armv6-m
  18              	@ -iprefix /usr/bin/../lib/gcc/arm-none-eabi/4.9.3/
  19              	@ -isysroot /usr/bin/../arm-none-eabi -MD bin/timer_11xx.d
  20              	@ -MF bin/timer_11xx.d -MP -MQ bin/timer_11xx.o -D__USES_INITFINI__
  21              	@ -D CORE_M0 ../lpc11cx4-library/lpc_chip_11cxx_lib/src/timer_11xx.c
  22              	@ -mcpu=cortex-m0 -mthumb -auxbase-strip bin/timer_11xx.o -g -ggdb3 -O2
  23              	@ -Wall -Wstrict-prototypes -Wextra -std=gnu90 -ffunction-sections
  24              	@ -fdata-sections -fverbose-asm
  25              	@ options enabled:  -faggressive-loop-optimizations -fauto-inc-dec
  26              	@ -fbranch-count-reg -fcaller-saves -fcombine-stack-adjustments -fcommon
  27              	@ -fcompare-elim -fcprop-registers -fcrossjumping -fcse-follow-jumps
  28              	@ -fdata-sections -fdefer-pop -fdelete-null-pointer-checks -fdevirtualize
  29              	@ -fdevirtualize-speculatively -fdwarf2-cfi-asm -fearly-inlining
  30              	@ -feliminate-unused-debug-types -fexpensive-optimizations
  31              	@ -fforward-propagate -ffunction-cse -ffunction-sections -fgcse -fgcse-lm
  32              	@ -fgnu-runtime -fgnu-unique -fguess-branch-probability
  33              	@ -fhoist-adjacent-loads -fident -fif-conversion -fif-conversion2
  34              	@ -findirect-inlining -finline -finline-atomics
  35              	@ -finline-functions-called-once -finline-small-functions -fipa-cp
  36              	@ -fipa-profile -fipa-pure-const -fipa-reference -fipa-sra
  37              	@ -fira-hoist-pressure -fira-share-save-slots -fira-share-spill-slots
  38              	@ -fisolate-erroneous-paths-dereference -fivopts -fkeep-static-consts
  39              	@ -fleading-underscore -flifetime-dse -fmath-errno -fmerge-constants
  40              	@ -fmerge-debug-strings -fmove-loop-invariants -fomit-frame-pointer
  41              	@ -foptimize-sibling-calls -foptimize-strlen -fpartial-inlining -fpeephole
  42              	@ -fpeephole2 -fprefetch-loop-arrays -freg-struct-return -freorder-blocks
  43              	@ -freorder-functions -frerun-cse-after-loop
  44              	@ -fsched-critical-path-heuristic -fsched-dep-count-heuristic
  45              	@ -fsched-group-heuristic -fsched-interblock -fsched-last-insn-heuristic
  46              	@ -fsched-pressure -fsched-rank-heuristic -fsched-spec
  47              	@ -fsched-spec-insn-heuristic -fsched-stalled-insns-dep -fschedule-insns2
  48              	@ -fsection-anchors -fshow-column -fshrink-wrap -fsigned-zeros
  49              	@ -fsplit-ivs-in-unroller -fsplit-wide-types -fstrict-aliasing
  50              	@ -fstrict-overflow -fstrict-volatile-bitfields -fsync-libcalls
  51              	@ -fthread-jumps -ftoplevel-reorder -ftrapping-math -ftree-bit-ccp
  52              	@ -ftree-builtin-call-dce -ftree-ccp -ftree-ch -ftree-coalesce-vars
  53              	@ -ftree-copy-prop -ftree-copyrename -ftree-cselim -ftree-dce
  54              	@ -ftree-dominator-opts -ftree-dse -ftree-forwprop -ftree-fre
  55              	@ -ftree-loop-if-convert -ftree-loop-im -ftree-loop-ivcanon
  56              	@ -ftree-loop-optimize -ftree-parallelize-loops= -ftree-phiprop -ftree-pre
  57              	@ -ftree-pta -ftree-reassoc -ftree-scev-cprop -ftree-sink -ftree-slsr
ARM GAS  /tmp/cctBd1Mx.s 			page 2


  58              	@ -ftree-sra -ftree-switch-conversion -ftree-tail-merge -ftree-ter
  59              	@ -ftree-vrp -funit-at-a-time -fvar-tracking -fvar-tracking-assignments
  60              	@ -fverbose-asm -fzero-initialized-in-bss -mlittle-endian -mlra
  61              	@ -mpic-data-is-text-relative -msched-prolog -mthumb
  62              	@ -mvectorize-with-neon-quad
  63              	
  64              		.text
  65              	.Ltext0:
  66              		.cfi_sections	.debug_frame
  67              		.section	.text.Chip_TIMER_Init,"ax",%progbits
  68              		.align	2
  69              		.global	Chip_TIMER_Init
  70              		.code	16
  71              		.thumb_func
  72              		.type	Chip_TIMER_Init, %function
  73              	Chip_TIMER_Init:
  74              	.LFB199:
  75              		.file 1 "../lpc11cx4-library/lpc_chip_11cxx_lib/src/timer_11xx.c"
   1:../lpc11cx4-library/lpc_chip_11cxx_lib/src/timer_11xx.c **** /*
   2:../lpc11cx4-library/lpc_chip_11cxx_lib/src/timer_11xx.c ****  * @brief 16/32-bit Timer/PWM control functions
   3:../lpc11cx4-library/lpc_chip_11cxx_lib/src/timer_11xx.c ****  *
   4:../lpc11cx4-library/lpc_chip_11cxx_lib/src/timer_11xx.c ****  * @note
   5:../lpc11cx4-library/lpc_chip_11cxx_lib/src/timer_11xx.c ****  * Copyright(C) NXP Semiconductors, 2012
   6:../lpc11cx4-library/lpc_chip_11cxx_lib/src/timer_11xx.c ****  * All rights reserved.
   7:../lpc11cx4-library/lpc_chip_11cxx_lib/src/timer_11xx.c ****  *
   8:../lpc11cx4-library/lpc_chip_11cxx_lib/src/timer_11xx.c ****  * @par
   9:../lpc11cx4-library/lpc_chip_11cxx_lib/src/timer_11xx.c ****  * Software that is described herein is for illustrative purposes only
  10:../lpc11cx4-library/lpc_chip_11cxx_lib/src/timer_11xx.c ****  * which provides customers with programming information regarding the
  11:../lpc11cx4-library/lpc_chip_11cxx_lib/src/timer_11xx.c ****  * LPC products.  This software is supplied "AS IS" without any warranties of
  12:../lpc11cx4-library/lpc_chip_11cxx_lib/src/timer_11xx.c ****  * any kind, and NXP Semiconductors and its licensor disclaim any and
  13:../lpc11cx4-library/lpc_chip_11cxx_lib/src/timer_11xx.c ****  * all warranties, express or implied, including all implied warranties of
  14:../lpc11cx4-library/lpc_chip_11cxx_lib/src/timer_11xx.c ****  * merchantability, fitness for a particular purpose and non-infringement of
  15:../lpc11cx4-library/lpc_chip_11cxx_lib/src/timer_11xx.c ****  * intellectual property rights.  NXP Semiconductors assumes no responsibility
  16:../lpc11cx4-library/lpc_chip_11cxx_lib/src/timer_11xx.c ****  * or liability for the use of the software, conveys no license or rights under any
  17:../lpc11cx4-library/lpc_chip_11cxx_lib/src/timer_11xx.c ****  * patent, copyright, mask work right, or any other intellectual property rights in
  18:../lpc11cx4-library/lpc_chip_11cxx_lib/src/timer_11xx.c ****  * or to any products. NXP Semiconductors reserves the right to make changes
  19:../lpc11cx4-library/lpc_chip_11cxx_lib/src/timer_11xx.c ****  * in the software without notification. NXP Semiconductors also makes no
  20:../lpc11cx4-library/lpc_chip_11cxx_lib/src/timer_11xx.c ****  * representation or warranty that such application will be suitable for the
  21:../lpc11cx4-library/lpc_chip_11cxx_lib/src/timer_11xx.c ****  * specified use without further testing or modification.
  22:../lpc11cx4-library/lpc_chip_11cxx_lib/src/timer_11xx.c ****  *
  23:../lpc11cx4-library/lpc_chip_11cxx_lib/src/timer_11xx.c ****  * @par
  24:../lpc11cx4-library/lpc_chip_11cxx_lib/src/timer_11xx.c ****  * Permission to use, copy, modify, and distribute this software and its
  25:../lpc11cx4-library/lpc_chip_11cxx_lib/src/timer_11xx.c ****  * documentation is hereby granted, under NXP Semiconductors' and its
  26:../lpc11cx4-library/lpc_chip_11cxx_lib/src/timer_11xx.c ****  * licensor's relevant copyrights in the software, without fee, provided that it
  27:../lpc11cx4-library/lpc_chip_11cxx_lib/src/timer_11xx.c ****  * is used in conjunction with NXP Semiconductors microcontrollers.  This
  28:../lpc11cx4-library/lpc_chip_11cxx_lib/src/timer_11xx.c ****  * copyright, permission, and disclaimer notice must appear in all copies of
  29:../lpc11cx4-library/lpc_chip_11cxx_lib/src/timer_11xx.c ****  * this code.
  30:../lpc11cx4-library/lpc_chip_11cxx_lib/src/timer_11xx.c ****  */
  31:../lpc11cx4-library/lpc_chip_11cxx_lib/src/timer_11xx.c **** 
  32:../lpc11cx4-library/lpc_chip_11cxx_lib/src/timer_11xx.c **** #include "chip.h"
  33:../lpc11cx4-library/lpc_chip_11cxx_lib/src/timer_11xx.c **** 
  34:../lpc11cx4-library/lpc_chip_11cxx_lib/src/timer_11xx.c **** /*****************************************************************************
  35:../lpc11cx4-library/lpc_chip_11cxx_lib/src/timer_11xx.c ****  * Private types/enumerations/variables
  36:../lpc11cx4-library/lpc_chip_11cxx_lib/src/timer_11xx.c ****  ****************************************************************************/
  37:../lpc11cx4-library/lpc_chip_11cxx_lib/src/timer_11xx.c **** 
  38:../lpc11cx4-library/lpc_chip_11cxx_lib/src/timer_11xx.c **** /*****************************************************************************
  39:../lpc11cx4-library/lpc_chip_11cxx_lib/src/timer_11xx.c ****  * Public types/enumerations/variables
ARM GAS  /tmp/cctBd1Mx.s 			page 3


  40:../lpc11cx4-library/lpc_chip_11cxx_lib/src/timer_11xx.c ****  ****************************************************************************/
  41:../lpc11cx4-library/lpc_chip_11cxx_lib/src/timer_11xx.c **** 
  42:../lpc11cx4-library/lpc_chip_11cxx_lib/src/timer_11xx.c **** /*****************************************************************************
  43:../lpc11cx4-library/lpc_chip_11cxx_lib/src/timer_11xx.c ****  * Private functions
  44:../lpc11cx4-library/lpc_chip_11cxx_lib/src/timer_11xx.c ****  ****************************************************************************/
  45:../lpc11cx4-library/lpc_chip_11cxx_lib/src/timer_11xx.c **** 
  46:../lpc11cx4-library/lpc_chip_11cxx_lib/src/timer_11xx.c **** /* Returns clock index for a specific timer referenced by IP block address */
  47:../lpc11cx4-library/lpc_chip_11cxx_lib/src/timer_11xx.c **** STATIC CHIP_SYSCTL_CLOCK_T Chip_TIMER_GetClock(LPC_TIMER_T *pTMR)
  48:../lpc11cx4-library/lpc_chip_11cxx_lib/src/timer_11xx.c **** {
  49:../lpc11cx4-library/lpc_chip_11cxx_lib/src/timer_11xx.c ****   CHIP_SYSCTL_CLOCK_T tmrClk;
  50:../lpc11cx4-library/lpc_chip_11cxx_lib/src/timer_11xx.c ****   if (pTMR == LPC_TIMER32_1) {
  51:../lpc11cx4-library/lpc_chip_11cxx_lib/src/timer_11xx.c **** 	  tmrClk = SYSCTL_CLOCK_CT32B1;
  52:../lpc11cx4-library/lpc_chip_11cxx_lib/src/timer_11xx.c ****   }
  53:../lpc11cx4-library/lpc_chip_11cxx_lib/src/timer_11xx.c ****   else if (pTMR == LPC_TIMER16_0) {
  54:../lpc11cx4-library/lpc_chip_11cxx_lib/src/timer_11xx.c **** 	  tmrClk = SYSCTL_CLOCK_CT16B0;
  55:../lpc11cx4-library/lpc_chip_11cxx_lib/src/timer_11xx.c ****   }
  56:../lpc11cx4-library/lpc_chip_11cxx_lib/src/timer_11xx.c ****   else if (pTMR == LPC_TIMER16_1) {
  57:../lpc11cx4-library/lpc_chip_11cxx_lib/src/timer_11xx.c **** 	  tmrClk = SYSCTL_CLOCK_CT16B1;
  58:../lpc11cx4-library/lpc_chip_11cxx_lib/src/timer_11xx.c ****   }
  59:../lpc11cx4-library/lpc_chip_11cxx_lib/src/timer_11xx.c ****   else {
  60:../lpc11cx4-library/lpc_chip_11cxx_lib/src/timer_11xx.c **** 	  tmrClk = SYSCTL_CLOCK_CT32B0;
  61:../lpc11cx4-library/lpc_chip_11cxx_lib/src/timer_11xx.c ****   }
  62:../lpc11cx4-library/lpc_chip_11cxx_lib/src/timer_11xx.c **** 
  63:../lpc11cx4-library/lpc_chip_11cxx_lib/src/timer_11xx.c ****   return tmrClk;
  64:../lpc11cx4-library/lpc_chip_11cxx_lib/src/timer_11xx.c **** }
  65:../lpc11cx4-library/lpc_chip_11cxx_lib/src/timer_11xx.c **** 
  66:../lpc11cx4-library/lpc_chip_11cxx_lib/src/timer_11xx.c **** /*****************************************************************************
  67:../lpc11cx4-library/lpc_chip_11cxx_lib/src/timer_11xx.c ****  * Public functions
  68:../lpc11cx4-library/lpc_chip_11cxx_lib/src/timer_11xx.c ****  ****************************************************************************/
  69:../lpc11cx4-library/lpc_chip_11cxx_lib/src/timer_11xx.c **** 
  70:../lpc11cx4-library/lpc_chip_11cxx_lib/src/timer_11xx.c **** /* Initialize a timer */
  71:../lpc11cx4-library/lpc_chip_11cxx_lib/src/timer_11xx.c **** void Chip_TIMER_Init(LPC_TIMER_T *pTMR)
  72:../lpc11cx4-library/lpc_chip_11cxx_lib/src/timer_11xx.c **** {
  76              		.loc 1 72 0
  77              		.cfi_startproc
  78              	.LVL0:
  79              	.LBB10:
  80              	.LBB11:
  50:../lpc11cx4-library/lpc_chip_11cxx_lib/src/timer_11xx.c **** 	  tmrClk = SYSCTL_CLOCK_CT32B1;
  81              		.loc 1 50 0
  82 0000 0C4B     		ldr	r3, .L7	@ tmp114,
  83 0002 9842     		cmp	r0, r3	@ pTMR, tmp114
  84 0004 0DD0     		beq	.L3	@,
  53:../lpc11cx4-library/lpc_chip_11cxx_lib/src/timer_11xx.c **** 	  tmrClk = SYSCTL_CLOCK_CT16B0;
  85              		.loc 1 53 0
  86 0006 0C4B     		ldr	r3, .L7+4	@ tmp115,
  87 0008 9842     		cmp	r0, r3	@ pTMR, tmp115
  88 000a 0DD0     		beq	.L4	@,
  56:../lpc11cx4-library/lpc_chip_11cxx_lib/src/timer_11xx.c **** 	  tmrClk = SYSCTL_CLOCK_CT16B1;
  89              		.loc 1 56 0
  90 000c 0B4B     		ldr	r3, .L7+8	@ tmp116,
  91 000e 9842     		cmp	r0, r3	@ pTMR, tmp116
  92 0010 0CD0     		beq	.L5	@,
  93 0012 8020     		mov	r0, #128	@ D.6094,
  94              	.LVL1:
  95 0014 8000     		lsl	r0, r0, #2	@ D.6094, D.6094,
  96              	.L2:
ARM GAS  /tmp/cctBd1Mx.s 			page 4


  97              	.LBE11:
  98              	.LBE10:
  99              	.LBB13:
 100              	.LBB14:
 101              		.file 2 "../lpc11cx4-library/lpc_chip_11cxx_lib/inc/clock_11xx.h"
   1:../lpc11cx4-library/lpc_chip_11cxx_lib/inc/clock_11xx.h **** /*
   2:../lpc11cx4-library/lpc_chip_11cxx_lib/inc/clock_11xx.h ****  * @brief LPC11XX Clock control functions
   3:../lpc11cx4-library/lpc_chip_11cxx_lib/inc/clock_11xx.h ****  *
   4:../lpc11cx4-library/lpc_chip_11cxx_lib/inc/clock_11xx.h ****  * @note
   5:../lpc11cx4-library/lpc_chip_11cxx_lib/inc/clock_11xx.h ****  * Copyright(C) NXP Semiconductors, 2012
   6:../lpc11cx4-library/lpc_chip_11cxx_lib/inc/clock_11xx.h ****  * All rights reserved.
   7:../lpc11cx4-library/lpc_chip_11cxx_lib/inc/clock_11xx.h ****  *
   8:../lpc11cx4-library/lpc_chip_11cxx_lib/inc/clock_11xx.h ****  * @par
   9:../lpc11cx4-library/lpc_chip_11cxx_lib/inc/clock_11xx.h ****  * Software that is described herein is for illustrative purposes only
  10:../lpc11cx4-library/lpc_chip_11cxx_lib/inc/clock_11xx.h ****  * which provides customers with programming information regarding the
  11:../lpc11cx4-library/lpc_chip_11cxx_lib/inc/clock_11xx.h ****  * LPC products.  This software is supplied "AS IS" without any warranties of
  12:../lpc11cx4-library/lpc_chip_11cxx_lib/inc/clock_11xx.h ****  * any kind, and NXP Semiconductors and its licensor disclaim any and
  13:../lpc11cx4-library/lpc_chip_11cxx_lib/inc/clock_11xx.h ****  * all warranties, express or implied, including all implied warranties of
  14:../lpc11cx4-library/lpc_chip_11cxx_lib/inc/clock_11xx.h ****  * merchantability, fitness for a particular purpose and non-infringement of
  15:../lpc11cx4-library/lpc_chip_11cxx_lib/inc/clock_11xx.h ****  * intellectual property rights.  NXP Semiconductors assumes no responsibility
  16:../lpc11cx4-library/lpc_chip_11cxx_lib/inc/clock_11xx.h ****  * or liability for the use of the software, conveys no license or rights under any
  17:../lpc11cx4-library/lpc_chip_11cxx_lib/inc/clock_11xx.h ****  * patent, copyright, mask work right, or any other intellectual property rights in
  18:../lpc11cx4-library/lpc_chip_11cxx_lib/inc/clock_11xx.h ****  * or to any products. NXP Semiconductors reserves the right to make changes
  19:../lpc11cx4-library/lpc_chip_11cxx_lib/inc/clock_11xx.h ****  * in the software without notification. NXP Semiconductors also makes no
  20:../lpc11cx4-library/lpc_chip_11cxx_lib/inc/clock_11xx.h ****  * representation or warranty that such application will be suitable for the
  21:../lpc11cx4-library/lpc_chip_11cxx_lib/inc/clock_11xx.h ****  * specified use without further testing or modification.
  22:../lpc11cx4-library/lpc_chip_11cxx_lib/inc/clock_11xx.h ****  *
  23:../lpc11cx4-library/lpc_chip_11cxx_lib/inc/clock_11xx.h ****  * @par
  24:../lpc11cx4-library/lpc_chip_11cxx_lib/inc/clock_11xx.h ****  * Permission to use, copy, modify, and distribute this software and its
  25:../lpc11cx4-library/lpc_chip_11cxx_lib/inc/clock_11xx.h ****  * documentation is hereby granted, under NXP Semiconductors' and its
  26:../lpc11cx4-library/lpc_chip_11cxx_lib/inc/clock_11xx.h ****  * licensor's relevant copyrights in the software, without fee, provided that it
  27:../lpc11cx4-library/lpc_chip_11cxx_lib/inc/clock_11xx.h ****  * is used in conjunction with NXP Semiconductors microcontrollers.  This
  28:../lpc11cx4-library/lpc_chip_11cxx_lib/inc/clock_11xx.h ****  * copyright, permission, and disclaimer notice must appear in all copies of
  29:../lpc11cx4-library/lpc_chip_11cxx_lib/inc/clock_11xx.h ****  * this code.
  30:../lpc11cx4-library/lpc_chip_11cxx_lib/inc/clock_11xx.h ****  */
  31:../lpc11cx4-library/lpc_chip_11cxx_lib/inc/clock_11xx.h **** 
  32:../lpc11cx4-library/lpc_chip_11cxx_lib/inc/clock_11xx.h **** #ifndef __CLOCK_11XX_H_
  33:../lpc11cx4-library/lpc_chip_11cxx_lib/inc/clock_11xx.h **** #define __CLOCK_11XX_H_
  34:../lpc11cx4-library/lpc_chip_11cxx_lib/inc/clock_11xx.h **** 
  35:../lpc11cx4-library/lpc_chip_11cxx_lib/inc/clock_11xx.h **** #ifdef __cplusplus
  36:../lpc11cx4-library/lpc_chip_11cxx_lib/inc/clock_11xx.h **** extern "C" {
  37:../lpc11cx4-library/lpc_chip_11cxx_lib/inc/clock_11xx.h **** #endif
  38:../lpc11cx4-library/lpc_chip_11cxx_lib/inc/clock_11xx.h **** 
  39:../lpc11cx4-library/lpc_chip_11cxx_lib/inc/clock_11xx.h **** /** @defgroup CLOCK_11XX CHIP: LPC11xx Clock Control block driver
  40:../lpc11cx4-library/lpc_chip_11cxx_lib/inc/clock_11xx.h ****  * @ingroup CHIP_11XX_Drivers
  41:../lpc11cx4-library/lpc_chip_11cxx_lib/inc/clock_11xx.h ****  * @{
  42:../lpc11cx4-library/lpc_chip_11cxx_lib/inc/clock_11xx.h ****  */
  43:../lpc11cx4-library/lpc_chip_11cxx_lib/inc/clock_11xx.h **** 
  44:../lpc11cx4-library/lpc_chip_11cxx_lib/inc/clock_11xx.h **** /** Internal oscillator frequency */
  45:../lpc11cx4-library/lpc_chip_11cxx_lib/inc/clock_11xx.h **** #define SYSCTL_IRC_FREQ (12000000)
  46:../lpc11cx4-library/lpc_chip_11cxx_lib/inc/clock_11xx.h **** 
  47:../lpc11cx4-library/lpc_chip_11cxx_lib/inc/clock_11xx.h **** /**
  48:../lpc11cx4-library/lpc_chip_11cxx_lib/inc/clock_11xx.h ****  * @brief	Set System PLL divider values
  49:../lpc11cx4-library/lpc_chip_11cxx_lib/inc/clock_11xx.h ****  * @param	msel    : PLL feedback divider value. M = msel + 1.
  50:../lpc11cx4-library/lpc_chip_11cxx_lib/inc/clock_11xx.h ****  * @param	psel    : PLL post divider value. P =  (1<<psel).
  51:../lpc11cx4-library/lpc_chip_11cxx_lib/inc/clock_11xx.h ****  * @return	Nothing
  52:../lpc11cx4-library/lpc_chip_11cxx_lib/inc/clock_11xx.h ****  * @note	See the user manual for how to setup the PLL.
ARM GAS  /tmp/cctBd1Mx.s 			page 5


  53:../lpc11cx4-library/lpc_chip_11cxx_lib/inc/clock_11xx.h ****  */
  54:../lpc11cx4-library/lpc_chip_11cxx_lib/inc/clock_11xx.h **** STATIC INLINE void Chip_Clock_SetupSystemPLL(uint8_t msel, uint8_t psel)
  55:../lpc11cx4-library/lpc_chip_11cxx_lib/inc/clock_11xx.h **** {
  56:../lpc11cx4-library/lpc_chip_11cxx_lib/inc/clock_11xx.h **** 	LPC_SYSCTL->SYSPLLCTRL = (msel & 0x1F) | ((psel & 0x3) << 5);
  57:../lpc11cx4-library/lpc_chip_11cxx_lib/inc/clock_11xx.h **** }
  58:../lpc11cx4-library/lpc_chip_11cxx_lib/inc/clock_11xx.h **** 
  59:../lpc11cx4-library/lpc_chip_11cxx_lib/inc/clock_11xx.h **** /**
  60:../lpc11cx4-library/lpc_chip_11cxx_lib/inc/clock_11xx.h ****  * @brief	Read System PLL lock status
  61:../lpc11cx4-library/lpc_chip_11cxx_lib/inc/clock_11xx.h ****  * @return	true of the PLL is locked. false if not locked
  62:../lpc11cx4-library/lpc_chip_11cxx_lib/inc/clock_11xx.h ****  */
  63:../lpc11cx4-library/lpc_chip_11cxx_lib/inc/clock_11xx.h **** STATIC INLINE bool Chip_Clock_IsSystemPLLLocked(void)
  64:../lpc11cx4-library/lpc_chip_11cxx_lib/inc/clock_11xx.h **** {
  65:../lpc11cx4-library/lpc_chip_11cxx_lib/inc/clock_11xx.h **** 	return (bool) ((LPC_SYSCTL->SYSPLLSTAT & 1) != 0);
  66:../lpc11cx4-library/lpc_chip_11cxx_lib/inc/clock_11xx.h **** }
  67:../lpc11cx4-library/lpc_chip_11cxx_lib/inc/clock_11xx.h **** 
  68:../lpc11cx4-library/lpc_chip_11cxx_lib/inc/clock_11xx.h **** /**
  69:../lpc11cx4-library/lpc_chip_11cxx_lib/inc/clock_11xx.h ****  * Clock sources for system and USB PLLs
  70:../lpc11cx4-library/lpc_chip_11cxx_lib/inc/clock_11xx.h ****  */
  71:../lpc11cx4-library/lpc_chip_11cxx_lib/inc/clock_11xx.h **** typedef enum CHIP_SYSCTL_PLLCLKSRC {
  72:../lpc11cx4-library/lpc_chip_11cxx_lib/inc/clock_11xx.h **** 	SYSCTL_PLLCLKSRC_IRC = 0,		/*!< Internal oscillator in */
  73:../lpc11cx4-library/lpc_chip_11cxx_lib/inc/clock_11xx.h **** 	SYSCTL_PLLCLKSRC_MAINOSC,		/*!< Crystal (main) oscillator in */
  74:../lpc11cx4-library/lpc_chip_11cxx_lib/inc/clock_11xx.h **** #if defined(CHIP_LPC11AXX)
  75:../lpc11cx4-library/lpc_chip_11cxx_lib/inc/clock_11xx.h **** 	SYSCTL_PLLCLKSRC_EXT_CLKIN,	/*!< External clock in (11Axx only) */
  76:../lpc11cx4-library/lpc_chip_11cxx_lib/inc/clock_11xx.h **** #else
  77:../lpc11cx4-library/lpc_chip_11cxx_lib/inc/clock_11xx.h **** 	SYSCTL_PLLCLKSRC_RESERVED1,	/*!< Reserved */
  78:../lpc11cx4-library/lpc_chip_11cxx_lib/inc/clock_11xx.h **** #endif
  79:../lpc11cx4-library/lpc_chip_11cxx_lib/inc/clock_11xx.h **** 	SYSCTL_PLLCLKSRC_RESERVED2,	/*!< Reserved */
  80:../lpc11cx4-library/lpc_chip_11cxx_lib/inc/clock_11xx.h **** } CHIP_SYSCTL_PLLCLKSRC_T;
  81:../lpc11cx4-library/lpc_chip_11cxx_lib/inc/clock_11xx.h **** 
  82:../lpc11cx4-library/lpc_chip_11cxx_lib/inc/clock_11xx.h **** /**
  83:../lpc11cx4-library/lpc_chip_11cxx_lib/inc/clock_11xx.h ****  * @brief	Set System PLL clock source
  84:../lpc11cx4-library/lpc_chip_11cxx_lib/inc/clock_11xx.h ****  * @param	src	: Clock source for system PLL
  85:../lpc11cx4-library/lpc_chip_11cxx_lib/inc/clock_11xx.h ****  * @return	Nothing
  86:../lpc11cx4-library/lpc_chip_11cxx_lib/inc/clock_11xx.h ****  * @note	This function will also toggle the clock source update register
  87:../lpc11cx4-library/lpc_chip_11cxx_lib/inc/clock_11xx.h ****  * to update the clock source.
  88:../lpc11cx4-library/lpc_chip_11cxx_lib/inc/clock_11xx.h ****  */
  89:../lpc11cx4-library/lpc_chip_11cxx_lib/inc/clock_11xx.h **** void Chip_Clock_SetSystemPLLSource(CHIP_SYSCTL_PLLCLKSRC_T src);
  90:../lpc11cx4-library/lpc_chip_11cxx_lib/inc/clock_11xx.h **** 
  91:../lpc11cx4-library/lpc_chip_11cxx_lib/inc/clock_11xx.h **** #if defined(CHIP_LPC11UXX)
  92:../lpc11cx4-library/lpc_chip_11cxx_lib/inc/clock_11xx.h **** /**
  93:../lpc11cx4-library/lpc_chip_11cxx_lib/inc/clock_11xx.h ****  * @brief	Set USB PLL divider values
  94:../lpc11cx4-library/lpc_chip_11cxx_lib/inc/clock_11xx.h ****  * @param	msel    : PLL feedback divider value. M = msel + 1.
  95:../lpc11cx4-library/lpc_chip_11cxx_lib/inc/clock_11xx.h ****  * @param	psel    : PLL post divider value. P = (1<<psel).
  96:../lpc11cx4-library/lpc_chip_11cxx_lib/inc/clock_11xx.h ****  * @return	Nothing
  97:../lpc11cx4-library/lpc_chip_11cxx_lib/inc/clock_11xx.h ****  * @note	See the user manual for how to setup the PLL.
  98:../lpc11cx4-library/lpc_chip_11cxx_lib/inc/clock_11xx.h ****  */
  99:../lpc11cx4-library/lpc_chip_11cxx_lib/inc/clock_11xx.h **** STATIC INLINE void Chip_Clock_SetupUSBPLL(uint8_t msel, uint8_t psel)
 100:../lpc11cx4-library/lpc_chip_11cxx_lib/inc/clock_11xx.h **** {
 101:../lpc11cx4-library/lpc_chip_11cxx_lib/inc/clock_11xx.h **** 	LPC_SYSCTL->USBPLLCTRL = (msel & 0x1F) | ((psel & 0x3) << 5);
 102:../lpc11cx4-library/lpc_chip_11cxx_lib/inc/clock_11xx.h **** }
 103:../lpc11cx4-library/lpc_chip_11cxx_lib/inc/clock_11xx.h **** 
 104:../lpc11cx4-library/lpc_chip_11cxx_lib/inc/clock_11xx.h **** /**
 105:../lpc11cx4-library/lpc_chip_11cxx_lib/inc/clock_11xx.h ****  * @brief	Read USB PLL lock status
 106:../lpc11cx4-library/lpc_chip_11cxx_lib/inc/clock_11xx.h ****  * @return	true of the PLL is locked. false if not locked
 107:../lpc11cx4-library/lpc_chip_11cxx_lib/inc/clock_11xx.h ****  */
 108:../lpc11cx4-library/lpc_chip_11cxx_lib/inc/clock_11xx.h **** STATIC INLINE bool Chip_Clock_IsUSBPLLLocked(void)
 109:../lpc11cx4-library/lpc_chip_11cxx_lib/inc/clock_11xx.h **** {
ARM GAS  /tmp/cctBd1Mx.s 			page 6


 110:../lpc11cx4-library/lpc_chip_11cxx_lib/inc/clock_11xx.h **** 	return (bool) ((LPC_SYSCTL->USBPLLSTAT & 1) != 0);
 111:../lpc11cx4-library/lpc_chip_11cxx_lib/inc/clock_11xx.h **** }
 112:../lpc11cx4-library/lpc_chip_11cxx_lib/inc/clock_11xx.h **** 
 113:../lpc11cx4-library/lpc_chip_11cxx_lib/inc/clock_11xx.h **** /**
 114:../lpc11cx4-library/lpc_chip_11cxx_lib/inc/clock_11xx.h ****  * @brief	Set USB PLL clock source
 115:../lpc11cx4-library/lpc_chip_11cxx_lib/inc/clock_11xx.h ****  * @param	src	: Clock source for USB PLL
 116:../lpc11cx4-library/lpc_chip_11cxx_lib/inc/clock_11xx.h ****  * @return	Nothing
 117:../lpc11cx4-library/lpc_chip_11cxx_lib/inc/clock_11xx.h ****  * @note	This function will also toggle the clock source update register
 118:../lpc11cx4-library/lpc_chip_11cxx_lib/inc/clock_11xx.h ****  * to update the clock source.
 119:../lpc11cx4-library/lpc_chip_11cxx_lib/inc/clock_11xx.h ****  */
 120:../lpc11cx4-library/lpc_chip_11cxx_lib/inc/clock_11xx.h **** void Chip_Clock_SetUSBPLLSource(CHIP_SYSCTL_PLLCLKSRC_T src);
 121:../lpc11cx4-library/lpc_chip_11cxx_lib/inc/clock_11xx.h **** 
 122:../lpc11cx4-library/lpc_chip_11cxx_lib/inc/clock_11xx.h **** #endif /*defined(CHIP_LPC11UXX)*/
 123:../lpc11cx4-library/lpc_chip_11cxx_lib/inc/clock_11xx.h **** 
 124:../lpc11cx4-library/lpc_chip_11cxx_lib/inc/clock_11xx.h **** /**
 125:../lpc11cx4-library/lpc_chip_11cxx_lib/inc/clock_11xx.h ****  * @brief	Bypass System Oscillator and set oscillator frequency range
 126:../lpc11cx4-library/lpc_chip_11cxx_lib/inc/clock_11xx.h ****  * @param	bypass	: Flag to bypass oscillator
 127:../lpc11cx4-library/lpc_chip_11cxx_lib/inc/clock_11xx.h ****  * @param	highfr	: Flag to set oscillator range from 15-25 MHz
 128:../lpc11cx4-library/lpc_chip_11cxx_lib/inc/clock_11xx.h ****  * @return	Nothing
 129:../lpc11cx4-library/lpc_chip_11cxx_lib/inc/clock_11xx.h ****  * @note	Sets the PLL input to bypass the oscillator. This would be
 130:../lpc11cx4-library/lpc_chip_11cxx_lib/inc/clock_11xx.h ****  * used if an external clock that is not an oscillator is attached
 131:../lpc11cx4-library/lpc_chip_11cxx_lib/inc/clock_11xx.h ****  * to the XTALIN pin.
 132:../lpc11cx4-library/lpc_chip_11cxx_lib/inc/clock_11xx.h ****  */
 133:../lpc11cx4-library/lpc_chip_11cxx_lib/inc/clock_11xx.h **** void Chip_Clock_SetPLLBypass(bool bypass, bool highfr);
 134:../lpc11cx4-library/lpc_chip_11cxx_lib/inc/clock_11xx.h **** 
 135:../lpc11cx4-library/lpc_chip_11cxx_lib/inc/clock_11xx.h **** /**
 136:../lpc11cx4-library/lpc_chip_11cxx_lib/inc/clock_11xx.h ****  * Watchdog and low frequency oscillator frequencies plus or minus 40%
 137:../lpc11cx4-library/lpc_chip_11cxx_lib/inc/clock_11xx.h ****  */
 138:../lpc11cx4-library/lpc_chip_11cxx_lib/inc/clock_11xx.h **** typedef enum CHIP_WDTLFO_OSC {
 139:../lpc11cx4-library/lpc_chip_11cxx_lib/inc/clock_11xx.h **** 	WDTLFO_OSC_ILLEGAL,
 140:../lpc11cx4-library/lpc_chip_11cxx_lib/inc/clock_11xx.h **** 	WDTLFO_OSC_0_60,	/*!< 0.6 MHz watchdog/LFO rate */
 141:../lpc11cx4-library/lpc_chip_11cxx_lib/inc/clock_11xx.h **** 	WDTLFO_OSC_1_05,	/*!< 1.05 MHz watchdog/LFO rate */
 142:../lpc11cx4-library/lpc_chip_11cxx_lib/inc/clock_11xx.h **** 	WDTLFO_OSC_1_40,	/*!< 1.4 MHz watchdog/LFO rate */
 143:../lpc11cx4-library/lpc_chip_11cxx_lib/inc/clock_11xx.h **** 	WDTLFO_OSC_1_75,	/*!< 1.75 MHz watchdog/LFO rate */
 144:../lpc11cx4-library/lpc_chip_11cxx_lib/inc/clock_11xx.h **** 	WDTLFO_OSC_2_10,	/*!< 2.1 MHz watchdog/LFO rate */
 145:../lpc11cx4-library/lpc_chip_11cxx_lib/inc/clock_11xx.h **** 	WDTLFO_OSC_2_40,	/*!< 2.4 MHz watchdog/LFO rate */
 146:../lpc11cx4-library/lpc_chip_11cxx_lib/inc/clock_11xx.h **** 	WDTLFO_OSC_2_70,	/*!< 2.7 MHz watchdog/LFO rate */
 147:../lpc11cx4-library/lpc_chip_11cxx_lib/inc/clock_11xx.h **** 	WDTLFO_OSC_3_00,	/*!< 3.0 MHz watchdog/LFO rate */
 148:../lpc11cx4-library/lpc_chip_11cxx_lib/inc/clock_11xx.h **** 	WDTLFO_OSC_3_25,	/*!< 3.25 MHz watchdog/LFO rate */
 149:../lpc11cx4-library/lpc_chip_11cxx_lib/inc/clock_11xx.h **** 	WDTLFO_OSC_3_50,	/*!< 3.5 MHz watchdog/LFO rate */
 150:../lpc11cx4-library/lpc_chip_11cxx_lib/inc/clock_11xx.h **** 	WDTLFO_OSC_3_75,	/*!< 3.75 MHz watchdog/LFO rate */
 151:../lpc11cx4-library/lpc_chip_11cxx_lib/inc/clock_11xx.h **** 	WDTLFO_OSC_4_00,	/*!< 4.0 MHz watchdog/LFO rate */
 152:../lpc11cx4-library/lpc_chip_11cxx_lib/inc/clock_11xx.h **** 	WDTLFO_OSC_4_20,	/*!< 4.2 MHz watchdog/LFO rate */
 153:../lpc11cx4-library/lpc_chip_11cxx_lib/inc/clock_11xx.h **** 	WDTLFO_OSC_4_40,	/*!< 4.4 MHz watchdog/LFO rate */
 154:../lpc11cx4-library/lpc_chip_11cxx_lib/inc/clock_11xx.h **** 	WDTLFO_OSC_4_60		/*!< 4.6 MHz watchdog/LFO rate */
 155:../lpc11cx4-library/lpc_chip_11cxx_lib/inc/clock_11xx.h **** } CHIP_WDTLFO_OSC_T;
 156:../lpc11cx4-library/lpc_chip_11cxx_lib/inc/clock_11xx.h **** 
 157:../lpc11cx4-library/lpc_chip_11cxx_lib/inc/clock_11xx.h **** /**
 158:../lpc11cx4-library/lpc_chip_11cxx_lib/inc/clock_11xx.h ****  * @brief	Setup Watchdog oscillator rate and divider
 159:../lpc11cx4-library/lpc_chip_11cxx_lib/inc/clock_11xx.h ****  * @param	wdtclk	: Selected watchdog clock rate
 160:../lpc11cx4-library/lpc_chip_11cxx_lib/inc/clock_11xx.h ****  * @param	div		: Watchdog divider value, even value between 2 and 64
 161:../lpc11cx4-library/lpc_chip_11cxx_lib/inc/clock_11xx.h ****  * @return	Nothing
 162:../lpc11cx4-library/lpc_chip_11cxx_lib/inc/clock_11xx.h ****  * @note	Watchdog rate = selected rate divided by divider rate
 163:../lpc11cx4-library/lpc_chip_11cxx_lib/inc/clock_11xx.h ****  */
 164:../lpc11cx4-library/lpc_chip_11cxx_lib/inc/clock_11xx.h **** STATIC INLINE void Chip_Clock_SetWDTOSC(CHIP_WDTLFO_OSC_T wdtclk, uint8_t div)
 165:../lpc11cx4-library/lpc_chip_11cxx_lib/inc/clock_11xx.h **** {
 166:../lpc11cx4-library/lpc_chip_11cxx_lib/inc/clock_11xx.h **** 	LPC_SYSCTL->WDTOSCCTRL  = (((uint32_t) wdtclk) << 5) | ((div >> 1) - 1);
ARM GAS  /tmp/cctBd1Mx.s 			page 7


 167:../lpc11cx4-library/lpc_chip_11cxx_lib/inc/clock_11xx.h **** }
 168:../lpc11cx4-library/lpc_chip_11cxx_lib/inc/clock_11xx.h **** 
 169:../lpc11cx4-library/lpc_chip_11cxx_lib/inc/clock_11xx.h **** #if defined(CHIP_LPC11AXX)
 170:../lpc11cx4-library/lpc_chip_11cxx_lib/inc/clock_11xx.h **** /**
 171:../lpc11cx4-library/lpc_chip_11cxx_lib/inc/clock_11xx.h ****  * @brief	Setup low frequency oscillator rate and divider
 172:../lpc11cx4-library/lpc_chip_11cxx_lib/inc/clock_11xx.h ****  * @param	lfoclk	: Selected low frequency clock rate
 173:../lpc11cx4-library/lpc_chip_11cxx_lib/inc/clock_11xx.h ****  * @param	div		: Low frequency divider value, even value between 2 and 64
 174:../lpc11cx4-library/lpc_chip_11cxx_lib/inc/clock_11xx.h ****  * @return	Nothing
 175:../lpc11cx4-library/lpc_chip_11cxx_lib/inc/clock_11xx.h ****  * @note	Low frequency oscillator rate = selected rate divided by divider rate
 176:../lpc11cx4-library/lpc_chip_11cxx_lib/inc/clock_11xx.h ****  */
 177:../lpc11cx4-library/lpc_chip_11cxx_lib/inc/clock_11xx.h **** STATIC INLINE void Chip_Clock_SetLFOSC(CHIP_WDTLFO_OSC_T lfoclk, uint8_t div)
 178:../lpc11cx4-library/lpc_chip_11cxx_lib/inc/clock_11xx.h **** {
 179:../lpc11cx4-library/lpc_chip_11cxx_lib/inc/clock_11xx.h **** 	LPC_SYSCTL->LFOSCCTRL  = (((uint32_t) lfoclk) << 5) | ((div >> 1) - 1);
 180:../lpc11cx4-library/lpc_chip_11cxx_lib/inc/clock_11xx.h **** }
 181:../lpc11cx4-library/lpc_chip_11cxx_lib/inc/clock_11xx.h **** 
 182:../lpc11cx4-library/lpc_chip_11cxx_lib/inc/clock_11xx.h **** #endif /*CHIP_LPC11AXX*/
 183:../lpc11cx4-library/lpc_chip_11cxx_lib/inc/clock_11xx.h **** 
 184:../lpc11cx4-library/lpc_chip_11cxx_lib/inc/clock_11xx.h **** /**
 185:../lpc11cx4-library/lpc_chip_11cxx_lib/inc/clock_11xx.h ****  * Clock sources for main system clock
 186:../lpc11cx4-library/lpc_chip_11cxx_lib/inc/clock_11xx.h ****  */
 187:../lpc11cx4-library/lpc_chip_11cxx_lib/inc/clock_11xx.h **** typedef enum CHIP_SYSCTL_MAINCLKSRC {
 188:../lpc11cx4-library/lpc_chip_11cxx_lib/inc/clock_11xx.h **** 	SYSCTL_MAINCLKSRC_IRC = 0,		/*!< Internal oscillator */
 189:../lpc11cx4-library/lpc_chip_11cxx_lib/inc/clock_11xx.h **** 	SYSCTL_MAINCLKSRC_PLLIN,		/*!< System PLL input */
 190:../lpc11cx4-library/lpc_chip_11cxx_lib/inc/clock_11xx.h **** 	SYSCTL_MAINCLKSRC_LFOSC,		/*!< LF oscillator rate (11Axx only) */
 191:../lpc11cx4-library/lpc_chip_11cxx_lib/inc/clock_11xx.h **** 	SYSCTL_MAINCLKSRC_WDTOSC = SYSCTL_MAINCLKSRC_LFOSC,	/*!< Watchdog oscillator rate */
 192:../lpc11cx4-library/lpc_chip_11cxx_lib/inc/clock_11xx.h **** 	SYSCTL_MAINCLKSRC_PLLOUT,		/*!< System PLL output */
 193:../lpc11cx4-library/lpc_chip_11cxx_lib/inc/clock_11xx.h **** } CHIP_SYSCTL_MAINCLKSRC_T;
 194:../lpc11cx4-library/lpc_chip_11cxx_lib/inc/clock_11xx.h **** 
 195:../lpc11cx4-library/lpc_chip_11cxx_lib/inc/clock_11xx.h **** /**
 196:../lpc11cx4-library/lpc_chip_11cxx_lib/inc/clock_11xx.h ****  * @brief	Set main system clock source
 197:../lpc11cx4-library/lpc_chip_11cxx_lib/inc/clock_11xx.h ****  * @param	src	: Clock source for main system
 198:../lpc11cx4-library/lpc_chip_11cxx_lib/inc/clock_11xx.h ****  * @return	Nothing
 199:../lpc11cx4-library/lpc_chip_11cxx_lib/inc/clock_11xx.h ****  * @note	This function will also toggle the clock source update register
 200:../lpc11cx4-library/lpc_chip_11cxx_lib/inc/clock_11xx.h ****  * to update the clock source.
 201:../lpc11cx4-library/lpc_chip_11cxx_lib/inc/clock_11xx.h ****  */
 202:../lpc11cx4-library/lpc_chip_11cxx_lib/inc/clock_11xx.h **** void Chip_Clock_SetMainClockSource(CHIP_SYSCTL_MAINCLKSRC_T src);
 203:../lpc11cx4-library/lpc_chip_11cxx_lib/inc/clock_11xx.h **** 
 204:../lpc11cx4-library/lpc_chip_11cxx_lib/inc/clock_11xx.h **** /**
 205:../lpc11cx4-library/lpc_chip_11cxx_lib/inc/clock_11xx.h ****  * @brief   Returns the main clock source
 206:../lpc11cx4-library/lpc_chip_11cxx_lib/inc/clock_11xx.h ****  * @return	Which clock is used for the core clock source?
 207:../lpc11cx4-library/lpc_chip_11cxx_lib/inc/clock_11xx.h ****  */
 208:../lpc11cx4-library/lpc_chip_11cxx_lib/inc/clock_11xx.h **** STATIC INLINE CHIP_SYSCTL_MAINCLKSRC_T Chip_Clock_GetMainClockSource(void)
 209:../lpc11cx4-library/lpc_chip_11cxx_lib/inc/clock_11xx.h **** {
 210:../lpc11cx4-library/lpc_chip_11cxx_lib/inc/clock_11xx.h **** 	return (CHIP_SYSCTL_MAINCLKSRC_T) (LPC_SYSCTL->MAINCLKSEL);
 211:../lpc11cx4-library/lpc_chip_11cxx_lib/inc/clock_11xx.h **** }
 212:../lpc11cx4-library/lpc_chip_11cxx_lib/inc/clock_11xx.h **** 
 213:../lpc11cx4-library/lpc_chip_11cxx_lib/inc/clock_11xx.h **** /**
 214:../lpc11cx4-library/lpc_chip_11cxx_lib/inc/clock_11xx.h ****  * @brief	Set system clock divider
 215:../lpc11cx4-library/lpc_chip_11cxx_lib/inc/clock_11xx.h ****  * @param	div	: divider for system clock
 216:../lpc11cx4-library/lpc_chip_11cxx_lib/inc/clock_11xx.h ****  * @return	Nothing
 217:../lpc11cx4-library/lpc_chip_11cxx_lib/inc/clock_11xx.h ****  * @note	Use 0 to disable, or a divider value of 1 to 255. The system clock
 218:../lpc11cx4-library/lpc_chip_11cxx_lib/inc/clock_11xx.h ****  * rate is the main system clock divided by this value.
 219:../lpc11cx4-library/lpc_chip_11cxx_lib/inc/clock_11xx.h ****  */
 220:../lpc11cx4-library/lpc_chip_11cxx_lib/inc/clock_11xx.h **** STATIC INLINE void Chip_Clock_SetSysClockDiv(uint32_t div)
 221:../lpc11cx4-library/lpc_chip_11cxx_lib/inc/clock_11xx.h **** {
 222:../lpc11cx4-library/lpc_chip_11cxx_lib/inc/clock_11xx.h **** 	LPC_SYSCTL->SYSAHBCLKDIV  = div;
 223:../lpc11cx4-library/lpc_chip_11cxx_lib/inc/clock_11xx.h **** }
ARM GAS  /tmp/cctBd1Mx.s 			page 8


 224:../lpc11cx4-library/lpc_chip_11cxx_lib/inc/clock_11xx.h **** 
 225:../lpc11cx4-library/lpc_chip_11cxx_lib/inc/clock_11xx.h **** /**
 226:../lpc11cx4-library/lpc_chip_11cxx_lib/inc/clock_11xx.h ****  * System and peripheral clocks
 227:../lpc11cx4-library/lpc_chip_11cxx_lib/inc/clock_11xx.h ****  */
 228:../lpc11cx4-library/lpc_chip_11cxx_lib/inc/clock_11xx.h **** typedef enum CHIP_SYSCTL_CLOCK {
 229:../lpc11cx4-library/lpc_chip_11cxx_lib/inc/clock_11xx.h **** 	SYSCTL_CLOCK_SYS = 0,				/*!< 0: System clock */
 230:../lpc11cx4-library/lpc_chip_11cxx_lib/inc/clock_11xx.h **** 	SYSCTL_CLOCK_ROM,					/*!<1:  ROM clock */
 231:../lpc11cx4-library/lpc_chip_11cxx_lib/inc/clock_11xx.h **** 	SYSCTL_CLOCK_RAM,					/*!< 2: RAM clock */
 232:../lpc11cx4-library/lpc_chip_11cxx_lib/inc/clock_11xx.h **** 	SYSCTL_CLOCK_FLASHREG,				/*!< 3: FLASH register interface clock */
 233:../lpc11cx4-library/lpc_chip_11cxx_lib/inc/clock_11xx.h **** 	SYSCTL_CLOCK_FLASHARRAY,			/*!< 4: FLASH array access clock */
 234:../lpc11cx4-library/lpc_chip_11cxx_lib/inc/clock_11xx.h **** #if defined(CHIP_LPC110X)
 235:../lpc11cx4-library/lpc_chip_11cxx_lib/inc/clock_11xx.h **** 	SYSCTL_CLOCK_RESERVED5,				/*!< 5: Reserved */
 236:../lpc11cx4-library/lpc_chip_11cxx_lib/inc/clock_11xx.h **** #else
 237:../lpc11cx4-library/lpc_chip_11cxx_lib/inc/clock_11xx.h **** 	SYSCTL_CLOCK_I2C,					/*!< 5: I2C clock, not on LPC110x */
 238:../lpc11cx4-library/lpc_chip_11cxx_lib/inc/clock_11xx.h **** #endif
 239:../lpc11cx4-library/lpc_chip_11cxx_lib/inc/clock_11xx.h **** 	SYSCTL_CLOCK_GPIO,					/*!< 6: GPIO clock */
 240:../lpc11cx4-library/lpc_chip_11cxx_lib/inc/clock_11xx.h **** 	SYSCTL_CLOCK_CT16B0,				/*!< 7: 16-bit Counter/timer 0 clock */
 241:../lpc11cx4-library/lpc_chip_11cxx_lib/inc/clock_11xx.h **** 	SYSCTL_CLOCK_CT16B1,				/*!< 8: 16-bit Counter/timer 1 clock */
 242:../lpc11cx4-library/lpc_chip_11cxx_lib/inc/clock_11xx.h **** 	SYSCTL_CLOCK_CT32B0,				/*!< 9: 32-bit Counter/timer 0 clock */
 243:../lpc11cx4-library/lpc_chip_11cxx_lib/inc/clock_11xx.h **** 	SYSCTL_CLOCK_CT32B1,				/*!< 10: 32-bit Counter/timer 1 clock */
 244:../lpc11cx4-library/lpc_chip_11cxx_lib/inc/clock_11xx.h **** 	SYSCTL_CLOCK_SSP0,					/*!< 11: SSP0 clock */
 245:../lpc11cx4-library/lpc_chip_11cxx_lib/inc/clock_11xx.h **** 	SYSCTL_CLOCK_UART0,					/*!< 12: UART0 clock */
 246:../lpc11cx4-library/lpc_chip_11cxx_lib/inc/clock_11xx.h **** 	SYSCTL_CLOCK_ADC,					/*!< 13: ADC clock */
 247:../lpc11cx4-library/lpc_chip_11cxx_lib/inc/clock_11xx.h **** #if defined(CHIP_LPC11UXX)
 248:../lpc11cx4-library/lpc_chip_11cxx_lib/inc/clock_11xx.h **** 	SYSCTL_CLOCK_USB,					/*!< 14: USB clock, LPC11Uxx only */
 249:../lpc11cx4-library/lpc_chip_11cxx_lib/inc/clock_11xx.h **** #else
 250:../lpc11cx4-library/lpc_chip_11cxx_lib/inc/clock_11xx.h **** 	SYSCTL_CLOCK_RESERVED14,			/*!< 14: Reserved */
 251:../lpc11cx4-library/lpc_chip_11cxx_lib/inc/clock_11xx.h **** #endif
 252:../lpc11cx4-library/lpc_chip_11cxx_lib/inc/clock_11xx.h **** 	SYSCTL_CLOCK_WDT,					/*!< 15: Watchdog timer clock */
 253:../lpc11cx4-library/lpc_chip_11cxx_lib/inc/clock_11xx.h **** 	SYSCTL_CLOCK_IOCON,					/*!< 16: IOCON block clock */
 254:../lpc11cx4-library/lpc_chip_11cxx_lib/inc/clock_11xx.h **** #if defined(CHIP_LPC11CXX)
 255:../lpc11cx4-library/lpc_chip_11cxx_lib/inc/clock_11xx.h **** 	SYSCTL_CLOCK_CAN,					/*!< 17: CAN clock, LPC11Cxx only */
 256:../lpc11cx4-library/lpc_chip_11cxx_lib/inc/clock_11xx.h **** #else
 257:../lpc11cx4-library/lpc_chip_11cxx_lib/inc/clock_11xx.h **** 	SYSCTL_CLOCK_RESERVED17,			/*!< 17: Reserved */
 258:../lpc11cx4-library/lpc_chip_11cxx_lib/inc/clock_11xx.h **** #endif
 259:../lpc11cx4-library/lpc_chip_11cxx_lib/inc/clock_11xx.h **** #if !(defined(CHIP_LPC110X) || defined(CHIP_LPC11XXLV))  
 260:../lpc11cx4-library/lpc_chip_11cxx_lib/inc/clock_11xx.h **** 	SYSCTL_CLOCK_SSP1,					/*!< 18: SSP1 clock, LPC11A/C/E/Uxx//1125 only */
 261:../lpc11cx4-library/lpc_chip_11cxx_lib/inc/clock_11xx.h **** #if !defined(CHIP_LPC11CXX)
 262:../lpc11cx4-library/lpc_chip_11cxx_lib/inc/clock_11xx.h **** 	SYSCTL_CLOCK_PINT,					/*!< 19: GPIO Pin int register interface clock, LPC11A/E/Uxx only */
 263:../lpc11cx4-library/lpc_chip_11cxx_lib/inc/clock_11xx.h **** #if defined(CHIP_LPC11AXX)
 264:../lpc11cx4-library/lpc_chip_11cxx_lib/inc/clock_11xx.h **** 	SYSCTL_CLOCK_ACOMP,					/*!< 20: Analog comparator clock, LPC11Axx only */
 265:../lpc11cx4-library/lpc_chip_11cxx_lib/inc/clock_11xx.h **** 	SYSCTL_CLOCK_DAC,					/*!< 21: DAC clock, LPC11Axx only */
 266:../lpc11cx4-library/lpc_chip_11cxx_lib/inc/clock_11xx.h **** #else
 267:../lpc11cx4-library/lpc_chip_11cxx_lib/inc/clock_11xx.h **** 	SYSCTL_CLOCK_RESERVED20,			/*!< 20: Reserved */
 268:../lpc11cx4-library/lpc_chip_11cxx_lib/inc/clock_11xx.h **** 	SYSCTL_CLOCK_RESERVED21,			/*!< 21: Reserved */
 269:../lpc11cx4-library/lpc_chip_11cxx_lib/inc/clock_11xx.h **** #endif
 270:../lpc11cx4-library/lpc_chip_11cxx_lib/inc/clock_11xx.h **** 	SYSCTL_CLOCK_RESERVED22,			/*!< 22: Reserved */
 271:../lpc11cx4-library/lpc_chip_11cxx_lib/inc/clock_11xx.h **** 	SYSCTL_CLOCK_P0INT,					/*!< 23: GPIO GROUP1 interrupt register clock, LPC11Axx only */
 272:../lpc11cx4-library/lpc_chip_11cxx_lib/inc/clock_11xx.h **** 	SYSCTL_CLOCK_GROUP0INT = SYSCTL_CLOCK_P0INT,/*!< 23: GPIO GROUP0 interrupt register interface cloc
 273:../lpc11cx4-library/lpc_chip_11cxx_lib/inc/clock_11xx.h **** 	SYSCTL_CLOCK_P1INT,					/*!< 24: GPIO GROUP1 interrupt register clock, LPC11Axx only */
 274:../lpc11cx4-library/lpc_chip_11cxx_lib/inc/clock_11xx.h **** 	SYSCTL_CLOCK_GROUP1INT = SYSCTL_CLOCK_P1INT,/*!< 24: GPIO GROUP1 interrupt register interface cloc
 275:../lpc11cx4-library/lpc_chip_11cxx_lib/inc/clock_11xx.h **** 	SYSCTL_CLOCK_RESERVED25,			/*!< 25: Reserved */
 276:../lpc11cx4-library/lpc_chip_11cxx_lib/inc/clock_11xx.h **** #if defined(CHIP_LPC11EXX)  || defined(CHIP_LPC11UXX)
 277:../lpc11cx4-library/lpc_chip_11cxx_lib/inc/clock_11xx.h **** 	SYSCTL_CLOCK_RAM1,					/*!< 26: SRAM block (0x20000000) clock, LPC11E/Uxx only */
 278:../lpc11cx4-library/lpc_chip_11cxx_lib/inc/clock_11xx.h **** #else
 279:../lpc11cx4-library/lpc_chip_11cxx_lib/inc/clock_11xx.h **** 	SYSCTL_CLOCK_RESERVED26,			/*!< 26: Reserved */
 280:../lpc11cx4-library/lpc_chip_11cxx_lib/inc/clock_11xx.h **** #endif
ARM GAS  /tmp/cctBd1Mx.s 			page 9


 281:../lpc11cx4-library/lpc_chip_11cxx_lib/inc/clock_11xx.h **** #if defined(CHIP_LPC11UXX)
 282:../lpc11cx4-library/lpc_chip_11cxx_lib/inc/clock_11xx.h **** 	SYSCTL_CLOCK_USBRAM,				/*!< 27: USB SRAM block clock, LPC11Uxx only */
 283:../lpc11cx4-library/lpc_chip_11cxx_lib/inc/clock_11xx.h **** #else
 284:../lpc11cx4-library/lpc_chip_11cxx_lib/inc/clock_11xx.h **** 	SYSCTL_CLOCK_RESERVED27,			/*!< 27: Reserved */
 285:../lpc11cx4-library/lpc_chip_11cxx_lib/inc/clock_11xx.h **** #endif
 286:../lpc11cx4-library/lpc_chip_11cxx_lib/inc/clock_11xx.h **** #endif /* !defined(CHIP_LPC11CXX) */
 287:../lpc11cx4-library/lpc_chip_11cxx_lib/inc/clock_11xx.h **** #endif /* !(defined(CHIP_LPC110X) || defined(CHIP_LPC11XXLV)) */
 288:../lpc11cx4-library/lpc_chip_11cxx_lib/inc/clock_11xx.h **** } CHIP_SYSCTL_CLOCK_T;
 289:../lpc11cx4-library/lpc_chip_11cxx_lib/inc/clock_11xx.h **** 
 290:../lpc11cx4-library/lpc_chip_11cxx_lib/inc/clock_11xx.h **** /**
 291:../lpc11cx4-library/lpc_chip_11cxx_lib/inc/clock_11xx.h ****  * @brief	Enable a system or peripheral clock
 292:../lpc11cx4-library/lpc_chip_11cxx_lib/inc/clock_11xx.h ****  * @param	clk	: Clock to enable
 293:../lpc11cx4-library/lpc_chip_11cxx_lib/inc/clock_11xx.h ****  * @return	Nothing
 294:../lpc11cx4-library/lpc_chip_11cxx_lib/inc/clock_11xx.h ****  */
 295:../lpc11cx4-library/lpc_chip_11cxx_lib/inc/clock_11xx.h **** STATIC INLINE void Chip_Clock_EnablePeriphClock(CHIP_SYSCTL_CLOCK_T clk)
 296:../lpc11cx4-library/lpc_chip_11cxx_lib/inc/clock_11xx.h **** {
 297:../lpc11cx4-library/lpc_chip_11cxx_lib/inc/clock_11xx.h **** 	LPC_SYSCTL->SYSAHBCLKCTRL |= (1 << clk);
 102              		.loc 2 297 0
 103 0016 8022     		mov	r2, #128	@ tmp118,
 104 0018 0949     		ldr	r1, .L7+12	@ tmp117,
 105              	.LBE14:
 106              	.LBE13:
  73:../lpc11cx4-library/lpc_chip_11cxx_lib/src/timer_11xx.c **** 	Chip_Clock_EnablePeriphClock(Chip_TIMER_GetClock(pTMR));
  74:../lpc11cx4-library/lpc_chip_11cxx_lib/src/timer_11xx.c **** }
 107              		.loc 1 74 0
 108              		@ sp needed	@
 109              	.LBB16:
 110              	.LBB15:
 111              		.loc 2 297 0
 112 001a 8B58     		ldr	r3, [r1, r2]	@ D.6094, MEM[(struct LPC_SYSCTL_T *)1074036736B].SYSAHBCLKCTRL
 113 001c 0343     		orr	r3, r0	@ D.6094, D.6094
 114 001e 8B50     		str	r3, [r1, r2]	@ D.6094, MEM[(struct LPC_SYSCTL_T *)1074036736B].SYSAHBCLKCTRL
 115              	.LBE15:
 116              	.LBE16:
 117              		.loc 1 74 0
 118 0020 7047     		bx	lr
 119              	.LVL2:
 120              	.L3:
 121              	.LBB17:
 122              	.LBB12:
  50:../lpc11cx4-library/lpc_chip_11cxx_lib/src/timer_11xx.c **** 	  tmrClk = SYSCTL_CLOCK_CT32B1;
 123              		.loc 1 50 0
 124 0022 8020     		mov	r0, #128	@ D.6094,
 125              	.LVL3:
 126 0024 C000     		lsl	r0, r0, #3	@ D.6094, D.6094,
 127 0026 F6E7     		b	.L2	@
 128              	.LVL4:
 129              	.L4:
  53:../lpc11cx4-library/lpc_chip_11cxx_lib/src/timer_11xx.c **** 	  tmrClk = SYSCTL_CLOCK_CT16B0;
 130              		.loc 1 53 0
 131 0028 8020     		mov	r0, #128	@ D.6094,
 132              	.LVL5:
 133 002a F4E7     		b	.L2	@
 134              	.LVL6:
 135              	.L5:
  56:../lpc11cx4-library/lpc_chip_11cxx_lib/src/timer_11xx.c **** 	  tmrClk = SYSCTL_CLOCK_CT16B1;
 136              		.loc 1 56 0
ARM GAS  /tmp/cctBd1Mx.s 			page 10


 137 002c 8020     		mov	r0, #128	@ D.6094,
 138              	.LVL7:
 139 002e 4000     		lsl	r0, r0, #1	@ D.6094, D.6094,
 140 0030 F1E7     		b	.L2	@
 141              	.L8:
 142 0032 C046     		.align	2
 143              	.L7:
 144 0034 00800140 		.word	1073840128
 145 0038 00C00040 		.word	1073790976
 146 003c 00000140 		.word	1073807360
 147 0040 00800440 		.word	1074036736
 148              	.LBE12:
 149              	.LBE17:
 150              		.cfi_endproc
 151              	.LFE199:
 152              		.size	Chip_TIMER_Init, .-Chip_TIMER_Init
 153              		.section	.text.Chip_TIMER_DeInit,"ax",%progbits
 154              		.align	2
 155              		.global	Chip_TIMER_DeInit
 156              		.code	16
 157              		.thumb_func
 158              		.type	Chip_TIMER_DeInit, %function
 159              	Chip_TIMER_DeInit:
 160              	.LFB200:
  75:../lpc11cx4-library/lpc_chip_11cxx_lib/src/timer_11xx.c **** 
  76:../lpc11cx4-library/lpc_chip_11cxx_lib/src/timer_11xx.c **** /*	Shutdown a timer */
  77:../lpc11cx4-library/lpc_chip_11cxx_lib/src/timer_11xx.c **** void Chip_TIMER_DeInit(LPC_TIMER_T *pTMR)
  78:../lpc11cx4-library/lpc_chip_11cxx_lib/src/timer_11xx.c **** {
 161              		.loc 1 78 0
 162              		.cfi_startproc
 163              	.LVL8:
 164              	.LBB18:
 165              	.LBB19:
  50:../lpc11cx4-library/lpc_chip_11cxx_lib/src/timer_11xx.c **** 	  tmrClk = SYSCTL_CLOCK_CT32B1;
 166              		.loc 1 50 0
 167 0000 0B4B     		ldr	r3, .L14	@ tmp114,
 168 0002 9842     		cmp	r0, r3	@ pTMR, tmp114
 169 0004 0CD0     		beq	.L11	@,
  53:../lpc11cx4-library/lpc_chip_11cxx_lib/src/timer_11xx.c **** 	  tmrClk = SYSCTL_CLOCK_CT16B0;
 170              		.loc 1 53 0
 171 0006 0B4B     		ldr	r3, .L14+4	@ tmp115,
 172 0008 9842     		cmp	r0, r3	@ pTMR, tmp115
 173 000a 0BD0     		beq	.L12	@,
  56:../lpc11cx4-library/lpc_chip_11cxx_lib/src/timer_11xx.c **** 	  tmrClk = SYSCTL_CLOCK_CT16B1;
 174              		.loc 1 56 0
 175 000c 0A4B     		ldr	r3, .L14+8	@ tmp116,
 176 000e 9842     		cmp	r0, r3	@ pTMR, tmp116
 177 0010 0BD0     		beq	.L13	@,
 178 0012 0A4B     		ldr	r3, .L14+12	@ D.6097,
 179              	.L10:
 180              	.LBE19:
 181              	.LBE18:
 182              	.LBB21:
 183              	.LBB22:
 298:../lpc11cx4-library/lpc_chip_11cxx_lib/inc/clock_11xx.h **** }
 299:../lpc11cx4-library/lpc_chip_11cxx_lib/inc/clock_11xx.h **** 
 300:../lpc11cx4-library/lpc_chip_11cxx_lib/inc/clock_11xx.h **** /**
ARM GAS  /tmp/cctBd1Mx.s 			page 11


 301:../lpc11cx4-library/lpc_chip_11cxx_lib/inc/clock_11xx.h ****  * @brief	Disable a system or peripheral clock
 302:../lpc11cx4-library/lpc_chip_11cxx_lib/inc/clock_11xx.h ****  * @param	clk	: Clock to disable
 303:../lpc11cx4-library/lpc_chip_11cxx_lib/inc/clock_11xx.h ****  * @return	Nothing
 304:../lpc11cx4-library/lpc_chip_11cxx_lib/inc/clock_11xx.h ****  */
 305:../lpc11cx4-library/lpc_chip_11cxx_lib/inc/clock_11xx.h **** STATIC INLINE void Chip_Clock_DisablePeriphClock(CHIP_SYSCTL_CLOCK_T clk)
 306:../lpc11cx4-library/lpc_chip_11cxx_lib/inc/clock_11xx.h **** {
 307:../lpc11cx4-library/lpc_chip_11cxx_lib/inc/clock_11xx.h **** 	LPC_SYSCTL->SYSAHBCLKCTRL &= ~(1 << clk);
 184              		.loc 2 307 0
 185 0014 8022     		mov	r2, #128	@ tmp118,
 186 0016 0A49     		ldr	r1, .L14+16	@ tmp117,
 187              	.LBE22:
 188              	.LBE21:
  79:../lpc11cx4-library/lpc_chip_11cxx_lib/src/timer_11xx.c **** 	Chip_Clock_DisablePeriphClock(Chip_TIMER_GetClock(pTMR));
  80:../lpc11cx4-library/lpc_chip_11cxx_lib/src/timer_11xx.c **** }
 189              		.loc 1 80 0
 190              		@ sp needed	@
 191              	.LBB24:
 192              	.LBB23:
 193              		.loc 2 307 0
 194 0018 8858     		ldr	r0, [r1, r2]	@ D.6097, MEM[(struct LPC_SYSCTL_T *)1074036736B].SYSAHBCLKCTRL
 195              	.LVL9:
 196 001a 0340     		and	r3, r0	@ D.6097, D.6097
 197 001c 8B50     		str	r3, [r1, r2]	@ D.6097, MEM[(struct LPC_SYSCTL_T *)1074036736B].SYSAHBCLKCTRL
 198              	.LBE23:
 199              	.LBE24:
 200              		.loc 1 80 0
 201 001e 7047     		bx	lr
 202              	.LVL10:
 203              	.L11:
 204              	.LBB25:
 205              	.LBB20:
  50:../lpc11cx4-library/lpc_chip_11cxx_lib/src/timer_11xx.c **** 	  tmrClk = SYSCTL_CLOCK_CT32B1;
 206              		.loc 1 50 0
 207 0020 084B     		ldr	r3, .L14+20	@ D.6097,
 208 0022 F7E7     		b	.L10	@
 209              	.L12:
  53:../lpc11cx4-library/lpc_chip_11cxx_lib/src/timer_11xx.c **** 	  tmrClk = SYSCTL_CLOCK_CT16B0;
 210              		.loc 1 53 0
 211 0024 8123     		mov	r3, #129	@ D.6097,
 212 0026 5B42     		neg	r3, r3	@ D.6097, D.6097
 213 0028 F4E7     		b	.L10	@
 214              	.L13:
  56:../lpc11cx4-library/lpc_chip_11cxx_lib/src/timer_11xx.c **** 	  tmrClk = SYSCTL_CLOCK_CT16B1;
 215              		.loc 1 56 0
 216 002a 074B     		ldr	r3, .L14+24	@ D.6097,
 217 002c F2E7     		b	.L10	@
 218              	.L15:
 219 002e C046     		.align	2
 220              	.L14:
 221 0030 00800140 		.word	1073840128
 222 0034 00C00040 		.word	1073790976
 223 0038 00000140 		.word	1073807360
 224 003c FFFDFFFF 		.word	-513
 225 0040 00800440 		.word	1074036736
 226 0044 FFFBFFFF 		.word	-1025
 227 0048 FFFEFFFF 		.word	-257
 228              	.LBE20:
ARM GAS  /tmp/cctBd1Mx.s 			page 12


 229              	.LBE25:
 230              		.cfi_endproc
 231              	.LFE200:
 232              		.size	Chip_TIMER_DeInit, .-Chip_TIMER_DeInit
 233              		.section	.text.Chip_TIMER_Reset,"ax",%progbits
 234              		.align	2
 235              		.global	Chip_TIMER_Reset
 236              		.code	16
 237              		.thumb_func
 238              		.type	Chip_TIMER_Reset, %function
 239              	Chip_TIMER_Reset:
 240              	.LFB201:
  81:../lpc11cx4-library/lpc_chip_11cxx_lib/src/timer_11xx.c **** 
  82:../lpc11cx4-library/lpc_chip_11cxx_lib/src/timer_11xx.c **** /* Resets the timer terminal and prescale counts to 0 */
  83:../lpc11cx4-library/lpc_chip_11cxx_lib/src/timer_11xx.c **** void Chip_TIMER_Reset(LPC_TIMER_T *pTMR)
  84:../lpc11cx4-library/lpc_chip_11cxx_lib/src/timer_11xx.c **** {
 241              		.loc 1 84 0
 242              		.cfi_startproc
 243              	.LVL11:
  85:../lpc11cx4-library/lpc_chip_11cxx_lib/src/timer_11xx.c **** 	uint32_t reg;
  86:../lpc11cx4-library/lpc_chip_11cxx_lib/src/timer_11xx.c **** 
  87:../lpc11cx4-library/lpc_chip_11cxx_lib/src/timer_11xx.c **** 	/* Disable timer, set terminal count to non-0 */
  88:../lpc11cx4-library/lpc_chip_11cxx_lib/src/timer_11xx.c **** 	reg = pTMR->TCR;
  89:../lpc11cx4-library/lpc_chip_11cxx_lib/src/timer_11xx.c **** 	pTMR->TCR = 0;
 244              		.loc 1 89 0
 245 0000 0023     		mov	r3, #0	@ tmp113,
  88:../lpc11cx4-library/lpc_chip_11cxx_lib/src/timer_11xx.c **** 	pTMR->TCR = 0;
 246              		.loc 1 88 0
 247 0002 4268     		ldr	r2, [r0, #4]	@ reg, pTMR_2(D)->TCR
 248              	.LVL12:
 249              		.loc 1 89 0
 250 0004 4360     		str	r3, [r0, #4]	@ tmp113, pTMR_2(D)->TCR
  90:../lpc11cx4-library/lpc_chip_11cxx_lib/src/timer_11xx.c **** 	pTMR->TC = 1;
 251              		.loc 1 90 0
 252 0006 0133     		add	r3, r3, #1	@ tmp114,
 253 0008 8360     		str	r3, [r0, #8]	@ tmp114, pTMR_2(D)->TC
  91:../lpc11cx4-library/lpc_chip_11cxx_lib/src/timer_11xx.c **** 
  92:../lpc11cx4-library/lpc_chip_11cxx_lib/src/timer_11xx.c **** 	/* Reset timer counter */
  93:../lpc11cx4-library/lpc_chip_11cxx_lib/src/timer_11xx.c **** 	pTMR->TCR = TIMER_RESET;
 254              		.loc 1 93 0
 255 000a 0133     		add	r3, r3, #1	@ tmp115,
 256 000c 4360     		str	r3, [r0, #4]	@ tmp115, pTMR_2(D)->TCR
 257              	.L17:
  94:../lpc11cx4-library/lpc_chip_11cxx_lib/src/timer_11xx.c **** 
  95:../lpc11cx4-library/lpc_chip_11cxx_lib/src/timer_11xx.c **** 	/* Wait for terminal count to clear */
  96:../lpc11cx4-library/lpc_chip_11cxx_lib/src/timer_11xx.c **** 	while (pTMR->TC != 0) {}
 258              		.loc 1 96 0 discriminator 1
 259 000e 8368     		ldr	r3, [r0, #8]	@ D.6100, pTMR_2(D)->TC
 260 0010 002B     		cmp	r3, #0	@ D.6100,
 261 0012 FCD1     		bne	.L17	@,
  97:../lpc11cx4-library/lpc_chip_11cxx_lib/src/timer_11xx.c **** 
  98:../lpc11cx4-library/lpc_chip_11cxx_lib/src/timer_11xx.c **** 	/* Restore timer state */
  99:../lpc11cx4-library/lpc_chip_11cxx_lib/src/timer_11xx.c **** 	pTMR->TCR = reg;
 262              		.loc 1 99 0
 263 0014 4260     		str	r2, [r0, #4]	@ reg, pTMR_2(D)->TCR
 100:../lpc11cx4-library/lpc_chip_11cxx_lib/src/timer_11xx.c **** }
 264              		.loc 1 100 0
ARM GAS  /tmp/cctBd1Mx.s 			page 13


 265              		@ sp needed	@
 266 0016 7047     		bx	lr
 267              		.cfi_endproc
 268              	.LFE201:
 269              		.size	Chip_TIMER_Reset, .-Chip_TIMER_Reset
 270              		.section	.text.Chip_TIMER_ExtMatchControlSet,"ax",%progbits
 271              		.align	2
 272              		.global	Chip_TIMER_ExtMatchControlSet
 273              		.code	16
 274              		.thumb_func
 275              		.type	Chip_TIMER_ExtMatchControlSet, %function
 276              	Chip_TIMER_ExtMatchControlSet:
 277              	.LFB202:
 101:../lpc11cx4-library/lpc_chip_11cxx_lib/src/timer_11xx.c **** 
 102:../lpc11cx4-library/lpc_chip_11cxx_lib/src/timer_11xx.c **** /* Sets external match control (MATn.matchnum) pin control */
 103:../lpc11cx4-library/lpc_chip_11cxx_lib/src/timer_11xx.c **** void Chip_TIMER_ExtMatchControlSet(LPC_TIMER_T *pTMR, int8_t initial_state,
 104:../lpc11cx4-library/lpc_chip_11cxx_lib/src/timer_11xx.c **** 								   TIMER_PIN_MATCH_STATE_T matchState, int8_t matchnum)
 105:../lpc11cx4-library/lpc_chip_11cxx_lib/src/timer_11xx.c **** {
 278              		.loc 1 105 0
 279              		.cfi_startproc
 280              	.LVL13:
 281 0000 F0B5     		push	{r4, r5, r6, r7, lr}	@
 282              		.cfi_def_cfa_offset 20
 283              		.cfi_offset 4, -20
 284              		.cfi_offset 5, -16
 285              		.cfi_offset 6, -12
 286              		.cfi_offset 7, -8
 287              		.cfi_offset 14, -4
 106:../lpc11cx4-library/lpc_chip_11cxx_lib/src/timer_11xx.c **** 	uint32_t mask, reg;
 107:../lpc11cx4-library/lpc_chip_11cxx_lib/src/timer_11xx.c **** 
 108:../lpc11cx4-library/lpc_chip_11cxx_lib/src/timer_11xx.c **** 	/* Clear bits corresponding to selected match register */
 109:../lpc11cx4-library/lpc_chip_11cxx_lib/src/timer_11xx.c **** 	mask = (1 << matchnum) | (0x03 << (4 + (matchnum * 2)));
 288              		.loc 1 109 0
 289 0002 0325     		mov	r5, #3	@ tmp132,
 290 0004 9F1C     		add	r7, r3, #2	@ D.6103, matchnum,
 291 0006 7F00     		lsl	r7, r7, #1	@ D.6103, D.6103,
 292              	.LVL14:
 293 0008 BD40     		lsl	r5, r5, r7	@ D.6103, D.6103, D.6103
 294 000a 0126     		mov	r6, #1	@ tmp134,
 295 000c AC46     		mov	ip, r5	@ D.6103, D.6103
 296 000e 351C     		mov	r5, r6	@ D.6103, tmp134
 297 0010 6646     		mov	r6, ip	@ D.6103, D.6103
 298 0012 9D40     		lsl	r5, r5, r3	@ D.6103, D.6103, matchnum
 110:../lpc11cx4-library/lpc_chip_11cxx_lib/src/timer_11xx.c **** 	reg = pTMR->EMR &= ~mask;
 111:../lpc11cx4-library/lpc_chip_11cxx_lib/src/timer_11xx.c **** 
 112:../lpc11cx4-library/lpc_chip_11cxx_lib/src/timer_11xx.c **** 	/* Set new configuration for selected match register */
 113:../lpc11cx4-library/lpc_chip_11cxx_lib/src/timer_11xx.c **** 	pTMR->EMR = reg | (((uint32_t) initial_state) << matchnum) |
 114:../lpc11cx4-library/lpc_chip_11cxx_lib/src/timer_11xx.c **** 				(((uint32_t) matchState) << (4 + (matchnum * 2)));
 299              		.loc 1 114 0
 300 0014 BA40     		lsl	r2, r2, r7	@ D.6104, matchState, D.6103
 301              	.LVL15:
 113:../lpc11cx4-library/lpc_chip_11cxx_lib/src/timer_11xx.c **** 				(((uint32_t) matchState) << (4 + (matchnum * 2)));
 302              		.loc 1 113 0
 303 0016 9940     		lsl	r1, r1, r3	@ D.6104, initial_state, matchnum
 304              	.LVL16:
 110:../lpc11cx4-library/lpc_chip_11cxx_lib/src/timer_11xx.c **** 	reg = pTMR->EMR &= ~mask;
 305              		.loc 1 110 0
ARM GAS  /tmp/cctBd1Mx.s 			page 14


 306 0018 C46B     		ldr	r4, [r0, #60]	@ D.6104, pTMR_10(D)->EMR
 109:../lpc11cx4-library/lpc_chip_11cxx_lib/src/timer_11xx.c **** 	reg = pTMR->EMR &= ~mask;
 307              		.loc 1 109 0
 308 001a 3543     		orr	r5, r6	@ D.6103, D.6103
 309              	.LVL17:
 110:../lpc11cx4-library/lpc_chip_11cxx_lib/src/timer_11xx.c **** 	reg = pTMR->EMR &= ~mask;
 310              		.loc 1 110 0
 311 001c AC43     		bic	r4, r5	@ D.6104, D.6103
 312 001e 1143     		orr	r1, r2	@ D.6104, D.6104
 313 0020 C463     		str	r4, [r0, #60]	@ D.6104, pTMR_10(D)->EMR
 314              	.LVL18:
 113:../lpc11cx4-library/lpc_chip_11cxx_lib/src/timer_11xx.c **** 				(((uint32_t) matchState) << (4 + (matchnum * 2)));
 315              		.loc 1 113 0
 316 0022 0C43     		orr	r4, r1	@ D.6104, D.6104
 317              	.LVL19:
 318 0024 C463     		str	r4, [r0, #60]	@ D.6104, pTMR_10(D)->EMR
 319              	.LVL20:
 115:../lpc11cx4-library/lpc_chip_11cxx_lib/src/timer_11xx.c **** }
 320              		.loc 1 115 0
 321              		@ sp needed	@
 322              	.LVL21:
 323              	.LVL22:
 324 0026 F0BD     		pop	{r4, r5, r6, r7, pc}
 325              		.cfi_endproc
 326              	.LFE202:
 327              		.size	Chip_TIMER_ExtMatchControlSet, .-Chip_TIMER_ExtMatchControlSet
 328              		.text
 329              	.Letext0:
 330              		.file 3 "/usr/arm-none-eabi/include/machine/_default_types.h"
 331              		.file 4 "/usr/arm-none-eabi/include/stdint.h"
 332              		.file 5 "../lpc11cx4-library/lpc_chip_11cxx_lib/inc/sysctl_11xx.h"
 333              		.file 6 "../lpc11cx4-library/lpc_chip_11cxx_lib/inc/timer_11xx.h"
 334              		.file 7 "../lpc11cx4-library/lpc_chip_11cxx_lib/inc/chip.h"