ARM GAS  /tmp/ccxbcTnl.s 			page 1


   1              		.cpu cortex-m0
   2              		.fpu softvfp
   3              		.eabi_attribute 20, 1	@ Tag_ABI_FP_denormal
   4              		.eabi_attribute 21, 1	@ Tag_ABI_FP_exceptions
   5              		.eabi_attribute 23, 3	@ Tag_ABI_FP_number_model
   6              		.eabi_attribute 24, 1	@ Tag_ABI_align8_needed
   7              		.eabi_attribute 25, 1	@ Tag_ABI_align8_preserved
   8              		.eabi_attribute 26, 1	@ Tag_ABI_enum_size
   9              		.eabi_attribute 30, 2	@ Tag_ABI_optimization_goals
  10              		.eabi_attribute 34, 0	@ Tag_CPU_unaligned_access
  11              		.eabi_attribute 18, 4	@ Tag_ABI_PCS_wchar_t
  12              		.file	"util.c"
  13              	@ GNU C (GNU Tools for ARM Embedded Processors) version 4.9.3 20150303 (release) [ARM/embedded-4_9-
  14              	@	compiled by GNU C version 4.8.2, GMP version 5.1.3, MPFR version 3.1.2-p3, MPC version 1.0.1
  15              	@ GGC heuristics: --param ggc-min-expand=100 --param ggc-min-heapsize=131072
  16              	@ options passed:  -I . -I ../lpc11cx4-library/lpc_chip_11cxx_lib/inc
  17              	@ -I ../lpc11cx4-library/evt_lib/inc -I inc -imultilib armv6-m
  18              	@ -iprefix /usr/bin/../lib/gcc/arm-none-eabi/4.9.3/
  19              	@ -isysroot /usr/bin/../arm-none-eabi -MD bin/util.d -MF bin/util.d -MP
  20              	@ -MQ bin/util.o -D__USES_INITFINI__ -D CORE_M0
  21              	@ ../lpc11cx4-library/evt_lib/src/util.c -mcpu=cortex-m0 -mthumb
  22              	@ -auxbase-strip bin/util.o -g -ggdb3 -O2 -Wall -Wstrict-prototypes -Wextra
  23              	@ -std=gnu90 -ffunction-sections -fdata-sections -fverbose-asm
  24              	@ options enabled:  -faggressive-loop-optimizations -fauto-inc-dec
  25              	@ -fbranch-count-reg -fcaller-saves -fcombine-stack-adjustments -fcommon
  26              	@ -fcompare-elim -fcprop-registers -fcrossjumping -fcse-follow-jumps
  27              	@ -fdata-sections -fdefer-pop -fdelete-null-pointer-checks -fdevirtualize
  28              	@ -fdevirtualize-speculatively -fdwarf2-cfi-asm -fearly-inlining
  29              	@ -feliminate-unused-debug-types -fexpensive-optimizations
  30              	@ -fforward-propagate -ffunction-cse -ffunction-sections -fgcse -fgcse-lm
  31              	@ -fgnu-runtime -fgnu-unique -fguess-branch-probability
  32              	@ -fhoist-adjacent-loads -fident -fif-conversion -fif-conversion2
  33              	@ -findirect-inlining -finline -finline-atomics
  34              	@ -finline-functions-called-once -finline-small-functions -fipa-cp
  35              	@ -fipa-profile -fipa-pure-const -fipa-reference -fipa-sra
  36              	@ -fira-hoist-pressure -fira-share-save-slots -fira-share-spill-slots
  37              	@ -fisolate-erroneous-paths-dereference -fivopts -fkeep-static-consts
  38              	@ -fleading-underscore -flifetime-dse -fmath-errno -fmerge-constants
  39              	@ -fmerge-debug-strings -fmove-loop-invariants -fomit-frame-pointer
  40              	@ -foptimize-sibling-calls -foptimize-strlen -fpartial-inlining -fpeephole
  41              	@ -fpeephole2 -fprefetch-loop-arrays -freg-struct-return -freorder-blocks
  42              	@ -freorder-functions -frerun-cse-after-loop
  43              	@ -fsched-critical-path-heuristic -fsched-dep-count-heuristic
  44              	@ -fsched-group-heuristic -fsched-interblock -fsched-last-insn-heuristic
  45              	@ -fsched-pressure -fsched-rank-heuristic -fsched-spec
  46              	@ -fsched-spec-insn-heuristic -fsched-stalled-insns-dep -fschedule-insns2
  47              	@ -fsection-anchors -fshow-column -fshrink-wrap -fsigned-zeros
  48              	@ -fsplit-ivs-in-unroller -fsplit-wide-types -fstrict-aliasing
  49              	@ -fstrict-overflow -fstrict-volatile-bitfields -fsync-libcalls
  50              	@ -fthread-jumps -ftoplevel-reorder -ftrapping-math -ftree-bit-ccp
  51              	@ -ftree-builtin-call-dce -ftree-ccp -ftree-ch -ftree-coalesce-vars
  52              	@ -ftree-copy-prop -ftree-copyrename -ftree-cselim -ftree-dce
  53              	@ -ftree-dominator-opts -ftree-dse -ftree-forwprop -ftree-fre
  54              	@ -ftree-loop-if-convert -ftree-loop-im -ftree-loop-ivcanon
  55              	@ -ftree-loop-optimize -ftree-parallelize-loops= -ftree-phiprop -ftree-pre
  56              	@ -ftree-pta -ftree-reassoc -ftree-scev-cprop -ftree-sink -ftree-slsr
  57              	@ -ftree-sra -ftree-switch-conversion -ftree-tail-merge -ftree-ter
ARM GAS  /tmp/ccxbcTnl.s 			page 2


  58              	@ -ftree-vrp -funit-at-a-time -fvar-tracking -fvar-tracking-assignments
  59              	@ -fverbose-asm -fzero-initialized-in-bss -mlittle-endian -mlra
  60              	@ -mpic-data-is-text-relative -msched-prolog -mthumb
  61              	@ -mvectorize-with-neon-quad
  62              	
  63              		.text
  64              	.Ltext0:
  65              		.cfi_sections	.debug_frame
  66              		.section	.text.__reverse,"ax",%progbits
  67              		.align	2
  68              		.global	__reverse
  69              		.code	16
  70              		.thumb_func
  71              		.type	__reverse, %function
  72              	__reverse:
  73              	.LFB0:
  74              		.file 1 "../lpc11cx4-library/evt_lib/src/util.c"
   1:../lpc11cx4-library/evt_lib/src/util.c **** #include "util.h"
   2:../lpc11cx4-library/evt_lib/src/util.c **** 
   3:../lpc11cx4-library/evt_lib/src/util.c **** void __reverse(char* begin,char* end) {
  75              		.loc 1 3 0
  76              		.cfi_startproc
  77              	.LVL0:
  78 0000 06E0     		b	.L7	@
  79              	.L5:
   4:../lpc11cx4-library/evt_lib/src/util.c **** 	char temp;
   5:../lpc11cx4-library/evt_lib/src/util.c **** 
   6:../lpc11cx4-library/evt_lib/src/util.c **** 	while (end  >begin)
   7:../lpc11cx4-library/evt_lib/src/util.c **** 	{
   8:../lpc11cx4-library/evt_lib/src/util.c **** 		temp = *end;
   9:../lpc11cx4-library/evt_lib/src/util.c **** 		*end-- = *begin;
  80              		.loc 1 9 0
  81 0002 0378     		ldrb	r3, [r0]	@ D.4295, MEM[base: begin_14, offset: 0B]
   8:../lpc11cx4-library/evt_lib/src/util.c **** 		*end-- = *begin;
  82              		.loc 1 8 0
  83 0004 0A78     		ldrb	r2, [r1]	@ temp, MEM[base: end_17, offset: 0B]
  84              	.LVL1:
  10:../lpc11cx4-library/evt_lib/src/util.c **** 		*begin++ = temp;
  85              		.loc 1 10 0
  86 0006 0130     		add	r0, r0, #1	@ begin,
  87              	.LVL2:
   9:../lpc11cx4-library/evt_lib/src/util.c **** 		*begin++ = temp;
  88              		.loc 1 9 0
  89 0008 0139     		sub	r1, r1, #1	@ end,
  90              	.LVL3:
  91 000a 4B70     		strb	r3, [r1, #1]	@ D.4295, MEM[base: end_8, offset: 1B]
  92 000c 431E     		sub	r3, r0, #1	@ D.4296, begin,
  93              		.loc 1 10 0
  94 000e 1A70     		strb	r2, [r3]	@ temp, MEM[base: _19, offset: 0B]
  95              	.LVL4:
  96              	.L7:
   6:../lpc11cx4-library/evt_lib/src/util.c **** 	{
  97              		.loc 1 6 0
  98 0010 8142     		cmp	r1, r0	@ end, begin
  99 0012 F6D8     		bhi	.L5	@,
  11:../lpc11cx4-library/evt_lib/src/util.c **** 	}
  12:../lpc11cx4-library/evt_lib/src/util.c **** }
ARM GAS  /tmp/ccxbcTnl.s 			page 3


 100              		.loc 1 12 0
 101              		@ sp needed	@
 102 0014 7047     		bx	lr
 103              		.cfi_endproc
 104              	.LFE0:
 105              		.size	__reverse, .-__reverse
 106 0016 C046     		.section	.text.uint8ToASCIIHex,"ax",%progbits
 107              		.align	2
 108              		.global	uint8ToASCIIHex
 109              		.code	16
 110              		.thumb_func
 111              		.type	uint8ToASCIIHex, %function
 112              	uint8ToASCIIHex:
 113              	.LFB1:
  13:../lpc11cx4-library/evt_lib/src/util.c **** 
  14:../lpc11cx4-library/evt_lib/src/util.c **** void uint8ToASCIIHex(uint8_t val, char* str) {
 114              		.loc 1 14 0
 115              		.cfi_startproc
 116              	.LVL5:
  15:../lpc11cx4-library/evt_lib/src/util.c **** 	uint8_t high = val >> 4;
 117              		.loc 1 15 0
 118 0000 0309     		lsr	r3, r0, #4	@ high, val,
 119              	.LVL6:
  16:../lpc11cx4-library/evt_lib/src/util.c **** 	if (high < 10) {
 120              		.loc 1 16 0
 121 0002 092B     		cmp	r3, #9	@ high,
 122 0004 0BD8     		bhi	.L10	@,
  17:../lpc11cx4-library/evt_lib/src/util.c **** 		str[0] = high | 0x30;
 123              		.loc 1 17 0
 124 0006 3022     		mov	r2, #48	@ tmp121,
 125 0008 1343     		orr	r3, r2	@ tmp123, tmp121
 126              	.LVL7:
 127 000a 0B70     		strb	r3, [r1]	@ tmp123, *str_7(D)
  18:../lpc11cx4-library/evt_lib/src/util.c **** 	} else {
  19:../lpc11cx4-library/evt_lib/src/util.c **** 		high -= 9;
  20:../lpc11cx4-library/evt_lib/src/util.c **** 		str[0] = high | 0x40;
  21:../lpc11cx4-library/evt_lib/src/util.c **** 	}
  22:../lpc11cx4-library/evt_lib/src/util.c **** 
  23:../lpc11cx4-library/evt_lib/src/util.c **** 	uint8_t low = val & 0x0F;
 128              		.loc 1 23 0
 129 000c 0F23     		mov	r3, #15	@ tmp134,
 130 000e 1840     		and	r0, r3	@ low, tmp134
 131              	.LVL8:
  24:../lpc11cx4-library/evt_lib/src/util.c **** 	if (low < 10) {
 132              		.loc 1 24 0
 133 0010 0928     		cmp	r0, #9	@ low,
 134 0012 0CD9     		bls	.L14	@,
 135              	.L12:
 136              	.LVL9:
  25:../lpc11cx4-library/evt_lib/src/util.c **** 		str[1] = low | 0x30;
  26:../lpc11cx4-library/evt_lib/src/util.c **** 	} else {
  27:../lpc11cx4-library/evt_lib/src/util.c **** 		low -= 9;
  28:../lpc11cx4-library/evt_lib/src/util.c **** 		str[1] = low | 0x40;
 137              		.loc 1 28 0
 138 0014 4023     		mov	r3, #64	@ tmp140,
  27:../lpc11cx4-library/evt_lib/src/util.c **** 		str[1] = low | 0x40;
 139              		.loc 1 27 0
ARM GAS  /tmp/ccxbcTnl.s 			page 4


 140 0016 0938     		sub	r0, r0, #9	@ tmp139,
 141              	.LVL10:
 142              		.loc 1 28 0
 143 0018 1843     		orr	r0, r3	@ tmp143, tmp140
 144 001a 4870     		strb	r0, [r1, #1]	@ tmp143, MEM[(char *)str_7(D) + 1B]
 145              	.L9:
  29:../lpc11cx4-library/evt_lib/src/util.c **** 	}
  30:../lpc11cx4-library/evt_lib/src/util.c **** }
 146              		.loc 1 30 0
 147              		@ sp needed	@
 148 001c 7047     		bx	lr
 149              	.LVL11:
 150              	.L10:
  20:../lpc11cx4-library/evt_lib/src/util.c **** 	}
 151              		.loc 1 20 0
 152 001e 4022     		mov	r2, #64	@ tmp126,
  19:../lpc11cx4-library/evt_lib/src/util.c **** 		str[0] = high | 0x40;
 153              		.loc 1 19 0
 154 0020 093B     		sub	r3, r3, #9	@ tmp125,
 155              	.LVL12:
  20:../lpc11cx4-library/evt_lib/src/util.c **** 	}
 156              		.loc 1 20 0
 157 0022 1343     		orr	r3, r2	@ tmp129, tmp126
 158              	.LVL13:
 159 0024 0B70     		strb	r3, [r1]	@ tmp129, *str_7(D)
  23:../lpc11cx4-library/evt_lib/src/util.c **** 	if (low < 10) {
 160              		.loc 1 23 0
 161 0026 0F23     		mov	r3, #15	@ tmp134,
 162 0028 1840     		and	r0, r3	@ low, tmp134
 163              	.LVL14:
  24:../lpc11cx4-library/evt_lib/src/util.c **** 		str[1] = low | 0x30;
 164              		.loc 1 24 0
 165 002a 0928     		cmp	r0, #9	@ low,
 166 002c F2D8     		bhi	.L12	@,
 167              	.L14:
  25:../lpc11cx4-library/evt_lib/src/util.c **** 	} else {
 168              		.loc 1 25 0
 169 002e 3023     		mov	r3, #48	@ tmp135,
 170 0030 1843     		orr	r0, r3	@ tmp137, tmp135
 171              	.LVL15:
 172 0032 4870     		strb	r0, [r1, #1]	@ tmp137, MEM[(char *)str_7(D) + 1B]
 173 0034 F2E7     		b	.L9	@
 174              		.cfi_endproc
 175              	.LFE1:
 176              		.size	uint8ToASCIIHex, .-uint8ToASCIIHex
 177 0036 C046     		.section	.text.uint16ToASCIIHex,"ax",%progbits
 178              		.align	2
 179              		.global	uint16ToASCIIHex
 180              		.code	16
 181              		.thumb_func
 182              		.type	uint16ToASCIIHex, %function
 183              	uint16ToASCIIHex:
 184              	.LFB2:
  31:../lpc11cx4-library/evt_lib/src/util.c **** 
  32:../lpc11cx4-library/evt_lib/src/util.c **** void uint16ToASCIIHex(uint16_t val, char* str) {
 185              		.loc 1 32 0
 186              		.cfi_startproc
ARM GAS  /tmp/ccxbcTnl.s 			page 5


 187              	.LVL16:
  33:../lpc11cx4-library/evt_lib/src/util.c **** 	uint8ToASCIIHex(val >> 8, str);
 188              		.loc 1 33 0
 189 0000 030A     		lsr	r3, r0, #8	@ D.4303, val,
 190              	.LVL17:
  32:../lpc11cx4-library/evt_lib/src/util.c **** 	uint8ToASCIIHex(val >> 8, str);
 191              		.loc 1 32 0
 192 0002 10B5     		push	{r4, lr}	@
 193              		.cfi_def_cfa_offset 8
 194              		.cfi_offset 4, -8
 195              		.cfi_offset 14, -4
 196              	.LBB8:
 197              	.LBB9:
  15:../lpc11cx4-library/evt_lib/src/util.c **** 	if (high < 10) {
 198              		.loc 1 15 0
 199 0004 1A09     		lsr	r2, r3, #4	@ high, D.4303,
 200              	.LVL18:
  16:../lpc11cx4-library/evt_lib/src/util.c **** 		str[0] = high | 0x30;
 201              		.loc 1 16 0
 202 0006 092A     		cmp	r2, #9	@ high,
 203 0008 19D8     		bhi	.L16	@,
  17:../lpc11cx4-library/evt_lib/src/util.c **** 	} else {
 204              		.loc 1 17 0
 205 000a 3024     		mov	r4, #48	@ tmp134,
 206 000c 2243     		orr	r2, r4	@ tmp136, tmp134
 207              	.LVL19:
 208 000e 0A70     		strb	r2, [r1]	@ tmp136, *str_5(D)
  23:../lpc11cx4-library/evt_lib/src/util.c **** 	if (low < 10) {
 209              		.loc 1 23 0
 210 0010 0F22     		mov	r2, #15	@ tmp147,
 211 0012 1340     		and	r3, r2	@ low, tmp147
 212              	.LVL20:
  24:../lpc11cx4-library/evt_lib/src/util.c **** 		str[1] = low | 0x30;
 213              		.loc 1 24 0
 214 0014 092B     		cmp	r3, #9	@ low,
 215 0016 1AD8     		bhi	.L18	@,
 216              	.LVL21:
 217              	.L25:
  25:../lpc11cx4-library/evt_lib/src/util.c **** 	} else {
 218              		.loc 1 25 0
 219 0018 3022     		mov	r2, #48	@ tmp148,
 220              	.LBE9:
 221              	.LBE8:
  34:../lpc11cx4-library/evt_lib/src/util.c **** 	uint8ToASCIIHex(val & 0x00FF, str + 2);
 222              		.loc 1 34 0
 223 001a C0B2     		uxtb	r0, r0	@ D.4303, val
 224              	.LVL22:
 225              	.LBB13:
 226              	.LBB10:
  25:../lpc11cx4-library/evt_lib/src/util.c **** 	} else {
 227              		.loc 1 25 0
 228 001c 1343     		orr	r3, r2	@ tmp150, tmp148
 229              	.LVL23:
 230 001e 4B70     		strb	r3, [r1, #1]	@ tmp150, MEM[(char *)str_5(D) + 1B]
 231              	.LBE10:
 232              	.LBE13:
 233              	.LBB14:
ARM GAS  /tmp/ccxbcTnl.s 			page 6


 234              	.LBB15:
  15:../lpc11cx4-library/evt_lib/src/util.c **** 	if (high < 10) {
 235              		.loc 1 15 0
 236 0020 0309     		lsr	r3, r0, #4	@ high, D.4303,
 237              	.LVL24:
  16:../lpc11cx4-library/evt_lib/src/util.c **** 		str[0] = high | 0x30;
 238              		.loc 1 16 0
 239 0022 092B     		cmp	r3, #9	@ high,
 240 0024 1BD8     		bhi	.L20	@,
 241              	.LVL25:
 242              	.L26:
  17:../lpc11cx4-library/evt_lib/src/util.c **** 	} else {
 243              		.loc 1 17 0
 244 0026 3022     		mov	r2, #48	@ tmp159,
 245 0028 1343     		orr	r3, r2	@ tmp161, tmp159
 246              	.LVL26:
 247 002a 8B70     		strb	r3, [r1, #2]	@ tmp161, MEM[(char *)str_5(D) + 2B]
  23:../lpc11cx4-library/evt_lib/src/util.c **** 	if (low < 10) {
 248              		.loc 1 23 0
 249 002c 0F23     		mov	r3, #15	@ tmp172,
 250 002e 1840     		and	r0, r3	@ low, tmp172
 251              	.LVL27:
  24:../lpc11cx4-library/evt_lib/src/util.c **** 		str[1] = low | 0x30;
 252              		.loc 1 24 0
 253 0030 0928     		cmp	r0, #9	@ low,
 254 0032 1CD9     		bls	.L24	@,
 255              	.L22:
 256              	.LVL28:
  28:../lpc11cx4-library/evt_lib/src/util.c **** 	}
 257              		.loc 1 28 0
 258 0034 4023     		mov	r3, #64	@ tmp178,
  27:../lpc11cx4-library/evt_lib/src/util.c **** 		str[1] = low | 0x40;
 259              		.loc 1 27 0
 260 0036 0938     		sub	r0, r0, #9	@ tmp177,
 261              	.LVL29:
  28:../lpc11cx4-library/evt_lib/src/util.c **** 	}
 262              		.loc 1 28 0
 263 0038 1843     		orr	r0, r3	@ tmp181, tmp178
 264 003a C870     		strb	r0, [r1, #3]	@ tmp181, MEM[(char *)str_5(D) + 3B]
 265              	.L15:
 266              	.LBE15:
 267              	.LBE14:
  35:../lpc11cx4-library/evt_lib/src/util.c **** }
 268              		.loc 1 35 0
 269              		@ sp needed	@
 270 003c 10BD     		pop	{r4, pc}
 271              	.LVL30:
 272              	.L16:
 273              	.LBB17:
 274              	.LBB11:
  20:../lpc11cx4-library/evt_lib/src/util.c **** 	}
 275              		.loc 1 20 0
 276 003e 4024     		mov	r4, #64	@ tmp139,
  19:../lpc11cx4-library/evt_lib/src/util.c **** 		str[0] = high | 0x40;
 277              		.loc 1 19 0
 278 0040 093A     		sub	r2, r2, #9	@ tmp138,
 279              	.LVL31:
ARM GAS  /tmp/ccxbcTnl.s 			page 7


  20:../lpc11cx4-library/evt_lib/src/util.c **** 	}
 280              		.loc 1 20 0
 281 0042 2243     		orr	r2, r4	@ tmp142, tmp139
 282              	.LVL32:
 283 0044 0A70     		strb	r2, [r1]	@ tmp142, *str_5(D)
  23:../lpc11cx4-library/evt_lib/src/util.c **** 	if (low < 10) {
 284              		.loc 1 23 0
 285 0046 0F22     		mov	r2, #15	@ tmp147,
 286 0048 1340     		and	r3, r2	@ low, tmp147
 287              	.LVL33:
  24:../lpc11cx4-library/evt_lib/src/util.c **** 		str[1] = low | 0x30;
 288              		.loc 1 24 0
 289 004a 092B     		cmp	r3, #9	@ low,
 290 004c E4D9     		bls	.L25	@,
 291              	.LVL34:
 292              	.L18:
  28:../lpc11cx4-library/evt_lib/src/util.c **** 	}
 293              		.loc 1 28 0
 294 004e 4022     		mov	r2, #64	@ tmp153,
  27:../lpc11cx4-library/evt_lib/src/util.c **** 		str[1] = low | 0x40;
 295              		.loc 1 27 0
 296 0050 093B     		sub	r3, r3, #9	@ tmp152,
 297              	.LVL35:
  28:../lpc11cx4-library/evt_lib/src/util.c **** 	}
 298              		.loc 1 28 0
 299 0052 1343     		orr	r3, r2	@ tmp156, tmp153
 300              	.LBE11:
 301              	.LBE17:
  34:../lpc11cx4-library/evt_lib/src/util.c **** }
 302              		.loc 1 34 0
 303 0054 C0B2     		uxtb	r0, r0	@ D.4303, val
 304              	.LVL36:
 305              	.LBB18:
 306              	.LBB12:
  28:../lpc11cx4-library/evt_lib/src/util.c **** 	}
 307              		.loc 1 28 0
 308 0056 4B70     		strb	r3, [r1, #1]	@ tmp156, MEM[(char *)str_5(D) + 1B]
 309              	.LBE12:
 310              	.LBE18:
 311              	.LBB19:
 312              	.LBB16:
  15:../lpc11cx4-library/evt_lib/src/util.c **** 	if (high < 10) {
 313              		.loc 1 15 0
 314 0058 0309     		lsr	r3, r0, #4	@ high, D.4303,
 315              	.LVL37:
  16:../lpc11cx4-library/evt_lib/src/util.c **** 		str[0] = high | 0x30;
 316              		.loc 1 16 0
 317 005a 092B     		cmp	r3, #9	@ high,
 318 005c E3D9     		bls	.L26	@,
 319              	.LVL38:
 320              	.L20:
  20:../lpc11cx4-library/evt_lib/src/util.c **** 	}
 321              		.loc 1 20 0
 322 005e 4022     		mov	r2, #64	@ tmp164,
  19:../lpc11cx4-library/evt_lib/src/util.c **** 		str[0] = high | 0x40;
 323              		.loc 1 19 0
 324 0060 093B     		sub	r3, r3, #9	@ tmp163,
ARM GAS  /tmp/ccxbcTnl.s 			page 8


 325              	.LVL39:
  20:../lpc11cx4-library/evt_lib/src/util.c **** 	}
 326              		.loc 1 20 0
 327 0062 1343     		orr	r3, r2	@ tmp167, tmp164
 328 0064 8B70     		strb	r3, [r1, #2]	@ tmp167, MEM[(char *)str_5(D) + 2B]
  23:../lpc11cx4-library/evt_lib/src/util.c **** 	if (low < 10) {
 329              		.loc 1 23 0
 330 0066 0F23     		mov	r3, #15	@ tmp172,
 331 0068 1840     		and	r0, r3	@ low, tmp172
 332              	.LVL40:
  24:../lpc11cx4-library/evt_lib/src/util.c **** 		str[1] = low | 0x30;
 333              		.loc 1 24 0
 334 006a 0928     		cmp	r0, #9	@ low,
 335 006c E2D8     		bhi	.L22	@,
 336              	.L24:
  25:../lpc11cx4-library/evt_lib/src/util.c **** 	} else {
 337              		.loc 1 25 0
 338 006e 3023     		mov	r3, #48	@ tmp173,
 339 0070 1843     		orr	r0, r3	@ tmp175, tmp173
 340              	.LVL41:
 341 0072 C870     		strb	r0, [r1, #3]	@ tmp175, MEM[(char *)str_5(D) + 3B]
 342 0074 E2E7     		b	.L15	@
 343              	.LBE16:
 344              	.LBE19:
 345              		.cfi_endproc
 346              	.LFE2:
 347              		.size	uint16ToASCIIHex, .-uint16ToASCIIHex
 348 0076 C046     		.section	.text.uint32ToASCIIHex,"ax",%progbits
 349              		.align	2
 350              		.global	uint32ToASCIIHex
 351              		.code	16
 352              		.thumb_func
 353              		.type	uint32ToASCIIHex, %function
 354              	uint32ToASCIIHex:
 355              	.LFB3:
  36:../lpc11cx4-library/evt_lib/src/util.c **** 
  37:../lpc11cx4-library/evt_lib/src/util.c **** void uint32ToASCIIHex(uint32_t val, char* str) {
 356              		.loc 1 37 0
 357              		.cfi_startproc
 358              	.LVL42:
 359 0000 38B5     		push	{r3, r4, r5, lr}	@
 360              		.cfi_def_cfa_offset 16
 361              		.cfi_offset 3, -16
 362              		.cfi_offset 4, -12
 363              		.cfi_offset 5, -8
 364              		.cfi_offset 14, -4
 365              		.loc 1 37 0
 366 0002 051C     		mov	r5, r0	@ val, val
 367 0004 0C1C     		mov	r4, r1	@ str, str
  38:../lpc11cx4-library/evt_lib/src/util.c **** 	uint16ToASCIIHex(val >> 16, str);
 368              		.loc 1 38 0
 369 0006 000C     		lsr	r0, r0, #16	@ D.4306, val,
 370              	.LVL43:
 371 0008 FFF7FEFF 		bl	uint16ToASCIIHex	@
 372              	.LVL44:
  39:../lpc11cx4-library/evt_lib/src/util.c **** 	uint16ToASCIIHex(val & 0xFFFF, str + 4);
 373              		.loc 1 39 0
ARM GAS  /tmp/ccxbcTnl.s 			page 9


 374 000c A8B2     		uxth	r0, r5	@ val, val
 375 000e 211D     		add	r1, r4, #4	@ D.4308, str,
 376 0010 FFF7FEFF 		bl	uint16ToASCIIHex	@
 377              	.LVL45:
  40:../lpc11cx4-library/evt_lib/src/util.c **** }
 378              		.loc 1 40 0
 379              		@ sp needed	@
 380              	.LVL46:
 381              	.LVL47:
 382 0014 38BD     		pop	{r3, r4, r5, pc}
 383              		.cfi_endproc
 384              	.LFE3:
 385              		.size	uint32ToASCIIHex, .-uint32ToASCIIHex
 386 0016 C046     		.section	.text.getIDFromBytes,"ax",%progbits
 387              		.align	2
 388              		.global	getIDFromBytes
 389              		.code	16
 390              		.thumb_func
 391              		.type	getIDFromBytes, %function
 392              	getIDFromBytes:
 393              	.LFB4:
  41:../lpc11cx4-library/evt_lib/src/util.c **** 
  42:../lpc11cx4-library/evt_lib/src/util.c **** uint16_t getIDFromBytes(uint8_t high, uint8_t low) {
 394              		.loc 1 42 0
 395              		.cfi_startproc
 396              	.LVL48:
  43:../lpc11cx4-library/evt_lib/src/util.c **** 	return (low >> 5) | (high << 3);
 397              		.loc 1 43 0
 398 0000 4909     		lsr	r1, r1, #5	@ tmp124, low,
 399              	.LVL49:
 400 0002 C000     		lsl	r0, r0, #3	@ D.4313, high,
 401              	.LVL50:
 402 0004 0843     		orr	r0, r1	@ tmp127, tmp124
  44:../lpc11cx4-library/evt_lib/src/util.c **** }
 403              		.loc 1 44 0
 404              		@ sp needed	@
 405 0006 7047     		bx	lr
 406              		.cfi_endproc
 407              	.LFE4:
 408              		.size	getIDFromBytes, .-getIDFromBytes
 409              		.global	__aeabi_idiv
 410              		.global	__aeabi_idivmod
 411              		.section	.text.itoa,"ax",%progbits
 412              		.align	2
 413              		.global	itoa
 414              		.code	16
 415              		.thumb_func
 416              		.type	itoa, %function
 417              	itoa:
 418              	.LFB5:
  45:../lpc11cx4-library/evt_lib/src/util.c **** 
  46:../lpc11cx4-library/evt_lib/src/util.c **** char* itoa(int value, char* buffer, int base) {
 419              		.loc 1 46 0
 420              		.cfi_startproc
 421              	.LVL51:
 422 0000 F8B5     		push	{r3, r4, r5, r6, r7, lr}	@
 423              		.cfi_def_cfa_offset 24
ARM GAS  /tmp/ccxbcTnl.s 			page 10


 424              		.cfi_offset 3, -24
 425              		.cfi_offset 4, -20
 426              		.cfi_offset 5, -16
 427              		.cfi_offset 6, -12
 428              		.cfi_offset 7, -8
 429              		.cfi_offset 14, -4
 430 0002 5F46     		mov	r7, fp	@,
 431 0004 5646     		mov	r6, r10	@,
 432 0006 4D46     		mov	r5, r9	@,
 433 0008 4446     		mov	r4, r8	@,
  47:../lpc11cx4-library/evt_lib/src/util.c **** 	static const char digits[] = "0123456789abcdef";
  48:../lpc11cx4-library/evt_lib/src/util.c **** 
  49:../lpc11cx4-library/evt_lib/src/util.c **** 	char* buffer_copy = buffer;
  50:../lpc11cx4-library/evt_lib/src/util.c **** 	int32_t sign = 0;
  51:../lpc11cx4-library/evt_lib/src/util.c **** 	int32_t quot, rem;
  52:../lpc11cx4-library/evt_lib/src/util.c **** 
  53:../lpc11cx4-library/evt_lib/src/util.c **** 	if ((base >= 2) && (base <= 16))				// is the base valid?
 434              		.loc 1 53 0
 435 000a 931E     		sub	r3, r2, #2	@ D.4328, base,
  46:../lpc11cx4-library/evt_lib/src/util.c **** 	static const char digits[] = "0123456789abcdef";
 436              		.loc 1 46 0
 437 000c F0B4     		push	{r4, r5, r6, r7}	@
 438              		.cfi_def_cfa_offset 40
 439              		.cfi_offset 8, -40
 440              		.cfi_offset 9, -36
 441              		.cfi_offset 10, -32
 442              		.cfi_offset 11, -28
  46:../lpc11cx4-library/evt_lib/src/util.c **** 	static const char digits[] = "0123456789abcdef";
 443              		.loc 1 46 0
 444 000e 8946     		mov	r9, r1	@ buffer, buffer
 445 0010 041C     		mov	r4, r0	@ value, value
 446 0012 161C     		mov	r6, r2	@ base, base
 447 0014 0F1C     		mov	r7, r1	@ buffer, buffer
 448              		.loc 1 53 0
 449 0016 0E2B     		cmp	r3, #14	@ D.4328,
 450 0018 28D8     		bhi	.L30	@,
  50:../lpc11cx4-library/evt_lib/src/util.c **** 	int32_t quot, rem;
 451              		.loc 1 50 0
 452 001a 0023     		mov	r3, #0	@ value,
 453 001c 9B46     		mov	fp, r3	@ value, value
  54:../lpc11cx4-library/evt_lib/src/util.c **** 	{
  55:../lpc11cx4-library/evt_lib/src/util.c **** 		if (base == 10 && (sign = value) < 0)// negative value and base == 10? store the copy (sign)
 454              		.loc 1 55 0
 455 001e 0A2A     		cmp	r2, #10	@ base,
 456 0020 2DD0     		beq	.L39	@,
 457              	.LVL52:
 458              	.L31:
 459 0022 1B4B     		ldr	r3, .L41	@ tmp151,
 460 0024 4D46     		mov	r5, r9	@ buffer, buffer
 461 0026 9A46     		mov	r10, r3	@ tmp151, tmp151
 462 0028 00E0     		b	.L32	@
 463              	.LVL53:
 464              	.L37:
  56:../lpc11cx4-library/evt_lib/src/util.c **** 			value = -value;					// make it positive
  57:../lpc11cx4-library/evt_lib/src/util.c **** 		do {
  58:../lpc11cx4-library/evt_lib/src/util.c **** 			quot = value / base;				// calculate quotient and remainder
  59:../lpc11cx4-library/evt_lib/src/util.c **** 			rem = value % base;
ARM GAS  /tmp/ccxbcTnl.s 			page 11


  60:../lpc11cx4-library/evt_lib/src/util.c **** 			*buffer++ = digits[rem];		// append the remainder to the string
 465              		.loc 1 60 0
 466 002a 3D1C     		mov	r5, r7	@ buffer, buffer
 467              	.LVL54:
 468              	.L32:
  58:../lpc11cx4-library/evt_lib/src/util.c **** 			rem = value % base;
 469              		.loc 1 58 0 discriminator 1
 470 002c 201C     		mov	r0, r4	@, value
 471 002e 311C     		mov	r1, r6	@, base
 472 0030 FFF7FEFF 		bl	__aeabi_idiv	@
 473              	.LVL55:
 474 0034 8046     		mov	r8, r0	@ tmp132,
 475              	.LVL56:
  59:../lpc11cx4-library/evt_lib/src/util.c **** 			*buffer++ = digits[rem];		// append the remainder to the string
 476              		.loc 1 59 0 discriminator 1
 477 0036 311C     		mov	r1, r6	@, base
 478 0038 201C     		mov	r0, r4	@, value
 479              	.LVL57:
 480 003a FFF7FEFF 		bl	__aeabi_idivmod	@
 481              	.LVL58:
 482              		.loc 1 60 0 discriminator 1
 483 003e 5346     		mov	r3, r10	@ tmp151, tmp151
 484 0040 4446     		mov	r4, r8	@ value, tmp132
 485              	.LVL59:
 486 0042 5B5C     		ldrb	r3, [r3, r1]	@ tmp141, digits
 487 0044 6F1C     		add	r7, r5, #1	@ buffer, buffer,
 488              	.LVL60:
 489 0046 2B70     		strb	r3, [r5]	@ tmp141, MEM[base: _26, offset: 0B]
 490              	.LVL61:
  61:../lpc11cx4-library/evt_lib/src/util.c **** 		} while ((value = quot));				// loop while there is something to convert
 491              		.loc 1 61 0 discriminator 1
 492 0048 002C     		cmp	r4, #0	@ value,
 493 004a EED1     		bne	.L37	@,
  62:../lpc11cx4-library/evt_lib/src/util.c **** 
  63:../lpc11cx4-library/evt_lib/src/util.c **** 		if (sign<0)							// was the value negative?
 494              		.loc 1 63 0
 495 004c 5B46     		mov	r3, fp	@ value, value
 496 004e 002B     		cmp	r3, #0	@ value,
 497 0050 1ADB     		blt	.L40	@,
 498              	.L33:
  64:../lpc11cx4-library/evt_lib/src/util.c **** 			*buffer++ = '-';					// append the sign
  65:../lpc11cx4-library/evt_lib/src/util.c **** 
  66:../lpc11cx4-library/evt_lib/src/util.c **** 		__reverse(buffer_copy, buffer-1);		// reverse the string
 499              		.loc 1 66 0
 500 0052 7B1E     		sub	r3, r7, #1	@ end, buffer,
 501              	.LVL62:
 502              	.LBB20:
 503              	.LBB21:
   6:../lpc11cx4-library/evt_lib/src/util.c **** 	{
 504              		.loc 1 6 0
 505 0054 9945     		cmp	r9, r3	@ buffer, end
 506 0056 09D2     		bcs	.L30	@,
 507 0058 4A46     		mov	r2, r9	@ buffer, buffer
 508              	.LVL63:
 509              	.L34:
   9:../lpc11cx4-library/evt_lib/src/util.c **** 		*begin++ = temp;
 510              		.loc 1 9 0
ARM GAS  /tmp/ccxbcTnl.s 			page 12


 511 005a 1178     		ldrb	r1, [r2]	@ D.4329, MEM[base: buffer_37, offset: 0B]
   8:../lpc11cx4-library/evt_lib/src/util.c **** 		*end-- = *begin;
 512              		.loc 1 8 0
 513 005c 1878     		ldrb	r0, [r3]	@ temp, MEM[base: end_43, offset: 0B]
 514              	.LVL64:
  10:../lpc11cx4-library/evt_lib/src/util.c **** 	}
 515              		.loc 1 10 0
 516 005e 0132     		add	r2, r2, #1	@ buffer,
 517              	.LVL65:
   9:../lpc11cx4-library/evt_lib/src/util.c **** 		*begin++ = temp;
 518              		.loc 1 9 0
 519 0060 013B     		sub	r3, r3, #1	@ end,
 520              	.LVL66:
 521 0062 5970     		strb	r1, [r3, #1]	@ D.4329, MEM[base: end_31, offset: 1B]
 522 0064 511E     		sub	r1, r2, #1	@ D.4327, buffer,
  10:../lpc11cx4-library/evt_lib/src/util.c **** 	}
 523              		.loc 1 10 0
 524 0066 0870     		strb	r0, [r1]	@ temp, MEM[base: _5, offset: 0B]
   6:../lpc11cx4-library/evt_lib/src/util.c **** 	{
 525              		.loc 1 6 0
 526 0068 9342     		cmp	r3, r2	@ end, buffer
 527 006a F6D8     		bhi	.L34	@,
 528              	.LVL67:
 529              	.L30:
 530              	.LBE21:
 531              	.LBE20:
  67:../lpc11cx4-library/evt_lib/src/util.c **** 	}
  68:../lpc11cx4-library/evt_lib/src/util.c **** 
  69:../lpc11cx4-library/evt_lib/src/util.c **** 	*buffer='\0';
 532              		.loc 1 69 0
 533 006c 0023     		mov	r3, #0	@ tmp148,
  70:../lpc11cx4-library/evt_lib/src/util.c **** 	return buffer_copy;
  71:../lpc11cx4-library/evt_lib/src/util.c **** }...
 534              		.loc 1 71 0
 535 006e 4846     		mov	r0, r9	@, buffer
  69:../lpc11cx4-library/evt_lib/src/util.c **** 	*buffer='\0';
 536              		.loc 1 69 0
 537 0070 3B70     		strb	r3, [r7]	@ tmp148, *buffer_4
 538              		.loc 1 71 0
 539              		@ sp needed	@
 540              	.LVL68:
 541              	.LVL69:
 542              	.LVL70:
 543              	.LVL71:
 544 0072 3CBC     		pop	{r2, r3, r4, r5}
 545 0074 9046     		mov	r8, r2
 546 0076 9946     		mov	r9, r3
 547 0078 A246     		mov	r10, r4
 548 007a AB46     		mov	fp, r5
 549 007c F8BD     		pop	{r3, r4, r5, r6, r7, pc}
 550              	.LVL72:
 551              	.L39:
 552 007e C317     		asr	r3, r0, #31	@ tmp152, value,
 553 0080 C418     		add	r4, r0, r3	@ value, value, tmp152
 554 0082 8346     		mov	fp, r0	@ value, value
 555 0084 5C40     		eor	r4, r3	@ value, tmp152
 556 0086 CCE7     		b	.L31	@
ARM GAS  /tmp/ccxbcTnl.s 			page 13


 557              	.LVL73:
 558              	.L40:
  64:../lpc11cx4-library/evt_lib/src/util.c **** 			*buffer++ = '-';					// append the sign
 559              		.loc 1 64 0
 560 0088 2D23     		mov	r3, #45	@ tmp143,
 561              	.LVL74:
 562 008a AF1C     		add	r7, r5, #2	@ buffer, buffer,
 563              	.LVL75:
 564 008c 6B70     		strb	r3, [r5, #1]	@ tmp143, MEM[(char *)buffer_32 + 1B]
 565 008e E0E7     		b	.L33	@
 566              	.L42:
 567              		.align	2
 568              	.L41:
 569 0090 00000000 		.word	.LANCHOR0
 570              		.cfi_endproc
 571              	.LFE5:
 572              		.size	itoa, .-itoa
 573              		.section	.rodata.digits.4205,"a",%progbits
 574              		.align	2
 575              		.set	.LANCHOR0,. + 0
 576              		.type	digits.4205, %object
 577              		.size	digits.4205, 17
 578              	digits.4205:
 579 0000 30313233 		.ascii	"0123456789abcdef\000"
 579      34353637 
 579      38396162 
 579      63646566 
 579      00
 580 0011 000000   		.text
 581              	.Letext0:
 582              		.file 2 "/usr/arm-none-eabi/include/machine/_default_types.h"
 583              		.file 3 "/usr/arm-none-eabi/include/stdint.h"